ARM GAS  C:\msys64\tmp\ccdMD31d.s 			page 1


   1              		.syntax unified
   2              		.cpu cortex-m4
   3              		.eabi_attribute 27, 1
   4              		.eabi_attribute 28, 1
   5              		.fpu fpv4-sp-d16
   6              		.eabi_attribute 20, 1
   7              		.eabi_attribute 21, 1
   8              		.eabi_attribute 23, 3
   9              		.eabi_attribute 24, 1
  10              		.eabi_attribute 25, 1
  11              		.eabi_attribute 26, 1
  12              		.eabi_attribute 30, 4
  13              		.eabi_attribute 34, 1
  14              		.eabi_attribute 18, 4
  15              		.thumb
  16              		.syntax unified
  17              		.file	"flanger.cpp"
  18              		.text
  19              	.Ltext0:
  20              		.cfi_sections	.debug_frame
  21              		.align	1
  22              		.global	_hook_init
  23              		.thumb
  24              		.thumb_func
  25              		.type	_hook_init, %function
  26              	_hook_init:
  27              	.LFB316:
  28              		.file 1 "./src/flanger.cpp"
  29              		.loc 1 32 0
  30              		.cfi_startproc
  31              		@ args = 0, pretend = 0, frame = 0
  32              		@ frame_needed = 0, uses_anonymous_args = 0
  33              		@ link register save eliminated.
  34              	.LVL0:
  35              	.LBB43:
  36              	.LBB44:
  37              		.file 2 "../inc/dsp/delayline.hpp"
  38              		.loc 2 114 0
  39 0000 154B     		ldr	r3, .L5
  40 0002 1649     		ldr	r1, .L5+4
  41              	.LVL1:
  42 0004 1960     		str	r1, [r3]
  43              		.loc 2 115 0
  44 0006 4FF48022 		mov	r2, #262144
  45 000a 9A60     		str	r2, [r3, #8]
  46              		.loc 2 116 0
  47 000c 013A     		subs	r2, r2, #1
  48 000e DA60     		str	r2, [r3, #12]
  49              		.loc 2 117 0
  50 0010 0022     		movs	r2, #0
  51 0012 1A61     		str	r2, [r3, #16]
  52              	.LVL2:
  53              	.LBE44:
  54              	.LBE43:
  55              	.LBB45:
  56              	.LBB46:
  57              	.LBB47:
ARM GAS  C:\msys64\tmp\ccdMD31d.s 			page 2


  58              		.file 3 "../inc/utils/buffer_ops.h"
  59              		.loc 3 109 0
  60 0014 0020     		movs	r0, #0
  61              	.LVL3:
  62 0016 01F11002 		add	r2, r1, #16
  63 001a 01F11011 		add	r1, r1, #1048592
  64              	.LVL4:
  65              	.L2:
  66 001e 42F8100C 		str	r0, [r2, #-16]	@ float
  67              	.LVL5:
  68 0022 42F80C0C 		str	r0, [r2, #-12]	@ float
  69              	.LVL6:
  70 0026 42F8080C 		str	r0, [r2, #-8]	@ float
  71              	.LVL7:
  72 002a 42F8040C 		str	r0, [r2, #-4]	@ float
  73 002e 1032     		adds	r2, r2, #16
  74              	.LVL8:
  75              		.loc 3 108 0
  76 0030 9142     		cmp	r1, r2
  77 0032 F4D1     		bne	.L2
  78              	.LVL9:
  79              	.LBE47:
  80              	.LBE46:
  81              	.LBE45:
  82              	.LBB48:
  83              	.LBB49:
  84              		.file 4 "../inc/dsp/simplelfo.hpp"
  85              		.loc 4 91 0
  86 0034 4FF00042 		mov	r2, #-2147483648
  87 0038 5A61     		str	r2, [r3, #20]
  88              	.LVL10:
  89              	.LBE49:
  90              	.LBE48:
  91              		.loc 1 36 0
  92 003a 4FF07C52 		mov	r2, #1056964608
  93 003e DA61     		str	r2, [r3, #28]	@ float
  94              	.LVL11:
  95              		.loc 1 37 0
  96 0040 074A     		ldr	r2, .L5+8
  97              	.LBB50:
  98              	.LBB51:
  99              		.loc 4 103 0
 100 0042 9FED087A 		vldr.32	s14, .L5+12
 101 0046 D2ED007A 		vldr.32	s15, [r2]
 102 004a 67EE877A 		vmul.f32	s15, s15, s14
 103 004e FEEEC07A 		vcvt.s32.f32	s15, s15, #32
 104 0052 C3ED067A 		vstr.32	s15, [r3, #24]	@ int
 105              	.LVL12:
 106 0056 7047     		bx	lr
 107              	.L6:
 108              		.align	2
 109              	.L5:
 110 0058 00000000 		.word	.LANCHOR0
 111 005c 00000000 		.word	.LANCHOR1
 112 0060 00000000 		.word	.LANCHOR2
 113 0064 3EC3AE37 		.word	934200126
 114              	.LBE51:
ARM GAS  C:\msys64\tmp\ccdMD31d.s 			page 3


 115              	.LBE50:
 116              		.cfi_endproc
 117              	.LFE316:
 118              		.size	_hook_init, .-_hook_init
 119              		.align	1
 120              		.global	_hook_process
 121              		.thumb
 122              		.thumb_func
 123              		.type	_hook_process, %function
 124              	_hook_process:
 125              	.LFB317:
 126              		.loc 1 41 0
 127              		.cfi_startproc
 128              		@ args = 0, pretend = 0, frame = 0
 129              		@ frame_needed = 0, uses_anonymous_args = 0
 130              	.LVL13:
 131              		.loc 1 45 0
 132 0068 3A4B     		ldr	r3, .L11
 133              	.LBB52:
 134              	.LBB53:
 135              	.LBB54:
 136              	.LBB55:
 137              		.loc 4 125 0
 138 006a DFED3B3A 		vldr.32	s7, .L11+4
 139              	.LBE55:
 140              	.LBE54:
 141              	.LBE53:
 142              	.LBE52:
 143              		.loc 1 45 0
 144 006e 93ED076A 		vldr.32	s12, [r3, #28]
 145              	.LBB92:
 146              	.LBB88:
 147              	.LBB59:
 148              	.LBB60:
 149              		.loc 2 138 0
 150 0072 9FED3A5A 		vldr.32	s10, .L11+8
 151 0076 DFED3A5A 		vldr.32	s11, .L11+12
 152              	.LBE60:
 153              	.LBE59:
 154              	.LBE88:
 155              	.LBE92:
 156              		.loc 1 41 0
 157 007a 2DE9F047 		push	{r4, r5, r6, r7, r8, r9, r10, lr}
 158              		.cfi_def_cfa_offset 32
 159              		.cfi_offset 4, -32
 160              		.cfi_offset 5, -28
 161              		.cfi_offset 6, -24
 162              		.cfi_offset 7, -20
 163              		.cfi_offset 8, -16
 164              		.cfi_offset 9, -12
 165              		.cfi_offset 10, -8
 166              		.cfi_offset 14, -4
 167 007e D3F81480 		ldr	r8, [r3, #20]
 168 0082 1D69     		ldr	r5, [r3, #16]
 169              	.LBB93:
 170              	.LBB89:
 171              	.LBB65:
ARM GAS  C:\msys64\tmp\ccdMD31d.s 			page 4


 172              	.LBB61:
 173              		.loc 2 138 0
 174 0084 1F68     		ldr	r7, [r3]
 175 0086 D3F80CE0 		ldr	lr, [r3, #12]
 176              	.LBE61:
 177              	.LBE65:
 178              	.LBB66:
 179              	.LBB67:
 180              		.loc 4 82 0
 181 008a 9E69     		ldr	r6, [r3, #24]
 182              	.LBE67:
 183              	.LBE66:
 184              	.LBE89:
 185              	.LBE93:
 186              		.loc 1 43 0
 187 008c C900     		lsls	r1, r1, #3
 188              	.LVL14:
 189 008e 00EB010A 		add	r10, r0, r1
 190              	.LVL15:
 191 0092 C446     		mov	ip, r8
 192              	.LBB94:
 193              	.LBB90:
 194              	.LBB69:
 195              	.LBB68:
 196              		.loc 4 82 0
 197 0094 2A46     		mov	r2, r5
 198              	.LBE68:
 199              	.LBE69:
 200              	.LBB70:
 201              	.LBB62:
 202              		.loc 2 138 0
 203 0096 B7EE004A 		vmov.f32	s8, #1.0e+0
 204 009a F1EE004A 		vmov.f32	s9, #4.0e+0
 205              	.LVL16:
 206              	.L9:
 207              	.LBE62:
 208              	.LBE70:
 209              	.LBE90:
 210              		.loc 1 48 0 discriminator 2
 211 009e 8245     		cmp	r10, r0
 212 00a0 07EE90CA 		vmov	s15, ip	@ int
 213 00a4 00F10804 		add	r4, r0, #8
 214 00a8 A2F10209 		sub	r9, r2, #2
 215 00ac B444     		add	ip, ip, r6
 216 00ae 47D0     		beq	.L8
 217              	.LVL17:
 218              	.LBB91:
 219              	.LBB71:
 220              	.LBB58:
 221              		.loc 4 125 0
 222 00b0 F8EEE77A 		vcvt.f32.s32	s15, s15
 223 00b4 27EEA37A 		vmul.f32	s14, s15, s7
 224              	.LVL18:
 225              	.LBB56:
 226              	.LBB57:
 227              		.file 5 "../inc/utils/float_math.h"
 228              		.loc 5 287 0
ARM GAS  C:\msys64\tmp\ccdMD31d.s 			page 5


 229 00b8 17EE100A 		vmov	r0, s14	@ int
 230              	.LVL19:
 231 00bc 20F00040 		bic	r0, r0, #-2147483648
 232 00c0 07EE900A 		vmov	s15, r0	@ int
 233              	.LBE57:
 234              	.LBE56:
 235              	.LBE58:
 236              	.LBE71:
 237              	.LBB72:
 238              	.LBB63:
 239              		.loc 2 138 0
 240 00c4 77EEC47A 		vsub.f32	s15, s15, s8
 241 00c8 67EE877A 		vmul.f32	s15, s15, s14
 242 00cc B0EE657A 		vmov.f32	s14, s11
 243              	.LVL20:
 244 00d0 67EEA47A 		vmul.f32	s15, s15, s9
 245 00d4 A7EE857A 		vfma.f32	s14, s15, s10
 246 00d8 FCEEC77A 		vcvt.u32.f32	s15, s14
 247              	.LBE63:
 248              	.LBE72:
 249              		.loc 1 55 0
 250 00dc 93ED087A 		vldr.32	s14, [r3, #32]
 251              	.LBB73:
 252              	.LBB64:
 253              		.loc 2 138 0
 254 00e0 17EE900A 		vmov	r0, s15	@ int
 255 00e4 1044     		add	r0, r0, r2
 256 00e6 00EA0E00 		and	r0, r0, lr
 257 00ea 07EB8000 		add	r0, r7, r0, lsl #2
 258              	.LBE64:
 259              	.LBE73:
 260              		.loc 1 55 0
 261 00ee D0ED007A 		vldr.32	s15, [r0]
 262 00f2 67EE877A 		vmul.f32	s15, s15, s14
 263              	.LBB74:
 264              	.LBB75:
 265              		.loc 2 127 0
 266 00f6 0EEA0200 		and	r0, lr, r2
 267              	.LBE75:
 268              	.LBE74:
 269              		.loc 1 55 0
 270 00fa 67EE867A 		vmul.f32	s15, s15, s12
 271              	.LBB78:
 272              	.LBB79:
 273              		.loc 2 127 0
 274 00fe 013A     		subs	r2, r2, #1
 275              	.LBE79:
 276              	.LBE78:
 277              		.loc 1 56 0
 278 0100 C3ED0A7A 		vstr.32	s15, [r3, #40]
 279              		.loc 1 55 0
 280 0104 C3ED097A 		vstr.32	s15, [r3, #36]
 281              		.loc 1 58 0
 282 0108 14ED027A 		vldr.32	s14, [r4, #-8]
 283 010c 77EE877A 		vadd.f32	s15, s15, s14
 284              		.loc 1 59 0
 285 0110 14ED017A 		vldr.32	s14, [r4, #-4]
ARM GAS  C:\msys64\tmp\ccdMD31d.s 			page 6


 286              		.loc 1 58 0
 287 0114 44ED027A 		vstr.32	s15, [r4, #-8]
 288              		.loc 1 59 0
 289 0118 D3ED0A6A 		vldr.32	s13, [r3, #40]
 290 011c 37EE267A 		vadd.f32	s14, s14, s13
 291              	.LBB83:
 292              	.LBB76:
 293              		.loc 2 127 0
 294 0120 07EB8000 		add	r0, r7, r0, lsl #2
 295              	.LBE76:
 296              	.LBE83:
 297              	.LBB84:
 298              	.LBB80:
 299 0124 02EA0E02 		and	r2, r2, lr
 300              	.LBE80:
 301              	.LBE84:
 302              		.loc 1 59 0
 303 0128 04ED017A 		vstr.32	s14, [r4, #-4]
 304              	.LVL21:
 305              	.LBB85:
 306              	.LBB81:
 307              		.loc 2 127 0
 308 012c 07EB8202 		add	r2, r7, r2, lsl #2
 309              	.LBE81:
 310              	.LBE85:
 311              	.LBB86:
 312              	.LBB77:
 313 0130 C0ED007A 		vstr.32	s15, [r0]
 314              	.LVL22:
 315              	.LBE77:
 316              	.LBE86:
 317              		.loc 1 61 0
 318 0134 54F8040C 		ldr	r0, [r4, #-4]	@ float
 319              	.LVL23:
 320              	.LBB87:
 321              	.LBB82:
 322              		.loc 2 127 0
 323 0138 1060     		str	r0, [r2]	@ float
 324              	.LVL24:
 325              	.LBE82:
 326              	.LBE87:
 327              	.LBE91:
 328              		.loc 1 48 0
 329 013a 4A46     		mov	r2, r9
 330 013c 2046     		mov	r0, r4
 331 013e AEE7     		b	.L9
 332              	.LVL25:
 333              	.L8:
 334 0140 C908     		lsrs	r1, r1, #3
 335 0142 06FB0186 		mla	r6, r6, r1, r8
 336 0146 A5EB4101 		sub	r1, r5, r1, lsl #1
 337 014a 5E61     		str	r6, [r3, #20]
 338 014c 1961     		str	r1, [r3, #16]
 339 014e BDE8F087 		pop	{r4, r5, r6, r7, r8, r9, r10, pc}
 340              	.LVL26:
 341              	.L12:
 342 0152 00BF     		.align	2
ARM GAS  C:\msys64\tmp\ccdMD31d.s 			page 7


 343              	.L11:
 344 0154 00000000 		.word	.LANCHOR0
 345 0158 00000030 		.word	805306368
 346 015c 00007043 		.word	1131413504
 347 0160 00009043 		.word	1133510656
 348              	.LBE94:
 349              		.cfi_endproc
 350              	.LFE317:
 351              		.size	_hook_process, .-_hook_process
 352              		.align	1
 353              		.global	_hook_param
 354              		.thumb
 355              		.thumb_func
 356              		.type	_hook_param, %function
 357              	_hook_param:
 358              	.LFB318:
 359              		.loc 1 66 0
 360              		.cfi_startproc
 361              		@ args = 0, pretend = 0, frame = 0
 362              		@ frame_needed = 0, uses_anonymous_args = 0
 363              		@ link register save eliminated.
 364              	.LVL27:
 365              		.loc 1 67 0
 366 0164 07EE901A 		vmov	s15, r1	@ int
 367              		.loc 1 68 0
 368 0168 0128     		cmp	r0, #1
 369              		.loc 1 67 0
 370 016a FAEEE07A 		vcvt.f32.s32	s15, s15, #31
 371              	.LVL28:
 372              		.loc 1 68 0
 373 016e 07D0     		beq	.L15
 374 0170 02D3     		bcc	.L16
 375 0172 0328     		cmp	r0, #3
 376 0174 13D0     		beq	.L17
 377 0176 7047     		bx	lr
 378              	.L16:
 379              		.loc 1 72 0
 380 0178 0B4B     		ldr	r3, .L18
 381 017a C3ED087A 		vstr.32	s15, [r3, #32]
 382              		.loc 1 73 0
 383 017e 7047     		bx	lr
 384              	.L15:
 385              		.loc 1 75 0
 386 0180 77EEA77A 		vadd.f32	s15, s15, s15
 387              	.LVL29:
 388 0184 094B     		ldr	r3, .L18+4
 389              	.LBB95:
 390              	.LBB96:
 391              		.loc 4 103 0
 392 0186 9FED0A7A 		vldr.32	s14, .L18+8
 393              	.LBE96:
 394              	.LBE95:
 395              		.loc 1 75 0
 396 018a C3ED007A 		vstr.32	s15, [r3]
 397              	.LVL30:
 398              	.LBB98:
 399              	.LBB97:
ARM GAS  C:\msys64\tmp\ccdMD31d.s 			page 8


 400              		.loc 4 103 0
 401 018e 67EE877A 		vmul.f32	s15, s15, s14
 402              	.LVL31:
 403 0192 054B     		ldr	r3, .L18
 404 0194 FEEEC07A 		vcvt.s32.f32	s15, s15, #32
 405 0198 C3ED067A 		vstr.32	s15, [r3, #24]	@ int
 406 019c 7047     		bx	lr
 407              	.LVL32:
 408              	.L17:
 409              	.LBE97:
 410              	.LBE98:
 411              		.loc 1 80 0
 412 019e 024B     		ldr	r3, .L18
 413 01a0 C3ED077A 		vstr.32	s15, [r3, #28]
 414 01a4 7047     		bx	lr
 415              	.L19:
 416 01a6 00BF     		.align	2
 417              	.L18:
 418 01a8 00000000 		.word	.LANCHOR0
 419 01ac 00000000 		.word	.LANCHOR2
 420 01b0 3EC3AE37 		.word	934200126
 421              		.cfi_endproc
 422              	.LFE318:
 423              		.size	_hook_param, .-_hook_param
 424              		.section	.text.startup,"ax",%progbits
 425              		.align	1
 426              		.thumb
 427              		.thumb_func
 428              		.type	_GLOBAL__sub_I_lfo_speed, %function
 429              	_GLOBAL__sub_I_lfo_speed:
 430              	.LFB320:
 431              		.loc 1 85 0
 432              		.cfi_startproc
 433              		@ args = 0, pretend = 0, frame = 0
 434              		@ frame_needed = 0, uses_anonymous_args = 0
 435              		@ link register save eliminated.
 436              	.LVL33:
 437              	.LBB106:
 438              	.LBB107:
 439              	.LBB108:
 440              		.loc 2 74 0
 441 0000 064B     		ldr	r3, .L21
 442 0002 0021     		movs	r1, #0
 443 0004 0022     		movs	r2, #0
 444 0006 5960     		str	r1, [r3, #4]	@ float
 445              	.LBE108:
 446              	.LBE107:
 447              	.LBB110:
 448              	.LBB111:
 449              		.loc 4 69 0
 450 0008 4FF00041 		mov	r1, #-2147483648
 451              	.LBE111:
 452              	.LBE110:
 453              	.LBB113:
 454              	.LBB109:
 455              		.loc 2 74 0
 456 000c 1A60     		str	r2, [r3]
ARM GAS  C:\msys64\tmp\ccdMD31d.s 			page 9


 457 000e 9A60     		str	r2, [r3, #8]
 458 0010 DA60     		str	r2, [r3, #12]
 459 0012 1A61     		str	r2, [r3, #16]
 460              	.LVL34:
 461              	.LBE109:
 462              	.LBE113:
 463              	.LBB114:
 464              	.LBB112:
 465              		.loc 4 69 0
 466 0014 5961     		str	r1, [r3, #20]
 467 0016 9A61     		str	r2, [r3, #24]
 468              	.LVL35:
 469 0018 7047     		bx	lr
 470              	.L22:
 471 001a 00BF     		.align	2
 472              	.L21:
 473 001c 00000000 		.word	.LANCHOR0
 474              	.LBE112:
 475              	.LBE114:
 476              	.LBE106:
 477              		.cfi_endproc
 478              	.LFE320:
 479              		.size	_GLOBAL__sub_I_lfo_speed, .-_GLOBAL__sub_I_lfo_speed
 480              		.section	.init_array,"aw",%init_array
 481              		.align	2
 482 0000 00000000 		.word	_GLOBAL__sub_I_lfo_speed(target1)
 483              		.global	bpm_valf
 484              		.global	wetXNR
 485              		.global	wetXNL
 486              		.global	gain
 487              		.global	s_mix
 488              		.global	lfo_speed
 489              		.data
 490              		.align	2
 491              		.set	.LANCHOR2,. + 0
 492              		.type	lfo_speed, %object
 493              		.size	lfo_speed, 4
 494              	lfo_speed:
 495 0000 0000003F 		.word	1056964608
 496              		.bss
 497              		.align	2
 498              		.set	.LANCHOR0,. + 0
 499              		.type	_ZL7s_delay, %object
 500              		.size	_ZL7s_delay, 20
 501              	_ZL7s_delay:
 502 0000 00000000 		.space	20
 502      00000000 
 502      00000000 
 502      00000000 
 502      00000000 
 503              		.type	_ZL5s_lfo, %object
 504              		.size	_ZL5s_lfo, 8
 505              	_ZL5s_lfo:
 506 0014 00000000 		.space	8
 506      00000000 
 507              		.type	s_mix, %object
 508              		.size	s_mix, 4
ARM GAS  C:\msys64\tmp\ccdMD31d.s 			page 10


 509              	s_mix:
 510 001c 00000000 		.space	4
 511              		.type	gain, %object
 512              		.size	gain, 4
 513              	gain:
 514 0020 00000000 		.space	4
 515              		.type	wetXNL, %object
 516              		.size	wetXNL, 4
 517              	wetXNL:
 518 0024 00000000 		.space	4
 519              		.type	wetXNR, %object
 520              		.size	wetXNR, 4
 521              	wetXNR:
 522 0028 00000000 		.space	4
 523              		.type	bpm_valf, %object
 524              		.size	bpm_valf, 4
 525              	bpm_valf:
 526 002c 00000000 		.space	4
 527              		.section	.sdram,"aw",%progbits
 528              		.align	2
 529              		.set	.LANCHOR1,. + 0
 530              		.type	_ZL11s_delay_ram, %object
 531              		.size	_ZL11s_delay_ram, 768000
 532              	_ZL11s_delay_ram:
 533 0000 00000000 		.space	768000
 533      00000000 
 533      00000000 
 533      00000000 
 533      00000000 
 534              		.text
 535              	.Letext0:
 536              		.file 6 "c:\\users\\bradl\\desktop\\code projects\\korgfx\\korgdelayfxset\\delays\\tools\\gcc\\gcc
 537              		.file 7 "c:\\users\\bradl\\desktop\\code projects\\korgfx\\korgdelayfxset\\delays\\tools\\gcc\\gcc
 538              		.file 8 "c:\\users\\bradl\\desktop\\code projects\\korgfx\\korgdelayfxset\\delays\\tools\\gcc\\gcc
 539              		.file 9 "../../ext/CMSIS/CMSIS/Include/arm_math.h"
 540              		.file 10 "../inc/userdelfx.h"
 541              		.file 11 "../inc/utils/int_math.h"
 542              		.file 12 "../inc/fx_api.h"
 543              		.file 13 "../inc/osc_api.h"
 544              		.file 14 "../inc/userprg.h"
 545              		.section	.debug_info,"",%progbits
 546              	.Ldebug_info0:
 547 0000 A00C0000 		.4byte	0xca0
 548 0004 0400     		.2byte	0x4
 549 0006 00000000 		.4byte	.Ldebug_abbrev0
 550 000a 04       		.byte	0x4
 551 000b 01       		.uleb128 0x1
 552 000c 88000000 		.4byte	.LASF141
 553 0010 04       		.byte	0x4
 554 0011 47070000 		.4byte	.LASF142
 555 0015 12040000 		.4byte	.LASF143
 556 0019 20010000 		.4byte	.Ldebug_ranges0+0x120
 557 001d 00000000 		.4byte	0
 558 0021 00000000 		.4byte	.Ldebug_line0
 559 0025 02       		.uleb128 0x2
 560 0026 04       		.byte	0x4
 561 0027 04       		.byte	0x4
ARM GAS  C:\msys64\tmp\ccdMD31d.s 			page 11


 562 0028 4E020000 		.4byte	.LASF0
 563 002c 03       		.uleb128 0x3
 564 002d 04       		.byte	0x4
 565 002e 05       		.byte	0x5
 566 002f 696E7400 		.ascii	"int\000"
 567 0033 02       		.uleb128 0x2
 568 0034 01       		.byte	0x1
 569 0035 06       		.byte	0x6
 570 0036 BA090000 		.4byte	.LASF1
 571 003a 04       		.uleb128 0x4
 572 003b 07080000 		.4byte	.LASF5
 573 003f 06       		.byte	0x6
 574 0040 1D       		.byte	0x1d
 575 0041 45000000 		.4byte	0x45
 576 0045 02       		.uleb128 0x2
 577 0046 01       		.byte	0x1
 578 0047 08       		.byte	0x8
 579 0048 F2080000 		.4byte	.LASF2
 580 004c 02       		.uleb128 0x2
 581 004d 02       		.byte	0x2
 582 004e 05       		.byte	0x5
 583 004f 02070000 		.4byte	.LASF3
 584 0053 02       		.uleb128 0x2
 585 0054 02       		.byte	0x2
 586 0055 07       		.byte	0x7
 587 0056 C6090000 		.4byte	.LASF4
 588 005a 04       		.uleb128 0x4
 589 005b CF010000 		.4byte	.LASF6
 590 005f 06       		.byte	0x6
 591 0060 3F       		.byte	0x3f
 592 0061 65000000 		.4byte	0x65
 593 0065 02       		.uleb128 0x2
 594 0066 04       		.byte	0x4
 595 0067 05       		.byte	0x5
 596 0068 38070000 		.4byte	.LASF7
 597 006c 04       		.uleb128 0x4
 598 006d 00090000 		.4byte	.LASF8
 599 0071 06       		.byte	0x6
 600 0072 41       		.byte	0x41
 601 0073 77000000 		.4byte	0x77
 602 0077 02       		.uleb128 0x2
 603 0078 04       		.byte	0x4
 604 0079 07       		.byte	0x7
 605 007a 83080000 		.4byte	.LASF9
 606 007e 02       		.uleb128 0x2
 607 007f 08       		.byte	0x8
 608 0080 05       		.byte	0x5
 609 0081 69050000 		.4byte	.LASF10
 610 0085 02       		.uleb128 0x2
 611 0086 08       		.byte	0x8
 612 0087 07       		.byte	0x7
 613 0088 88020000 		.4byte	.LASF11
 614 008c 02       		.uleb128 0x2
 615 008d 04       		.byte	0x4
 616 008e 07       		.byte	0x7
 617 008f A0010000 		.4byte	.LASF12
 618 0093 04       		.uleb128 0x4
ARM GAS  C:\msys64\tmp\ccdMD31d.s 			page 12


 619 0094 F0040000 		.4byte	.LASF13
 620 0098 07       		.byte	0x7
 621 0099 18       		.byte	0x18
 622 009a 3A000000 		.4byte	0x3a
 623 009e 04       		.uleb128 0x4
 624 009f A9080000 		.4byte	.LASF14
 625 00a3 07       		.byte	0x7
 626 00a4 2C       		.byte	0x2c
 627 00a5 5A000000 		.4byte	0x5a
 628 00a9 04       		.uleb128 0x4
 629 00aa FE010000 		.4byte	.LASF15
 630 00ae 07       		.byte	0x7
 631 00af 30       		.byte	0x30
 632 00b0 6C000000 		.4byte	0x6c
 633 00b4 04       		.uleb128 0x4
 634 00b5 31030000 		.4byte	.LASF16
 635 00b9 08       		.byte	0x8
 636 00ba D8       		.byte	0xd8
 637 00bb 8C000000 		.4byte	0x8c
 638 00bf 02       		.uleb128 0x2
 639 00c0 08       		.byte	0x8
 640 00c1 04       		.byte	0x4
 641 00c2 7C060000 		.4byte	.LASF17
 642 00c6 05       		.uleb128 0x5
 643 00c7 65090000 		.4byte	.LASF144
 644 00cb 02       		.uleb128 0x2
 645 00cc 04       		.byte	0x4
 646 00cd 07       		.byte	0x7
 647 00ce 5D080000 		.4byte	.LASF18
 648 00d2 02       		.uleb128 0x2
 649 00d3 01       		.byte	0x1
 650 00d4 08       		.byte	0x8
 651 00d5 79040000 		.4byte	.LASF19
 652 00d9 02       		.uleb128 0x2
 653 00da 08       		.byte	0x8
 654 00db 04       		.byte	0x4
 655 00dc 170A0000 		.4byte	.LASF20
 656 00e0 06       		.uleb128 0x6
 657 00e1 04       		.byte	0x4
 658 00e2 05       		.byte	0x5
 659 00e3 A1       		.byte	0xa1
 660 00e4 50060000 		.4byte	.LASF145
 661 00e8 FF000000 		.4byte	0xff
 662 00ec 07       		.uleb128 0x7
 663 00ed 6600     		.ascii	"f\000"
 664 00ef 05       		.byte	0x5
 665 00f0 A2       		.byte	0xa2
 666 00f1 25000000 		.4byte	0x25
 667 00f5 07       		.uleb128 0x7
 668 00f6 6900     		.ascii	"i\000"
 669 00f8 05       		.byte	0x5
 670 00f9 A3       		.byte	0xa3
 671 00fa A9000000 		.4byte	0xa9
 672 00fe 00       		.byte	0
 673 00ff 04       		.uleb128 0x4
 674 0100 00000000 		.4byte	.LASF21
 675 0104 05       		.byte	0x5
ARM GAS  C:\msys64\tmp\ccdMD31d.s 			page 13


 676 0105 A4       		.byte	0xa4
 677 0106 E0000000 		.4byte	0xe0
 678 010a 08       		.uleb128 0x8
 679 010b 57080000 		.4byte	.LASF22
 680 010f 09       		.byte	0x9
 681 0110 8D01     		.2byte	0x18d
 682 0112 9E000000 		.4byte	0x9e
 683 0116 09       		.uleb128 0x9
 684 0117 01       		.byte	0x1
 685 0118 45000000 		.4byte	0x45
 686 011c 0E       		.byte	0xe
 687 011d 35       		.byte	0x35
 688 011e 47010000 		.4byte	0x147
 689 0122 0A       		.uleb128 0xa
 690 0123 29090000 		.4byte	.LASF23
 691 0127 00       		.byte	0
 692 0128 0A       		.uleb128 0xa
 693 0129 A4070000 		.4byte	.LASF24
 694 012d 01       		.byte	0x1
 695 012e 0A       		.uleb128 0xa
 696 012f 5A020000 		.4byte	.LASF25
 697 0133 02       		.byte	0x2
 698 0134 0A       		.uleb128 0xa
 699 0135 38030000 		.4byte	.LASF26
 700 0139 03       		.byte	0x3
 701 013a 0A       		.uleb128 0xa
 702 013b 6A060000 		.4byte	.LASF27
 703 013f 04       		.byte	0x4
 704 0140 0A       		.uleb128 0xa
 705 0141 BA050000 		.4byte	.LASF28
 706 0145 05       		.byte	0x5
 707 0146 00       		.byte	0
 708 0147 0B       		.uleb128 0xb
 709 0148 01       		.byte	0x1
 710 0149 45000000 		.4byte	0x45
 711 014d 0A       		.byte	0xa
 712 014e 43       		.byte	0x43
 713 014f 19030000 		.4byte	.LASF146
 714 0153 76010000 		.4byte	0x176
 715 0157 0A       		.uleb128 0xa
 716 0158 35080000 		.4byte	.LASF29
 717 015c 00       		.byte	0
 718 015d 0A       		.uleb128 0xa
 719 015e BE030000 		.4byte	.LASF30
 720 0162 01       		.byte	0x1
 721 0163 0A       		.uleb128 0xa
 722 0164 CD050000 		.4byte	.LASF31
 723 0168 02       		.byte	0x2
 724 0169 0A       		.uleb128 0xa
 725 016a 3E090000 		.4byte	.LASF32
 726 016e 03       		.byte	0x3
 727 016f 0A       		.uleb128 0xa
 728 0170 54030000 		.4byte	.LASF33
 729 0174 04       		.byte	0x4
 730 0175 00       		.byte	0
 731 0176 04       		.uleb128 0x4
 732 0177 B8070000 		.4byte	.LASF34
ARM GAS  C:\msys64\tmp\ccdMD31d.s 			page 14


 733 017b 0A       		.byte	0xa
 734 017c 4C       		.byte	0x4c
 735 017d 47010000 		.4byte	0x147
 736 0181 0C       		.uleb128 0xc
 737 0182 04       		.byte	0x4
 738 0183 25000000 		.4byte	0x25
 739 0187 0D       		.uleb128 0xd
 740 0188 64737000 		.ascii	"dsp\000"
 741 018c 04       		.byte	0x4
 742 018d 32       		.byte	0x32
 743 018e 8B050000 		.4byte	0x58b
 744 0192 0E       		.uleb128 0xe
 745 0193 730A0000 		.4byte	.LASF44
 746 0197 08       		.byte	0x8
 747 0198 04       		.byte	0x4
 748 0199 37       		.byte	0x37
 749 019a 40040000 		.4byte	0x440
 750 019e 0F       		.uleb128 0xf
 751 019f AD030000 		.4byte	.LASF35
 752 01a3 04       		.byte	0x4
 753 01a4 2A01     		.2byte	0x12a
 754 01a6 0A010000 		.4byte	0x10a
 755 01aa 00       		.byte	0
 756 01ab 10       		.uleb128 0x10
 757 01ac 773000   		.ascii	"w0\000"
 758 01af 04       		.byte	0x4
 759 01b0 2B01     		.2byte	0x12b
 760 01b2 0A010000 		.4byte	0x10a
 761 01b6 04       		.byte	0x4
 762 01b7 11       		.uleb128 0x11
 763 01b8 730A0000 		.4byte	.LASF44
 764 01bc 04       		.byte	0x4
 765 01bd 44       		.byte	0x44
 766 01be 97030000 		.4byte	.LASF46
 767 01c2 8B050000 		.4byte	0x58b
 768 01c6 CE010000 		.4byte	0x1ce
 769 01ca D4010000 		.4byte	0x1d4
 770 01ce 12       		.uleb128 0x12
 771 01cf 8B050000 		.4byte	0x58b
 772 01d3 00       		.byte	0
 773 01d4 13       		.uleb128 0x13
 774 01d5 6D0A0000 		.4byte	.LASF36
 775 01d9 04       		.byte	0x4
 776 01da 50       		.byte	0x50
 777 01db 59070000 		.4byte	.LASF38
 778 01df E7010000 		.4byte	0x1e7
 779 01e3 ED010000 		.4byte	0x1ed
 780 01e7 12       		.uleb128 0x12
 781 01e8 8B050000 		.4byte	0x58b
 782 01ec 00       		.byte	0
 783 01ed 13       		.uleb128 0x13
 784 01ee 01080000 		.4byte	.LASF37
 785 01f2 04       		.byte	0x4
 786 01f3 59       		.byte	0x59
 787 01f4 6E020000 		.4byte	.LASF39
 788 01f8 00020000 		.4byte	0x200
 789 01fc 06020000 		.4byte	0x206
ARM GAS  C:\msys64\tmp\ccdMD31d.s 			page 15


 790 0200 12       		.uleb128 0x12
 791 0201 8B050000 		.4byte	0x58b
 792 0205 00       		.byte	0
 793 0206 13       		.uleb128 0x13
 794 0207 41070000 		.4byte	.LASF40
 795 020b 04       		.byte	0x4
 796 020c 65       		.byte	0x65
 797 020d 0A050000 		.4byte	.LASF41
 798 0211 19020000 		.4byte	0x219
 799 0215 29020000 		.4byte	0x229
 800 0219 12       		.uleb128 0x12
 801 021a 8B050000 		.4byte	0x58b
 802 021e 14       		.uleb128 0x14
 803 021f 25000000 		.4byte	0x25
 804 0223 14       		.uleb128 0x14
 805 0224 25000000 		.4byte	0x25
 806 0228 00       		.byte	0
 807 0229 13       		.uleb128 0x13
 808 022a A3080000 		.4byte	.LASF42
 809 022e 04       		.byte	0x4
 810 022f 70       		.byte	0x70
 811 0230 F8030000 		.4byte	.LASF43
 812 0234 3C020000 		.4byte	0x23c
 813 0238 47020000 		.4byte	0x247
 814 023c 12       		.uleb128 0x12
 815 023d 8B050000 		.4byte	0x58b
 816 0241 14       		.uleb128 0x14
 817 0242 25000000 		.4byte	0x25
 818 0246 00       		.byte	0
 819 0247 11       		.uleb128 0x11
 820 0248 4C030000 		.4byte	.LASF45
 821 024c 04       		.byte	0x4
 822 024d 7B       		.byte	0x7b
 823 024e B3020000 		.4byte	.LASF47
 824 0252 25000000 		.4byte	0x25
 825 0256 5E020000 		.4byte	0x25e
 826 025a 64020000 		.4byte	0x264
 827 025e 12       		.uleb128 0x12
 828 025f 8B050000 		.4byte	0x58b
 829 0263 00       		.byte	0
 830 0264 11       		.uleb128 0x11
 831 0265 CE070000 		.4byte	.LASF48
 832 0269 04       		.byte	0x4
 833 026a 85       		.byte	0x85
 834 026b 0C020000 		.4byte	.LASF49
 835 026f 25000000 		.4byte	0x25
 836 0273 7B020000 		.4byte	0x27b
 837 0277 81020000 		.4byte	0x281
 838 027b 12       		.uleb128 0x12
 839 027c 8B050000 		.4byte	0x58b
 840 0280 00       		.byte	0
 841 0281 11       		.uleb128 0x11
 842 0282 0D030000 		.4byte	.LASF50
 843 0286 04       		.byte	0x4
 844 0287 91       		.byte	0x91
 845 0288 2F060000 		.4byte	.LASF51
 846 028c 25000000 		.4byte	0x25
ARM GAS  C:\msys64\tmp\ccdMD31d.s 			page 16


 847 0290 98020000 		.4byte	0x298
 848 0294 A3020000 		.4byte	0x2a3
 849 0298 12       		.uleb128 0x12
 850 0299 8B050000 		.4byte	0x58b
 851 029d 14       		.uleb128 0x14
 852 029e 25000000 		.4byte	0x25
 853 02a2 00       		.byte	0
 854 02a3 11       		.uleb128 0x11
 855 02a4 28080000 		.4byte	.LASF52
 856 02a8 04       		.byte	0x4
 857 02a9 9D       		.byte	0x9d
 858 02aa 25050000 		.4byte	.LASF53
 859 02ae 25000000 		.4byte	0x25
 860 02b2 BA020000 		.4byte	0x2ba
 861 02b6 C5020000 		.4byte	0x2c5
 862 02ba 12       		.uleb128 0x12
 863 02bb 8B050000 		.4byte	0x58b
 864 02bf 14       		.uleb128 0x14
 865 02c0 25000000 		.4byte	0x25
 866 02c4 00       		.byte	0
 867 02c5 11       		.uleb128 0x11
 868 02c6 B7060000 		.4byte	.LASF54
 869 02ca 04       		.byte	0x4
 870 02cb A8       		.byte	0xa8
 871 02cc 5B000000 		.4byte	.LASF55
 872 02d0 25000000 		.4byte	0x25
 873 02d4 DC020000 		.4byte	0x2dc
 874 02d8 E2020000 		.4byte	0x2e2
 875 02dc 12       		.uleb128 0x12
 876 02dd 8B050000 		.4byte	0x58b
 877 02e1 00       		.byte	0
 878 02e2 11       		.uleb128 0x11
 879 02e3 3E0A0000 		.4byte	.LASF56
 880 02e7 04       		.byte	0x4
 881 02e8 B1       		.byte	0xb1
 882 02e9 20000000 		.4byte	.LASF57
 883 02ed 25000000 		.4byte	0x25
 884 02f1 F9020000 		.4byte	0x2f9
 885 02f5 FF020000 		.4byte	0x2ff
 886 02f9 12       		.uleb128 0x12
 887 02fa 8B050000 		.4byte	0x58b
 888 02fe 00       		.byte	0
 889 02ff 11       		.uleb128 0x11
 890 0300 89040000 		.4byte	.LASF58
 891 0304 04       		.byte	0x4
 892 0305 BC       		.byte	0xbc
 893 0306 D7070000 		.4byte	.LASF59
 894 030a 25000000 		.4byte	0x25
 895 030e 16030000 		.4byte	0x316
 896 0312 21030000 		.4byte	0x321
 897 0316 12       		.uleb128 0x12
 898 0317 8B050000 		.4byte	0x58b
 899 031b 14       		.uleb128 0x14
 900 031c 25000000 		.4byte	0x25
 901 0320 00       		.byte	0
 902 0321 11       		.uleb128 0x11
 903 0322 0B090000 		.4byte	.LASF60
ARM GAS  C:\msys64\tmp\ccdMD31d.s 			page 17


 904 0326 04       		.byte	0x4
 905 0327 C8       		.byte	0xc8
 906 0328 D1060000 		.4byte	.LASF61
 907 032c 25000000 		.4byte	0x25
 908 0330 38030000 		.4byte	0x338
 909 0334 43030000 		.4byte	0x343
 910 0338 12       		.uleb128 0x12
 911 0339 8B050000 		.4byte	0x58b
 912 033d 14       		.uleb128 0x14
 913 033e 25000000 		.4byte	0x25
 914 0342 00       		.byte	0
 915 0343 11       		.uleb128 0x11
 916 0344 F7010000 		.4byte	.LASF62
 917 0348 04       		.byte	0x4
 918 0349 D3       		.byte	0xd3
 919 034a F4050000 		.4byte	.LASF63
 920 034e 25000000 		.4byte	0x25
 921 0352 5A030000 		.4byte	0x35a
 922 0356 60030000 		.4byte	0x360
 923 035a 12       		.uleb128 0x12
 924 035b 8B050000 		.4byte	0x58b
 925 035f 00       		.byte	0
 926 0360 11       		.uleb128 0x11
 927 0361 84030000 		.4byte	.LASF64
 928 0365 04       		.byte	0x4
 929 0366 DC       		.byte	0xdc
 930 0367 510A0000 		.4byte	.LASF65
 931 036b 25000000 		.4byte	0x25
 932 036f 77030000 		.4byte	0x377
 933 0373 7D030000 		.4byte	0x37d
 934 0377 12       		.uleb128 0x12
 935 0378 8B050000 		.4byte	0x58b
 936 037c 00       		.byte	0
 937 037d 11       		.uleb128 0x11
 938 037e AF090000 		.4byte	.LASF66
 939 0382 04       		.byte	0x4
 940 0383 E7       		.byte	0xe7
 941 0384 1E0A0000 		.4byte	.LASF67
 942 0388 25000000 		.4byte	0x25
 943 038c 94030000 		.4byte	0x394
 944 0390 9F030000 		.4byte	0x39f
 945 0394 12       		.uleb128 0x12
 946 0395 8B050000 		.4byte	0x58b
 947 0399 14       		.uleb128 0x14
 948 039a 25000000 		.4byte	0x25
 949 039e 00       		.byte	0
 950 039f 11       		.uleb128 0x11
 951 03a0 B2030000 		.4byte	.LASF68
 952 03a4 04       		.byte	0x4
 953 03a5 F3       		.byte	0xf3
 954 03a6 D7030000 		.4byte	.LASF69
 955 03aa 25000000 		.4byte	0x25
 956 03ae B6030000 		.4byte	0x3b6
 957 03b2 C1030000 		.4byte	0x3c1
 958 03b6 12       		.uleb128 0x12
 959 03b7 8B050000 		.4byte	0x58b
 960 03bb 14       		.uleb128 0x14
ARM GAS  C:\msys64\tmp\ccdMD31d.s 			page 18


 961 03bc 25000000 		.4byte	0x25
 962 03c0 00       		.byte	0
 963 03c1 15       		.uleb128 0x15
 964 03c2 9F020000 		.4byte	.LASF70
 965 03c6 04       		.byte	0x4
 966 03c7 0001     		.2byte	0x100
 967 03c9 F2090000 		.4byte	.LASF72
 968 03cd 25000000 		.4byte	0x25
 969 03d1 D9030000 		.4byte	0x3d9
 970 03d5 DF030000 		.4byte	0x3df
 971 03d9 12       		.uleb128 0x12
 972 03da 8B050000 		.4byte	0x58b
 973 03de 00       		.byte	0
 974 03df 15       		.uleb128 0x15
 975 03e0 77090000 		.4byte	.LASF71
 976 03e4 04       		.byte	0x4
 977 03e5 0901     		.2byte	0x109
 978 03e7 9A050000 		.4byte	.LASF73
 979 03eb 25000000 		.4byte	0x25
 980 03ef F7030000 		.4byte	0x3f7
 981 03f3 FD030000 		.4byte	0x3fd
 982 03f7 12       		.uleb128 0x12
 983 03f8 8B050000 		.4byte	0x58b
 984 03fc 00       		.byte	0
 985 03fd 15       		.uleb128 0x15
 986 03fe 40020000 		.4byte	.LASF74
 987 0402 04       		.byte	0x4
 988 0403 1401     		.2byte	0x114
 989 0405 AB040000 		.4byte	.LASF75
 990 0409 25000000 		.4byte	0x25
 991 040d 15040000 		.4byte	0x415
 992 0411 20040000 		.4byte	0x420
 993 0415 12       		.uleb128 0x12
 994 0416 8B050000 		.4byte	0x58b
 995 041a 14       		.uleb128 0x14
 996 041b 25000000 		.4byte	0x25
 997 041f 00       		.byte	0
 998 0420 16       		.uleb128 0x16
 999 0421 B1080000 		.4byte	.LASF76
 1000 0425 04       		.byte	0x4
 1001 0426 2001     		.2byte	0x120
 1002 0428 82090000 		.4byte	.LASF147
 1003 042c 25000000 		.4byte	0x25
 1004 0430 34040000 		.4byte	0x434
 1005 0434 12       		.uleb128 0x12
 1006 0435 8B050000 		.4byte	0x58b
 1007 0439 14       		.uleb128 0x14
 1008 043a 25000000 		.4byte	0x25
 1009 043e 00       		.byte	0
 1010 043f 00       		.byte	0
 1011 0440 17       		.uleb128 0x17
 1012 0441 4D080000 		.4byte	.LASF82
 1013 0445 14       		.byte	0x14
 1014 0446 02       		.byte	0x2
 1015 0447 38       		.byte	0x38
 1016 0448 18       		.uleb128 0x18
 1017 0449 8D050000 		.4byte	.LASF77
ARM GAS  C:\msys64\tmp\ccdMD31d.s 			page 19


 1018 044d 02       		.byte	0x2
 1019 044e B0       		.byte	0xb0
 1020 044f 81010000 		.4byte	0x181
 1021 0453 00       		.byte	0
 1022 0454 18       		.uleb128 0x18
 1023 0455 100A0000 		.4byte	.LASF78
 1024 0459 02       		.byte	0x2
 1025 045a B1       		.byte	0xb1
 1026 045b 25000000 		.4byte	0x25
 1027 045f 04       		.byte	0x4
 1028 0460 18       		.uleb128 0x18
 1029 0461 57060000 		.4byte	.LASF79
 1030 0465 02       		.byte	0x2
 1031 0466 B2       		.byte	0xb2
 1032 0467 B4000000 		.4byte	0xb4
 1033 046b 08       		.byte	0x8
 1034 046c 18       		.uleb128 0x18
 1035 046d 87050000 		.4byte	.LASF80
 1036 0471 02       		.byte	0x2
 1037 0472 B3       		.byte	0xb3
 1038 0473 B4000000 		.4byte	0xb4
 1039 0477 0C       		.byte	0xc
 1040 0478 18       		.uleb128 0x18
 1041 0479 7D050000 		.4byte	.LASF81
 1042 047d 02       		.byte	0x2
 1043 047e B4       		.byte	0xb4
 1044 047f A9000000 		.4byte	0xa9
 1045 0483 10       		.byte	0x10
 1046 0484 11       		.uleb128 0x11
 1047 0485 4D080000 		.4byte	.LASF82
 1048 0489 02       		.byte	0x2
 1049 048a 45       		.byte	0x45
 1050 048b 0F060000 		.4byte	.LASF83
 1051 048f 91050000 		.4byte	0x591
 1052 0493 9B040000 		.4byte	0x49b
 1053 0497 A1040000 		.4byte	0x4a1
 1054 049b 12       		.uleb128 0x12
 1055 049c 91050000 		.4byte	0x591
 1056 04a0 00       		.byte	0
 1057 04a1 11       		.uleb128 0x11
 1058 04a2 4D080000 		.4byte	.LASF82
 1059 04a6 02       		.byte	0x2
 1060 04a7 54       		.byte	0x54
 1061 04a8 51050000 		.4byte	.LASF84
 1062 04ac 91050000 		.4byte	0x591
 1063 04b0 B8040000 		.4byte	0x4b8
 1064 04b4 C8040000 		.4byte	0x4c8
 1065 04b8 12       		.uleb128 0x12
 1066 04b9 91050000 		.4byte	0x591
 1067 04bd 14       		.uleb128 0x14
 1068 04be 81010000 		.4byte	0x181
 1069 04c2 14       		.uleb128 0x14
 1070 04c3 B4000000 		.4byte	0xb4
 1071 04c7 00       		.byte	0
 1072 04c8 13       		.uleb128 0x13
 1073 04c9 CF020000 		.4byte	.LASF85
 1074 04cd 02       		.byte	0x2
ARM GAS  C:\msys64\tmp\ccdMD31d.s 			page 20


 1075 04ce 64       		.byte	0x64
 1076 04cf C6080000 		.4byte	.LASF86
 1077 04d3 DB040000 		.4byte	0x4db
 1078 04d7 E1040000 		.4byte	0x4e1
 1079 04db 12       		.uleb128 0x12
 1080 04dc 91050000 		.4byte	0x591
 1081 04e0 00       		.byte	0
 1082 04e1 13       		.uleb128 0x13
 1083 04e2 F4020000 		.4byte	.LASF87
 1084 04e6 02       		.byte	0x2
 1085 04e7 71       		.byte	0x71
 1086 04e8 84070000 		.4byte	.LASF88
 1087 04ec F4040000 		.4byte	0x4f4
 1088 04f0 04050000 		.4byte	0x504
 1089 04f4 12       		.uleb128 0x12
 1090 04f5 91050000 		.4byte	0x591
 1091 04f9 14       		.uleb128 0x14
 1092 04fa 81010000 		.4byte	0x181
 1093 04fe 14       		.uleb128 0x14
 1094 04ff B4000000 		.4byte	0xb4
 1095 0503 00       		.byte	0
 1096 0504 13       		.uleb128 0x13
 1097 0505 77050000 		.4byte	.LASF89
 1098 0509 02       		.byte	0x2
 1099 050a 7E       		.byte	0x7e
 1100 050b 06000000 		.4byte	.LASF90
 1101 050f 17050000 		.4byte	0x517
 1102 0513 22050000 		.4byte	0x522
 1103 0517 12       		.uleb128 0x12
 1104 0518 91050000 		.4byte	0x591
 1105 051c 14       		.uleb128 0x14
 1106 051d 25000000 		.4byte	0x25
 1107 0521 00       		.byte	0
 1108 0522 11       		.uleb128 0x11
 1109 0523 11080000 		.4byte	.LASF91
 1110 0527 02       		.byte	0x2
 1111 0528 89       		.byte	0x89
 1112 0529 D9090000 		.4byte	.LASF92
 1113 052d 25000000 		.4byte	0x25
 1114 0531 39050000 		.4byte	0x539
 1115 0535 44050000 		.4byte	0x544
 1116 0539 12       		.uleb128 0x12
 1117 053a 91050000 		.4byte	0x591
 1118 053e 14       		.uleb128 0x14
 1119 053f A9000000 		.4byte	0xa9
 1120 0543 00       		.byte	0
 1121 0544 11       		.uleb128 0x11
 1122 0545 AD010000 		.4byte	.LASF93
 1123 0549 02       		.byte	0x2
 1124 054a 94       		.byte	0x94
 1125 054b 66080000 		.4byte	.LASF94
 1126 054f 25000000 		.4byte	0x25
 1127 0553 5B050000 		.4byte	0x55b
 1128 0557 66050000 		.4byte	0x566
 1129 055b 12       		.uleb128 0x12
 1130 055c 91050000 		.4byte	0x591
 1131 0560 14       		.uleb128 0x14
ARM GAS  C:\msys64\tmp\ccdMD31d.s 			page 21


 1132 0561 25000000 		.4byte	0x25
 1133 0565 00       		.byte	0
 1134 0566 19       		.uleb128 0x19
 1135 0567 EA050000 		.4byte	.LASF95
 1136 056b 02       		.byte	0x2
 1137 056c A4       		.byte	0xa4
 1138 056d D5020000 		.4byte	.LASF96
 1139 0571 25000000 		.4byte	0x25
 1140 0575 79050000 		.4byte	0x579
 1141 0579 12       		.uleb128 0x12
 1142 057a 91050000 		.4byte	0x591
 1143 057e 14       		.uleb128 0x14
 1144 057f A9000000 		.4byte	0xa9
 1145 0583 14       		.uleb128 0x14
 1146 0584 25000000 		.4byte	0x25
 1147 0588 00       		.byte	0
 1148 0589 00       		.byte	0
 1149 058a 00       		.byte	0
 1150 058b 0C       		.uleb128 0xc
 1151 058c 04       		.byte	0x4
 1152 058d 92010000 		.4byte	0x192
 1153 0591 0C       		.uleb128 0xc
 1154 0592 04       		.byte	0x4
 1155 0593 40040000 		.4byte	0x440
 1156 0597 1A       		.uleb128 0x1a
 1157 0598 E2010000 		.4byte	.LASF97
 1158 059c 05       		.byte	0x5
 1159 059d 1C01     		.2byte	0x11c
 1160 059f 25000000 		.4byte	0x25
 1161 05a3 03       		.byte	0x3
 1162 05a4 BE050000 		.4byte	0x5be
 1163 05a8 1B       		.uleb128 0x1b
 1164 05a9 7800     		.ascii	"x\000"
 1165 05ab 05       		.byte	0x5
 1166 05ac 1C01     		.2byte	0x11c
 1167 05ae 25000000 		.4byte	0x25
 1168 05b2 1C       		.uleb128 0x1c
 1169 05b3 787300   		.ascii	"xs\000"
 1170 05b6 05       		.byte	0x5
 1171 05b7 1E01     		.2byte	0x11e
 1172 05b9 FF000000 		.4byte	0xff
 1173 05bd 00       		.byte	0
 1174 05be 1D       		.uleb128 0x1d
 1175 05bf B7010000 		.4byte	0x1b7
 1176 05c3 03       		.byte	0x3
 1177 05c4 CC050000 		.4byte	0x5cc
 1178 05c8 D6050000 		.4byte	0x5d6
 1179 05cc 1E       		.uleb128 0x1e
 1180 05cd 88060000 		.4byte	.LASF99
 1181 05d1 D6050000 		.4byte	0x5d6
 1182 05d5 00       		.byte	0
 1183 05d6 1F       		.uleb128 0x1f
 1184 05d7 8B050000 		.4byte	0x58b
 1185 05db 20       		.uleb128 0x20
 1186 05dc CE040000 		.4byte	.LASF148
 1187 05e0 03       		.byte	0x3
 1188 05e1 68       		.byte	0x68
ARM GAS  C:\msys64\tmp\ccdMD31d.s 			page 22


 1189 05e2 03       		.byte	0x3
 1190 05e3 09060000 		.4byte	0x609
 1191 05e7 21       		.uleb128 0x21
 1192 05e8 70747200 		.ascii	"ptr\000"
 1193 05ec 03       		.byte	0x3
 1194 05ed 68       		.byte	0x68
 1195 05ee 09060000 		.4byte	0x609
 1196 05f2 21       		.uleb128 0x21
 1197 05f3 6C656E00 		.ascii	"len\000"
 1198 05f7 03       		.byte	0x3
 1199 05f8 69       		.byte	0x69
 1200 05f9 0E060000 		.4byte	0x60e
 1201 05fd 22       		.uleb128 0x22
 1202 05fe 656E6400 		.ascii	"end\000"
 1203 0602 03       		.byte	0x3
 1204 0603 6B       		.byte	0x6b
 1205 0604 13060000 		.4byte	0x613
 1206 0608 00       		.byte	0
 1207 0609 23       		.uleb128 0x23
 1208 060a 81010000 		.4byte	0x181
 1209 060e 1F       		.uleb128 0x1f
 1210 060f A9000000 		.4byte	0xa9
 1211 0613 0C       		.uleb128 0xc
 1212 0614 04       		.byte	0x4
 1213 0615 19060000 		.4byte	0x619
 1214 0619 1F       		.uleb128 0x1f
 1215 061a 25000000 		.4byte	0x25
 1216 061e 24       		.uleb128 0x24
 1217 061f 1C090000 		.4byte	.LASF98
 1218 0623 0B       		.byte	0xb
 1219 0624 75       		.byte	0x75
 1220 0625 A9000000 		.4byte	0xa9
 1221 0629 03       		.byte	0x3
 1222 062a 38060000 		.4byte	0x638
 1223 062e 21       		.uleb128 0x21
 1224 062f 7800     		.ascii	"x\000"
 1225 0631 0B       		.byte	0xb
 1226 0632 75       		.byte	0x75
 1227 0633 A9000000 		.4byte	0xa9
 1228 0637 00       		.byte	0
 1229 0638 1D       		.uleb128 0x1d
 1230 0639 06020000 		.4byte	0x206
 1231 063d 03       		.byte	0x3
 1232 063e 46060000 		.4byte	0x646
 1233 0642 65060000 		.4byte	0x665
 1234 0646 1E       		.uleb128 0x1e
 1235 0647 88060000 		.4byte	.LASF99
 1236 064b D6050000 		.4byte	0x5d6
 1237 064f 21       		.uleb128 0x21
 1238 0650 663000   		.ascii	"f0\000"
 1239 0653 04       		.byte	0x4
 1240 0654 65       		.byte	0x65
 1241 0655 19060000 		.4byte	0x619
 1242 0659 25       		.uleb128 0x25
 1243 065a E0080000 		.4byte	.LASF100
 1244 065e 04       		.byte	0x4
 1245 065f 65       		.byte	0x65
ARM GAS  C:\msys64\tmp\ccdMD31d.s 			page 23


 1246 0660 19060000 		.4byte	0x619
 1247 0664 00       		.byte	0
 1248 0665 1D       		.uleb128 0x1d
 1249 0666 ED010000 		.4byte	0x1ed
 1250 066a 03       		.byte	0x3
 1251 066b 73060000 		.4byte	0x673
 1252 066f 7D060000 		.4byte	0x67d
 1253 0673 1E       		.uleb128 0x1e
 1254 0674 88060000 		.4byte	.LASF99
 1255 0678 D6050000 		.4byte	0x5d6
 1256 067c 00       		.byte	0
 1257 067d 1D       		.uleb128 0x1d
 1258 067e C8040000 		.4byte	0x4c8
 1259 0682 03       		.byte	0x3
 1260 0683 8B060000 		.4byte	0x68b
 1261 0687 95060000 		.4byte	0x695
 1262 068b 1E       		.uleb128 0x1e
 1263 068c 88060000 		.4byte	.LASF99
 1264 0690 95060000 		.4byte	0x695
 1265 0694 00       		.byte	0
 1266 0695 1F       		.uleb128 0x1f
 1267 0696 91050000 		.4byte	0x591
 1268 069a 1D       		.uleb128 0x1d
 1269 069b E1040000 		.4byte	0x4e1
 1270 069f 03       		.byte	0x3
 1271 06a0 A8060000 		.4byte	0x6a8
 1272 06a4 C8060000 		.4byte	0x6c8
 1273 06a8 1E       		.uleb128 0x1e
 1274 06a9 88060000 		.4byte	.LASF99
 1275 06ad 95060000 		.4byte	0x695
 1276 06b1 21       		.uleb128 0x21
 1277 06b2 72616D00 		.ascii	"ram\000"
 1278 06b6 02       		.byte	0x2
 1279 06b7 71       		.byte	0x71
 1280 06b8 81010000 		.4byte	0x181
 1281 06bc 25       		.uleb128 0x25
 1282 06bd 25060000 		.4byte	.LASF101
 1283 06c1 02       		.byte	0x2
 1284 06c2 71       		.byte	0x71
 1285 06c3 B4000000 		.4byte	0xb4
 1286 06c7 00       		.byte	0
 1287 06c8 1D       		.uleb128 0x1d
 1288 06c9 04050000 		.4byte	0x504
 1289 06cd 03       		.byte	0x3
 1290 06ce D6060000 		.4byte	0x6d6
 1291 06d2 E9060000 		.4byte	0x6e9
 1292 06d6 1E       		.uleb128 0x1e
 1293 06d7 88060000 		.4byte	.LASF99
 1294 06db 95060000 		.4byte	0x695
 1295 06df 21       		.uleb128 0x21
 1296 06e0 7300     		.ascii	"s\000"
 1297 06e2 02       		.byte	0x2
 1298 06e3 7E       		.byte	0x7e
 1299 06e4 19060000 		.4byte	0x619
 1300 06e8 00       		.byte	0
 1301 06e9 1D       		.uleb128 0x1d
 1302 06ea D4010000 		.4byte	0x1d4
ARM GAS  C:\msys64\tmp\ccdMD31d.s 			page 24


 1303 06ee 03       		.byte	0x3
 1304 06ef F7060000 		.4byte	0x6f7
 1305 06f3 01070000 		.4byte	0x701
 1306 06f7 1E       		.uleb128 0x1e
 1307 06f8 88060000 		.4byte	.LASF99
 1308 06fc D6050000 		.4byte	0x5d6
 1309 0700 00       		.byte	0
 1310 0701 1D       		.uleb128 0x1d
 1311 0702 22050000 		.4byte	0x522
 1312 0706 03       		.byte	0x3
 1313 0707 0F070000 		.4byte	0x70f
 1314 070b 24070000 		.4byte	0x724
 1315 070f 1E       		.uleb128 0x1e
 1316 0710 88060000 		.4byte	.LASF99
 1317 0714 95060000 		.4byte	0x695
 1318 0718 21       		.uleb128 0x21
 1319 0719 706F7300 		.ascii	"pos\000"
 1320 071d 02       		.byte	0x2
 1321 071e 89       		.byte	0x89
 1322 071f 0E060000 		.4byte	0x60e
 1323 0723 00       		.byte	0
 1324 0724 1D       		.uleb128 0x1d
 1325 0725 47020000 		.4byte	0x247
 1326 0729 03       		.byte	0x3
 1327 072a 32070000 		.4byte	0x732
 1328 072e 47070000 		.4byte	0x747
 1329 0732 1E       		.uleb128 0x1e
 1330 0733 88060000 		.4byte	.LASF99
 1331 0737 D6050000 		.4byte	0x5d6
 1332 073b 26       		.uleb128 0x26
 1333 073c FC070000 		.4byte	.LASF102
 1334 0740 04       		.byte	0x4
 1335 0741 7D       		.byte	0x7d
 1336 0742 19060000 		.4byte	0x619
 1337 0746 00       		.byte	0
 1338 0747 27       		.uleb128 0x27
 1339 0748 8D060000 		.4byte	.LASF149
 1340 074c 01       		.byte	0x1
 1341 074d 68070000 		.4byte	0x768
 1342 0751 25       		.uleb128 0x25
 1343 0752 FE020000 		.4byte	.LASF103
 1344 0756 01       		.byte	0x1
 1345 0757 55       		.byte	0x55
 1346 0758 2C000000 		.4byte	0x2c
 1347 075c 25       		.uleb128 0x25
 1348 075d 79030000 		.4byte	.LASF104
 1349 0761 01       		.byte	0x1
 1350 0762 55       		.byte	0x55
 1351 0763 2C000000 		.4byte	0x2c
 1352 0767 00       		.byte	0
 1353 0768 28       		.uleb128 0x28
 1354 0769 F7060000 		.4byte	.LASF105
 1355 076d 01       		.byte	0x1
 1356 076e 1F       		.byte	0x1f
 1357 076f 00000000 		.4byte	.LFB316
 1358 0773 68000000 		.4byte	.LFE316-.LFB316
 1359 0777 01       		.uleb128 0x1
ARM GAS  C:\msys64\tmp\ccdMD31d.s 			page 25


 1360 0778 9C       		.byte	0x9c
 1361 0779 65080000 		.4byte	0x865
 1362 077d 29       		.uleb128 0x29
 1363 077e D9010000 		.4byte	.LASF106
 1364 0782 01       		.byte	0x1
 1365 0783 1F       		.byte	0x1f
 1366 0784 A9000000 		.4byte	0xa9
 1367 0788 00000000 		.4byte	.LLST0
 1368 078c 2A       		.uleb128 0x2a
 1369 078d 61706900 		.ascii	"api\000"
 1370 0791 01       		.byte	0x1
 1371 0792 1F       		.byte	0x1f
 1372 0793 A9000000 		.4byte	0xa9
 1373 0797 21000000 		.4byte	.LLST1
 1374 079b 2B       		.uleb128 0x2b
 1375 079c 9A060000 		.4byte	0x69a
 1376 07a0 00000000 		.4byte	.LBB43
 1377 07a4 14000000 		.4byte	.LBE43-.LBB43
 1378 07a8 01       		.byte	0x1
 1379 07a9 21       		.byte	0x21
 1380 07aa CA070000 		.4byte	0x7ca
 1381 07ae 2C       		.uleb128 0x2c
 1382 07af BC060000 		.4byte	0x6bc
 1383 07b3 42000000 		.4byte	.LLST2
 1384 07b7 2C       		.uleb128 0x2c
 1385 07b8 B1060000 		.4byte	0x6b1
 1386 07bc 5A000000 		.4byte	.LLST3
 1387 07c0 2C       		.uleb128 0x2c
 1388 07c1 A8060000 		.4byte	0x6a8
 1389 07c5 72000000 		.4byte	.LLST4
 1390 07c9 00       		.byte	0
 1391 07ca 2B       		.uleb128 0x2b
 1392 07cb 7D060000 		.4byte	0x67d
 1393 07cf 14000000 		.4byte	.LBB45
 1394 07d3 20000000 		.4byte	.LBE45-.LBB45
 1395 07d7 01       		.byte	0x1
 1396 07d8 22       		.byte	0x22
 1397 07d9 1C080000 		.4byte	0x81c
 1398 07dd 2C       		.uleb128 0x2c
 1399 07de 8B060000 		.4byte	0x68b
 1400 07e2 8A000000 		.4byte	.LLST5
 1401 07e6 2D       		.uleb128 0x2d
 1402 07e7 DB050000 		.4byte	0x5db
 1403 07eb 14000000 		.4byte	.LBB46
 1404 07ef 20000000 		.4byte	.LBE46-.LBB46
 1405 07f3 02       		.byte	0x2
 1406 07f4 65       		.byte	0x65
 1407 07f5 2C       		.uleb128 0x2c
 1408 07f6 F2050000 		.4byte	0x5f2
 1409 07fa A2000000 		.4byte	.LLST6
 1410 07fe 2C       		.uleb128 0x2c
 1411 07ff E7050000 		.4byte	0x5e7
 1412 0803 B8000000 		.4byte	.LLST7
 1413 0807 2E       		.uleb128 0x2e
 1414 0808 14000000 		.4byte	.LBB47
 1415 080c 20000000 		.4byte	.LBE47-.LBB47
 1416 0810 2F       		.uleb128 0x2f
ARM GAS  C:\msys64\tmp\ccdMD31d.s 			page 26


 1417 0811 FD050000 		.4byte	0x5fd
 1418 0815 0F010000 		.4byte	.LLST8
 1419 0819 00       		.byte	0
 1420 081a 00       		.byte	0
 1421 081b 00       		.byte	0
 1422 081c 2B       		.uleb128 0x2b
 1423 081d 65060000 		.4byte	0x665
 1424 0821 34000000 		.4byte	.LBB48
 1425 0825 06000000 		.4byte	.LBE48-.LBB48
 1426 0829 01       		.byte	0x1
 1427 082a 23       		.byte	0x23
 1428 082b 39080000 		.4byte	0x839
 1429 082f 2C       		.uleb128 0x2c
 1430 0830 73060000 		.4byte	0x673
 1431 0834 27010000 		.4byte	.LLST9
 1432 0838 00       		.byte	0
 1433 0839 2D       		.uleb128 0x2d
 1434 083a 38060000 		.4byte	0x638
 1435 083e 42000000 		.4byte	.LBB50
 1436 0842 26000000 		.4byte	.LBE50-.LBB50
 1437 0846 01       		.byte	0x1
 1438 0847 25       		.byte	0x25
 1439 0848 2C       		.uleb128 0x2c
 1440 0849 59060000 		.4byte	0x659
 1441 084d 3F010000 		.4byte	.LLST10
 1442 0851 2C       		.uleb128 0x2c
 1443 0852 4F060000 		.4byte	0x64f
 1444 0856 57010000 		.4byte	.LLST11
 1445 085a 2C       		.uleb128 0x2c
 1446 085b 46060000 		.4byte	0x646
 1447 085f 6E010000 		.4byte	.LLST12
 1448 0863 00       		.byte	0
 1449 0864 00       		.byte	0
 1450 0865 28       		.uleb128 0x28
 1451 0866 C3060000 		.4byte	.LASF107
 1452 086a 01       		.byte	0x1
 1453 086b 28       		.byte	0x28
 1454 086c 68000000 		.4byte	.LFB317
 1455 0870 FC000000 		.4byte	.LFE317-.LFB317
 1456 0874 01       		.uleb128 0x1
 1457 0875 9C       		.byte	0x9c
 1458 0876 CF090000 		.4byte	0x9cf
 1459 087a 2A       		.uleb128 0x2a
 1460 087b 786E00   		.ascii	"xn\000"
 1461 087e 01       		.byte	0x1
 1462 087f 28       		.byte	0x28
 1463 0880 81010000 		.4byte	0x181
 1464 0884 86010000 		.4byte	.LLST13
 1465 0888 29       		.uleb128 0x29
 1466 0889 DA040000 		.4byte	.LASF108
 1467 088d 01       		.byte	0x1
 1468 088e 28       		.byte	0x28
 1469 088f A9000000 		.4byte	0xa9
 1470 0893 A7010000 		.4byte	.LLST14
 1471 0897 30       		.uleb128 0x30
 1472 0898 7800     		.ascii	"x\000"
 1473 089a 01       		.byte	0x1
ARM GAS  C:\msys64\tmp\ccdMD31d.s 			page 27


 1474 089b 2A       		.byte	0x2a
 1475 089c 81010000 		.4byte	0x181
 1476 08a0 C8010000 		.4byte	.LLST15
 1477 08a4 30       		.uleb128 0x30
 1478 08a5 785F6500 		.ascii	"x_e\000"
 1479 08a9 01       		.byte	0x1
 1480 08aa 2B       		.byte	0x2b
 1481 08ab 13060000 		.4byte	0x613
 1482 08af FE010000 		.4byte	.LLST16
 1483 08b3 31       		.uleb128 0x31
 1484 08b4 77657400 		.ascii	"wet\000"
 1485 08b8 01       		.byte	0x1
 1486 08b9 2D       		.byte	0x2d
 1487 08ba 19060000 		.4byte	0x619
 1488 08be 02       		.uleb128 0x2
 1489 08bf 90       		.byte	0x90
 1490 08c0 4C       		.uleb128 0x4c
 1491 08c1 31       		.uleb128 0x31
 1492 08c2 64727900 		.ascii	"dry\000"
 1493 08c6 01       		.byte	0x1
 1494 08c7 2E       		.byte	0x2e
 1495 08c8 19060000 		.4byte	0x619
 1496 08cc 0C       		.uleb128 0xc
 1497 08cd F4       		.byte	0xf4
 1498 08ce 25       		.uleb128 0x25
 1499 08cf 04       		.byte	0x4
 1500 08d0 0000803F 		.4byte	0x3f800000
 1501 08d4 F5       		.byte	0xf5
 1502 08d5 4C       		.uleb128 0x4c
 1503 08d6 25       		.uleb128 0x25
 1504 08d7 1C       		.byte	0x1c
 1505 08d8 9F       		.byte	0x9f
 1506 08d9 32       		.uleb128 0x32
 1507 08da 00000000 		.4byte	.Ldebug_ranges0+0
 1508 08de 26       		.uleb128 0x26
 1509 08df A9020000 		.4byte	.LASF109
 1510 08e3 01       		.byte	0x1
 1511 08e4 32       		.byte	0x32
 1512 08e5 19060000 		.4byte	0x619
 1513 08e9 26       		.uleb128 0x26
 1514 08ea 6E030000 		.4byte	.LASF110
 1515 08ee 01       		.byte	0x1
 1516 08ef 34       		.byte	0x34
 1517 08f0 19060000 		.4byte	0x619
 1518 08f4 26       		.uleb128 0x26
 1519 08f5 8C030000 		.4byte	.LASF111
 1520 08f9 01       		.byte	0x1
 1521 08fa 35       		.byte	0x35
 1522 08fb 19060000 		.4byte	0x619
 1523 08ff 33       		.uleb128 0x33
 1524 0900 24070000 		.4byte	0x724
 1525 0904 6A000000 		.4byte	.LBB54
 1526 0908 30000000 		.4byte	.Ldebug_ranges0+0x30
 1527 090c 01       		.byte	0x1
 1528 090d 32       		.byte	0x32
 1529 090e 4E090000 		.4byte	0x94e
 1530 0912 2C       		.uleb128 0x2c
ARM GAS  C:\msys64\tmp\ccdMD31d.s 			page 28


 1531 0913 32070000 		.4byte	0x732
 1532 0917 25020000 		.4byte	.LLST17
 1533 091b 32       		.uleb128 0x32
 1534 091c 30000000 		.4byte	.Ldebug_ranges0+0x30
 1535 0920 34       		.uleb128 0x34
 1536 0921 3B070000 		.4byte	0x73b
 1537 0925 02       		.uleb128 0x2
 1538 0926 90       		.byte	0x90
 1539 0927 4E       		.uleb128 0x4e
 1540 0928 2D       		.uleb128 0x2d
 1541 0929 97050000 		.4byte	0x597
 1542 092d B8000000 		.4byte	.LBB56
 1543 0931 0C000000 		.4byte	.LBE56-.LBB56
 1544 0935 04       		.byte	0x4
 1545 0936 7E       		.byte	0x7e
 1546 0937 35       		.uleb128 0x35
 1547 0938 A8050000 		.4byte	0x5a8
 1548 093c 2E       		.uleb128 0x2e
 1549 093d B8000000 		.4byte	.LBB57
 1550 0941 0C000000 		.4byte	.LBE57-.LBB57
 1551 0945 36       		.uleb128 0x36
 1552 0946 B2050000 		.4byte	0x5b2
 1553 094a 00       		.byte	0
 1554 094b 00       		.byte	0
 1555 094c 00       		.byte	0
 1556 094d 00       		.byte	0
 1557 094e 33       		.uleb128 0x33
 1558 094f 01070000 		.4byte	0x701
 1559 0953 72000000 		.4byte	.LBB59
 1560 0957 48000000 		.4byte	.Ldebug_ranges0+0x48
 1561 095b 01       		.byte	0x1
 1562 095c 34       		.byte	0x34
 1563 095d 6C090000 		.4byte	0x96c
 1564 0961 35       		.uleb128 0x35
 1565 0962 18070000 		.4byte	0x718
 1566 0966 35       		.uleb128 0x35
 1567 0967 0F070000 		.4byte	0x70f
 1568 096b 00       		.byte	0
 1569 096c 33       		.uleb128 0x33
 1570 096d E9060000 		.4byte	0x6e9
 1571 0971 8A000000 		.4byte	.LBB66
 1572 0975 78000000 		.4byte	.Ldebug_ranges0+0x78
 1573 0979 01       		.byte	0x1
 1574 097a 36       		.byte	0x36
 1575 097b 85090000 		.4byte	0x985
 1576 097f 35       		.uleb128 0x35
 1577 0980 F7060000 		.4byte	0x6f7
 1578 0984 00       		.byte	0
 1579 0985 33       		.uleb128 0x33
 1580 0986 C8060000 		.4byte	0x6c8
 1581 098a F6000000 		.4byte	.LBB74
 1582 098e 90000000 		.4byte	.Ldebug_ranges0+0x90
 1583 0992 01       		.byte	0x1
 1584 0993 3C       		.byte	0x3c
 1585 0994 AB090000 		.4byte	0x9ab
 1586 0998 2C       		.uleb128 0x2c
 1587 0999 DF060000 		.4byte	0x6df
ARM GAS  C:\msys64\tmp\ccdMD31d.s 			page 29


 1588 099d 3D020000 		.4byte	.LLST18
 1589 09a1 2C       		.uleb128 0x2c
 1590 09a2 D6060000 		.4byte	0x6d6
 1591 09a6 51020000 		.4byte	.LLST19
 1592 09aa 00       		.byte	0
 1593 09ab 37       		.uleb128 0x37
 1594 09ac C8060000 		.4byte	0x6c8
 1595 09b0 FE000000 		.4byte	.LBB78
 1596 09b4 B0000000 		.4byte	.Ldebug_ranges0+0xb0
 1597 09b8 01       		.byte	0x1
 1598 09b9 3D       		.byte	0x3d
 1599 09ba 2C       		.uleb128 0x2c
 1600 09bb DF060000 		.4byte	0x6df
 1601 09bf 69020000 		.4byte	.LLST20
 1602 09c3 2C       		.uleb128 0x2c
 1603 09c4 D6060000 		.4byte	0x6d6
 1604 09c8 7C020000 		.4byte	.LLST21
 1605 09cc 00       		.byte	0
 1606 09cd 00       		.byte	0
 1607 09ce 00       		.byte	0
 1608 09cf 28       		.uleb128 0x28
 1609 09d0 42000000 		.4byte	.LASF112
 1610 09d4 01       		.byte	0x1
 1611 09d5 41       		.byte	0x41
 1612 09d6 64010000 		.4byte	.LFB318
 1613 09da 50000000 		.4byte	.LFE318-.LFB318
 1614 09de 01       		.uleb128 0x1
 1615 09df 9C       		.byte	0x9c
 1616 09e0 390A0000 		.4byte	0xa39
 1617 09e4 38       		.uleb128 0x38
 1618 09e5 54020000 		.4byte	.LASF113
 1619 09e9 01       		.byte	0x1
 1620 09ea 41       		.byte	0x41
 1621 09eb 93000000 		.4byte	0x93
 1622 09ef 01       		.uleb128 0x1
 1623 09f0 50       		.byte	0x50
 1624 09f1 38       		.uleb128 0x38
 1625 09f2 4B0A0000 		.4byte	.LASF114
 1626 09f6 01       		.byte	0x1
 1627 09f7 41       		.byte	0x41
 1628 09f8 9E000000 		.4byte	0x9e
 1629 09fc 01       		.uleb128 0x1
 1630 09fd 51       		.byte	0x51
 1631 09fe 39       		.uleb128 0x39
 1632 09ff 07020000 		.4byte	.LASF115
 1633 0a03 01       		.byte	0x1
 1634 0a04 43       		.byte	0x43
 1635 0a05 19060000 		.4byte	0x619
 1636 0a09 94020000 		.4byte	.LLST22
 1637 0a0d 37       		.uleb128 0x37
 1638 0a0e 38060000 		.4byte	0x638
 1639 0a12 86010000 		.4byte	.LBB95
 1640 0a16 D8000000 		.4byte	.Ldebug_ranges0+0xd8
 1641 0a1a 01       		.byte	0x1
 1642 0a1b 4C       		.byte	0x4c
 1643 0a1c 2C       		.uleb128 0x2c
 1644 0a1d 59060000 		.4byte	0x659
ARM GAS  C:\msys64\tmp\ccdMD31d.s 			page 30


 1645 0a21 CD020000 		.4byte	.LLST23
 1646 0a25 2C       		.uleb128 0x2c
 1647 0a26 4F060000 		.4byte	0x64f
 1648 0a2a E5020000 		.4byte	.LLST24
 1649 0a2e 2C       		.uleb128 0x2c
 1650 0a2f 46060000 		.4byte	0x646
 1651 0a33 08030000 		.4byte	.LLST25
 1652 0a37 00       		.byte	0
 1653 0a38 00       		.byte	0
 1654 0a39 1D       		.uleb128 0x1d
 1655 0a3a 84040000 		.4byte	0x484
 1656 0a3e 02       		.byte	0x2
 1657 0a3f 470A0000 		.4byte	0xa47
 1658 0a43 510A0000 		.4byte	0xa51
 1659 0a47 1E       		.uleb128 0x1e
 1660 0a48 88060000 		.4byte	.LASF99
 1661 0a4c 95060000 		.4byte	0x695
 1662 0a50 00       		.byte	0
 1663 0a51 3A       		.uleb128 0x3a
 1664 0a52 B6010000 		.4byte	.LASF150
 1665 0a56 00000000 		.4byte	.LFB320
 1666 0a5a 20000000 		.4byte	.LFE320-.LFB320
 1667 0a5e 01       		.uleb128 0x1
 1668 0a5f 9C       		.byte	0x9c
 1669 0a60 C00A0000 		.4byte	0xac0
 1670 0a64 2D       		.uleb128 0x2d
 1671 0a65 47070000 		.4byte	0x747
 1672 0a69 00000000 		.4byte	.LBB106
 1673 0a6d 20000000 		.4byte	.LBE106-.LBB106
 1674 0a71 01       		.byte	0x1
 1675 0a72 55       		.byte	0x55
 1676 0a73 2C       		.uleb128 0x2c
 1677 0a74 51070000 		.4byte	0x751
 1678 0a78 20030000 		.4byte	.LLST26
 1679 0a7c 2C       		.uleb128 0x2c
 1680 0a7d 5C070000 		.4byte	0x75c
 1681 0a81 34030000 		.4byte	.LLST27
 1682 0a85 33       		.uleb128 0x33
 1683 0a86 390A0000 		.4byte	0xa39
 1684 0a8a 00000000 		.4byte	.LBB107
 1685 0a8e F0000000 		.4byte	.Ldebug_ranges0+0xf0
 1686 0a92 01       		.byte	0x1
 1687 0a93 0C       		.byte	0xc
 1688 0a94 A20A0000 		.4byte	0xaa2
 1689 0a98 2C       		.uleb128 0x2c
 1690 0a99 470A0000 		.4byte	0xa47
 1691 0a9d 4A030000 		.4byte	.LLST28
 1692 0aa1 00       		.byte	0
 1693 0aa2 37       		.uleb128 0x37
 1694 0aa3 BE050000 		.4byte	0x5be
 1695 0aa7 08000000 		.4byte	.LBB110
 1696 0aab 08010000 		.4byte	.Ldebug_ranges0+0x108
 1697 0aaf 01       		.byte	0x1
 1698 0ab0 0F       		.byte	0xf
 1699 0ab1 3B       		.uleb128 0x3b
 1700 0ab2 CC050000 		.4byte	0x5cc
 1701 0ab6 06       		.uleb128 0x6
ARM GAS  C:\msys64\tmp\ccdMD31d.s 			page 31


 1702 0ab7 03       		.byte	0x3
 1703 0ab8 14000000 		.4byte	_ZL5s_lfo
 1704 0abc 9F       		.byte	0x9f
 1705 0abd 00       		.byte	0
 1706 0abe 00       		.byte	0
 1707 0abf 00       		.byte	0
 1708 0ac0 3C       		.uleb128 0x3c
 1709 0ac1 99040000 		.4byte	.LASF116
 1710 0ac5 0C       		.byte	0xc
 1711 0ac6 46       		.byte	0x46
 1712 0ac7 0E060000 		.4byte	0x60e
 1713 0acb 3C       		.uleb128 0x3c
 1714 0acc 73070000 		.4byte	.LASF117
 1715 0ad0 0C       		.byte	0xc
 1716 0ad1 4B       		.byte	0x4b
 1717 0ad2 0E060000 		.4byte	0x60e
 1718 0ad6 3D       		.uleb128 0x3d
 1719 0ad7 19060000 		.4byte	0x619
 1720 0adb E60A0000 		.4byte	0xae6
 1721 0adf 3E       		.uleb128 0x3e
 1722 0ae0 CB000000 		.4byte	0xcb
 1723 0ae4 80       		.byte	0x80
 1724 0ae5 00       		.byte	0
 1725 0ae6 3C       		.uleb128 0x3c
 1726 0ae7 95080000 		.4byte	.LASF118
 1727 0aeb 0D       		.byte	0xd
 1728 0aec 94       		.byte	0x94
 1729 0aed F10A0000 		.4byte	0xaf1
 1730 0af1 1F       		.uleb128 0x1f
 1731 0af2 D60A0000 		.4byte	0xad6
 1732 0af6 3D       		.uleb128 0x3d
 1733 0af7 19060000 		.4byte	0x619
 1734 0afb 070B0000 		.4byte	0xb07
 1735 0aff 3F       		.uleb128 0x3f
 1736 0b00 CB000000 		.4byte	0xcb
 1737 0b04 0001     		.2byte	0x100
 1738 0b06 00       		.byte	0
 1739 0b07 40       		.uleb128 0x40
 1740 0b08 47050000 		.4byte	.LASF119
 1741 0b0c 0D       		.byte	0xd
 1742 0b0d 4D02     		.2byte	0x24d
 1743 0b0f 130B0000 		.4byte	0xb13
 1744 0b13 1F       		.uleb128 0x1f
 1745 0b14 F60A0000 		.4byte	0xaf6
 1746 0b18 40       		.uleb128 0x40
 1747 0b19 EB010000 		.4byte	.LASF120
 1748 0b1d 0D       		.byte	0xd
 1749 0b1e 6402     		.2byte	0x264
 1750 0b20 240B0000 		.4byte	0xb24
 1751 0b24 1F       		.uleb128 0x1f
 1752 0b25 F60A0000 		.4byte	0xaf6
 1753 0b29 40       		.uleb128 0x40
 1754 0b2a 0C070000 		.4byte	.LASF121
 1755 0b2e 0D       		.byte	0xd
 1756 0b2f 7C02     		.2byte	0x27c
 1757 0b31 350B0000 		.4byte	0xb35
 1758 0b35 1F       		.uleb128 0x1f
ARM GAS  C:\msys64\tmp\ccdMD31d.s 			page 32


 1759 0b36 F60A0000 		.4byte	0xaf6
 1760 0b3a 40       		.uleb128 0x40
 1761 0b3b 7E040000 		.4byte	.LASF122
 1762 0b3f 0C       		.byte	0xc
 1763 0b40 0F01     		.2byte	0x10f
 1764 0b42 460B0000 		.4byte	0xb46
 1765 0b46 1F       		.uleb128 0x1f
 1766 0b47 F60A0000 		.4byte	0xaf6
 1767 0b4b 40       		.uleb128 0x40
 1768 0b4c 1C070000 		.4byte	.LASF123
 1769 0b50 0D       		.byte	0xd
 1770 0b51 AB02     		.2byte	0x2ab
 1771 0b53 570B0000 		.4byte	0xb57
 1772 0b57 1F       		.uleb128 0x1f
 1773 0b58 D60A0000 		.4byte	0xad6
 1774 0b5c 40       		.uleb128 0x40
 1775 0b5d E1040000 		.4byte	.LASF124
 1776 0b61 0D       		.byte	0xd
 1777 0b62 C002     		.2byte	0x2c0
 1778 0b64 680B0000 		.4byte	0xb68
 1779 0b68 1F       		.uleb128 0x1f
 1780 0b69 D60A0000 		.4byte	0xad6
 1781 0b6d 40       		.uleb128 0x40
 1782 0b6e F8040000 		.4byte	.LASF125
 1783 0b72 0D       		.byte	0xd
 1784 0b73 DD02     		.2byte	0x2dd
 1785 0b75 790B0000 		.4byte	0xb79
 1786 0b79 1F       		.uleb128 0x1f
 1787 0b7a D60A0000 		.4byte	0xad6
 1788 0b7e 3C       		.uleb128 0x3c
 1789 0b7f 7D0A0000 		.4byte	.LASF126
 1790 0b83 0D       		.byte	0xd
 1791 0b84 45       		.byte	0x45
 1792 0b85 0E060000 		.4byte	0x60e
 1793 0b89 3C       		.uleb128 0x3c
 1794 0b8a 16080000 		.4byte	.LASF127
 1795 0b8e 0D       		.byte	0xd
 1796 0b8f 4A       		.byte	0x4a
 1797 0b90 0E060000 		.4byte	0x60e
 1798 0b94 3D       		.uleb128 0x3d
 1799 0b95 19060000 		.4byte	0x619
 1800 0b99 A40B0000 		.4byte	0xba4
 1801 0b9d 3E       		.uleb128 0x3e
 1802 0b9e CB000000 		.4byte	0xcb
 1803 0ba2 97       		.byte	0x97
 1804 0ba3 00       		.byte	0
 1805 0ba4 3C       		.uleb128 0x3c
 1806 0ba5 2F020000 		.4byte	.LASF128
 1807 0ba9 0D       		.byte	0xd
 1808 0baa 67       		.byte	0x67
 1809 0bab AF0B0000 		.4byte	0xbaf
 1810 0baf 1F       		.uleb128 0x1f
 1811 0bb0 940B0000 		.4byte	0xb94
 1812 0bb4 3D       		.uleb128 0x3d
 1813 0bb5 19060000 		.4byte	0x619
 1814 0bb9 C50B0000 		.4byte	0xbc5
 1815 0bbd 3F       		.uleb128 0x3f
ARM GAS  C:\msys64\tmp\ccdMD31d.s 			page 33


 1816 0bbe CB000000 		.4byte	0xcb
 1817 0bc2 8603     		.2byte	0x386
 1818 0bc4 00       		.byte	0
 1819 0bc5 3C       		.uleb128 0x3c
 1820 0bc6 5D060000 		.4byte	.LASF129
 1821 0bca 0D       		.byte	0xd
 1822 0bcb C6       		.byte	0xc6
 1823 0bcc D00B0000 		.4byte	0xbd0
 1824 0bd0 1F       		.uleb128 0x1f
 1825 0bd1 B40B0000 		.4byte	0xbb4
 1826 0bd5 40       		.uleb128 0x40
 1827 0bd6 2B070000 		.4byte	.LASF130
 1828 0bda 0D       		.byte	0xd
 1829 0bdb 3801     		.2byte	0x138
 1830 0bdd E10B0000 		.4byte	0xbe1
 1831 0be1 1F       		.uleb128 0x1f
 1832 0be2 B40B0000 		.4byte	0xbb4
 1833 0be6 40       		.uleb128 0x40
 1834 0be7 4E000000 		.4byte	.LASF131
 1835 0beb 0D       		.byte	0xd
 1836 0bec AB01     		.2byte	0x1ab
 1837 0bee F20B0000 		.4byte	0xbf2
 1838 0bf2 1F       		.uleb128 0x1f
 1839 0bf3 B40B0000 		.4byte	0xbb4
 1840 0bf7 41       		.uleb128 0x41
 1841 0bf8 5D090000 		.4byte	.LASF132
 1842 0bfc 01       		.byte	0x1
 1843 0bfd 0C       		.byte	0xc
 1844 0bfe 40040000 		.4byte	0x440
 1845 0c02 05       		.uleb128 0x5
 1846 0c03 03       		.byte	0x3
 1847 0c04 00000000 		.4byte	_ZL7s_delay
 1848 0c08 3D       		.uleb128 0x3d
 1849 0c09 25000000 		.4byte	0x25
 1850 0c0d 1B0C0000 		.4byte	0xc1b
 1851 0c11 42       		.uleb128 0x42
 1852 0c12 CB000000 		.4byte	0xcb
 1853 0c16 FFED0200 		.4byte	0x2edff
 1854 0c1a 00       		.byte	0
 1855 0c1b 41       		.uleb128 0x41
 1856 0c1c 7C000000 		.4byte	.LASF133
 1857 0c20 01       		.byte	0x1
 1858 0c21 0D       		.byte	0xd
 1859 0c22 080C0000 		.4byte	0xc08
 1860 0c26 05       		.uleb128 0x5
 1861 0c27 03       		.byte	0x3
 1862 0c28 00000000 		.4byte	_ZL11s_delay_ram
 1863 0c2c 41       		.uleb128 0x41
 1864 0c2d 29020000 		.4byte	.LASF134
 1865 0c31 01       		.byte	0x1
 1866 0c32 0F       		.byte	0xf
 1867 0c33 92010000 		.4byte	0x192
 1868 0c37 05       		.uleb128 0x5
 1869 0c38 03       		.byte	0x3
 1870 0c39 14000000 		.4byte	_ZL5s_lfo
 1871 0c3d 43       		.uleb128 0x43
 1872 0c3e E8080000 		.4byte	.LASF135
ARM GAS  C:\msys64\tmp\ccdMD31d.s 			page 34


 1873 0c42 01       		.byte	0x1
 1874 0c43 10       		.byte	0x10
 1875 0c44 25000000 		.4byte	0x25
 1876 0c48 05       		.uleb128 0x5
 1877 0c49 03       		.byte	0x3
 1878 0c4a 00000000 		.4byte	lfo_speed
 1879 0c4e 43       		.uleb128 0x43
 1880 0c4f C0080000 		.4byte	.LASF136
 1881 0c53 01       		.byte	0x1
 1882 0c54 12       		.byte	0x12
 1883 0c55 25000000 		.4byte	0x25
 1884 0c59 05       		.uleb128 0x5
 1885 0c5a 03       		.byte	0x3
 1886 0c5b 00000000 		.4byte	s_mix
 1887 0c5f 43       		.uleb128 0x43
 1888 0c60 05050000 		.4byte	.LASF137
 1889 0c64 01       		.byte	0x1
 1890 0c65 13       		.byte	0x13
 1891 0c66 25000000 		.4byte	0x25
 1892 0c6a 05       		.uleb128 0x5
 1893 0c6b 03       		.byte	0x3
 1894 0c6c 00000000 		.4byte	gain
 1895 0c70 43       		.uleb128 0x43
 1896 0c71 93050000 		.4byte	.LASF138
 1897 0c75 01       		.byte	0x1
 1898 0c76 14       		.byte	0x14
 1899 0c77 25000000 		.4byte	0x25
 1900 0c7b 05       		.uleb128 0x5
 1901 0c7c 03       		.byte	0x3
 1902 0c7d 00000000 		.4byte	wetXNL
 1903 0c81 43       		.uleb128 0x43
 1904 0c82 72040000 		.4byte	.LASF139
 1905 0c86 01       		.byte	0x1
 1906 0c87 14       		.byte	0x14
 1907 0c88 25000000 		.4byte	0x25
 1908 0c8c 05       		.uleb128 0x5
 1909 0c8d 03       		.byte	0x3
 1910 0c8e 00000000 		.4byte	wetXNR
 1911 0c92 43       		.uleb128 0x43
 1912 0c93 A6090000 		.4byte	.LASF140
 1913 0c97 01       		.byte	0x1
 1914 0c98 15       		.byte	0x15
 1915 0c99 25000000 		.4byte	0x25
 1916 0c9d 05       		.uleb128 0x5
 1917 0c9e 03       		.byte	0x3
 1918 0c9f 00000000 		.4byte	bpm_valf
 1919 0ca3 00       		.byte	0
 1920              		.section	.debug_abbrev,"",%progbits
 1921              	.Ldebug_abbrev0:
 1922 0000 01       		.uleb128 0x1
 1923 0001 11       		.uleb128 0x11
 1924 0002 01       		.byte	0x1
 1925 0003 25       		.uleb128 0x25
 1926 0004 0E       		.uleb128 0xe
 1927 0005 13       		.uleb128 0x13
 1928 0006 0B       		.uleb128 0xb
 1929 0007 03       		.uleb128 0x3
ARM GAS  C:\msys64\tmp\ccdMD31d.s 			page 35


 1930 0008 0E       		.uleb128 0xe
 1931 0009 1B       		.uleb128 0x1b
 1932 000a 0E       		.uleb128 0xe
 1933 000b 55       		.uleb128 0x55
 1934 000c 17       		.uleb128 0x17
 1935 000d 11       		.uleb128 0x11
 1936 000e 01       		.uleb128 0x1
 1937 000f 10       		.uleb128 0x10
 1938 0010 17       		.uleb128 0x17
 1939 0011 00       		.byte	0
 1940 0012 00       		.byte	0
 1941 0013 02       		.uleb128 0x2
 1942 0014 24       		.uleb128 0x24
 1943 0015 00       		.byte	0
 1944 0016 0B       		.uleb128 0xb
 1945 0017 0B       		.uleb128 0xb
 1946 0018 3E       		.uleb128 0x3e
 1947 0019 0B       		.uleb128 0xb
 1948 001a 03       		.uleb128 0x3
 1949 001b 0E       		.uleb128 0xe
 1950 001c 00       		.byte	0
 1951 001d 00       		.byte	0
 1952 001e 03       		.uleb128 0x3
 1953 001f 24       		.uleb128 0x24
 1954 0020 00       		.byte	0
 1955 0021 0B       		.uleb128 0xb
 1956 0022 0B       		.uleb128 0xb
 1957 0023 3E       		.uleb128 0x3e
 1958 0024 0B       		.uleb128 0xb
 1959 0025 03       		.uleb128 0x3
 1960 0026 08       		.uleb128 0x8
 1961 0027 00       		.byte	0
 1962 0028 00       		.byte	0
 1963 0029 04       		.uleb128 0x4
 1964 002a 16       		.uleb128 0x16
 1965 002b 00       		.byte	0
 1966 002c 03       		.uleb128 0x3
 1967 002d 0E       		.uleb128 0xe
 1968 002e 3A       		.uleb128 0x3a
 1969 002f 0B       		.uleb128 0xb
 1970 0030 3B       		.uleb128 0x3b
 1971 0031 0B       		.uleb128 0xb
 1972 0032 49       		.uleb128 0x49
 1973 0033 13       		.uleb128 0x13
 1974 0034 00       		.byte	0
 1975 0035 00       		.byte	0
 1976 0036 05       		.uleb128 0x5
 1977 0037 3B       		.uleb128 0x3b
 1978 0038 00       		.byte	0
 1979 0039 03       		.uleb128 0x3
 1980 003a 0E       		.uleb128 0xe
 1981 003b 00       		.byte	0
 1982 003c 00       		.byte	0
 1983 003d 06       		.uleb128 0x6
 1984 003e 17       		.uleb128 0x17
 1985 003f 01       		.byte	0x1
 1986 0040 0B       		.uleb128 0xb
ARM GAS  C:\msys64\tmp\ccdMD31d.s 			page 36


 1987 0041 0B       		.uleb128 0xb
 1988 0042 3A       		.uleb128 0x3a
 1989 0043 0B       		.uleb128 0xb
 1990 0044 3B       		.uleb128 0x3b
 1991 0045 0B       		.uleb128 0xb
 1992 0046 6E       		.uleb128 0x6e
 1993 0047 0E       		.uleb128 0xe
 1994 0048 01       		.uleb128 0x1
 1995 0049 13       		.uleb128 0x13
 1996 004a 00       		.byte	0
 1997 004b 00       		.byte	0
 1998 004c 07       		.uleb128 0x7
 1999 004d 0D       		.uleb128 0xd
 2000 004e 00       		.byte	0
 2001 004f 03       		.uleb128 0x3
 2002 0050 08       		.uleb128 0x8
 2003 0051 3A       		.uleb128 0x3a
 2004 0052 0B       		.uleb128 0xb
 2005 0053 3B       		.uleb128 0x3b
 2006 0054 0B       		.uleb128 0xb
 2007 0055 49       		.uleb128 0x49
 2008 0056 13       		.uleb128 0x13
 2009 0057 00       		.byte	0
 2010 0058 00       		.byte	0
 2011 0059 08       		.uleb128 0x8
 2012 005a 16       		.uleb128 0x16
 2013 005b 00       		.byte	0
 2014 005c 03       		.uleb128 0x3
 2015 005d 0E       		.uleb128 0xe
 2016 005e 3A       		.uleb128 0x3a
 2017 005f 0B       		.uleb128 0xb
 2018 0060 3B       		.uleb128 0x3b
 2019 0061 05       		.uleb128 0x5
 2020 0062 49       		.uleb128 0x49
 2021 0063 13       		.uleb128 0x13
 2022 0064 00       		.byte	0
 2023 0065 00       		.byte	0
 2024 0066 09       		.uleb128 0x9
 2025 0067 04       		.uleb128 0x4
 2026 0068 01       		.byte	0x1
 2027 0069 0B       		.uleb128 0xb
 2028 006a 0B       		.uleb128 0xb
 2029 006b 49       		.uleb128 0x49
 2030 006c 13       		.uleb128 0x13
 2031 006d 3A       		.uleb128 0x3a
 2032 006e 0B       		.uleb128 0xb
 2033 006f 3B       		.uleb128 0x3b
 2034 0070 0B       		.uleb128 0xb
 2035 0071 01       		.uleb128 0x1
 2036 0072 13       		.uleb128 0x13
 2037 0073 00       		.byte	0
 2038 0074 00       		.byte	0
 2039 0075 0A       		.uleb128 0xa
 2040 0076 28       		.uleb128 0x28
 2041 0077 00       		.byte	0
 2042 0078 03       		.uleb128 0x3
 2043 0079 0E       		.uleb128 0xe
ARM GAS  C:\msys64\tmp\ccdMD31d.s 			page 37


 2044 007a 1C       		.uleb128 0x1c
 2045 007b 0B       		.uleb128 0xb
 2046 007c 00       		.byte	0
 2047 007d 00       		.byte	0
 2048 007e 0B       		.uleb128 0xb
 2049 007f 04       		.uleb128 0x4
 2050 0080 01       		.byte	0x1
 2051 0081 0B       		.uleb128 0xb
 2052 0082 0B       		.uleb128 0xb
 2053 0083 49       		.uleb128 0x49
 2054 0084 13       		.uleb128 0x13
 2055 0085 3A       		.uleb128 0x3a
 2056 0086 0B       		.uleb128 0xb
 2057 0087 3B       		.uleb128 0x3b
 2058 0088 0B       		.uleb128 0xb
 2059 0089 6E       		.uleb128 0x6e
 2060 008a 0E       		.uleb128 0xe
 2061 008b 01       		.uleb128 0x1
 2062 008c 13       		.uleb128 0x13
 2063 008d 00       		.byte	0
 2064 008e 00       		.byte	0
 2065 008f 0C       		.uleb128 0xc
 2066 0090 0F       		.uleb128 0xf
 2067 0091 00       		.byte	0
 2068 0092 0B       		.uleb128 0xb
 2069 0093 0B       		.uleb128 0xb
 2070 0094 49       		.uleb128 0x49
 2071 0095 13       		.uleb128 0x13
 2072 0096 00       		.byte	0
 2073 0097 00       		.byte	0
 2074 0098 0D       		.uleb128 0xd
 2075 0099 39       		.uleb128 0x39
 2076 009a 01       		.byte	0x1
 2077 009b 03       		.uleb128 0x3
 2078 009c 08       		.uleb128 0x8
 2079 009d 3A       		.uleb128 0x3a
 2080 009e 0B       		.uleb128 0xb
 2081 009f 3B       		.uleb128 0x3b
 2082 00a0 0B       		.uleb128 0xb
 2083 00a1 01       		.uleb128 0x1
 2084 00a2 13       		.uleb128 0x13
 2085 00a3 00       		.byte	0
 2086 00a4 00       		.byte	0
 2087 00a5 0E       		.uleb128 0xe
 2088 00a6 13       		.uleb128 0x13
 2089 00a7 01       		.byte	0x1
 2090 00a8 03       		.uleb128 0x3
 2091 00a9 0E       		.uleb128 0xe
 2092 00aa 0B       		.uleb128 0xb
 2093 00ab 0B       		.uleb128 0xb
 2094 00ac 3A       		.uleb128 0x3a
 2095 00ad 0B       		.uleb128 0xb
 2096 00ae 3B       		.uleb128 0x3b
 2097 00af 0B       		.uleb128 0xb
 2098 00b0 01       		.uleb128 0x1
 2099 00b1 13       		.uleb128 0x13
 2100 00b2 00       		.byte	0
ARM GAS  C:\msys64\tmp\ccdMD31d.s 			page 38


 2101 00b3 00       		.byte	0
 2102 00b4 0F       		.uleb128 0xf
 2103 00b5 0D       		.uleb128 0xd
 2104 00b6 00       		.byte	0
 2105 00b7 03       		.uleb128 0x3
 2106 00b8 0E       		.uleb128 0xe
 2107 00b9 3A       		.uleb128 0x3a
 2108 00ba 0B       		.uleb128 0xb
 2109 00bb 3B       		.uleb128 0x3b
 2110 00bc 05       		.uleb128 0x5
 2111 00bd 49       		.uleb128 0x49
 2112 00be 13       		.uleb128 0x13
 2113 00bf 38       		.uleb128 0x38
 2114 00c0 0B       		.uleb128 0xb
 2115 00c1 00       		.byte	0
 2116 00c2 00       		.byte	0
 2117 00c3 10       		.uleb128 0x10
 2118 00c4 0D       		.uleb128 0xd
 2119 00c5 00       		.byte	0
 2120 00c6 03       		.uleb128 0x3
 2121 00c7 08       		.uleb128 0x8
 2122 00c8 3A       		.uleb128 0x3a
 2123 00c9 0B       		.uleb128 0xb
 2124 00ca 3B       		.uleb128 0x3b
 2125 00cb 05       		.uleb128 0x5
 2126 00cc 49       		.uleb128 0x49
 2127 00cd 13       		.uleb128 0x13
 2128 00ce 38       		.uleb128 0x38
 2129 00cf 0B       		.uleb128 0xb
 2130 00d0 00       		.byte	0
 2131 00d1 00       		.byte	0
 2132 00d2 11       		.uleb128 0x11
 2133 00d3 2E       		.uleb128 0x2e
 2134 00d4 01       		.byte	0x1
 2135 00d5 3F       		.uleb128 0x3f
 2136 00d6 19       		.uleb128 0x19
 2137 00d7 03       		.uleb128 0x3
 2138 00d8 0E       		.uleb128 0xe
 2139 00d9 3A       		.uleb128 0x3a
 2140 00da 0B       		.uleb128 0xb
 2141 00db 3B       		.uleb128 0x3b
 2142 00dc 0B       		.uleb128 0xb
 2143 00dd 6E       		.uleb128 0x6e
 2144 00de 0E       		.uleb128 0xe
 2145 00df 49       		.uleb128 0x49
 2146 00e0 13       		.uleb128 0x13
 2147 00e1 3C       		.uleb128 0x3c
 2148 00e2 19       		.uleb128 0x19
 2149 00e3 64       		.uleb128 0x64
 2150 00e4 13       		.uleb128 0x13
 2151 00e5 01       		.uleb128 0x1
 2152 00e6 13       		.uleb128 0x13
 2153 00e7 00       		.byte	0
 2154 00e8 00       		.byte	0
 2155 00e9 12       		.uleb128 0x12
 2156 00ea 05       		.uleb128 0x5
 2157 00eb 00       		.byte	0
ARM GAS  C:\msys64\tmp\ccdMD31d.s 			page 39


 2158 00ec 49       		.uleb128 0x49
 2159 00ed 13       		.uleb128 0x13
 2160 00ee 34       		.uleb128 0x34
 2161 00ef 19       		.uleb128 0x19
 2162 00f0 00       		.byte	0
 2163 00f1 00       		.byte	0
 2164 00f2 13       		.uleb128 0x13
 2165 00f3 2E       		.uleb128 0x2e
 2166 00f4 01       		.byte	0x1
 2167 00f5 3F       		.uleb128 0x3f
 2168 00f6 19       		.uleb128 0x19
 2169 00f7 03       		.uleb128 0x3
 2170 00f8 0E       		.uleb128 0xe
 2171 00f9 3A       		.uleb128 0x3a
 2172 00fa 0B       		.uleb128 0xb
 2173 00fb 3B       		.uleb128 0x3b
 2174 00fc 0B       		.uleb128 0xb
 2175 00fd 6E       		.uleb128 0x6e
 2176 00fe 0E       		.uleb128 0xe
 2177 00ff 3C       		.uleb128 0x3c
 2178 0100 19       		.uleb128 0x19
 2179 0101 64       		.uleb128 0x64
 2180 0102 13       		.uleb128 0x13
 2181 0103 01       		.uleb128 0x1
 2182 0104 13       		.uleb128 0x13
 2183 0105 00       		.byte	0
 2184 0106 00       		.byte	0
 2185 0107 14       		.uleb128 0x14
 2186 0108 05       		.uleb128 0x5
 2187 0109 00       		.byte	0
 2188 010a 49       		.uleb128 0x49
 2189 010b 13       		.uleb128 0x13
 2190 010c 00       		.byte	0
 2191 010d 00       		.byte	0
 2192 010e 15       		.uleb128 0x15
 2193 010f 2E       		.uleb128 0x2e
 2194 0110 01       		.byte	0x1
 2195 0111 3F       		.uleb128 0x3f
 2196 0112 19       		.uleb128 0x19
 2197 0113 03       		.uleb128 0x3
 2198 0114 0E       		.uleb128 0xe
 2199 0115 3A       		.uleb128 0x3a
 2200 0116 0B       		.uleb128 0xb
 2201 0117 3B       		.uleb128 0x3b
 2202 0118 05       		.uleb128 0x5
 2203 0119 6E       		.uleb128 0x6e
 2204 011a 0E       		.uleb128 0xe
 2205 011b 49       		.uleb128 0x49
 2206 011c 13       		.uleb128 0x13
 2207 011d 3C       		.uleb128 0x3c
 2208 011e 19       		.uleb128 0x19
 2209 011f 64       		.uleb128 0x64
 2210 0120 13       		.uleb128 0x13
 2211 0121 01       		.uleb128 0x1
 2212 0122 13       		.uleb128 0x13
 2213 0123 00       		.byte	0
 2214 0124 00       		.byte	0
ARM GAS  C:\msys64\tmp\ccdMD31d.s 			page 40


 2215 0125 16       		.uleb128 0x16
 2216 0126 2E       		.uleb128 0x2e
 2217 0127 01       		.byte	0x1
 2218 0128 3F       		.uleb128 0x3f
 2219 0129 19       		.uleb128 0x19
 2220 012a 03       		.uleb128 0x3
 2221 012b 0E       		.uleb128 0xe
 2222 012c 3A       		.uleb128 0x3a
 2223 012d 0B       		.uleb128 0xb
 2224 012e 3B       		.uleb128 0x3b
 2225 012f 05       		.uleb128 0x5
 2226 0130 6E       		.uleb128 0x6e
 2227 0131 0E       		.uleb128 0xe
 2228 0132 49       		.uleb128 0x49
 2229 0133 13       		.uleb128 0x13
 2230 0134 3C       		.uleb128 0x3c
 2231 0135 19       		.uleb128 0x19
 2232 0136 64       		.uleb128 0x64
 2233 0137 13       		.uleb128 0x13
 2234 0138 00       		.byte	0
 2235 0139 00       		.byte	0
 2236 013a 17       		.uleb128 0x17
 2237 013b 13       		.uleb128 0x13
 2238 013c 01       		.byte	0x1
 2239 013d 03       		.uleb128 0x3
 2240 013e 0E       		.uleb128 0xe
 2241 013f 0B       		.uleb128 0xb
 2242 0140 0B       		.uleb128 0xb
 2243 0141 3A       		.uleb128 0x3a
 2244 0142 0B       		.uleb128 0xb
 2245 0143 3B       		.uleb128 0x3b
 2246 0144 0B       		.uleb128 0xb
 2247 0145 00       		.byte	0
 2248 0146 00       		.byte	0
 2249 0147 18       		.uleb128 0x18
 2250 0148 0D       		.uleb128 0xd
 2251 0149 00       		.byte	0
 2252 014a 03       		.uleb128 0x3
 2253 014b 0E       		.uleb128 0xe
 2254 014c 3A       		.uleb128 0x3a
 2255 014d 0B       		.uleb128 0xb
 2256 014e 3B       		.uleb128 0x3b
 2257 014f 0B       		.uleb128 0xb
 2258 0150 49       		.uleb128 0x49
 2259 0151 13       		.uleb128 0x13
 2260 0152 38       		.uleb128 0x38
 2261 0153 0B       		.uleb128 0xb
 2262 0154 00       		.byte	0
 2263 0155 00       		.byte	0
 2264 0156 19       		.uleb128 0x19
 2265 0157 2E       		.uleb128 0x2e
 2266 0158 01       		.byte	0x1
 2267 0159 3F       		.uleb128 0x3f
 2268 015a 19       		.uleb128 0x19
 2269 015b 03       		.uleb128 0x3
 2270 015c 0E       		.uleb128 0xe
 2271 015d 3A       		.uleb128 0x3a
ARM GAS  C:\msys64\tmp\ccdMD31d.s 			page 41


 2272 015e 0B       		.uleb128 0xb
 2273 015f 3B       		.uleb128 0x3b
 2274 0160 0B       		.uleb128 0xb
 2275 0161 6E       		.uleb128 0x6e
 2276 0162 0E       		.uleb128 0xe
 2277 0163 49       		.uleb128 0x49
 2278 0164 13       		.uleb128 0x13
 2279 0165 3C       		.uleb128 0x3c
 2280 0166 19       		.uleb128 0x19
 2281 0167 64       		.uleb128 0x64
 2282 0168 13       		.uleb128 0x13
 2283 0169 00       		.byte	0
 2284 016a 00       		.byte	0
 2285 016b 1A       		.uleb128 0x1a
 2286 016c 2E       		.uleb128 0x2e
 2287 016d 01       		.byte	0x1
 2288 016e 03       		.uleb128 0x3
 2289 016f 0E       		.uleb128 0xe
 2290 0170 3A       		.uleb128 0x3a
 2291 0171 0B       		.uleb128 0xb
 2292 0172 3B       		.uleb128 0x3b
 2293 0173 05       		.uleb128 0x5
 2294 0174 49       		.uleb128 0x49
 2295 0175 13       		.uleb128 0x13
 2296 0176 20       		.uleb128 0x20
 2297 0177 0B       		.uleb128 0xb
 2298 0178 01       		.uleb128 0x1
 2299 0179 13       		.uleb128 0x13
 2300 017a 00       		.byte	0
 2301 017b 00       		.byte	0
 2302 017c 1B       		.uleb128 0x1b
 2303 017d 05       		.uleb128 0x5
 2304 017e 00       		.byte	0
 2305 017f 03       		.uleb128 0x3
 2306 0180 08       		.uleb128 0x8
 2307 0181 3A       		.uleb128 0x3a
 2308 0182 0B       		.uleb128 0xb
 2309 0183 3B       		.uleb128 0x3b
 2310 0184 05       		.uleb128 0x5
 2311 0185 49       		.uleb128 0x49
 2312 0186 13       		.uleb128 0x13
 2313 0187 00       		.byte	0
 2314 0188 00       		.byte	0
 2315 0189 1C       		.uleb128 0x1c
 2316 018a 34       		.uleb128 0x34
 2317 018b 00       		.byte	0
 2318 018c 03       		.uleb128 0x3
 2319 018d 08       		.uleb128 0x8
 2320 018e 3A       		.uleb128 0x3a
 2321 018f 0B       		.uleb128 0xb
 2322 0190 3B       		.uleb128 0x3b
 2323 0191 05       		.uleb128 0x5
 2324 0192 49       		.uleb128 0x49
 2325 0193 13       		.uleb128 0x13
 2326 0194 00       		.byte	0
 2327 0195 00       		.byte	0
 2328 0196 1D       		.uleb128 0x1d
ARM GAS  C:\msys64\tmp\ccdMD31d.s 			page 42


 2329 0197 2E       		.uleb128 0x2e
 2330 0198 01       		.byte	0x1
 2331 0199 47       		.uleb128 0x47
 2332 019a 13       		.uleb128 0x13
 2333 019b 20       		.uleb128 0x20
 2334 019c 0B       		.uleb128 0xb
 2335 019d 64       		.uleb128 0x64
 2336 019e 13       		.uleb128 0x13
 2337 019f 01       		.uleb128 0x1
 2338 01a0 13       		.uleb128 0x13
 2339 01a1 00       		.byte	0
 2340 01a2 00       		.byte	0
 2341 01a3 1E       		.uleb128 0x1e
 2342 01a4 05       		.uleb128 0x5
 2343 01a5 00       		.byte	0
 2344 01a6 03       		.uleb128 0x3
 2345 01a7 0E       		.uleb128 0xe
 2346 01a8 49       		.uleb128 0x49
 2347 01a9 13       		.uleb128 0x13
 2348 01aa 34       		.uleb128 0x34
 2349 01ab 19       		.uleb128 0x19
 2350 01ac 00       		.byte	0
 2351 01ad 00       		.byte	0
 2352 01ae 1F       		.uleb128 0x1f
 2353 01af 26       		.uleb128 0x26
 2354 01b0 00       		.byte	0
 2355 01b1 49       		.uleb128 0x49
 2356 01b2 13       		.uleb128 0x13
 2357 01b3 00       		.byte	0
 2358 01b4 00       		.byte	0
 2359 01b5 20       		.uleb128 0x20
 2360 01b6 2E       		.uleb128 0x2e
 2361 01b7 01       		.byte	0x1
 2362 01b8 03       		.uleb128 0x3
 2363 01b9 0E       		.uleb128 0xe
 2364 01ba 3A       		.uleb128 0x3a
 2365 01bb 0B       		.uleb128 0xb
 2366 01bc 3B       		.uleb128 0x3b
 2367 01bd 0B       		.uleb128 0xb
 2368 01be 20       		.uleb128 0x20
 2369 01bf 0B       		.uleb128 0xb
 2370 01c0 01       		.uleb128 0x1
 2371 01c1 13       		.uleb128 0x13
 2372 01c2 00       		.byte	0
 2373 01c3 00       		.byte	0
 2374 01c4 21       		.uleb128 0x21
 2375 01c5 05       		.uleb128 0x5
 2376 01c6 00       		.byte	0
 2377 01c7 03       		.uleb128 0x3
 2378 01c8 08       		.uleb128 0x8
 2379 01c9 3A       		.uleb128 0x3a
 2380 01ca 0B       		.uleb128 0xb
 2381 01cb 3B       		.uleb128 0x3b
 2382 01cc 0B       		.uleb128 0xb
 2383 01cd 49       		.uleb128 0x49
 2384 01ce 13       		.uleb128 0x13
 2385 01cf 00       		.byte	0
ARM GAS  C:\msys64\tmp\ccdMD31d.s 			page 43


 2386 01d0 00       		.byte	0
 2387 01d1 22       		.uleb128 0x22
 2388 01d2 34       		.uleb128 0x34
 2389 01d3 00       		.byte	0
 2390 01d4 03       		.uleb128 0x3
 2391 01d5 08       		.uleb128 0x8
 2392 01d6 3A       		.uleb128 0x3a
 2393 01d7 0B       		.uleb128 0xb
 2394 01d8 3B       		.uleb128 0x3b
 2395 01d9 0B       		.uleb128 0xb
 2396 01da 49       		.uleb128 0x49
 2397 01db 13       		.uleb128 0x13
 2398 01dc 00       		.byte	0
 2399 01dd 00       		.byte	0
 2400 01de 23       		.uleb128 0x23
 2401 01df 37       		.uleb128 0x37
 2402 01e0 00       		.byte	0
 2403 01e1 49       		.uleb128 0x49
 2404 01e2 13       		.uleb128 0x13
 2405 01e3 00       		.byte	0
 2406 01e4 00       		.byte	0
 2407 01e5 24       		.uleb128 0x24
 2408 01e6 2E       		.uleb128 0x2e
 2409 01e7 01       		.byte	0x1
 2410 01e8 03       		.uleb128 0x3
 2411 01e9 0E       		.uleb128 0xe
 2412 01ea 3A       		.uleb128 0x3a
 2413 01eb 0B       		.uleb128 0xb
 2414 01ec 3B       		.uleb128 0x3b
 2415 01ed 0B       		.uleb128 0xb
 2416 01ee 49       		.uleb128 0x49
 2417 01ef 13       		.uleb128 0x13
 2418 01f0 20       		.uleb128 0x20
 2419 01f1 0B       		.uleb128 0xb
 2420 01f2 01       		.uleb128 0x1
 2421 01f3 13       		.uleb128 0x13
 2422 01f4 00       		.byte	0
 2423 01f5 00       		.byte	0
 2424 01f6 25       		.uleb128 0x25
 2425 01f7 05       		.uleb128 0x5
 2426 01f8 00       		.byte	0
 2427 01f9 03       		.uleb128 0x3
 2428 01fa 0E       		.uleb128 0xe
 2429 01fb 3A       		.uleb128 0x3a
 2430 01fc 0B       		.uleb128 0xb
 2431 01fd 3B       		.uleb128 0x3b
 2432 01fe 0B       		.uleb128 0xb
 2433 01ff 49       		.uleb128 0x49
 2434 0200 13       		.uleb128 0x13
 2435 0201 00       		.byte	0
 2436 0202 00       		.byte	0
 2437 0203 26       		.uleb128 0x26
 2438 0204 34       		.uleb128 0x34
 2439 0205 00       		.byte	0
 2440 0206 03       		.uleb128 0x3
 2441 0207 0E       		.uleb128 0xe
 2442 0208 3A       		.uleb128 0x3a
ARM GAS  C:\msys64\tmp\ccdMD31d.s 			page 44


 2443 0209 0B       		.uleb128 0xb
 2444 020a 3B       		.uleb128 0x3b
 2445 020b 0B       		.uleb128 0xb
 2446 020c 49       		.uleb128 0x49
 2447 020d 13       		.uleb128 0x13
 2448 020e 00       		.byte	0
 2449 020f 00       		.byte	0
 2450 0210 27       		.uleb128 0x27
 2451 0211 2E       		.uleb128 0x2e
 2452 0212 01       		.byte	0x1
 2453 0213 03       		.uleb128 0x3
 2454 0214 0E       		.uleb128 0xe
 2455 0215 34       		.uleb128 0x34
 2456 0216 19       		.uleb128 0x19
 2457 0217 20       		.uleb128 0x20
 2458 0218 0B       		.uleb128 0xb
 2459 0219 01       		.uleb128 0x1
 2460 021a 13       		.uleb128 0x13
 2461 021b 00       		.byte	0
 2462 021c 00       		.byte	0
 2463 021d 28       		.uleb128 0x28
 2464 021e 2E       		.uleb128 0x2e
 2465 021f 01       		.byte	0x1
 2466 0220 3F       		.uleb128 0x3f
 2467 0221 19       		.uleb128 0x19
 2468 0222 03       		.uleb128 0x3
 2469 0223 0E       		.uleb128 0xe
 2470 0224 3A       		.uleb128 0x3a
 2471 0225 0B       		.uleb128 0xb
 2472 0226 3B       		.uleb128 0x3b
 2473 0227 0B       		.uleb128 0xb
 2474 0228 11       		.uleb128 0x11
 2475 0229 01       		.uleb128 0x1
 2476 022a 12       		.uleb128 0x12
 2477 022b 06       		.uleb128 0x6
 2478 022c 40       		.uleb128 0x40
 2479 022d 18       		.uleb128 0x18
 2480 022e 9742     		.uleb128 0x2117
 2481 0230 19       		.uleb128 0x19
 2482 0231 01       		.uleb128 0x1
 2483 0232 13       		.uleb128 0x13
 2484 0233 00       		.byte	0
 2485 0234 00       		.byte	0
 2486 0235 29       		.uleb128 0x29
 2487 0236 05       		.uleb128 0x5
 2488 0237 00       		.byte	0
 2489 0238 03       		.uleb128 0x3
 2490 0239 0E       		.uleb128 0xe
 2491 023a 3A       		.uleb128 0x3a
 2492 023b 0B       		.uleb128 0xb
 2493 023c 3B       		.uleb128 0x3b
 2494 023d 0B       		.uleb128 0xb
 2495 023e 49       		.uleb128 0x49
 2496 023f 13       		.uleb128 0x13
 2497 0240 02       		.uleb128 0x2
 2498 0241 17       		.uleb128 0x17
 2499 0242 00       		.byte	0
ARM GAS  C:\msys64\tmp\ccdMD31d.s 			page 45


 2500 0243 00       		.byte	0
 2501 0244 2A       		.uleb128 0x2a
 2502 0245 05       		.uleb128 0x5
 2503 0246 00       		.byte	0
 2504 0247 03       		.uleb128 0x3
 2505 0248 08       		.uleb128 0x8
 2506 0249 3A       		.uleb128 0x3a
 2507 024a 0B       		.uleb128 0xb
 2508 024b 3B       		.uleb128 0x3b
 2509 024c 0B       		.uleb128 0xb
 2510 024d 49       		.uleb128 0x49
 2511 024e 13       		.uleb128 0x13
 2512 024f 02       		.uleb128 0x2
 2513 0250 17       		.uleb128 0x17
 2514 0251 00       		.byte	0
 2515 0252 00       		.byte	0
 2516 0253 2B       		.uleb128 0x2b
 2517 0254 1D       		.uleb128 0x1d
 2518 0255 01       		.byte	0x1
 2519 0256 31       		.uleb128 0x31
 2520 0257 13       		.uleb128 0x13
 2521 0258 11       		.uleb128 0x11
 2522 0259 01       		.uleb128 0x1
 2523 025a 12       		.uleb128 0x12
 2524 025b 06       		.uleb128 0x6
 2525 025c 58       		.uleb128 0x58
 2526 025d 0B       		.uleb128 0xb
 2527 025e 59       		.uleb128 0x59
 2528 025f 0B       		.uleb128 0xb
 2529 0260 01       		.uleb128 0x1
 2530 0261 13       		.uleb128 0x13
 2531 0262 00       		.byte	0
 2532 0263 00       		.byte	0
 2533 0264 2C       		.uleb128 0x2c
 2534 0265 05       		.uleb128 0x5
 2535 0266 00       		.byte	0
 2536 0267 31       		.uleb128 0x31
 2537 0268 13       		.uleb128 0x13
 2538 0269 02       		.uleb128 0x2
 2539 026a 17       		.uleb128 0x17
 2540 026b 00       		.byte	0
 2541 026c 00       		.byte	0
 2542 026d 2D       		.uleb128 0x2d
 2543 026e 1D       		.uleb128 0x1d
 2544 026f 01       		.byte	0x1
 2545 0270 31       		.uleb128 0x31
 2546 0271 13       		.uleb128 0x13
 2547 0272 11       		.uleb128 0x11
 2548 0273 01       		.uleb128 0x1
 2549 0274 12       		.uleb128 0x12
 2550 0275 06       		.uleb128 0x6
 2551 0276 58       		.uleb128 0x58
 2552 0277 0B       		.uleb128 0xb
 2553 0278 59       		.uleb128 0x59
 2554 0279 0B       		.uleb128 0xb
 2555 027a 00       		.byte	0
 2556 027b 00       		.byte	0
ARM GAS  C:\msys64\tmp\ccdMD31d.s 			page 46


 2557 027c 2E       		.uleb128 0x2e
 2558 027d 0B       		.uleb128 0xb
 2559 027e 01       		.byte	0x1
 2560 027f 11       		.uleb128 0x11
 2561 0280 01       		.uleb128 0x1
 2562 0281 12       		.uleb128 0x12
 2563 0282 06       		.uleb128 0x6
 2564 0283 00       		.byte	0
 2565 0284 00       		.byte	0
 2566 0285 2F       		.uleb128 0x2f
 2567 0286 34       		.uleb128 0x34
 2568 0287 00       		.byte	0
 2569 0288 31       		.uleb128 0x31
 2570 0289 13       		.uleb128 0x13
 2571 028a 02       		.uleb128 0x2
 2572 028b 17       		.uleb128 0x17
 2573 028c 00       		.byte	0
 2574 028d 00       		.byte	0
 2575 028e 30       		.uleb128 0x30
 2576 028f 34       		.uleb128 0x34
 2577 0290 00       		.byte	0
 2578 0291 03       		.uleb128 0x3
 2579 0292 08       		.uleb128 0x8
 2580 0293 3A       		.uleb128 0x3a
 2581 0294 0B       		.uleb128 0xb
 2582 0295 3B       		.uleb128 0x3b
 2583 0296 0B       		.uleb128 0xb
 2584 0297 49       		.uleb128 0x49
 2585 0298 13       		.uleb128 0x13
 2586 0299 02       		.uleb128 0x2
 2587 029a 17       		.uleb128 0x17
 2588 029b 00       		.byte	0
 2589 029c 00       		.byte	0
 2590 029d 31       		.uleb128 0x31
 2591 029e 34       		.uleb128 0x34
 2592 029f 00       		.byte	0
 2593 02a0 03       		.uleb128 0x3
 2594 02a1 08       		.uleb128 0x8
 2595 02a2 3A       		.uleb128 0x3a
 2596 02a3 0B       		.uleb128 0xb
 2597 02a4 3B       		.uleb128 0x3b
 2598 02a5 0B       		.uleb128 0xb
 2599 02a6 49       		.uleb128 0x49
 2600 02a7 13       		.uleb128 0x13
 2601 02a8 02       		.uleb128 0x2
 2602 02a9 18       		.uleb128 0x18
 2603 02aa 00       		.byte	0
 2604 02ab 00       		.byte	0
 2605 02ac 32       		.uleb128 0x32
 2606 02ad 0B       		.uleb128 0xb
 2607 02ae 01       		.byte	0x1
 2608 02af 55       		.uleb128 0x55
 2609 02b0 17       		.uleb128 0x17
 2610 02b1 00       		.byte	0
 2611 02b2 00       		.byte	0
 2612 02b3 33       		.uleb128 0x33
 2613 02b4 1D       		.uleb128 0x1d
ARM GAS  C:\msys64\tmp\ccdMD31d.s 			page 47


 2614 02b5 01       		.byte	0x1
 2615 02b6 31       		.uleb128 0x31
 2616 02b7 13       		.uleb128 0x13
 2617 02b8 52       		.uleb128 0x52
 2618 02b9 01       		.uleb128 0x1
 2619 02ba 55       		.uleb128 0x55
 2620 02bb 17       		.uleb128 0x17
 2621 02bc 58       		.uleb128 0x58
 2622 02bd 0B       		.uleb128 0xb
 2623 02be 59       		.uleb128 0x59
 2624 02bf 0B       		.uleb128 0xb
 2625 02c0 01       		.uleb128 0x1
 2626 02c1 13       		.uleb128 0x13
 2627 02c2 00       		.byte	0
 2628 02c3 00       		.byte	0
 2629 02c4 34       		.uleb128 0x34
 2630 02c5 34       		.uleb128 0x34
 2631 02c6 00       		.byte	0
 2632 02c7 31       		.uleb128 0x31
 2633 02c8 13       		.uleb128 0x13
 2634 02c9 02       		.uleb128 0x2
 2635 02ca 18       		.uleb128 0x18
 2636 02cb 00       		.byte	0
 2637 02cc 00       		.byte	0
 2638 02cd 35       		.uleb128 0x35
 2639 02ce 05       		.uleb128 0x5
 2640 02cf 00       		.byte	0
 2641 02d0 31       		.uleb128 0x31
 2642 02d1 13       		.uleb128 0x13
 2643 02d2 00       		.byte	0
 2644 02d3 00       		.byte	0
 2645 02d4 36       		.uleb128 0x36
 2646 02d5 34       		.uleb128 0x34
 2647 02d6 00       		.byte	0
 2648 02d7 31       		.uleb128 0x31
 2649 02d8 13       		.uleb128 0x13
 2650 02d9 00       		.byte	0
 2651 02da 00       		.byte	0
 2652 02db 37       		.uleb128 0x37
 2653 02dc 1D       		.uleb128 0x1d
 2654 02dd 01       		.byte	0x1
 2655 02de 31       		.uleb128 0x31
 2656 02df 13       		.uleb128 0x13
 2657 02e0 52       		.uleb128 0x52
 2658 02e1 01       		.uleb128 0x1
 2659 02e2 55       		.uleb128 0x55
 2660 02e3 17       		.uleb128 0x17
 2661 02e4 58       		.uleb128 0x58
 2662 02e5 0B       		.uleb128 0xb
 2663 02e6 59       		.uleb128 0x59
 2664 02e7 0B       		.uleb128 0xb
 2665 02e8 00       		.byte	0
 2666 02e9 00       		.byte	0
 2667 02ea 38       		.uleb128 0x38
 2668 02eb 05       		.uleb128 0x5
 2669 02ec 00       		.byte	0
 2670 02ed 03       		.uleb128 0x3
ARM GAS  C:\msys64\tmp\ccdMD31d.s 			page 48


 2671 02ee 0E       		.uleb128 0xe
 2672 02ef 3A       		.uleb128 0x3a
 2673 02f0 0B       		.uleb128 0xb
 2674 02f1 3B       		.uleb128 0x3b
 2675 02f2 0B       		.uleb128 0xb
 2676 02f3 49       		.uleb128 0x49
 2677 02f4 13       		.uleb128 0x13
 2678 02f5 02       		.uleb128 0x2
 2679 02f6 18       		.uleb128 0x18
 2680 02f7 00       		.byte	0
 2681 02f8 00       		.byte	0
 2682 02f9 39       		.uleb128 0x39
 2683 02fa 34       		.uleb128 0x34
 2684 02fb 00       		.byte	0
 2685 02fc 03       		.uleb128 0x3
 2686 02fd 0E       		.uleb128 0xe
 2687 02fe 3A       		.uleb128 0x3a
 2688 02ff 0B       		.uleb128 0xb
 2689 0300 3B       		.uleb128 0x3b
 2690 0301 0B       		.uleb128 0xb
 2691 0302 49       		.uleb128 0x49
 2692 0303 13       		.uleb128 0x13
 2693 0304 02       		.uleb128 0x2
 2694 0305 17       		.uleb128 0x17
 2695 0306 00       		.byte	0
 2696 0307 00       		.byte	0
 2697 0308 3A       		.uleb128 0x3a
 2698 0309 2E       		.uleb128 0x2e
 2699 030a 01       		.byte	0x1
 2700 030b 03       		.uleb128 0x3
 2701 030c 0E       		.uleb128 0xe
 2702 030d 34       		.uleb128 0x34
 2703 030e 19       		.uleb128 0x19
 2704 030f 11       		.uleb128 0x11
 2705 0310 01       		.uleb128 0x1
 2706 0311 12       		.uleb128 0x12
 2707 0312 06       		.uleb128 0x6
 2708 0313 40       		.uleb128 0x40
 2709 0314 18       		.uleb128 0x18
 2710 0315 9742     		.uleb128 0x2117
 2711 0317 19       		.uleb128 0x19
 2712 0318 01       		.uleb128 0x1
 2713 0319 13       		.uleb128 0x13
 2714 031a 00       		.byte	0
 2715 031b 00       		.byte	0
 2716 031c 3B       		.uleb128 0x3b
 2717 031d 05       		.uleb128 0x5
 2718 031e 00       		.byte	0
 2719 031f 31       		.uleb128 0x31
 2720 0320 13       		.uleb128 0x13
 2721 0321 02       		.uleb128 0x2
 2722 0322 18       		.uleb128 0x18
 2723 0323 00       		.byte	0
 2724 0324 00       		.byte	0
 2725 0325 3C       		.uleb128 0x3c
 2726 0326 34       		.uleb128 0x34
 2727 0327 00       		.byte	0
ARM GAS  C:\msys64\tmp\ccdMD31d.s 			page 49


 2728 0328 03       		.uleb128 0x3
 2729 0329 0E       		.uleb128 0xe
 2730 032a 3A       		.uleb128 0x3a
 2731 032b 0B       		.uleb128 0xb
 2732 032c 3B       		.uleb128 0x3b
 2733 032d 0B       		.uleb128 0xb
 2734 032e 49       		.uleb128 0x49
 2735 032f 13       		.uleb128 0x13
 2736 0330 3F       		.uleb128 0x3f
 2737 0331 19       		.uleb128 0x19
 2738 0332 3C       		.uleb128 0x3c
 2739 0333 19       		.uleb128 0x19
 2740 0334 00       		.byte	0
 2741 0335 00       		.byte	0
 2742 0336 3D       		.uleb128 0x3d
 2743 0337 01       		.uleb128 0x1
 2744 0338 01       		.byte	0x1
 2745 0339 49       		.uleb128 0x49
 2746 033a 13       		.uleb128 0x13
 2747 033b 01       		.uleb128 0x1
 2748 033c 13       		.uleb128 0x13
 2749 033d 00       		.byte	0
 2750 033e 00       		.byte	0
 2751 033f 3E       		.uleb128 0x3e
 2752 0340 21       		.uleb128 0x21
 2753 0341 00       		.byte	0
 2754 0342 49       		.uleb128 0x49
 2755 0343 13       		.uleb128 0x13
 2756 0344 2F       		.uleb128 0x2f
 2757 0345 0B       		.uleb128 0xb
 2758 0346 00       		.byte	0
 2759 0347 00       		.byte	0
 2760 0348 3F       		.uleb128 0x3f
 2761 0349 21       		.uleb128 0x21
 2762 034a 00       		.byte	0
 2763 034b 49       		.uleb128 0x49
 2764 034c 13       		.uleb128 0x13
 2765 034d 2F       		.uleb128 0x2f
 2766 034e 05       		.uleb128 0x5
 2767 034f 00       		.byte	0
 2768 0350 00       		.byte	0
 2769 0351 40       		.uleb128 0x40
 2770 0352 34       		.uleb128 0x34
 2771 0353 00       		.byte	0
 2772 0354 03       		.uleb128 0x3
 2773 0355 0E       		.uleb128 0xe
 2774 0356 3A       		.uleb128 0x3a
 2775 0357 0B       		.uleb128 0xb
 2776 0358 3B       		.uleb128 0x3b
 2777 0359 05       		.uleb128 0x5
 2778 035a 49       		.uleb128 0x49
 2779 035b 13       		.uleb128 0x13
 2780 035c 3F       		.uleb128 0x3f
 2781 035d 19       		.uleb128 0x19
 2782 035e 3C       		.uleb128 0x3c
 2783 035f 19       		.uleb128 0x19
 2784 0360 00       		.byte	0
ARM GAS  C:\msys64\tmp\ccdMD31d.s 			page 50


 2785 0361 00       		.byte	0
 2786 0362 41       		.uleb128 0x41
 2787 0363 34       		.uleb128 0x34
 2788 0364 00       		.byte	0
 2789 0365 03       		.uleb128 0x3
 2790 0366 0E       		.uleb128 0xe
 2791 0367 3A       		.uleb128 0x3a
 2792 0368 0B       		.uleb128 0xb
 2793 0369 3B       		.uleb128 0x3b
 2794 036a 0B       		.uleb128 0xb
 2795 036b 49       		.uleb128 0x49
 2796 036c 13       		.uleb128 0x13
 2797 036d 02       		.uleb128 0x2
 2798 036e 18       		.uleb128 0x18
 2799 036f 00       		.byte	0
 2800 0370 00       		.byte	0
 2801 0371 42       		.uleb128 0x42
 2802 0372 21       		.uleb128 0x21
 2803 0373 00       		.byte	0
 2804 0374 49       		.uleb128 0x49
 2805 0375 13       		.uleb128 0x13
 2806 0376 2F       		.uleb128 0x2f
 2807 0377 06       		.uleb128 0x6
 2808 0378 00       		.byte	0
 2809 0379 00       		.byte	0
 2810 037a 43       		.uleb128 0x43
 2811 037b 34       		.uleb128 0x34
 2812 037c 00       		.byte	0
 2813 037d 03       		.uleb128 0x3
 2814 037e 0E       		.uleb128 0xe
 2815 037f 3A       		.uleb128 0x3a
 2816 0380 0B       		.uleb128 0xb
 2817 0381 3B       		.uleb128 0x3b
 2818 0382 0B       		.uleb128 0xb
 2819 0383 49       		.uleb128 0x49
 2820 0384 13       		.uleb128 0x13
 2821 0385 3F       		.uleb128 0x3f
 2822 0386 19       		.uleb128 0x19
 2823 0387 02       		.uleb128 0x2
 2824 0388 18       		.uleb128 0x18
 2825 0389 00       		.byte	0
 2826 038a 00       		.byte	0
 2827 038b 00       		.byte	0
 2828              		.section	.debug_loc,"",%progbits
 2829              	.Ldebug_loc0:
 2830              	.LLST0:
 2831 0000 00000000 		.4byte	.LVL0
 2832 0004 16000000 		.4byte	.LVL3
 2833 0008 0100     		.2byte	0x1
 2834 000a 50       		.byte	0x50
 2835 000b 16000000 		.4byte	.LVL3
 2836 000f 68000000 		.4byte	.LFE316
 2837 0013 0400     		.2byte	0x4
 2838 0015 F3       		.byte	0xf3
 2839 0016 01       		.uleb128 0x1
 2840 0017 50       		.byte	0x50
 2841 0018 9F       		.byte	0x9f
ARM GAS  C:\msys64\tmp\ccdMD31d.s 			page 51


 2842 0019 00000000 		.4byte	0
 2843 001d 00000000 		.4byte	0
 2844              	.LLST1:
 2845 0021 00000000 		.4byte	.LVL0
 2846 0025 04000000 		.4byte	.LVL1
 2847 0029 0100     		.2byte	0x1
 2848 002b 51       		.byte	0x51
 2849 002c 04000000 		.4byte	.LVL1
 2850 0030 68000000 		.4byte	.LFE316
 2851 0034 0400     		.2byte	0x4
 2852 0036 F3       		.byte	0xf3
 2853 0037 01       		.uleb128 0x1
 2854 0038 51       		.byte	0x51
 2855 0039 9F       		.byte	0x9f
 2856 003a 00000000 		.4byte	0
 2857 003e 00000000 		.4byte	0
 2858              	.LLST2:
 2859 0042 00000000 		.4byte	.LVL0
 2860 0046 14000000 		.4byte	.LVL2
 2861 004a 0600     		.2byte	0x6
 2862 004c 0C       		.byte	0xc
 2863 004d 00EE0200 		.4byte	0x2ee00
 2864 0051 9F       		.byte	0x9f
 2865 0052 00000000 		.4byte	0
 2866 0056 00000000 		.4byte	0
 2867              	.LLST3:
 2868 005a 00000000 		.4byte	.LVL0
 2869 005e 14000000 		.4byte	.LVL2
 2870 0062 0600     		.2byte	0x6
 2871 0064 03       		.byte	0x3
 2872 0065 00000000 		.4byte	_ZL11s_delay_ram
 2873 0069 9F       		.byte	0x9f
 2874 006a 00000000 		.4byte	0
 2875 006e 00000000 		.4byte	0
 2876              	.LLST4:
 2877 0072 00000000 		.4byte	.LVL0
 2878 0076 14000000 		.4byte	.LVL2
 2879 007a 0600     		.2byte	0x6
 2880 007c 03       		.byte	0x3
 2881 007d 00000000 		.4byte	_ZL7s_delay
 2882 0081 9F       		.byte	0x9f
 2883 0082 00000000 		.4byte	0
 2884 0086 00000000 		.4byte	0
 2885              	.LLST5:
 2886 008a 14000000 		.4byte	.LVL2
 2887 008e 34000000 		.4byte	.LVL9
 2888 0092 0600     		.2byte	0x6
 2889 0094 03       		.byte	0x3
 2890 0095 00000000 		.4byte	_ZL7s_delay
 2891 0099 9F       		.byte	0x9f
 2892 009a 00000000 		.4byte	0
 2893 009e 00000000 		.4byte	0
 2894              	.LLST6:
 2895 00a2 14000000 		.4byte	.LVL2
 2896 00a6 34000000 		.4byte	.LVL9
 2897 00aa 0400     		.2byte	0x4
 2898 00ac 40       		.byte	0x40
ARM GAS  C:\msys64\tmp\ccdMD31d.s 			page 52


 2899 00ad 3E       		.byte	0x3e
 2900 00ae 24       		.byte	0x24
 2901 00af 9F       		.byte	0x9f
 2902 00b0 00000000 		.4byte	0
 2903 00b4 00000000 		.4byte	0
 2904              	.LLST7:
 2905 00b8 14000000 		.4byte	.LVL2
 2906 00bc 1E000000 		.4byte	.LVL4
 2907 00c0 0600     		.2byte	0x6
 2908 00c2 03       		.byte	0x3
 2909 00c3 00000000 		.4byte	_ZL11s_delay_ram
 2910 00c7 9F       		.byte	0x9f
 2911 00c8 1E000000 		.4byte	.LVL4
 2912 00cc 22000000 		.4byte	.LVL5
 2913 00d0 0300     		.2byte	0x3
 2914 00d2 72       		.byte	0x72
 2915 00d3 74       		.sleb128 -12
 2916 00d4 9F       		.byte	0x9f
 2917 00d5 22000000 		.4byte	.LVL5
 2918 00d9 26000000 		.4byte	.LVL6
 2919 00dd 0300     		.2byte	0x3
 2920 00df 72       		.byte	0x72
 2921 00e0 78       		.sleb128 -8
 2922 00e1 9F       		.byte	0x9f
 2923 00e2 26000000 		.4byte	.LVL6
 2924 00e6 2A000000 		.4byte	.LVL7
 2925 00ea 0300     		.2byte	0x3
 2926 00ec 72       		.byte	0x72
 2927 00ed 7C       		.sleb128 -4
 2928 00ee 9F       		.byte	0x9f
 2929 00ef 2A000000 		.4byte	.LVL7
 2930 00f3 30000000 		.4byte	.LVL8
 2931 00f7 0100     		.2byte	0x1
 2932 00f9 52       		.byte	0x52
 2933 00fa 30000000 		.4byte	.LVL8
 2934 00fe 34000000 		.4byte	.LVL9
 2935 0102 0300     		.2byte	0x3
 2936 0104 72       		.byte	0x72
 2937 0105 70       		.sleb128 -16
 2938 0106 9F       		.byte	0x9f
 2939 0107 00000000 		.4byte	0
 2940 010b 00000000 		.4byte	0
 2941              	.LLST8:
 2942 010f 14000000 		.4byte	.LVL2
 2943 0113 34000000 		.4byte	.LVL9
 2944 0117 0600     		.2byte	0x6
 2945 0119 03       		.byte	0x3
 2946 011a 00001000 		.4byte	_ZL11s_delay_ram+1048576
 2947 011e 9F       		.byte	0x9f
 2948 011f 00000000 		.4byte	0
 2949 0123 00000000 		.4byte	0
 2950              	.LLST9:
 2951 0127 34000000 		.4byte	.LVL9
 2952 012b 3A000000 		.4byte	.LVL10
 2953 012f 0600     		.2byte	0x6
 2954 0131 03       		.byte	0x3
 2955 0132 14000000 		.4byte	_ZL5s_lfo
ARM GAS  C:\msys64\tmp\ccdMD31d.s 			page 53


 2956 0136 9F       		.byte	0x9f
 2957 0137 00000000 		.4byte	0
 2958 013b 00000000 		.4byte	0
 2959              	.LLST10:
 2960 013f 40000000 		.4byte	.LVL11
 2961 0143 56000000 		.4byte	.LVL12
 2962 0147 0600     		.2byte	0x6
 2963 0149 9E       		.byte	0x9e
 2964 014a 04       		.uleb128 0x4
 2965 014b 3EC3AE37 		.4byte	0x37aec33e
 2966 014f 00000000 		.4byte	0
 2967 0153 00000000 		.4byte	0
 2968              	.LLST11:
 2969 0157 40000000 		.4byte	.LVL11
 2970 015b 56000000 		.4byte	.LVL12
 2971 015f 0500     		.2byte	0x5
 2972 0161 03       		.byte	0x3
 2973 0162 00000000 		.4byte	lfo_speed
 2974 0166 00000000 		.4byte	0
 2975 016a 00000000 		.4byte	0
 2976              	.LLST12:
 2977 016e 40000000 		.4byte	.LVL11
 2978 0172 56000000 		.4byte	.LVL12
 2979 0176 0600     		.2byte	0x6
 2980 0178 03       		.byte	0x3
 2981 0179 14000000 		.4byte	_ZL5s_lfo
 2982 017d 9F       		.byte	0x9f
 2983 017e 00000000 		.4byte	0
 2984 0182 00000000 		.4byte	0
 2985              	.LLST13:
 2986 0186 68000000 		.4byte	.LVL13
 2987 018a 9E000000 		.4byte	.LVL16
 2988 018e 0100     		.2byte	0x1
 2989 0190 50       		.byte	0x50
 2990 0191 9E000000 		.4byte	.LVL16
 2991 0195 64010000 		.4byte	.LFE317
 2992 0199 0400     		.2byte	0x4
 2993 019b F3       		.byte	0xf3
 2994 019c 01       		.uleb128 0x1
 2995 019d 50       		.byte	0x50
 2996 019e 9F       		.byte	0x9f
 2997 019f 00000000 		.4byte	0
 2998 01a3 00000000 		.4byte	0
 2999              	.LLST14:
 3000 01a7 68000000 		.4byte	.LVL13
 3001 01ab 8E000000 		.4byte	.LVL14
 3002 01af 0100     		.2byte	0x1
 3003 01b1 51       		.byte	0x51
 3004 01b2 8E000000 		.4byte	.LVL14
 3005 01b6 64010000 		.4byte	.LFE317
 3006 01ba 0400     		.2byte	0x4
 3007 01bc F3       		.byte	0xf3
 3008 01bd 01       		.uleb128 0x1
 3009 01be 51       		.byte	0x51
 3010 01bf 9F       		.byte	0x9f
 3011 01c0 00000000 		.4byte	0
 3012 01c4 00000000 		.4byte	0
ARM GAS  C:\msys64\tmp\ccdMD31d.s 			page 54


 3013              	.LLST15:
 3014 01c8 68000000 		.4byte	.LVL13
 3015 01cc BC000000 		.4byte	.LVL19
 3016 01d0 0100     		.2byte	0x1
 3017 01d2 50       		.byte	0x50
 3018 01d3 BC000000 		.4byte	.LVL19
 3019 01d7 3A010000 		.4byte	.LVL24
 3020 01db 0300     		.2byte	0x3
 3021 01dd 74       		.byte	0x74
 3022 01de 78       		.sleb128 -8
 3023 01df 9F       		.byte	0x9f
 3024 01e0 3A010000 		.4byte	.LVL24
 3025 01e4 40010000 		.4byte	.LVL25
 3026 01e8 0100     		.2byte	0x1
 3027 01ea 54       		.byte	0x54
 3028 01eb 40010000 		.4byte	.LVL25
 3029 01ef 64010000 		.4byte	.LFE317
 3030 01f3 0100     		.2byte	0x1
 3031 01f5 50       		.byte	0x50
 3032 01f6 00000000 		.4byte	0
 3033 01fa 00000000 		.4byte	0
 3034              	.LLST16:
 3035 01fe 92000000 		.4byte	.LVL15
 3036 0202 52010000 		.4byte	.LVL26
 3037 0206 0100     		.2byte	0x1
 3038 0208 5A       		.byte	0x5a
 3039 0209 52010000 		.4byte	.LVL26
 3040 020d 64010000 		.4byte	.LFE317
 3041 0211 0A00     		.2byte	0xa
 3042 0213 F3       		.byte	0xf3
 3043 0214 01       		.uleb128 0x1
 3044 0215 51       		.byte	0x51
 3045 0216 33       		.byte	0x33
 3046 0217 24       		.byte	0x24
 3047 0218 F3       		.byte	0xf3
 3048 0219 01       		.uleb128 0x1
 3049 021a 50       		.byte	0x50
 3050 021b 22       		.byte	0x22
 3051 021c 9F       		.byte	0x9f
 3052 021d 00000000 		.4byte	0
 3053 0221 00000000 		.4byte	0
 3054              	.LLST17:
 3055 0225 B0000000 		.4byte	.LVL17
 3056 0229 B8000000 		.4byte	.LVL18
 3057 022d 0600     		.2byte	0x6
 3058 022f 03       		.byte	0x3
 3059 0230 14000000 		.4byte	_ZL5s_lfo
 3060 0234 9F       		.byte	0x9f
 3061 0235 00000000 		.4byte	0
 3062 0239 00000000 		.4byte	0
 3063              	.LLST18:
 3064 023d 2C010000 		.4byte	.LVL21
 3065 0241 34010000 		.4byte	.LVL22
 3066 0245 0200     		.2byte	0x2
 3067 0247 90       		.byte	0x90
 3068 0248 4F       		.uleb128 0x4f
 3069 0249 00000000 		.4byte	0
ARM GAS  C:\msys64\tmp\ccdMD31d.s 			page 55


 3070 024d 00000000 		.4byte	0
 3071              	.LLST19:
 3072 0251 2C010000 		.4byte	.LVL21
 3073 0255 34010000 		.4byte	.LVL22
 3074 0259 0600     		.2byte	0x6
 3075 025b 03       		.byte	0x3
 3076 025c 00000000 		.4byte	_ZL7s_delay
 3077 0260 9F       		.byte	0x9f
 3078 0261 00000000 		.4byte	0
 3079 0265 00000000 		.4byte	0
 3080              	.LLST20:
 3081 0269 38010000 		.4byte	.LVL23
 3082 026d 3A010000 		.4byte	.LVL24
 3083 0271 0100     		.2byte	0x1
 3084 0273 50       		.byte	0x50
 3085 0274 00000000 		.4byte	0
 3086 0278 00000000 		.4byte	0
 3087              	.LLST21:
 3088 027c 38010000 		.4byte	.LVL23
 3089 0280 3A010000 		.4byte	.LVL24
 3090 0284 0600     		.2byte	0x6
 3091 0286 03       		.byte	0x3
 3092 0287 00000000 		.4byte	_ZL7s_delay
 3093 028b 9F       		.byte	0x9f
 3094 028c 00000000 		.4byte	0
 3095 0290 00000000 		.4byte	0
 3096              	.LLST22:
 3097 0294 6E010000 		.4byte	.LVL28
 3098 0298 84010000 		.4byte	.LVL29
 3099 029c 0200     		.2byte	0x2
 3100 029e 90       		.byte	0x90
 3101 029f 4F       		.uleb128 0x4f
 3102 02a0 84010000 		.4byte	.LVL29
 3103 02a4 9E010000 		.4byte	.LVL32
 3104 02a8 0F00     		.2byte	0xf
 3105 02aa 71       		.byte	0x71
 3106 02ab 00       		.sleb128 0
 3107 02ac F7       		.byte	0xf7
 3108 02ad 2C       		.uleb128 0x2c
 3109 02ae F7       		.byte	0xf7
 3110 02af 25       		.uleb128 0x25
 3111 02b0 F4       		.byte	0xf4
 3112 02b1 25       		.uleb128 0x25
 3113 02b2 04       		.byte	0x4
 3114 02b3 00000030 		.4byte	0x30000000
 3115 02b7 1E       		.byte	0x1e
 3116 02b8 9F       		.byte	0x9f
 3117 02b9 9E010000 		.4byte	.LVL32
 3118 02bd B4010000 		.4byte	.LFE318
 3119 02c1 0200     		.2byte	0x2
 3120 02c3 90       		.byte	0x90
 3121 02c4 4F       		.uleb128 0x4f
 3122 02c5 00000000 		.4byte	0
 3123 02c9 00000000 		.4byte	0
 3124              	.LLST23:
 3125 02cd 8E010000 		.4byte	.LVL30
 3126 02d1 9E010000 		.4byte	.LVL32
ARM GAS  C:\msys64\tmp\ccdMD31d.s 			page 56


 3127 02d5 0600     		.2byte	0x6
 3128 02d7 9E       		.byte	0x9e
 3129 02d8 04       		.uleb128 0x4
 3130 02d9 3EC3AE37 		.4byte	0x37aec33e
 3131 02dd 00000000 		.4byte	0
 3132 02e1 00000000 		.4byte	0
 3133              	.LLST24:
 3134 02e5 8E010000 		.4byte	.LVL30
 3135 02e9 92010000 		.4byte	.LVL31
 3136 02ed 0200     		.2byte	0x2
 3137 02ef 90       		.byte	0x90
 3138 02f0 4F       		.uleb128 0x4f
 3139 02f1 92010000 		.4byte	.LVL31
 3140 02f5 9E010000 		.4byte	.LVL32
 3141 02f9 0500     		.2byte	0x5
 3142 02fb 03       		.byte	0x3
 3143 02fc 00000000 		.4byte	lfo_speed
 3144 0300 00000000 		.4byte	0
 3145 0304 00000000 		.4byte	0
 3146              	.LLST25:
 3147 0308 8E010000 		.4byte	.LVL30
 3148 030c 9E010000 		.4byte	.LVL32
 3149 0310 0600     		.2byte	0x6
 3150 0312 03       		.byte	0x3
 3151 0313 14000000 		.4byte	_ZL5s_lfo
 3152 0317 9F       		.byte	0x9f
 3153 0318 00000000 		.4byte	0
 3154 031c 00000000 		.4byte	0
 3155              	.LLST26:
 3156 0320 00000000 		.4byte	.LVL33
 3157 0324 18000000 		.4byte	.LVL35
 3158 0328 0200     		.2byte	0x2
 3159 032a 31       		.byte	0x31
 3160 032b 9F       		.byte	0x9f
 3161 032c 00000000 		.4byte	0
 3162 0330 00000000 		.4byte	0
 3163              	.LLST27:
 3164 0334 00000000 		.4byte	.LVL33
 3165 0338 18000000 		.4byte	.LVL35
 3166 033c 0400     		.2byte	0x4
 3167 033e 0A       		.byte	0xa
 3168 033f FFFF     		.2byte	0xffff
 3169 0341 9F       		.byte	0x9f
 3170 0342 00000000 		.4byte	0
 3171 0346 00000000 		.4byte	0
 3172              	.LLST28:
 3173 034a 00000000 		.4byte	.LVL33
 3174 034e 14000000 		.4byte	.LVL34
 3175 0352 0600     		.2byte	0x6
 3176 0354 03       		.byte	0x3
 3177 0355 00000000 		.4byte	_ZL7s_delay
 3178 0359 9F       		.byte	0x9f
 3179 035a 00000000 		.4byte	0
 3180 035e 00000000 		.4byte	0
 3181              		.section	.debug_aranges,"",%progbits
 3182 0000 24000000 		.4byte	0x24
 3183 0004 0200     		.2byte	0x2
ARM GAS  C:\msys64\tmp\ccdMD31d.s 			page 57


 3184 0006 00000000 		.4byte	.Ldebug_info0
 3185 000a 04       		.byte	0x4
 3186 000b 00       		.byte	0
 3187 000c 0000     		.2byte	0
 3188 000e 0000     		.2byte	0
 3189 0010 00000000 		.4byte	.Ltext0
 3190 0014 B4010000 		.4byte	.Letext0-.Ltext0
 3191 0018 00000000 		.4byte	.LFB320
 3192 001c 20000000 		.4byte	.LFE320-.LFB320
 3193 0020 00000000 		.4byte	0
 3194 0024 00000000 		.4byte	0
 3195              		.section	.debug_ranges,"",%progbits
 3196              	.Ldebug_ranges0:
 3197 0000 6A000000 		.4byte	.LBB53
 3198 0004 6E000000 		.4byte	.LBE53
 3199 0008 72000000 		.4byte	.LBB88
 3200 000c 7A000000 		.4byte	.LBE88
 3201 0010 84000000 		.4byte	.LBB89
 3202 0014 8C000000 		.4byte	.LBE89
 3203 0018 94000000 		.4byte	.LBB90
 3204 001c 9E000000 		.4byte	.LBE90
 3205 0020 B0000000 		.4byte	.LBB91
 3206 0024 3A010000 		.4byte	.LBE91
 3207 0028 00000000 		.4byte	0
 3208 002c 00000000 		.4byte	0
 3209 0030 6A000000 		.4byte	.LBB54
 3210 0034 6E000000 		.4byte	.LBE54
 3211 0038 B0000000 		.4byte	.LBB71
 3212 003c C4000000 		.4byte	.LBE71
 3213 0040 00000000 		.4byte	0
 3214 0044 00000000 		.4byte	0
 3215 0048 72000000 		.4byte	.LBB59
 3216 004c 7A000000 		.4byte	.LBE59
 3217 0050 84000000 		.4byte	.LBB65
 3218 0054 8A000000 		.4byte	.LBE65
 3219 0058 96000000 		.4byte	.LBB70
 3220 005c 9E000000 		.4byte	.LBE70
 3221 0060 C4000000 		.4byte	.LBB72
 3222 0064 DC000000 		.4byte	.LBE72
 3223 0068 E0000000 		.4byte	.LBB73
 3224 006c EE000000 		.4byte	.LBE73
 3225 0070 00000000 		.4byte	0
 3226 0074 00000000 		.4byte	0
 3227 0078 8A000000 		.4byte	.LBB66
 3228 007c 8C000000 		.4byte	.LBE66
 3229 0080 94000000 		.4byte	.LBB69
 3230 0084 96000000 		.4byte	.LBE69
 3231 0088 00000000 		.4byte	0
 3232 008c 00000000 		.4byte	0
 3233 0090 F6000000 		.4byte	.LBB74
 3234 0094 FA000000 		.4byte	.LBE74
 3235 0098 20010000 		.4byte	.LBB83
 3236 009c 24010000 		.4byte	.LBE83
 3237 00a0 30010000 		.4byte	.LBB86
 3238 00a4 34010000 		.4byte	.LBE86
 3239 00a8 00000000 		.4byte	0
 3240 00ac 00000000 		.4byte	0
ARM GAS  C:\msys64\tmp\ccdMD31d.s 			page 58


 3241 00b0 FE000000 		.4byte	.LBB78
 3242 00b4 00010000 		.4byte	.LBE78
 3243 00b8 24010000 		.4byte	.LBB84
 3244 00bc 28010000 		.4byte	.LBE84
 3245 00c0 2C010000 		.4byte	.LBB85
 3246 00c4 30010000 		.4byte	.LBE85
 3247 00c8 38010000 		.4byte	.LBB87
 3248 00cc 3A010000 		.4byte	.LBE87
 3249 00d0 00000000 		.4byte	0
 3250 00d4 00000000 		.4byte	0
 3251 00d8 86010000 		.4byte	.LBB95
 3252 00dc 8A010000 		.4byte	.LBE95
 3253 00e0 8E010000 		.4byte	.LBB98
 3254 00e4 9E010000 		.4byte	.LBE98
 3255 00e8 00000000 		.4byte	0
 3256 00ec 00000000 		.4byte	0
 3257 00f0 00000000 		.4byte	.LBB107
 3258 00f4 08000000 		.4byte	.LBE107
 3259 00f8 0C000000 		.4byte	.LBB113
 3260 00fc 14000000 		.4byte	.LBE113
 3261 0100 00000000 		.4byte	0
 3262 0104 00000000 		.4byte	0
 3263 0108 08000000 		.4byte	.LBB110
 3264 010c 0C000000 		.4byte	.LBE110
 3265 0110 14000000 		.4byte	.LBB114
 3266 0114 20000000 		.4byte	.LBE114
 3267 0118 00000000 		.4byte	0
 3268 011c 00000000 		.4byte	0
 3269 0120 00000000 		.4byte	.Ltext0
 3270 0124 B4010000 		.4byte	.Letext0
 3271 0128 00000000 		.4byte	.LFB320
 3272 012c 20000000 		.4byte	.LFE320
 3273 0130 00000000 		.4byte	0
 3274 0134 00000000 		.4byte	0
 3275              		.section	.debug_line,"",%progbits
 3276              	.Ldebug_line0:
 3277 0000 D6030000 		.section	.debug_str,"MS",%progbits,1
 3277      0200BC02 
 3277      00000201 
 3277      FB0E0D00 
 3277      01010101 
 3278              	.LASF21:
 3279 0000 6633325F 		.ascii	"f32_t\000"
 3279      7400
 3280              	.LASF90:
 3281 0006 5F5A4E33 		.ascii	"_ZN3dsp9DelayLine5writeEf\000"
 3281      64737039 
 3281      44656C61 
 3281      794C696E 
 3281      65357772 
 3282              	.LASF57:
 3283 0020 5F5A4E33 		.ascii	"_ZN3dsp9SimpleLFO12triangle_uniEv\000"
 3283      64737039 
 3283      53696D70 
 3283      6C654C46 
 3283      4F313274 
 3284              	.LASF112:
ARM GAS  C:\msys64\tmp\ccdMD31d.s 			page 59


 3285 0042 5F686F6F 		.ascii	"_hook_param\000"
 3285      6B5F7061 
 3285      72616D00 
 3286              	.LASF131:
 3287 004e 77745F70 		.ascii	"wt_par_lut_f\000"
 3287      61725F6C 
 3287      75745F66 
 3287      00
 3288              	.LASF55:
 3289 005b 5F5A4E33 		.ascii	"_ZN3dsp9SimpleLFO11triangle_biEv\000"
 3289      64737039 
 3289      53696D70 
 3289      6C654C46 
 3289      4F313174 
 3290              	.LASF133:
 3291 007c 735F6465 		.ascii	"s_delay_ram\000"
 3291      6C61795F 
 3291      72616D00 
 3292              	.LASF141:
 3293 0088 474E5520 		.ascii	"GNU C++11 5.4.1 20160919 (release) [ARM/embedded-5-"
 3293      432B2B31 
 3293      3120352E 
 3293      342E3120 
 3293      32303136 
 3294 00bb 6272616E 		.ascii	"branch revision 240496] -mcpu=cortex-m4 -mthumb -mn"
 3294      63682072 
 3294      65766973 
 3294      696F6E20 
 3294      32343034 
 3295 00ee 6F2D7468 		.ascii	"o-thumb-interwork -mlittle-endian -mfloat-abi=hard "
 3295      756D622D 
 3295      696E7465 
 3295      72776F72 
 3295      6B202D6D 
 3296 0121 2D6D6670 		.ascii	"-mfpu=fpv4-sp-d16 -g -Os -std=c++11 -fsingle-precis"
 3296      753D6670 
 3296      76342D73 
 3296      702D6431 
 3296      36202D67 
 3297 0154 696F6E2D 		.ascii	"ion-constant -fcheck-new -fno-rtti -fno-exceptions "
 3297      636F6E73 
 3297      74616E74 
 3297      202D6663 
 3297      6865636B 
 3298 0187 2D666E6F 		.ascii	"-fno-non-call-exceptions\000"
 3298      2D6E6F6E 
 3298      2D63616C 
 3298      6C2D6578 
 3298      63657074 
 3299              	.LASF12:
 3300 01a0 756E7369 		.ascii	"unsigned int\000"
 3300      676E6564 
 3300      20696E74 
 3300      00
 3301              	.LASF93:
 3302 01ad 72656164 		.ascii	"readFrac\000"
 3302      46726163 
ARM GAS  C:\msys64\tmp\ccdMD31d.s 			page 60


 3302      00
 3303              	.LASF150:
 3304 01b6 5F474C4F 		.ascii	"_GLOBAL__sub_I_lfo_speed\000"
 3304      42414C5F 
 3304      5F737562 
 3304      5F495F6C 
 3304      666F5F73 
 3305              	.LASF6:
 3306 01cf 5F5F696E 		.ascii	"__int32_t\000"
 3306      7433325F 
 3306      7400
 3307              	.LASF106:
 3308 01d9 706C6174 		.ascii	"platform\000"
 3308      666F726D 
 3308      00
 3309              	.LASF97:
 3310 01e2 73695F66 		.ascii	"si_fabsf\000"
 3310      61627366 
 3310      00
 3311              	.LASF120:
 3312 01eb 74616E70 		.ascii	"tanpi_lut_f\000"
 3312      695F6C75 
 3312      745F6600 
 3313              	.LASF62:
 3314 01f7 7361775F 		.ascii	"saw_bi\000"
 3314      626900
 3315              	.LASF15:
 3316 01fe 75696E74 		.ascii	"uint32_t\000"
 3316      33325F74 
 3316      00
 3317              	.LASF115:
 3318 0207 76616C66 		.ascii	"valf\000"
 3318      00
 3319              	.LASF49:
 3320 020c 5F5A4E33 		.ascii	"_ZN3dsp9SimpleLFO8sine_uniEv\000"
 3320      64737039 
 3320      53696D70 
 3320      6C654C46 
 3320      4F387369 
 3321              	.LASF134:
 3322 0229 735F6C66 		.ascii	"s_lfo\000"
 3322      6F00
 3323              	.LASF128:
 3324 022f 6D696469 		.ascii	"midi_to_hz_lut_f\000"
 3324      5F746F5F 
 3324      687A5F6C 
 3324      75745F66 
 3324      00
 3325              	.LASF74:
 3326 0240 73717561 		.ascii	"square_bi_off\000"
 3326      72655F62 
 3326      695F6F66 
 3326      6600
 3327              	.LASF0:
 3328 024e 666C6F61 		.ascii	"float\000"
 3328      7400
 3329              	.LASF113:
ARM GAS  C:\msys64\tmp\ccdMD31d.s 			page 61


 3330 0254 696E6465 		.ascii	"index\000"
 3330      7800
 3331              	.LASF25:
 3332 025a 6B5F7573 		.ascii	"k_user_module_delfx\000"
 3332      65725F6D 
 3332      6F64756C 
 3332      655F6465 
 3332      6C667800 
 3333              	.LASF39:
 3334 026e 5F5A4E33 		.ascii	"_ZN3dsp9SimpleLFO5resetEv\000"
 3334      64737039 
 3334      53696D70 
 3334      6C654C46 
 3334      4F357265 
 3335              	.LASF11:
 3336 0288 6C6F6E67 		.ascii	"long long unsigned int\000"
 3336      206C6F6E 
 3336      6720756E 
 3336      7369676E 
 3336      65642069 
 3337              	.LASF70:
 3338 029f 73717561 		.ascii	"square_bi\000"
 3338      72655F62 
 3338      6900
 3339              	.LASF109:
 3340 02a9 6C666F5F 		.ascii	"lfo_cycle\000"
 3340      6379636C 
 3340      6500
 3341              	.LASF47:
 3342 02b3 5F5A4E33 		.ascii	"_ZN3dsp9SimpleLFO7sine_biEv\000"
 3342      64737039 
 3342      53696D70 
 3342      6C654C46 
 3342      4F377369 
 3343              	.LASF85:
 3344 02cf 636C6561 		.ascii	"clear\000"
 3344      7200
 3345              	.LASF96:
 3346 02d5 5F5A4E33 		.ascii	"_ZN3dsp9DelayLine9readFraczEmf\000"
 3346      64737039 
 3346      44656C61 
 3346      794C696E 
 3346      65397265 
 3347              	.LASF87:
 3348 02f4 7365744D 		.ascii	"setMemory\000"
 3348      656D6F72 
 3348      7900
 3349              	.LASF103:
 3350 02fe 5F5F696E 		.ascii	"__initialize_p\000"
 3350      69746961 
 3350      6C697A65 
 3350      5F7000
 3351              	.LASF50:
 3352 030d 73696E65 		.ascii	"sine_bi_off\000"
 3352      5F62695F 
 3352      6F666600 
 3353              	.LASF146:
ARM GAS  C:\msys64\tmp\ccdMD31d.s 			page 62


 3354 0319 32317573 		.ascii	"21user_delfx_param_id_t\000"
 3354      65725F64 
 3354      656C6678 
 3354      5F706172 
 3354      616D5F69 
 3355              	.LASF16:
 3356 0331 73697A65 		.ascii	"size_t\000"
 3356      5F7400
 3357              	.LASF26:
 3358 0338 6B5F7573 		.ascii	"k_user_module_revfx\000"
 3358      65725F6D 
 3358      6F64756C 
 3358      655F7265 
 3358      76667800 
 3359              	.LASF45:
 3360 034c 73696E65 		.ascii	"sine_bi\000"
 3360      5F626900 
 3361              	.LASF33:
 3362 0354 6B5F6E75 		.ascii	"k_num_user_delfx_param_id\000"
 3362      6D5F7573 
 3362      65725F64 
 3362      656C6678 
 3362      5F706172 
 3363              	.LASF110:
 3364 036e 64656C53 		.ascii	"delSampleL\000"
 3364      616D706C 
 3364      654C00
 3365              	.LASF104:
 3366 0379 5F5F7072 		.ascii	"__priority\000"
 3366      696F7269 
 3366      747900
 3367              	.LASF64:
 3368 0384 7361775F 		.ascii	"saw_uni\000"
 3368      756E6900 
 3369              	.LASF111:
 3370 038c 64656C53 		.ascii	"delSampleR\000"
 3370      616D706C 
 3370      655200
 3371              	.LASF46:
 3372 0397 5F5A4E33 		.ascii	"_ZN3dsp9SimpleLFOC4Ev\000"
 3372      64737039 
 3372      53696D70 
 3372      6C654C46 
 3372      4F433445 
 3373              	.LASF35:
 3374 03ad 70686930 		.ascii	"phi0\000"
 3374      00
 3375              	.LASF68:
 3376 03b2 7361775F 		.ascii	"saw_uni_off\000"
 3376      756E695F 
 3376      6F666600 
 3377              	.LASF30:
 3378 03be 6B5F7573 		.ascii	"k_user_delfx_param_depth\000"
 3378      65725F64 
 3378      656C6678 
 3378      5F706172 
 3378      616D5F64 
ARM GAS  C:\msys64\tmp\ccdMD31d.s 			page 63


 3379              	.LASF69:
 3380 03d7 5F5A4E33 		.ascii	"_ZN3dsp9SimpleLFO11saw_uni_offEf\000"
 3380      64737039 
 3380      53696D70 
 3380      6C654C46 
 3380      4F313173 
 3381              	.LASF43:
 3382 03f8 5F5A4E33 		.ascii	"_ZN3dsp9SimpleLFO5setW0Ef\000"
 3382      64737039 
 3382      53696D70 
 3382      6C654C46 
 3382      4F357365 
 3383              	.LASF143:
 3384 0412 433A5C75 		.ascii	"C:\\users\\bradl\\Desktop\\Code Projects\\KorgFX\\K"
 3384      73657273 
 3384      5C627261 
 3384      646C5C44 
 3384      65736B74 
 3385 043f 6F726744 		.ascii	"orgDelayFXSet\\Delays\\platform\\minilogue-xd\\Flan"
 3385      656C6179 
 3385      46585365 
 3385      745C4465 
 3385      6C617973 
 3386 046e 67657200 		.ascii	"ger\000"
 3387              	.LASF139:
 3388 0472 77657458 		.ascii	"wetXNR\000"
 3388      4E5200
 3389              	.LASF19:
 3390 0479 63686172 		.ascii	"char\000"
 3390      00
 3391              	.LASF122:
 3392 047e 706F7732 		.ascii	"pow2_lut_f\000"
 3392      5F6C7574 
 3392      5F6600
 3393              	.LASF58:
 3394 0489 74726961 		.ascii	"triangle_bi_off\000"
 3394      6E676C65 
 3394      5F62695F 
 3394      6F666600 
 3395              	.LASF116:
 3396 0499 6B5F6678 		.ascii	"k_fx_api_platform\000"
 3396      5F617069 
 3396      5F706C61 
 3396      74666F72 
 3396      6D00
 3397              	.LASF75:
 3398 04ab 5F5A4E33 		.ascii	"_ZN3dsp9SimpleLFO13square_bi_offEf\000"
 3398      64737039 
 3398      53696D70 
 3398      6C654C46 
 3398      4F313373 
 3399              	.LASF148:
 3400 04ce 6275665F 		.ascii	"buf_clr_f32\000"
 3400      636C725F 
 3400      66333200 
 3401              	.LASF108:
 3402 04da 6672616D 		.ascii	"frames\000"
ARM GAS  C:\msys64\tmp\ccdMD31d.s 			page 64


 3402      657300
 3403              	.LASF124:
 3404 04e1 73636865 		.ascii	"schetzen_lut_f\000"
 3404      747A656E 
 3404      5F6C7574 
 3404      5F6600
 3405              	.LASF13:
 3406 04f0 75696E74 		.ascii	"uint8_t\000"
 3406      385F7400 
 3407              	.LASF125:
 3408 04f8 62697472 		.ascii	"bitres_lut_f\000"
 3408      65735F6C 
 3408      75745F66 
 3408      00
 3409              	.LASF137:
 3410 0505 6761696E 		.ascii	"gain\000"
 3410      00
 3411              	.LASF41:
 3412 050a 5F5A4E33 		.ascii	"_ZN3dsp9SimpleLFO5setF0Eff\000"
 3412      64737039 
 3412      53696D70 
 3412      6C654C46 
 3412      4F357365 
 3413              	.LASF53:
 3414 0525 5F5A4E33 		.ascii	"_ZN3dsp9SimpleLFO12sine_uni_offEf\000"
 3414      64737039 
 3414      53696D70 
 3414      6C654C46 
 3414      4F313273 
 3415              	.LASF119:
 3416 0547 6C6F675F 		.ascii	"log_lut_f\000"
 3416      6C75745F 
 3416      6600
 3417              	.LASF84:
 3418 0551 5F5A4E33 		.ascii	"_ZN3dsp9DelayLineC4EPfj\000"
 3418      64737039 
 3418      44656C61 
 3418      794C696E 
 3418      65433445 
 3419              	.LASF10:
 3420 0569 6C6F6E67 		.ascii	"long long int\000"
 3420      206C6F6E 
 3420      6720696E 
 3420      7400
 3421              	.LASF89:
 3422 0577 77726974 		.ascii	"write\000"
 3422      6500
 3423              	.LASF81:
 3424 057d 6D577269 		.ascii	"mWriteIdx\000"
 3424      74654964 
 3424      7800
 3425              	.LASF80:
 3426 0587 6D4D6173 		.ascii	"mMask\000"
 3426      6B00
 3427              	.LASF77:
 3428 058d 6D4C696E 		.ascii	"mLine\000"
 3428      6500
ARM GAS  C:\msys64\tmp\ccdMD31d.s 			page 65


 3429              	.LASF138:
 3430 0593 77657458 		.ascii	"wetXNL\000"
 3430      4E4C00
 3431              	.LASF73:
 3432 059a 5F5A4E33 		.ascii	"_ZN3dsp9SimpleLFO10square_uniEv\000"
 3432      64737039 
 3432      53696D70 
 3432      6C654C46 
 3432      4F313073 
 3433              	.LASF28:
 3434 05ba 6B5F6E75 		.ascii	"k_num_user_modules\000"
 3434      6D5F7573 
 3434      65725F6D 
 3434      6F64756C 
 3434      657300
 3435              	.LASF31:
 3436 05cd 6B5F7573 		.ascii	"k_user_delfx_param_reserved0\000"
 3436      65725F64 
 3436      656C6678 
 3436      5F706172 
 3436      616D5F72 
 3437              	.LASF95:
 3438 05ea 72656164 		.ascii	"readFracz\000"
 3438      46726163 
 3438      7A00
 3439              	.LASF63:
 3440 05f4 5F5A4E33 		.ascii	"_ZN3dsp9SimpleLFO6saw_biEv\000"
 3440      64737039 
 3440      53696D70 
 3440      6C654C46 
 3440      4F367361 
 3441              	.LASF83:
 3442 060f 5F5A4E33 		.ascii	"_ZN3dsp9DelayLineC4Ev\000"
 3442      64737039 
 3442      44656C61 
 3442      794C696E 
 3442      65433445 
 3443              	.LASF101:
 3444 0625 6C696E65 		.ascii	"line_size\000"
 3444      5F73697A 
 3444      6500
 3445              	.LASF51:
 3446 062f 5F5A4E33 		.ascii	"_ZN3dsp9SimpleLFO11sine_bi_offEf\000"
 3446      64737039 
 3446      53696D70 
 3446      6C654C46 
 3446      4F313173 
 3447              	.LASF145:
 3448 0650 35663332 		.ascii	"5f32_t\000"
 3448      5F7400
 3449              	.LASF79:
 3450 0657 6D53697A 		.ascii	"mSize\000"
 3450      6500
 3451              	.LASF129:
 3452 065d 77745F73 		.ascii	"wt_saw_lut_f\000"
 3452      61775F6C 
 3452      75745F66 
ARM GAS  C:\msys64\tmp\ccdMD31d.s 			page 66


 3452      00
 3453              	.LASF27:
 3454 066a 6B5F7573 		.ascii	"k_user_module_osc\000"
 3454      65725F6D 
 3454      6F64756C 
 3454      655F6F73 
 3454      6300
 3455              	.LASF17:
 3456 067c 6C6F6E67 		.ascii	"long double\000"
 3456      20646F75 
 3456      626C6500 
 3457              	.LASF99:
 3458 0688 74686973 		.ascii	"this\000"
 3458      00
 3459              	.LASF149:
 3460 068d 5F5F7374 		.ascii	"__static_initialization_and_destruction_0\000"
 3460      61746963 
 3460      5F696E69 
 3460      7469616C 
 3460      697A6174 
 3461              	.LASF54:
 3462 06b7 74726961 		.ascii	"triangle_bi\000"
 3462      6E676C65 
 3462      5F626900 
 3463              	.LASF107:
 3464 06c3 5F686F6F 		.ascii	"_hook_process\000"
 3464      6B5F7072 
 3464      6F636573 
 3464      7300
 3465              	.LASF61:
 3466 06d1 5F5A4E33 		.ascii	"_ZN3dsp9SimpleLFO16triangle_uni_offEf\000"
 3466      64737039 
 3466      53696D70 
 3466      6C654C46 
 3466      4F313674 
 3467              	.LASF105:
 3468 06f7 5F686F6F 		.ascii	"_hook_init\000"
 3468      6B5F696E 
 3468      697400
 3469              	.LASF3:
 3470 0702 73686F72 		.ascii	"short int\000"
 3470      7420696E 
 3470      7400
 3471              	.LASF121:
 3472 070c 73717274 		.ascii	"sqrtm2log_lut_f\000"
 3472      6D326C6F 
 3472      675F6C75 
 3472      745F6600 
 3473              	.LASF123:
 3474 071c 63756269 		.ascii	"cubicsat_lut_f\000"
 3474      63736174 
 3474      5F6C7574 
 3474      5F6600
 3475              	.LASF130:
 3476 072b 77745F73 		.ascii	"wt_sqr_lut_f\000"
 3476      71725F6C 
 3476      75745F66 
ARM GAS  C:\msys64\tmp\ccdMD31d.s 			page 67


 3476      00
 3477              	.LASF7:
 3478 0738 6C6F6E67 		.ascii	"long int\000"
 3478      20696E74 
 3478      00
 3479              	.LASF40:
 3480 0741 73657446 		.ascii	"setF0\000"
 3480      3000
 3481              	.LASF142:
 3482 0747 2E2F7372 		.ascii	"./src/flanger.cpp\000"
 3482      632F666C 
 3482      616E6765 
 3482      722E6370 
 3482      7000
 3483              	.LASF38:
 3484 0759 5F5A4E33 		.ascii	"_ZN3dsp9SimpleLFO5cycleEv\000"
 3484      64737039 
 3484      53696D70 
 3484      6C654C46 
 3484      4F356379 
 3485              	.LASF117:
 3486 0773 6B5F6678 		.ascii	"k_fx_api_version\000"
 3486      5F617069 
 3486      5F766572 
 3486      73696F6E 
 3486      00
 3487              	.LASF88:
 3488 0784 5F5A4E33 		.ascii	"_ZN3dsp9DelayLine9setMemoryEPfj\000"
 3488      64737039 
 3488      44656C61 
 3488      794C696E 
 3488      65397365 
 3489              	.LASF24:
 3490 07a4 6B5F7573 		.ascii	"k_user_module_modfx\000"
 3490      65725F6D 
 3490      6F64756C 
 3490      655F6D6F 
 3490      64667800 
 3491              	.LASF34:
 3492 07b8 75736572 		.ascii	"user_delfx_param_id_t\000"
 3492      5F64656C 
 3492      66785F70 
 3492      6172616D 
 3492      5F69645F 
 3493              	.LASF48:
 3494 07ce 73696E65 		.ascii	"sine_uni\000"
 3494      5F756E69 
 3494      00
 3495              	.LASF59:
 3496 07d7 5F5A4E33 		.ascii	"_ZN3dsp9SimpleLFO15triangle_bi_offEf\000"
 3496      64737039 
 3496      53696D70 
 3496      6C654C46 
 3496      4F313574 
 3497              	.LASF102:
 3498 07fc 70686966 		.ascii	"phif\000"
 3498      00
ARM GAS  C:\msys64\tmp\ccdMD31d.s 			page 68


 3499              	.LASF37:
 3500 0801 72657365 		.ascii	"reset\000"
 3500      7400
 3501              	.LASF5:
 3502 0807 5F5F7569 		.ascii	"__uint8_t\000"
 3502      6E74385F 
 3502      7400
 3503              	.LASF91:
 3504 0811 72656164 		.ascii	"read\000"
 3504      00
 3505              	.LASF127:
 3506 0816 6B5F6F73 		.ascii	"k_osc_api_version\000"
 3506      635F6170 
 3506      695F7665 
 3506      7273696F 
 3506      6E00
 3507              	.LASF52:
 3508 0828 73696E65 		.ascii	"sine_uni_off\000"
 3508      5F756E69 
 3508      5F6F6666 
 3508      00
 3509              	.LASF29:
 3510 0835 6B5F7573 		.ascii	"k_user_delfx_param_time\000"
 3510      65725F64 
 3510      656C6678 
 3510      5F706172 
 3510      616D5F74 
 3511              	.LASF82:
 3512 084d 44656C61 		.ascii	"DelayLine\000"
 3512      794C696E 
 3512      6500
 3513              	.LASF22:
 3514 0857 7133315F 		.ascii	"q31_t\000"
 3514      7400
 3515              	.LASF18:
 3516 085d 73697A65 		.ascii	"sizetype\000"
 3516      74797065 
 3516      00
 3517              	.LASF94:
 3518 0866 5F5A4E33 		.ascii	"_ZN3dsp9DelayLine8readFracEf\000"
 3518      64737039 
 3518      44656C61 
 3518      794C696E 
 3518      65387265 
 3519              	.LASF9:
 3520 0883 6C6F6E67 		.ascii	"long unsigned int\000"
 3520      20756E73 
 3520      69676E65 
 3520      6420696E 
 3520      7400
 3521              	.LASF118:
 3522 0895 77745F73 		.ascii	"wt_sine_lut_f\000"
 3522      696E655F 
 3522      6C75745F 
 3522      6600
 3523              	.LASF42:
 3524 08a3 73657457 		.ascii	"setW0\000"
ARM GAS  C:\msys64\tmp\ccdMD31d.s 			page 69


 3524      3000
 3525              	.LASF14:
 3526 08a9 696E7433 		.ascii	"int32_t\000"
 3526      325F7400 
 3527              	.LASF76:
 3528 08b1 73717561 		.ascii	"square_uni_off\000"
 3528      72655F75 
 3528      6E695F6F 
 3528      666600
 3529              	.LASF136:
 3530 08c0 735F6D69 		.ascii	"s_mix\000"
 3530      7800
 3531              	.LASF86:
 3532 08c6 5F5A4E33 		.ascii	"_ZN3dsp9DelayLine5clearEv\000"
 3532      64737039 
 3532      44656C61 
 3532      794C696E 
 3532      6535636C 
 3533              	.LASF100:
 3534 08e0 66737265 		.ascii	"fsrecip\000"
 3534      63697000 
 3535              	.LASF135:
 3536 08e8 6C666F5F 		.ascii	"lfo_speed\000"
 3536      73706565 
 3536      6400
 3537              	.LASF2:
 3538 08f2 756E7369 		.ascii	"unsigned char\000"
 3538      676E6564 
 3538      20636861 
 3538      7200
 3539              	.LASF8:
 3540 0900 5F5F7569 		.ascii	"__uint32_t\000"
 3540      6E743332 
 3540      5F7400
 3541              	.LASF60:
 3542 090b 74726961 		.ascii	"triangle_uni_off\000"
 3542      6E676C65 
 3542      5F756E69 
 3542      5F6F6666 
 3542      00
 3543              	.LASF98:
 3544 091c 6E657874 		.ascii	"nextpow2_u32\000"
 3544      706F7732 
 3544      5F753332 
 3544      00
 3545              	.LASF23:
 3546 0929 6B5F7573 		.ascii	"k_user_module_global\000"
 3546      65725F6D 
 3546      6F64756C 
 3546      655F676C 
 3546      6F62616C 
 3547              	.LASF32:
 3548 093e 6B5F7573 		.ascii	"k_user_delfx_param_shift_depth\000"
 3548      65725F64 
 3548      656C6678 
 3548      5F706172 
 3548      616D5F73 
ARM GAS  C:\msys64\tmp\ccdMD31d.s 			page 70


 3549              	.LASF132:
 3550 095d 735F6465 		.ascii	"s_delay\000"
 3550      6C617900 
 3551              	.LASF144:
 3552 0965 6465636C 		.ascii	"decltype(nullptr)\000"
 3552      74797065 
 3552      286E756C 
 3552      6C707472 
 3552      2900
 3553              	.LASF71:
 3554 0977 73717561 		.ascii	"square_uni\000"
 3554      72655F75 
 3554      6E6900
 3555              	.LASF147:
 3556 0982 5F5A4E33 		.ascii	"_ZN3dsp9SimpleLFO14square_uni_offEf\000"
 3556      64737039 
 3556      53696D70 
 3556      6C654C46 
 3556      4F313473 
 3557              	.LASF140:
 3558 09a6 62706D5F 		.ascii	"bpm_valf\000"
 3558      76616C66 
 3558      00
 3559              	.LASF66:
 3560 09af 7361775F 		.ascii	"saw_bi_off\000"
 3560      62695F6F 
 3560      666600
 3561              	.LASF1:
 3562 09ba 7369676E 		.ascii	"signed char\000"
 3562      65642063 
 3562      68617200 
 3563              	.LASF4:
 3564 09c6 73686F72 		.ascii	"short unsigned int\000"
 3564      7420756E 
 3564      7369676E 
 3564      65642069 
 3564      6E7400
 3565              	.LASF92:
 3566 09d9 5F5A4E33 		.ascii	"_ZN3dsp9DelayLine4readEm\000"
 3566      64737039 
 3566      44656C61 
 3566      794C696E 
 3566      65347265 
 3567              	.LASF72:
 3568 09f2 5F5A4E33 		.ascii	"_ZN3dsp9SimpleLFO9square_biEv\000"
 3568      64737039 
 3568      53696D70 
 3568      6C654C46 
 3568      4F397371 
 3569              	.LASF78:
 3570 0a10 6D467261 		.ascii	"mFracZ\000"
 3570      635A00
 3571              	.LASF20:
 3572 0a17 646F7562 		.ascii	"double\000"
 3572      6C6500
 3573              	.LASF67:
 3574 0a1e 5F5A4E33 		.ascii	"_ZN3dsp9SimpleLFO10saw_bi_offEf\000"
ARM GAS  C:\msys64\tmp\ccdMD31d.s 			page 71


 3574      64737039 
 3574      53696D70 
 3574      6C654C46 
 3574      4F313073 
 3575              	.LASF56:
 3576 0a3e 74726961 		.ascii	"triangle_uni\000"
 3576      6E676C65 
 3576      5F756E69 
 3576      00
 3577              	.LASF114:
 3578 0a4b 76616C75 		.ascii	"value\000"
 3578      6500
 3579              	.LASF65:
 3580 0a51 5F5A4E33 		.ascii	"_ZN3dsp9SimpleLFO7saw_uniEv\000"
 3580      64737039 
 3580      53696D70 
 3580      6C654C46 
 3580      4F377361 
 3581              	.LASF36:
 3582 0a6d 6379636C 		.ascii	"cycle\000"
 3582      6500
 3583              	.LASF44:
 3584 0a73 53696D70 		.ascii	"SimpleLFO\000"
 3584      6C654C46 
 3584      4F00
 3585              	.LASF126:
 3586 0a7d 6B5F6F73 		.ascii	"k_osc_api_platform\000"
 3586      635F6170 
 3586      695F706C 
 3586      6174666F 
 3586      726D00
 3587              		.ident	"GCC: (GNU Tools for ARM Embedded Processors) 5.4.1 20160919 (release) [ARM/embedded-5-bran
ARM GAS  C:\msys64\tmp\ccdMD31d.s 			page 72


DEFINED SYMBOLS
                            *ABS*:00000000 flanger.cpp
C:\msys64\tmp\ccdMD31d.s:21     .text:00000000 $t
C:\msys64\tmp\ccdMD31d.s:26     .text:00000000 _hook_init
C:\msys64\tmp\ccdMD31d.s:110    .text:00000058 $d
C:\msys64\tmp\ccdMD31d.s:119    .text:00000068 $t
C:\msys64\tmp\ccdMD31d.s:124    .text:00000068 _hook_process
C:\msys64\tmp\ccdMD31d.s:344    .text:00000154 $d
C:\msys64\tmp\ccdMD31d.s:352    .text:00000164 $t
C:\msys64\tmp\ccdMD31d.s:357    .text:00000164 _hook_param
C:\msys64\tmp\ccdMD31d.s:418    .text:000001a8 $d
C:\msys64\tmp\ccdMD31d.s:425    .text.startup:00000000 $t
C:\msys64\tmp\ccdMD31d.s:429    .text.startup:00000000 _GLOBAL__sub_I_lfo_speed
C:\msys64\tmp\ccdMD31d.s:473    .text.startup:0000001c $d
C:\msys64\tmp\ccdMD31d.s:481    .init_array:00000000 $d
C:\msys64\tmp\ccdMD31d.s:525    .bss:0000002c bpm_valf
C:\msys64\tmp\ccdMD31d.s:521    .bss:00000028 wetXNR
C:\msys64\tmp\ccdMD31d.s:517    .bss:00000024 wetXNL
C:\msys64\tmp\ccdMD31d.s:513    .bss:00000020 gain
C:\msys64\tmp\ccdMD31d.s:509    .bss:0000001c s_mix
C:\msys64\tmp\ccdMD31d.s:494    .data:00000000 lfo_speed
C:\msys64\tmp\ccdMD31d.s:490    .data:00000000 $d
C:\msys64\tmp\ccdMD31d.s:497    .bss:00000000 $d
C:\msys64\tmp\ccdMD31d.s:501    .bss:00000000 _ZL7s_delay
C:\msys64\tmp\ccdMD31d.s:505    .bss:00000014 _ZL5s_lfo
C:\msys64\tmp\ccdMD31d.s:528    .sdram:00000000 $d
C:\msys64\tmp\ccdMD31d.s:532    .sdram:00000000 _ZL11s_delay_ram
                     .debug_frame:00000010 $d

NO UNDEFINED SYMBOLS
