ARM GAS  C:\msys64\tmp\ccXqW09Z.s 			page 1


   1              		.syntax unified
   2              		.cpu cortex-m4
   3              		.eabi_attribute 27, 1
   4              		.eabi_attribute 28, 1
   5              		.fpu fpv4-sp-d16
   6              		.eabi_attribute 20, 1
   7              		.eabi_attribute 21, 1
   8              		.eabi_attribute 23, 3
   9              		.eabi_attribute 24, 1
  10              		.eabi_attribute 25, 1
  11              		.eabi_attribute 26, 1
  12              		.eabi_attribute 30, 4
  13              		.eabi_attribute 34, 1
  14              		.eabi_attribute 18, 4
  15              		.thumb
  16              		.syntax unified
  17              		.file	"flanger.cpp"
  18              		.text
  19              	.Ltext0:
  20              		.cfi_sections	.debug_frame
  21              		.align	1
  22              		.global	_hook_init
  23              		.thumb
  24              		.thumb_func
  25              		.type	_hook_init, %function
  26              	_hook_init:
  27              	.LFB315:
  28              		.file 1 "./src/flanger.cpp"
  29              		.loc 1 29 0
  30              		.cfi_startproc
  31              		@ args = 0, pretend = 0, frame = 0
  32              		@ frame_needed = 0, uses_anonymous_args = 0
  33              	.LVL0:
  34 0000 10B5     		push	{r4, lr}
  35              		.cfi_def_cfa_offset 8
  36              		.cfi_offset 4, -8
  37              		.cfi_offset 14, -4
  38              	.LBB49:
  39              	.LBB50:
  40              		.file 2 "../inc/dsp/delayline.hpp"
  41              		.loc 2 114 0
  42 0002 1C4C     		ldr	r4, .L5
  43 0004 1C4A     		ldr	r2, .L5+4
  44 0006 2260     		str	r2, [r4]
  45              		.loc 2 115 0
  46 0008 4FF48023 		mov	r3, #262144
  47 000c A360     		str	r3, [r4, #8]
  48              		.loc 2 116 0
  49 000e 013B     		subs	r3, r3, #1
  50 0010 E360     		str	r3, [r4, #12]
  51              		.loc 2 117 0
  52 0012 0023     		movs	r3, #0
  53 0014 2361     		str	r3, [r4, #16]
  54              	.LVL1:
  55              	.LBE50:
  56              	.LBE49:
  57              	.LBB51:
ARM GAS  C:\msys64\tmp\ccXqW09Z.s 			page 2


  58              	.LBB52:
  59              	.LBB53:
  60              		.file 3 "../inc/utils/buffer_ops.h"
  61              		.loc 3 109 0
  62 0016 0021     		movs	r1, #0
  63              	.LVL2:
  64 0018 02F11003 		add	r3, r2, #16
  65 001c 02F11012 		add	r2, r2, #1048592
  66              	.LVL3:
  67              	.L2:
  68 0020 43F8101C 		str	r1, [r3, #-16]	@ float
  69              	.LVL4:
  70 0024 43F80C1C 		str	r1, [r3, #-12]	@ float
  71              	.LVL5:
  72 0028 43F8081C 		str	r1, [r3, #-8]	@ float
  73              	.LVL6:
  74 002c 43F8041C 		str	r1, [r3, #-4]	@ float
  75 0030 1033     		adds	r3, r3, #16
  76              	.LVL7:
  77              		.loc 3 108 0
  78 0032 9A42     		cmp	r2, r3
  79 0034 F4D1     		bne	.L2
  80              	.LVL8:
  81              	.LBE53:
  82              	.LBE52:
  83              	.LBE51:
  84              	.LBB54:
  85              	.LBB55:
  86              		.file 4 "../inc/dsp/simplelfo.hpp"
  87              		.loc 4 91 0
  88 0036 4FF00043 		mov	r3, #-2147483648
  89 003a 6361     		str	r3, [r4, #20]
  90              	.LVL9:
  91              	.LBE55:
  92              	.LBE54:
  93              		.loc 1 33 0
  94 003c FFF7FEFF 		bl	_fx_get_bpm
  95              	.LVL10:
  96              		.loc 1 34 0
  97 0040 0A23     		movs	r3, #10
  98              		.loc 1 33 0
  99 0042 E061     		str	r0, [r4, #28]
 100              		.loc 1 34 0
 101 0044 90FBF3F0 		sdiv	r0, r0, r3
 102 0048 3C23     		movs	r3, #60
 103 004a 93FBF0F0 		sdiv	r0, r3, r0
 104 004e 0B4B     		ldr	r3, .L5+8
 105              	.LBB56:
 106              	.LBB57:
 107              		.loc 4 103 0
 108 0050 9FED0B7A 		vldr.32	s14, .L5+12
 109              	.LBE57:
 110              	.LBE56:
 111              		.loc 1 34 0
 112 0054 5843     		muls	r0, r3, r0
 113              		.loc 1 35 0
 114 0056 4FF07C53 		mov	r3, #1056964608
ARM GAS  C:\msys64\tmp\ccXqW09Z.s 			page 3


 115 005a 6362     		str	r3, [r4, #36]	@ float
 116              	.LVL11:
 117              		.loc 1 36 0
 118 005c 094B     		ldr	r3, .L5+16
 119              		.loc 1 34 0
 120 005e 2062     		str	r0, [r4, #32]
 121              	.LBB59:
 122              	.LBB58:
 123              		.loc 4 103 0
 124 0060 D3ED007A 		vldr.32	s15, [r3]
 125 0064 67EE877A 		vmul.f32	s15, s15, s14
 126 0068 FEEEC07A 		vcvt.s32.f32	s15, s15, #32
 127 006c C4ED067A 		vstr.32	s15, [r4, #24]	@ int
 128              	.LVL12:
 129 0070 10BD     		pop	{r4, pc}
 130              	.L6:
 131 0072 00BF     		.align	2
 132              	.L5:
 133 0074 00000000 		.word	.LANCHOR0
 134 0078 00000000 		.word	.LANCHOR1
 135 007c 008A6600 		.word	6720000
 136 0080 3EC3AE37 		.word	934200126
 137 0084 00000000 		.word	.LANCHOR2
 138              	.LBE58:
 139              	.LBE59:
 140              		.cfi_endproc
 141              	.LFE315:
 142              		.size	_hook_init, .-_hook_init
 143              		.align	1
 144              		.global	_hook_process
 145              		.thumb
 146              		.thumb_func
 147              		.type	_hook_process, %function
 148              	_hook_process:
 149              	.LFB317:
 150              		.loc 1 45 0
 151              		.cfi_startproc
 152              		@ args = 0, pretend = 0, frame = 8
 153              		@ frame_needed = 0, uses_anonymous_args = 0
 154              	.LVL13:
 155 0088 2DE9F74F 		push	{r0, r1, r2, r4, r5, r6, r7, r8, r9, r10, fp, lr}
 156              		.cfi_def_cfa_offset 48
 157              		.cfi_offset 4, -36
 158              		.cfi_offset 5, -32
 159              		.cfi_offset 6, -28
 160              		.cfi_offset 7, -24
 161              		.cfi_offset 8, -20
 162              		.cfi_offset 9, -16
 163              		.cfi_offset 10, -12
 164              		.cfi_offset 11, -8
 165              		.cfi_offset 14, -4
 166              		.loc 1 49 0
 167 008c 484A     		ldr	r2, .L11
 168              	.LBB60:
 169              	.LBB61:
 170              	.LBB62:
 171              	.LBB63:
ARM GAS  C:\msys64\tmp\ccXqW09Z.s 			page 4


 172              		.loc 4 125 0
 173 008e 9FED494A 		vldr.32	s8, .L11+4
 174              	.LBE63:
 175              	.LBE62:
 176              	.LBB75:
 177              	.LBB76:
 178              		.loc 4 82 0
 179 0092 D2F81890 		ldr	r9, [r2, #24]
 180 0096 D2F814C0 		ldr	ip, [r2, #20]
 181 009a 1569     		ldr	r5, [r2, #16]
 182              	.LBE76:
 183              	.LBE75:
 184              	.LBE61:
 185              	.LBE60:
 186              		.loc 1 49 0
 187 009c 92ED096A 		vldr.32	s12, [r2, #36]
 188              	.LBB123:
 189              	.LBB120:
 190              	.LBB78:
 191              	.LBB79:
 192              		.loc 2 138 0
 193 00a0 1668     		ldr	r6, [r2]
 194 00a2 D768     		ldr	r7, [r2, #12]
 195              	.LBE79:
 196              	.LBE78:
 197              		.loc 1 54 0
 198 00a4 D2ED0A5A 		vldr.32	s11, [r2, #40]
 199              		.loc 1 60 0
 200 00a8 DFED433A 		vldr.32	s7, .L11+8
 201              		.loc 1 58 0
 202 00ac 0192     		str	r2, [sp, #4]
 203              	.LBE120:
 204              	.LBE123:
 205              		.loc 1 47 0
 206 00ae C900     		lsls	r1, r1, #3
 207              	.LVL14:
 208 00b0 00EB010B 		add	fp, r0, r1
 209              	.LVL15:
 210 00b4 4FEA4908 		lsl	r8, r9, #1
 211 00b8 E646     		mov	lr, ip
 212              	.LBB124:
 213              	.LBB121:
 214              	.LBB82:
 215              	.LBB77:
 216              		.loc 4 82 0
 217 00ba 2B46     		mov	r3, r5
 218              	.LBE77:
 219              	.LBE82:
 220              		.loc 1 56 0
 221 00bc F7EE004A 		vmov.f32	s9, #1.0e+0
 222 00c0 B1EE005A 		vmov.f32	s10, #4.0e+0
 223              	.LVL16:
 224              	.L9:
 225              	.LBE121:
 226              		.loc 1 52 0 discriminator 2
 227 00c4 8345     		cmp	fp, r0
 228 00c6 07EE10EA 		vmov	s14, lr	@ int
ARM GAS  C:\msys64\tmp\ccXqW09Z.s 			page 5


 229 00ca 00F10804 		add	r4, r0, #8
 230 00ce A3F10202 		sub	r2, r3, #2
 231 00d2 C644     		add	lr, lr, r8
 232 00d4 60D0     		beq	.L8
 233              	.LVL17:
 234              	.LBB122:
 235              	.LBB83:
 236              	.LBB84:
 237              		.loc 4 125 0
 238 00d6 C9EB0E00 		rsb	r0, r9, lr
 239              	.LVL18:
 240 00da 07EE900A 		vmov	s15, r0	@ int
 241              	.LBE84:
 242              	.LBE83:
 243              	.LBB90:
 244              	.LBB70:
 245 00de B8EEC77A 		vcvt.f32.s32	s14, s14
 246              	.LBE70:
 247              	.LBE90:
 248              	.LBB91:
 249              	.LBB87:
 250 00e2 F8EEE77A 		vcvt.f32.s32	s15, s15
 251              	.LBE87:
 252              	.LBE91:
 253              	.LBB92:
 254              	.LBB71:
 255 00e6 67EE046A 		vmul.f32	s13, s14, s8
 256              	.LVL19:
 257              	.LBE71:
 258              	.LBE92:
 259              	.LBB93:
 260              	.LBB88:
 261 00ea 27EE847A 		vmul.f32	s14, s15, s8
 262              	.LVL20:
 263              	.LBE88:
 264              	.LBE93:
 265              	.LBB94:
 266              	.LBB95:
 267              		.loc 2 138 0
 268 00ee 03F1EF00 		add	r0, r3, #239
 269              	.LBE95:
 270              	.LBE94:
 271              	.LBB98:
 272              	.LBB89:
 273              	.LBB85:
 274              	.LBB86:
 275              		.file 5 "../inc/utils/float_math.h"
 276              		.loc 5 287 0
 277 00f2 17EE10AA 		vmov	r10, s14	@ int
 278 00f6 2AF0004A 		bic	r10, r10, #-2147483648
 279 00fa 07EE90AA 		vmov	s15, r10	@ int
 280              	.LBE86:
 281              	.LBE85:
 282              	.LBE89:
 283              	.LBE98:
 284              		.loc 1 56 0
 285 00fe 77EEE47A 		vsub.f32	s15, s15, s9
ARM GAS  C:\msys64\tmp\ccXqW09Z.s 			page 6


 286              	.LBB99:
 287              	.LBB96:
 288              		.loc 2 138 0
 289 0102 3840     		ands	r0, r0, r7
 290              	.LBE96:
 291              	.LBE99:
 292              		.loc 1 56 0
 293 0104 67EE877A 		vmul.f32	s15, s15, s14
 294              	.LBB100:
 295              	.LBB97:
 296              		.loc 2 138 0
 297 0108 06EB8000 		add	r0, r6, r0, lsl #2
 298              	.LBE97:
 299              	.LBE100:
 300              	.LBB101:
 301              	.LBB72:
 302              	.LBB64:
 303              	.LBB65:
 304              		.loc 5 287 0
 305 010c 16EE90AA 		vmov	r10, s13	@ int
 306              	.LBE65:
 307              	.LBE64:
 308              	.LBE72:
 309              	.LBE101:
 310              		.loc 1 56 0
 311 0110 90ED007A 		vldr.32	s14, [r0]
 312 0114 67EE857A 		vmul.f32	s15, s15, s10
 313              	.LBB102:
 314              	.LBB73:
 315              	.LBB68:
 316              	.LBB66:
 317              		.loc 5 287 0
 318 0118 2AF0004A 		bic	r10, r10, #-2147483648
 319              	.LBE66:
 320              	.LBE68:
 321              	.LBE73:
 322              	.LBE102:
 323              		.loc 1 56 0
 324 011c 67EE877A 		vmul.f32	s15, s15, s14
 325              	.LBB103:
 326              	.LBB74:
 327              	.LBB69:
 328              	.LBB67:
 329              		.loc 5 287 0
 330 0120 07EE10AA 		vmov	s14, r10	@ int
 331              	.LBE67:
 332              	.LBE69:
 333              	.LBE74:
 334              	.LBE103:
 335              		.loc 1 58 0
 336 0124 37EE647A 		vsub.f32	s14, s14, s9
 337              	.LBB104:
 338              	.LBB80:
 339              		.loc 2 138 0
 340 0128 03F1F000 		add	r0, r3, #240
 341              	.LBE80:
 342              	.LBE104:
ARM GAS  C:\msys64\tmp\ccXqW09Z.s 			page 7


 343              		.loc 1 58 0
 344 012c 27EE267A 		vmul.f32	s14, s14, s13
 345              	.LBB105:
 346              	.LBB81:
 347              		.loc 2 138 0
 348 0130 3840     		ands	r0, r0, r7
 349 0132 06EB8000 		add	r0, r6, r0, lsl #2
 350              	.LBE81:
 351              	.LBE105:
 352              		.loc 1 58 0
 353 0136 D0ED006A 		vldr.32	s13, [r0]
 354              	.LVL21:
 355 013a 0198     		ldr	r0, [sp, #4]
 356 013c 27EE057A 		vmul.f32	s14, s14, s10
 357              		.loc 1 56 0
 358 0140 67EEA57A 		vmul.f32	s15, s15, s11
 359              	.LVL22:
 360              		.loc 1 58 0
 361 0144 27EE267A 		vmul.f32	s14, s14, s13
 362              		.loc 1 59 0
 363 0148 66EE277A 		vmul.f32	s15, s12, s15
 364              	.LVL23:
 365              		.loc 1 58 0
 366 014c 27EE257A 		vmul.f32	s14, s14, s11
 367              		.loc 1 59 0
 368 0150 C0ED0C7A 		vstr.32	s15, [r0, #48]
 369              		.loc 1 58 0
 370 0154 27EE067A 		vmul.f32	s14, s14, s12
 371 0158 80ED0B7A 		vstr.32	s14, [r0, #44]
 372              		.loc 1 60 0
 373 015c 54ED027A 		vldr.32	s15, [r4, #-8]
 374              		.loc 1 61 0
 375 0160 14ED017A 		vldr.32	s14, [r4, #-4]
 376              		.loc 1 60 0
 377 0164 77EEA37A 		vadd.f32	s15, s15, s7
 378 0168 44ED027A 		vstr.32	s15, [r4, #-8]
 379              		.loc 1 61 0
 380 016c D0ED0C6A 		vldr.32	s13, [r0, #48]
 381              	.LBB106:
 382              	.LBB107:
 383              		.loc 2 127 0
 384 0170 07EA0300 		and	r0, r7, r3
 385              	.LBE107:
 386              	.LBE106:
 387              		.loc 1 61 0
 388 0174 37EE267A 		vadd.f32	s14, s14, s13
 389              	.LBB110:
 390              	.LBB111:
 391              		.loc 2 127 0
 392 0178 013B     		subs	r3, r3, #1
 393              	.LBE111:
 394              	.LBE110:
 395              	.LBB115:
 396              	.LBB108:
 397 017a 06EB8000 		add	r0, r6, r0, lsl #2
 398              	.LBE108:
 399              	.LBE115:
ARM GAS  C:\msys64\tmp\ccXqW09Z.s 			page 8


 400              	.LBB116:
 401              	.LBB112:
 402 017e 3B40     		ands	r3, r3, r7
 403              	.LBE112:
 404              	.LBE116:
 405              		.loc 1 61 0
 406 0180 04ED017A 		vstr.32	s14, [r4, #-4]
 407              	.LVL24:
 408              	.LBB117:
 409              	.LBB113:
 410              		.loc 2 127 0
 411 0184 06EB8303 		add	r3, r6, r3, lsl #2
 412              	.LBE113:
 413              	.LBE117:
 414              	.LBB118:
 415              	.LBB109:
 416 0188 C0ED007A 		vstr.32	s15, [r0]
 417              	.LVL25:
 418              	.LBE109:
 419              	.LBE118:
 420              		.loc 1 63 0
 421 018c 54F8040C 		ldr	r0, [r4, #-4]	@ float
 422              	.LVL26:
 423              	.LBB119:
 424              	.LBB114:
 425              		.loc 2 127 0
 426 0190 1860     		str	r0, [r3]	@ float
 427              	.LVL27:
 428              	.LBE114:
 429              	.LBE119:
 430              	.LBE122:
 431              		.loc 1 52 0
 432 0192 1346     		mov	r3, r2
 433 0194 2046     		mov	r0, r4
 434 0196 95E7     		b	.L9
 435              	.LVL28:
 436              	.L8:
 437 0198 054B     		ldr	r3, .L11
 438 019a C908     		lsrs	r1, r1, #3
 439 019c A5EB4105 		sub	r5, r5, r1, lsl #1
 440 01a0 08FB01C1 		mla	r1, r8, r1, ip
 441 01a4 1D61     		str	r5, [r3, #16]
 442 01a6 5961     		str	r1, [r3, #20]
 443              	.LBE124:
 444              		.loc 1 65 0
 445 01a8 03B0     		add	sp, sp, #12
 446              		.cfi_def_cfa_offset 36
 447              		@ sp needed
 448 01aa BDE8F08F 		pop	{r4, r5, r6, r7, r8, r9, r10, fp, pc}
 449              	.LVL29:
 450              	.L12:
 451 01ae 00BF     		.align	2
 452              	.L11:
 453 01b0 00000000 		.word	.LANCHOR0
 454 01b4 00000030 		.word	805306368
 455 01b8 00000000 		.word	0
 456              		.cfi_endproc
ARM GAS  C:\msys64\tmp\ccXqW09Z.s 			page 9


 457              	.LFE317:
 458              		.size	_hook_process, .-_hook_process
 459              		.align	1
 460              		.global	_hook_param
 461              		.thumb
 462              		.thumb_func
 463              		.type	_hook_param, %function
 464              	_hook_param:
 465              	.LFB318:
 466              		.loc 1 68 0
 467              		.cfi_startproc
 468              		@ args = 0, pretend = 0, frame = 0
 469              		@ frame_needed = 0, uses_anonymous_args = 0
 470              		@ link register save eliminated.
 471              	.LVL30:
 472              		.loc 1 69 0
 473 01bc 07EE901A 		vmov	s15, r1	@ int
 474              		.loc 1 70 0
 475 01c0 0128     		cmp	r0, #1
 476              		.loc 1 69 0
 477 01c2 FAEEE07A 		vcvt.f32.s32	s15, s15, #31
 478              	.LVL31:
 479              		.loc 1 70 0
 480 01c6 07D0     		beq	.L15
 481 01c8 02D3     		bcc	.L16
 482 01ca 0328     		cmp	r0, #3
 483 01cc 13D0     		beq	.L17
 484 01ce 7047     		bx	lr
 485              	.L16:
 486              		.loc 1 74 0
 487 01d0 0B4B     		ldr	r3, .L18
 488 01d2 C3ED0A7A 		vstr.32	s15, [r3, #40]
 489              		.loc 1 75 0
 490 01d6 7047     		bx	lr
 491              	.L15:
 492              		.loc 1 77 0
 493 01d8 77EEA77A 		vadd.f32	s15, s15, s15
 494              	.LVL32:
 495 01dc 094B     		ldr	r3, .L18+4
 496              	.LBB125:
 497              	.LBB126:
 498              		.loc 4 103 0
 499 01de 9FED0A7A 		vldr.32	s14, .L18+8
 500              	.LBE126:
 501              	.LBE125:
 502              		.loc 1 77 0
 503 01e2 C3ED007A 		vstr.32	s15, [r3]
 504              	.LVL33:
 505              	.LBB128:
 506              	.LBB127:
 507              		.loc 4 103 0
 508 01e6 67EE877A 		vmul.f32	s15, s15, s14
 509              	.LVL34:
 510 01ea 054B     		ldr	r3, .L18
 511 01ec FEEEC07A 		vcvt.s32.f32	s15, s15, #32
 512 01f0 C3ED067A 		vstr.32	s15, [r3, #24]	@ int
 513 01f4 7047     		bx	lr
ARM GAS  C:\msys64\tmp\ccXqW09Z.s 			page 10


 514              	.LVL35:
 515              	.L17:
 516              	.LBE127:
 517              	.LBE128:
 518              		.loc 1 82 0
 519 01f6 024B     		ldr	r3, .L18
 520 01f8 C3ED097A 		vstr.32	s15, [r3, #36]
 521 01fc 7047     		bx	lr
 522              	.L19:
 523 01fe 00BF     		.align	2
 524              	.L18:
 525 0200 00000000 		.word	.LANCHOR0
 526 0204 00000000 		.word	.LANCHOR2
 527 0208 3EC3AE37 		.word	934200126
 528              		.cfi_endproc
 529              	.LFE318:
 530              		.size	_hook_param, .-_hook_param
 531              		.section	.text.startup,"ax",%progbits
 532              		.align	1
 533              		.thumb
 534              		.thumb_func
 535              		.type	_GLOBAL__sub_I_lfo_speed, %function
 536              	_GLOBAL__sub_I_lfo_speed:
 537              	.LFB320:
 538              		.loc 1 87 0
 539              		.cfi_startproc
 540              		@ args = 0, pretend = 0, frame = 0
 541              		@ frame_needed = 0, uses_anonymous_args = 0
 542              		@ link register save eliminated.
 543              	.LVL36:
 544              	.LBB136:
 545              	.LBB137:
 546              	.LBB138:
 547              		.loc 2 74 0
 548 0000 064B     		ldr	r3, .L21
 549 0002 0021     		movs	r1, #0
 550 0004 0022     		movs	r2, #0
 551 0006 5960     		str	r1, [r3, #4]	@ float
 552              	.LBE138:
 553              	.LBE137:
 554              	.LBB140:
 555              	.LBB141:
 556              		.loc 4 69 0
 557 0008 4FF00041 		mov	r1, #-2147483648
 558              	.LBE141:
 559              	.LBE140:
 560              	.LBB143:
 561              	.LBB139:
 562              		.loc 2 74 0
 563 000c 1A60     		str	r2, [r3]
 564 000e 9A60     		str	r2, [r3, #8]
 565 0010 DA60     		str	r2, [r3, #12]
 566 0012 1A61     		str	r2, [r3, #16]
 567              	.LVL37:
 568              	.LBE139:
 569              	.LBE143:
 570              	.LBB144:
ARM GAS  C:\msys64\tmp\ccXqW09Z.s 			page 11


 571              	.LBB142:
 572              		.loc 4 69 0
 573 0014 5961     		str	r1, [r3, #20]
 574 0016 9A61     		str	r2, [r3, #24]
 575              	.LVL38:
 576 0018 7047     		bx	lr
 577              	.L22:
 578 001a 00BF     		.align	2
 579              	.L21:
 580 001c 00000000 		.word	.LANCHOR0
 581              	.LBE142:
 582              	.LBE144:
 583              	.LBE136:
 584              		.cfi_endproc
 585              	.LFE320:
 586              		.size	_GLOBAL__sub_I_lfo_speed, .-_GLOBAL__sub_I_lfo_speed
 587              		.section	.init_array,"aw",%init_array
 588              		.align	2
 589 0000 00000000 		.word	_GLOBAL__sub_I_lfo_speed(target1)
 590              		.global	bpm
 591              		.global	wetXNR
 592              		.global	wetXNL
 593              		.global	s_len
 594              		.global	lfo_speed
 595              		.data
 596              		.align	2
 597              		.set	.LANCHOR2,. + 0
 598              		.type	lfo_speed, %object
 599              		.size	lfo_speed, 4
 600              	lfo_speed:
 601 0000 0000003F 		.word	1056964608
 602              		.bss
 603              		.align	2
 604              		.set	.LANCHOR0,. + 0
 605              		.type	_ZL7s_delay, %object
 606              		.size	_ZL7s_delay, 20
 607              	_ZL7s_delay:
 608 0000 00000000 		.space	20
 608      00000000 
 608      00000000 
 608      00000000 
 608      00000000 
 609              		.type	_ZL5s_lfo, %object
 610              		.size	_ZL5s_lfo, 8
 611              	_ZL5s_lfo:
 612 0014 00000000 		.space	8
 612      00000000 
 613              		.type	bpm, %object
 614              		.size	bpm, 4
 615              	bpm:
 616 001c 00000000 		.space	4
 617              		.type	s_len, %object
 618              		.size	s_len, 4
 619              	s_len:
 620 0020 00000000 		.space	4
 621              		.type	_ZL5s_mix, %object
 622              		.size	_ZL5s_mix, 4
ARM GAS  C:\msys64\tmp\ccXqW09Z.s 			page 12


 623              	_ZL5s_mix:
 624 0024 00000000 		.space	4
 625              		.type	_ZL4gain, %object
 626              		.size	_ZL4gain, 4
 627              	_ZL4gain:
 628 0028 00000000 		.space	4
 629              		.type	wetXNL, %object
 630              		.size	wetXNL, 4
 631              	wetXNL:
 632 002c 00000000 		.space	4
 633              		.type	wetXNR, %object
 634              		.size	wetXNR, 4
 635              	wetXNR:
 636 0030 00000000 		.space	4
 637              		.section	.sdram,"aw",%progbits
 638              		.align	2
 639              		.set	.LANCHOR1,. + 0
 640              		.type	_ZL11s_delay_ram, %object
 641              		.size	_ZL11s_delay_ram, 840000
 642              	_ZL11s_delay_ram:
 643 0000 00000000 		.space	840000
 643      00000000 
 643      00000000 
 643      00000000 
 643      00000000 
 644              		.text
 645              	.Letext0:
 646              		.file 6 "c:\\users\\bradl\\desktop\\code projects\\korgfx\\korgdelayfxset\\delays\\tools\\gcc\\gcc
 647              		.file 7 "c:\\users\\bradl\\desktop\\code projects\\korgfx\\korgdelayfxset\\delays\\tools\\gcc\\gcc
 648              		.file 8 "c:\\users\\bradl\\desktop\\code projects\\korgfx\\korgdelayfxset\\delays\\tools\\gcc\\gcc
 649              		.file 9 "../../ext/CMSIS/CMSIS/Include/arm_math.h"
 650              		.file 10 "../inc/utils/int_math.h"
 651              		.file 11 "../inc/fx_api.h"
 652              		.file 12 "../inc/osc_api.h"
 653              		.file 13 "../inc/userprg.h"
 654              		.section	.debug_info,"",%progbits
 655              	.Ldebug_info0:
 656 0000 F50C0000 		.4byte	0xcf5
 657 0004 0400     		.2byte	0x4
 658 0006 00000000 		.4byte	.Ldebug_abbrev0
 659 000a 04       		.byte	0x4
 660 000b 01       		.uleb128 0x1
 661 000c C6000000 		.4byte	.LASF134
 662 0010 04       		.byte	0x4
 663 0011 DB060000 		.4byte	.LASF135
 664 0015 20000000 		.4byte	.LASF136
 665 0019 88010000 		.4byte	.Ldebug_ranges0+0x188
 666 001d 00000000 		.4byte	0
 667 0021 00000000 		.4byte	.Ldebug_line0
 668 0025 02       		.uleb128 0x2
 669 0026 04       		.byte	0x4
 670 0027 04       		.byte	0x4
 671 0028 92020000 		.4byte	.LASF0
 672 002c 03       		.uleb128 0x3
 673 002d 04       		.byte	0x4
 674 002e 05       		.byte	0x5
 675 002f 696E7400 		.ascii	"int\000"
ARM GAS  C:\msys64\tmp\ccXqW09Z.s 			page 13


 676 0033 02       		.uleb128 0x2
 677 0034 01       		.byte	0x1
 678 0035 06       		.byte	0x6
 679 0036 0A090000 		.4byte	.LASF1
 680 003a 04       		.uleb128 0x4
 681 003b 8B070000 		.4byte	.LASF5
 682 003f 06       		.byte	0x6
 683 0040 1D       		.byte	0x1d
 684 0041 45000000 		.4byte	0x45
 685 0045 02       		.uleb128 0x2
 686 0046 01       		.byte	0x1
 687 0047 08       		.byte	0x8
 688 0048 6A080000 		.4byte	.LASF2
 689 004c 02       		.uleb128 0x2
 690 004d 02       		.byte	0x2
 691 004e 05       		.byte	0x5
 692 004f 96060000 		.4byte	.LASF3
 693 0053 02       		.uleb128 0x2
 694 0054 02       		.byte	0x2
 695 0055 07       		.byte	0x7
 696 0056 16090000 		.4byte	.LASF4
 697 005a 04       		.uleb128 0x4
 698 005b 0D020000 		.4byte	.LASF6
 699 005f 06       		.byte	0x6
 700 0060 3F       		.byte	0x3f
 701 0061 65000000 		.4byte	0x65
 702 0065 02       		.uleb128 0x2
 703 0066 04       		.byte	0x4
 704 0067 05       		.byte	0x5
 705 0068 CC060000 		.4byte	.LASF7
 706 006c 04       		.uleb128 0x4
 707 006d 78080000 		.4byte	.LASF8
 708 0071 06       		.byte	0x6
 709 0072 41       		.byte	0x41
 710 0073 77000000 		.4byte	0x77
 711 0077 02       		.uleb128 0x2
 712 0078 04       		.byte	0x4
 713 0079 07       		.byte	0x7
 714 007a EF070000 		.4byte	.LASF9
 715 007e 02       		.uleb128 0x2
 716 007f 08       		.byte	0x8
 717 0080 05       		.byte	0x5
 718 0081 F8040000 		.4byte	.LASF10
 719 0085 02       		.uleb128 0x2
 720 0086 08       		.byte	0x8
 721 0087 07       		.byte	0x7
 722 0088 CC020000 		.4byte	.LASF11
 723 008c 02       		.uleb128 0x2
 724 008d 04       		.byte	0x4
 725 008e 07       		.byte	0x7
 726 008f DE010000 		.4byte	.LASF12
 727 0093 04       		.uleb128 0x4
 728 0094 7F040000 		.4byte	.LASF13
 729 0098 07       		.byte	0x7
 730 0099 18       		.byte	0x18
 731 009a 3A000000 		.4byte	0x3a
 732 009e 04       		.uleb128 0x4
ARM GAS  C:\msys64\tmp\ccXqW09Z.s 			page 14


 733 009f 15080000 		.4byte	.LASF14
 734 00a3 07       		.byte	0x7
 735 00a4 2C       		.byte	0x2c
 736 00a5 5A000000 		.4byte	0x5a
 737 00a9 04       		.uleb128 0x4
 738 00aa 42020000 		.4byte	.LASF15
 739 00ae 07       		.byte	0x7
 740 00af 30       		.byte	0x30
 741 00b0 6C000000 		.4byte	0x6c
 742 00b4 04       		.uleb128 0x4
 743 00b5 53030000 		.4byte	.LASF16
 744 00b9 08       		.byte	0x8
 745 00ba D8       		.byte	0xd8
 746 00bb 8C000000 		.4byte	0x8c
 747 00bf 02       		.uleb128 0x2
 748 00c0 08       		.byte	0x8
 749 00c1 04       		.byte	0x4
 750 00c2 EE050000 		.4byte	.LASF17
 751 00c6 05       		.uleb128 0x5
 752 00c7 BE080000 		.4byte	.LASF137
 753 00cb 02       		.uleb128 0x2
 754 00cc 04       		.byte	0x4
 755 00cd 07       		.byte	0x7
 756 00ce C9070000 		.4byte	.LASF18
 757 00d2 02       		.uleb128 0x2
 758 00d3 01       		.byte	0x1
 759 00d4 08       		.byte	0x8
 760 00d5 08040000 		.4byte	.LASF19
 761 00d9 02       		.uleb128 0x2
 762 00da 08       		.byte	0x8
 763 00db 04       		.byte	0x4
 764 00dc 67090000 		.4byte	.LASF20
 765 00e0 06       		.uleb128 0x6
 766 00e1 04       		.byte	0x4
 767 00e2 05       		.byte	0x5
 768 00e3 A1       		.byte	0xa1
 769 00e4 C2050000 		.4byte	.LASF138
 770 00e8 FF000000 		.4byte	0xff
 771 00ec 07       		.uleb128 0x7
 772 00ed 6600     		.ascii	"f\000"
 773 00ef 05       		.byte	0x5
 774 00f0 A2       		.byte	0xa2
 775 00f1 25000000 		.4byte	0x25
 776 00f5 07       		.uleb128 0x7
 777 00f6 6900     		.ascii	"i\000"
 778 00f8 05       		.byte	0x5
 779 00f9 A3       		.byte	0xa3
 780 00fa A9000000 		.4byte	0xa9
 781 00fe 00       		.byte	0
 782 00ff 04       		.uleb128 0x4
 783 0100 00000000 		.4byte	.LASF21
 784 0104 05       		.byte	0x5
 785 0105 A4       		.byte	0xa4
 786 0106 E0000000 		.4byte	0xe0
 787 010a 08       		.uleb128 0x8
 788 010b C3070000 		.4byte	.LASF22
 789 010f 09       		.byte	0x9
ARM GAS  C:\msys64\tmp\ccXqW09Z.s 			page 15


 790 0110 8D01     		.2byte	0x18d
 791 0112 9E000000 		.4byte	0x9e
 792 0116 09       		.uleb128 0x9
 793 0117 01       		.byte	0x1
 794 0118 45000000 		.4byte	0x45
 795 011c 0D       		.byte	0xd
 796 011d 35       		.byte	0x35
 797 011e 47010000 		.4byte	0x147
 798 0122 0A       		.uleb128 0xa
 799 0123 A1080000 		.4byte	.LASF23
 800 0127 00       		.byte	0
 801 0128 0A       		.uleb128 0xa
 802 0129 38070000 		.4byte	.LASF24
 803 012d 01       		.byte	0x1
 804 012e 0A       		.uleb128 0xa
 805 012f 9E020000 		.4byte	.LASF25
 806 0133 02       		.byte	0x2
 807 0134 0A       		.uleb128 0xa
 808 0135 5A030000 		.4byte	.LASF26
 809 0139 03       		.byte	0x3
 810 013a 0A       		.uleb128 0xa
 811 013b DC050000 		.4byte	.LASF27
 812 013f 04       		.byte	0x4
 813 0140 0A       		.uleb128 0xa
 814 0141 49050000 		.4byte	.LASF28
 815 0145 05       		.byte	0x5
 816 0146 00       		.byte	0
 817 0147 0B       		.uleb128 0xb
 818 0148 04       		.byte	0x4
 819 0149 25000000 		.4byte	0x25
 820 014d 0C       		.uleb128 0xc
 821 014e 64737000 		.ascii	"dsp\000"
 822 0152 04       		.byte	0x4
 823 0153 32       		.byte	0x32
 824 0154 51050000 		.4byte	0x551
 825 0158 0D       		.uleb128 0xd
 826 0159 BD090000 		.4byte	.LASF38
 827 015d 08       		.byte	0x8
 828 015e 04       		.byte	0x4
 829 015f 37       		.byte	0x37
 830 0160 06040000 		.4byte	0x406
 831 0164 0E       		.uleb128 0xe
 832 0165 B5030000 		.4byte	.LASF29
 833 0169 04       		.byte	0x4
 834 016a 2A01     		.2byte	0x12a
 835 016c 0A010000 		.4byte	0x10a
 836 0170 00       		.byte	0
 837 0171 0F       		.uleb128 0xf
 838 0172 773000   		.ascii	"w0\000"
 839 0175 04       		.byte	0x4
 840 0176 2B01     		.2byte	0x12b
 841 0178 0A010000 		.4byte	0x10a
 842 017c 04       		.byte	0x4
 843 017d 10       		.uleb128 0x10
 844 017e BD090000 		.4byte	.LASF38
 845 0182 04       		.byte	0x4
 846 0183 44       		.byte	0x44
ARM GAS  C:\msys64\tmp\ccXqW09Z.s 			page 16


 847 0184 9F030000 		.4byte	.LASF40
 848 0188 51050000 		.4byte	0x551
 849 018c 94010000 		.4byte	0x194
 850 0190 9A010000 		.4byte	0x19a
 851 0194 11       		.uleb128 0x11
 852 0195 51050000 		.4byte	0x551
 853 0199 00       		.byte	0
 854 019a 12       		.uleb128 0x12
 855 019b 4C070000 		.4byte	.LASF30
 856 019f 04       		.byte	0x4
 857 01a0 50       		.byte	0x50
 858 01a1 ED060000 		.4byte	.LASF32
 859 01a5 AD010000 		.4byte	0x1ad
 860 01a9 B3010000 		.4byte	0x1b3
 861 01ad 11       		.uleb128 0x11
 862 01ae 51050000 		.4byte	0x551
 863 01b2 00       		.byte	0
 864 01b3 12       		.uleb128 0x12
 865 01b4 85070000 		.4byte	.LASF31
 866 01b8 04       		.byte	0x4
 867 01b9 59       		.byte	0x59
 868 01ba B2020000 		.4byte	.LASF33
 869 01be C6010000 		.4byte	0x1c6
 870 01c2 CC010000 		.4byte	0x1cc
 871 01c6 11       		.uleb128 0x11
 872 01c7 51050000 		.4byte	0x551
 873 01cb 00       		.byte	0
 874 01cc 12       		.uleb128 0x12
 875 01cd D5060000 		.4byte	.LASF34
 876 01d1 04       		.byte	0x4
 877 01d2 65       		.byte	0x65
 878 01d3 99040000 		.4byte	.LASF35
 879 01d7 DF010000 		.4byte	0x1df
 880 01db EF010000 		.4byte	0x1ef
 881 01df 11       		.uleb128 0x11
 882 01e0 51050000 		.4byte	0x551
 883 01e4 13       		.uleb128 0x13
 884 01e5 25000000 		.4byte	0x25
 885 01e9 13       		.uleb128 0x13
 886 01ea 25000000 		.4byte	0x25
 887 01ee 00       		.byte	0
 888 01ef 12       		.uleb128 0x12
 889 01f0 0F080000 		.4byte	.LASF36
 890 01f4 04       		.byte	0x4
 891 01f5 70       		.byte	0x70
 892 01f6 E7030000 		.4byte	.LASF37
 893 01fa 02020000 		.4byte	0x202
 894 01fe 0D020000 		.4byte	0x20d
 895 0202 11       		.uleb128 0x11
 896 0203 51050000 		.4byte	0x551
 897 0207 13       		.uleb128 0x13
 898 0208 25000000 		.4byte	0x25
 899 020c 00       		.byte	0
 900 020d 10       		.uleb128 0x10
 901 020e 6E030000 		.4byte	.LASF39
 902 0212 04       		.byte	0x4
 903 0213 7B       		.byte	0x7b
ARM GAS  C:\msys64\tmp\ccXqW09Z.s 			page 17


 904 0214 ED020000 		.4byte	.LASF41
 905 0218 25000000 		.4byte	0x25
 906 021c 24020000 		.4byte	0x224
 907 0220 2A020000 		.4byte	0x22a
 908 0224 11       		.uleb128 0x11
 909 0225 51050000 		.4byte	0x551
 910 0229 00       		.byte	0
 911 022a 10       		.uleb128 0x10
 912 022b 52070000 		.4byte	.LASF42
 913 022f 04       		.byte	0x4
 914 0230 85       		.byte	0x85
 915 0231 50020000 		.4byte	.LASF43
 916 0235 25000000 		.4byte	0x25
 917 0239 41020000 		.4byte	0x241
 918 023d 47020000 		.4byte	0x247
 919 0241 11       		.uleb128 0x11
 920 0242 51050000 		.4byte	0x551
 921 0246 00       		.byte	0
 922 0247 10       		.uleb128 0x10
 923 0248 47030000 		.4byte	.LASF44
 924 024c 04       		.byte	0x4
 925 024d 91       		.byte	0x91
 926 024e A1050000 		.4byte	.LASF45
 927 0252 25000000 		.4byte	0x25
 928 0256 5E020000 		.4byte	0x25e
 929 025a 69020000 		.4byte	0x269
 930 025e 11       		.uleb128 0x11
 931 025f 51050000 		.4byte	0x551
 932 0263 13       		.uleb128 0x13
 933 0264 25000000 		.4byte	0x25
 934 0268 00       		.byte	0
 935 0269 10       		.uleb128 0x10
 936 026a AC070000 		.4byte	.LASF46
 937 026e 04       		.byte	0x4
 938 026f 9D       		.byte	0x9d
 939 0270 B4040000 		.4byte	.LASF47
 940 0274 25000000 		.4byte	0x25
 941 0278 80020000 		.4byte	0x280
 942 027c 8B020000 		.4byte	0x28b
 943 0280 11       		.uleb128 0x11
 944 0281 51050000 		.4byte	0x551
 945 0285 13       		.uleb128 0x13
 946 0286 25000000 		.4byte	0x25
 947 028a 00       		.byte	0
 948 028b 10       		.uleb128 0x10
 949 028c 29060000 		.4byte	.LASF48
 950 0290 04       		.byte	0x4
 951 0291 A8       		.byte	0xa8
 952 0292 99000000 		.4byte	.LASF49
 953 0296 25000000 		.4byte	0x25
 954 029a A2020000 		.4byte	0x2a2
 955 029e A8020000 		.4byte	0x2a8
 956 02a2 11       		.uleb128 0x11
 957 02a3 51050000 		.4byte	0x551
 958 02a7 00       		.byte	0
 959 02a8 10       		.uleb128 0x10
 960 02a9 8E090000 		.4byte	.LASF50
ARM GAS  C:\msys64\tmp\ccXqW09Z.s 			page 18


 961 02ad 04       		.byte	0x4
 962 02ae B1       		.byte	0xb1
 963 02af 35060000 		.4byte	.LASF51
 964 02b3 25000000 		.4byte	0x25
 965 02b7 BF020000 		.4byte	0x2bf
 966 02bb C5020000 		.4byte	0x2c5
 967 02bf 11       		.uleb128 0x11
 968 02c0 51050000 		.4byte	0x551
 969 02c4 00       		.byte	0
 970 02c5 10       		.uleb128 0x10
 971 02c6 18040000 		.4byte	.LASF52
 972 02ca 04       		.byte	0x4
 973 02cb BC       		.byte	0xbc
 974 02cc 5B070000 		.4byte	.LASF53
 975 02d0 25000000 		.4byte	0x25
 976 02d4 DC020000 		.4byte	0x2dc
 977 02d8 E7020000 		.4byte	0x2e7
 978 02dc 11       		.uleb128 0x11
 979 02dd 51050000 		.4byte	0x551
 980 02e1 13       		.uleb128 0x13
 981 02e2 25000000 		.4byte	0x25
 982 02e6 00       		.byte	0
 983 02e7 10       		.uleb128 0x10
 984 02e8 83080000 		.4byte	.LASF54
 985 02ec 04       		.byte	0x4
 986 02ed C8       		.byte	0xc8
 987 02ee 65060000 		.4byte	.LASF55
 988 02f2 25000000 		.4byte	0x25
 989 02f6 FE020000 		.4byte	0x2fe
 990 02fa 09030000 		.4byte	0x309
 991 02fe 11       		.uleb128 0x11
 992 02ff 51050000 		.4byte	0x551
 993 0303 13       		.uleb128 0x13
 994 0304 25000000 		.4byte	0x25
 995 0308 00       		.byte	0
 996 0309 10       		.uleb128 0x10
 997 030a 3B020000 		.4byte	.LASF56
 998 030e 04       		.byte	0x4
 999 030f D3       		.byte	0xd3
 1000 0310 66050000 		.4byte	.LASF57
 1001 0314 25000000 		.4byte	0x25
 1002 0318 20030000 		.4byte	0x320
 1003 031c 26030000 		.4byte	0x326
 1004 0320 11       		.uleb128 0x11
 1005 0321 51050000 		.4byte	0x551
 1006 0325 00       		.byte	0
 1007 0326 10       		.uleb128 0x10
 1008 0327 8C030000 		.4byte	.LASF58
 1009 032b 04       		.byte	0x4
 1010 032c DC       		.byte	0xdc
 1011 032d A1090000 		.4byte	.LASF59
 1012 0331 25000000 		.4byte	0x25
 1013 0335 3D030000 		.4byte	0x33d
 1014 0339 43030000 		.4byte	0x343
 1015 033d 11       		.uleb128 0x11
 1016 033e 51050000 		.4byte	0x551
 1017 0342 00       		.byte	0
ARM GAS  C:\msys64\tmp\ccXqW09Z.s 			page 19


 1018 0343 10       		.uleb128 0x10
 1019 0344 FF080000 		.4byte	.LASF60
 1020 0348 04       		.byte	0x4
 1021 0349 E7       		.byte	0xe7
 1022 034a 6E090000 		.4byte	.LASF61
 1023 034e 25000000 		.4byte	0x25
 1024 0352 5A030000 		.4byte	0x35a
 1025 0356 65030000 		.4byte	0x365
 1026 035a 11       		.uleb128 0x11
 1027 035b 51050000 		.4byte	0x551
 1028 035f 13       		.uleb128 0x13
 1029 0360 25000000 		.4byte	0x25
 1030 0364 00       		.byte	0
 1031 0365 10       		.uleb128 0x10
 1032 0366 BA030000 		.4byte	.LASF62
 1033 036a 04       		.byte	0x4
 1034 036b F3       		.byte	0xf3
 1035 036c C6030000 		.4byte	.LASF63
 1036 0370 25000000 		.4byte	0x25
 1037 0374 7C030000 		.4byte	0x37c
 1038 0378 87030000 		.4byte	0x387
 1039 037c 11       		.uleb128 0x11
 1040 037d 51050000 		.4byte	0x551
 1041 0381 13       		.uleb128 0x13
 1042 0382 25000000 		.4byte	0x25
 1043 0386 00       		.byte	0
 1044 0387 14       		.uleb128 0x14
 1045 0388 E3020000 		.4byte	.LASF64
 1046 038c 04       		.byte	0x4
 1047 038d 0001     		.2byte	0x100
 1048 038f 42090000 		.4byte	.LASF66
 1049 0393 25000000 		.4byte	0x25
 1050 0397 9F030000 		.4byte	0x39f
 1051 039b A5030000 		.4byte	0x3a5
 1052 039f 11       		.uleb128 0x11
 1053 03a0 51050000 		.4byte	0x551
 1054 03a4 00       		.byte	0
 1055 03a5 14       		.uleb128 0x14
 1056 03a6 D0080000 		.4byte	.LASF65
 1057 03aa 04       		.byte	0x4
 1058 03ab 0901     		.2byte	0x109
 1059 03ad 29050000 		.4byte	.LASF67
 1060 03b1 25000000 		.4byte	0x25
 1061 03b5 BD030000 		.4byte	0x3bd
 1062 03b9 C3030000 		.4byte	0x3c3
 1063 03bd 11       		.uleb128 0x11
 1064 03be 51050000 		.4byte	0x551
 1065 03c2 00       		.byte	0
 1066 03c3 14       		.uleb128 0x14
 1067 03c4 84020000 		.4byte	.LASF68
 1068 03c8 04       		.byte	0x4
 1069 03c9 1401     		.2byte	0x114
 1070 03cb 3A040000 		.4byte	.LASF69
 1071 03cf 25000000 		.4byte	0x25
 1072 03d3 DB030000 		.4byte	0x3db
 1073 03d7 E6030000 		.4byte	0x3e6
 1074 03db 11       		.uleb128 0x11
ARM GAS  C:\msys64\tmp\ccXqW09Z.s 			page 20


 1075 03dc 51050000 		.4byte	0x551
 1076 03e0 13       		.uleb128 0x13
 1077 03e1 25000000 		.4byte	0x25
 1078 03e5 00       		.byte	0
 1079 03e6 15       		.uleb128 0x15
 1080 03e7 1D080000 		.4byte	.LASF70
 1081 03eb 04       		.byte	0x4
 1082 03ec 2001     		.2byte	0x120
 1083 03ee DB080000 		.4byte	.LASF139
 1084 03f2 25000000 		.4byte	0x25
 1085 03f6 FA030000 		.4byte	0x3fa
 1086 03fa 11       		.uleb128 0x11
 1087 03fb 51050000 		.4byte	0x551
 1088 03ff 13       		.uleb128 0x13
 1089 0400 25000000 		.4byte	0x25
 1090 0404 00       		.byte	0
 1091 0405 00       		.byte	0
 1092 0406 16       		.uleb128 0x16
 1093 0407 B9070000 		.4byte	.LASF76
 1094 040b 14       		.byte	0x14
 1095 040c 02       		.byte	0x2
 1096 040d 38       		.byte	0x38
 1097 040e 17       		.uleb128 0x17
 1098 040f 1C050000 		.4byte	.LASF71
 1099 0413 02       		.byte	0x2
 1100 0414 B0       		.byte	0xb0
 1101 0415 47010000 		.4byte	0x147
 1102 0419 00       		.byte	0
 1103 041a 17       		.uleb128 0x17
 1104 041b 60090000 		.4byte	.LASF72
 1105 041f 02       		.byte	0x2
 1106 0420 B1       		.byte	0xb1
 1107 0421 25000000 		.4byte	0x25
 1108 0425 04       		.byte	0x4
 1109 0426 17       		.uleb128 0x17
 1110 0427 C9050000 		.4byte	.LASF73
 1111 042b 02       		.byte	0x2
 1112 042c B2       		.byte	0xb2
 1113 042d B4000000 		.4byte	0xb4
 1114 0431 08       		.byte	0x8
 1115 0432 17       		.uleb128 0x17
 1116 0433 16050000 		.4byte	.LASF74
 1117 0437 02       		.byte	0x2
 1118 0438 B3       		.byte	0xb3
 1119 0439 B4000000 		.4byte	0xb4
 1120 043d 0C       		.byte	0xc
 1121 043e 17       		.uleb128 0x17
 1122 043f 0C050000 		.4byte	.LASF75
 1123 0443 02       		.byte	0x2
 1124 0444 B4       		.byte	0xb4
 1125 0445 A9000000 		.4byte	0xa9
 1126 0449 10       		.byte	0x10
 1127 044a 10       		.uleb128 0x10
 1128 044b B9070000 		.4byte	.LASF76
 1129 044f 02       		.byte	0x2
 1130 0450 45       		.byte	0x45
 1131 0451 81050000 		.4byte	.LASF77
ARM GAS  C:\msys64\tmp\ccXqW09Z.s 			page 21


 1132 0455 57050000 		.4byte	0x557
 1133 0459 61040000 		.4byte	0x461
 1134 045d 67040000 		.4byte	0x467
 1135 0461 11       		.uleb128 0x11
 1136 0462 57050000 		.4byte	0x557
 1137 0466 00       		.byte	0
 1138 0467 10       		.uleb128 0x10
 1139 0468 B9070000 		.4byte	.LASF76
 1140 046c 02       		.byte	0x2
 1141 046d 54       		.byte	0x54
 1142 046e E0040000 		.4byte	.LASF78
 1143 0472 57050000 		.4byte	0x557
 1144 0476 7E040000 		.4byte	0x47e
 1145 047a 8E040000 		.4byte	0x48e
 1146 047e 11       		.uleb128 0x11
 1147 047f 57050000 		.4byte	0x557
 1148 0483 13       		.uleb128 0x13
 1149 0484 47010000 		.4byte	0x147
 1150 0488 13       		.uleb128 0x13
 1151 0489 B4000000 		.4byte	0xb4
 1152 048d 00       		.byte	0
 1153 048e 12       		.uleb128 0x12
 1154 048f 09030000 		.4byte	.LASF79
 1155 0493 02       		.byte	0x2
 1156 0494 64       		.byte	0x64
 1157 0495 3E080000 		.4byte	.LASF80
 1158 0499 A1040000 		.4byte	0x4a1
 1159 049d A7040000 		.4byte	0x4a7
 1160 04a1 11       		.uleb128 0x11
 1161 04a2 57050000 		.4byte	0x557
 1162 04a6 00       		.byte	0
 1163 04a7 12       		.uleb128 0x12
 1164 04a8 2E030000 		.4byte	.LASF81
 1165 04ac 02       		.byte	0x2
 1166 04ad 71       		.byte	0x71
 1167 04ae 18070000 		.4byte	.LASF82
 1168 04b2 BA040000 		.4byte	0x4ba
 1169 04b6 CA040000 		.4byte	0x4ca
 1170 04ba 11       		.uleb128 0x11
 1171 04bb 57050000 		.4byte	0x557
 1172 04bf 13       		.uleb128 0x13
 1173 04c0 47010000 		.4byte	0x147
 1174 04c4 13       		.uleb128 0x13
 1175 04c5 B4000000 		.4byte	0xb4
 1176 04c9 00       		.byte	0
 1177 04ca 12       		.uleb128 0x12
 1178 04cb 06050000 		.4byte	.LASF83
 1179 04cf 02       		.byte	0x2
 1180 04d0 7E       		.byte	0x7e
 1181 04d1 06000000 		.4byte	.LASF84
 1182 04d5 DD040000 		.4byte	0x4dd
 1183 04d9 E8040000 		.4byte	0x4e8
 1184 04dd 11       		.uleb128 0x11
 1185 04de 57050000 		.4byte	0x557
 1186 04e2 13       		.uleb128 0x13
 1187 04e3 25000000 		.4byte	0x25
 1188 04e7 00       		.byte	0
ARM GAS  C:\msys64\tmp\ccXqW09Z.s 			page 22


 1189 04e8 10       		.uleb128 0x10
 1190 04e9 95070000 		.4byte	.LASF85
 1191 04ed 02       		.byte	0x2
 1192 04ee 89       		.byte	0x89
 1193 04ef 29090000 		.4byte	.LASF86
 1194 04f3 25000000 		.4byte	0x25
 1195 04f7 FF040000 		.4byte	0x4ff
 1196 04fb 0A050000 		.4byte	0x50a
 1197 04ff 11       		.uleb128 0x11
 1198 0500 57050000 		.4byte	0x557
 1199 0504 13       		.uleb128 0x13
 1200 0505 A9000000 		.4byte	0xa9
 1201 0509 00       		.byte	0
 1202 050a 10       		.uleb128 0x10
 1203 050b EB010000 		.4byte	.LASF87
 1204 050f 02       		.byte	0x2
 1205 0510 94       		.byte	0x94
 1206 0511 D2070000 		.4byte	.LASF88
 1207 0515 25000000 		.4byte	0x25
 1208 0519 21050000 		.4byte	0x521
 1209 051d 2C050000 		.4byte	0x52c
 1210 0521 11       		.uleb128 0x11
 1211 0522 57050000 		.4byte	0x557
 1212 0526 13       		.uleb128 0x13
 1213 0527 25000000 		.4byte	0x25
 1214 052b 00       		.byte	0
 1215 052c 18       		.uleb128 0x18
 1216 052d 5C050000 		.4byte	.LASF89
 1217 0531 02       		.byte	0x2
 1218 0532 A4       		.byte	0xa4
 1219 0533 0F030000 		.4byte	.LASF90
 1220 0537 25000000 		.4byte	0x25
 1221 053b 3F050000 		.4byte	0x53f
 1222 053f 11       		.uleb128 0x11
 1223 0540 57050000 		.4byte	0x557
 1224 0544 13       		.uleb128 0x13
 1225 0545 A9000000 		.4byte	0xa9
 1226 0549 13       		.uleb128 0x13
 1227 054a 25000000 		.4byte	0x25
 1228 054e 00       		.byte	0
 1229 054f 00       		.byte	0
 1230 0550 00       		.byte	0
 1231 0551 0B       		.uleb128 0xb
 1232 0552 04       		.byte	0x4
 1233 0553 58010000 		.4byte	0x158
 1234 0557 0B       		.uleb128 0xb
 1235 0558 04       		.byte	0x4
 1236 0559 06040000 		.4byte	0x406
 1237 055d 19       		.uleb128 0x19
 1238 055e 26020000 		.4byte	.LASF91
 1239 0562 05       		.byte	0x5
 1240 0563 1C01     		.2byte	0x11c
 1241 0565 25000000 		.4byte	0x25
 1242 0569 03       		.byte	0x3
 1243 056a 84050000 		.4byte	0x584
 1244 056e 1A       		.uleb128 0x1a
 1245 056f 7800     		.ascii	"x\000"
ARM GAS  C:\msys64\tmp\ccXqW09Z.s 			page 23


 1246 0571 05       		.byte	0x5
 1247 0572 1C01     		.2byte	0x11c
 1248 0574 25000000 		.4byte	0x25
 1249 0578 1B       		.uleb128 0x1b
 1250 0579 787300   		.ascii	"xs\000"
 1251 057c 05       		.byte	0x5
 1252 057d 1E01     		.2byte	0x11e
 1253 057f FF000000 		.4byte	0xff
 1254 0583 00       		.byte	0
 1255 0584 1C       		.uleb128 0x1c
 1256 0585 7D010000 		.4byte	0x17d
 1257 0589 03       		.byte	0x3
 1258 058a 92050000 		.4byte	0x592
 1259 058e 9C050000 		.4byte	0x59c
 1260 0592 1D       		.uleb128 0x1d
 1261 0593 FA050000 		.4byte	.LASF93
 1262 0597 9C050000 		.4byte	0x59c
 1263 059b 00       		.byte	0
 1264 059c 1E       		.uleb128 0x1e
 1265 059d 51050000 		.4byte	0x551
 1266 05a1 1F       		.uleb128 0x1f
 1267 05a2 5D040000 		.4byte	.LASF140
 1268 05a6 03       		.byte	0x3
 1269 05a7 68       		.byte	0x68
 1270 05a8 03       		.byte	0x3
 1271 05a9 CF050000 		.4byte	0x5cf
 1272 05ad 20       		.uleb128 0x20
 1273 05ae 70747200 		.ascii	"ptr\000"
 1274 05b2 03       		.byte	0x3
 1275 05b3 68       		.byte	0x68
 1276 05b4 CF050000 		.4byte	0x5cf
 1277 05b8 20       		.uleb128 0x20
 1278 05b9 6C656E00 		.ascii	"len\000"
 1279 05bd 03       		.byte	0x3
 1280 05be 69       		.byte	0x69
 1281 05bf D4050000 		.4byte	0x5d4
 1282 05c3 21       		.uleb128 0x21
 1283 05c4 656E6400 		.ascii	"end\000"
 1284 05c8 03       		.byte	0x3
 1285 05c9 6B       		.byte	0x6b
 1286 05ca D9050000 		.4byte	0x5d9
 1287 05ce 00       		.byte	0
 1288 05cf 22       		.uleb128 0x22
 1289 05d0 47010000 		.4byte	0x147
 1290 05d4 1E       		.uleb128 0x1e
 1291 05d5 A9000000 		.4byte	0xa9
 1292 05d9 0B       		.uleb128 0xb
 1293 05da 04       		.byte	0x4
 1294 05db DF050000 		.4byte	0x5df
 1295 05df 1E       		.uleb128 0x1e
 1296 05e0 25000000 		.4byte	0x25
 1297 05e4 23       		.uleb128 0x23
 1298 05e5 94080000 		.4byte	.LASF92
 1299 05e9 0A       		.byte	0xa
 1300 05ea 75       		.byte	0x75
 1301 05eb A9000000 		.4byte	0xa9
 1302 05ef 03       		.byte	0x3
ARM GAS  C:\msys64\tmp\ccXqW09Z.s 			page 24


 1303 05f0 FE050000 		.4byte	0x5fe
 1304 05f4 20       		.uleb128 0x20
 1305 05f5 7800     		.ascii	"x\000"
 1306 05f7 0A       		.byte	0xa
 1307 05f8 75       		.byte	0x75
 1308 05f9 A9000000 		.4byte	0xa9
 1309 05fd 00       		.byte	0
 1310 05fe 1C       		.uleb128 0x1c
 1311 05ff CC010000 		.4byte	0x1cc
 1312 0603 03       		.byte	0x3
 1313 0604 0C060000 		.4byte	0x60c
 1314 0608 2B060000 		.4byte	0x62b
 1315 060c 1D       		.uleb128 0x1d
 1316 060d FA050000 		.4byte	.LASF93
 1317 0611 9C050000 		.4byte	0x59c
 1318 0615 20       		.uleb128 0x20
 1319 0616 663000   		.ascii	"f0\000"
 1320 0619 04       		.byte	0x4
 1321 061a 65       		.byte	0x65
 1322 061b DF050000 		.4byte	0x5df
 1323 061f 24       		.uleb128 0x24
 1324 0620 58080000 		.4byte	.LASF94
 1325 0624 04       		.byte	0x4
 1326 0625 65       		.byte	0x65
 1327 0626 DF050000 		.4byte	0x5df
 1328 062a 00       		.byte	0
 1329 062b 1C       		.uleb128 0x1c
 1330 062c B3010000 		.4byte	0x1b3
 1331 0630 03       		.byte	0x3
 1332 0631 39060000 		.4byte	0x639
 1333 0635 43060000 		.4byte	0x643
 1334 0639 1D       		.uleb128 0x1d
 1335 063a FA050000 		.4byte	.LASF93
 1336 063e 9C050000 		.4byte	0x59c
 1337 0642 00       		.byte	0
 1338 0643 1C       		.uleb128 0x1c
 1339 0644 8E040000 		.4byte	0x48e
 1340 0648 03       		.byte	0x3
 1341 0649 51060000 		.4byte	0x651
 1342 064d 5B060000 		.4byte	0x65b
 1343 0651 1D       		.uleb128 0x1d
 1344 0652 FA050000 		.4byte	.LASF93
 1345 0656 5B060000 		.4byte	0x65b
 1346 065a 00       		.byte	0
 1347 065b 1E       		.uleb128 0x1e
 1348 065c 57050000 		.4byte	0x557
 1349 0660 1C       		.uleb128 0x1c
 1350 0661 A7040000 		.4byte	0x4a7
 1351 0665 03       		.byte	0x3
 1352 0666 6E060000 		.4byte	0x66e
 1353 066a 8E060000 		.4byte	0x68e
 1354 066e 1D       		.uleb128 0x1d
 1355 066f FA050000 		.4byte	.LASF93
 1356 0673 5B060000 		.4byte	0x65b
 1357 0677 20       		.uleb128 0x20
 1358 0678 72616D00 		.ascii	"ram\000"
 1359 067c 02       		.byte	0x2
ARM GAS  C:\msys64\tmp\ccXqW09Z.s 			page 25


 1360 067d 71       		.byte	0x71
 1361 067e 47010000 		.4byte	0x147
 1362 0682 24       		.uleb128 0x24
 1363 0683 97050000 		.4byte	.LASF95
 1364 0687 02       		.byte	0x2
 1365 0688 71       		.byte	0x71
 1366 0689 B4000000 		.4byte	0xb4
 1367 068d 00       		.byte	0
 1368 068e 1C       		.uleb128 0x1c
 1369 068f CA040000 		.4byte	0x4ca
 1370 0693 03       		.byte	0x3
 1371 0694 9C060000 		.4byte	0x69c
 1372 0698 AF060000 		.4byte	0x6af
 1373 069c 1D       		.uleb128 0x1d
 1374 069d FA050000 		.4byte	.LASF93
 1375 06a1 5B060000 		.4byte	0x65b
 1376 06a5 20       		.uleb128 0x20
 1377 06a6 7300     		.ascii	"s\000"
 1378 06a8 02       		.byte	0x2
 1379 06a9 7E       		.byte	0x7e
 1380 06aa DF050000 		.4byte	0x5df
 1381 06ae 00       		.byte	0
 1382 06af 1C       		.uleb128 0x1c
 1383 06b0 9A010000 		.4byte	0x19a
 1384 06b4 03       		.byte	0x3
 1385 06b5 BD060000 		.4byte	0x6bd
 1386 06b9 C7060000 		.4byte	0x6c7
 1387 06bd 1D       		.uleb128 0x1d
 1388 06be FA050000 		.4byte	.LASF93
 1389 06c2 9C050000 		.4byte	0x59c
 1390 06c6 00       		.byte	0
 1391 06c7 1C       		.uleb128 0x1c
 1392 06c8 0D020000 		.4byte	0x20d
 1393 06cc 03       		.byte	0x3
 1394 06cd D5060000 		.4byte	0x6d5
 1395 06d1 EA060000 		.4byte	0x6ea
 1396 06d5 1D       		.uleb128 0x1d
 1397 06d6 FA050000 		.4byte	.LASF93
 1398 06da 9C050000 		.4byte	0x59c
 1399 06de 25       		.uleb128 0x25
 1400 06df 80070000 		.4byte	.LASF96
 1401 06e3 04       		.byte	0x4
 1402 06e4 7D       		.byte	0x7d
 1403 06e5 DF050000 		.4byte	0x5df
 1404 06e9 00       		.byte	0
 1405 06ea 1C       		.uleb128 0x1c
 1406 06eb E8040000 		.4byte	0x4e8
 1407 06ef 03       		.byte	0x3
 1408 06f0 F8060000 		.4byte	0x6f8
 1409 06f4 0D070000 		.4byte	0x70d
 1410 06f8 1D       		.uleb128 0x1d
 1411 06f9 FA050000 		.4byte	.LASF93
 1412 06fd 5B060000 		.4byte	0x65b
 1413 0701 20       		.uleb128 0x20
 1414 0702 706F7300 		.ascii	"pos\000"
 1415 0706 02       		.byte	0x2
 1416 0707 89       		.byte	0x89
ARM GAS  C:\msys64\tmp\ccXqW09Z.s 			page 26


 1417 0708 D4050000 		.4byte	0x5d4
 1418 070c 00       		.byte	0
 1419 070d 26       		.uleb128 0x26
 1420 070e FF050000 		.4byte	.LASF141
 1421 0712 01       		.byte	0x1
 1422 0713 2E070000 		.4byte	0x72e
 1423 0717 24       		.uleb128 0x24
 1424 0718 38030000 		.4byte	.LASF97
 1425 071c 01       		.byte	0x1
 1426 071d 57       		.byte	0x57
 1427 071e 2C000000 		.4byte	0x2c
 1428 0722 24       		.uleb128 0x24
 1429 0723 81030000 		.4byte	.LASF98
 1430 0727 01       		.byte	0x1
 1431 0728 57       		.byte	0x57
 1432 0729 2C000000 		.4byte	0x2c
 1433 072d 00       		.byte	0
 1434 072e 27       		.uleb128 0x27
 1435 072f 8B060000 		.4byte	.LASF99
 1436 0733 01       		.byte	0x1
 1437 0734 1C       		.byte	0x1c
 1438 0735 00000000 		.4byte	.LFB315
 1439 0739 88000000 		.4byte	.LFE315-.LFB315
 1440 073d 01       		.uleb128 0x1
 1441 073e 9C       		.byte	0x9c
 1442 073f 38080000 		.4byte	0x838
 1443 0743 28       		.uleb128 0x28
 1444 0744 17020000 		.4byte	.LASF100
 1445 0748 01       		.byte	0x1
 1446 0749 1C       		.byte	0x1c
 1447 074a A9000000 		.4byte	0xa9
 1448 074e 00000000 		.4byte	.LLST0
 1449 0752 29       		.uleb128 0x29
 1450 0753 61706900 		.ascii	"api\000"
 1451 0757 01       		.byte	0x1
 1452 0758 1C       		.byte	0x1c
 1453 0759 A9000000 		.4byte	0xa9
 1454 075d 21000000 		.4byte	.LLST1
 1455 0761 2A       		.uleb128 0x2a
 1456 0762 60060000 		.4byte	0x660
 1457 0766 02000000 		.4byte	.LBB49
 1458 076a 14000000 		.4byte	.LBE49-.LBB49
 1459 076e 01       		.byte	0x1
 1460 076f 1E       		.byte	0x1e
 1461 0770 90070000 		.4byte	0x790
 1462 0774 2B       		.uleb128 0x2b
 1463 0775 82060000 		.4byte	0x682
 1464 0779 42000000 		.4byte	.LLST2
 1465 077d 2B       		.uleb128 0x2b
 1466 077e 77060000 		.4byte	0x677
 1467 0782 5A000000 		.4byte	.LLST3
 1468 0786 2B       		.uleb128 0x2b
 1469 0787 6E060000 		.4byte	0x66e
 1470 078b 72000000 		.4byte	.LLST4
 1471 078f 00       		.byte	0
 1472 0790 2A       		.uleb128 0x2a
 1473 0791 43060000 		.4byte	0x643
ARM GAS  C:\msys64\tmp\ccXqW09Z.s 			page 27


 1474 0795 16000000 		.4byte	.LBB51
 1475 0799 20000000 		.4byte	.LBE51-.LBB51
 1476 079d 01       		.byte	0x1
 1477 079e 1F       		.byte	0x1f
 1478 079f E2070000 		.4byte	0x7e2
 1479 07a3 2B       		.uleb128 0x2b
 1480 07a4 51060000 		.4byte	0x651
 1481 07a8 8A000000 		.4byte	.LLST5
 1482 07ac 2C       		.uleb128 0x2c
 1483 07ad A1050000 		.4byte	0x5a1
 1484 07b1 16000000 		.4byte	.LBB52
 1485 07b5 20000000 		.4byte	.LBE52-.LBB52
 1486 07b9 02       		.byte	0x2
 1487 07ba 65       		.byte	0x65
 1488 07bb 2B       		.uleb128 0x2b
 1489 07bc B8050000 		.4byte	0x5b8
 1490 07c0 A2000000 		.4byte	.LLST6
 1491 07c4 2B       		.uleb128 0x2b
 1492 07c5 AD050000 		.4byte	0x5ad
 1493 07c9 B8000000 		.4byte	.LLST7
 1494 07cd 2D       		.uleb128 0x2d
 1495 07ce 16000000 		.4byte	.LBB53
 1496 07d2 20000000 		.4byte	.LBE53-.LBB53
 1497 07d6 2E       		.uleb128 0x2e
 1498 07d7 C3050000 		.4byte	0x5c3
 1499 07db 0F010000 		.4byte	.LLST8
 1500 07df 00       		.byte	0
 1501 07e0 00       		.byte	0
 1502 07e1 00       		.byte	0
 1503 07e2 2A       		.uleb128 0x2a
 1504 07e3 2B060000 		.4byte	0x62b
 1505 07e7 36000000 		.4byte	.LBB54
 1506 07eb 06000000 		.4byte	.LBE54-.LBB54
 1507 07ef 01       		.byte	0x1
 1508 07f0 20       		.byte	0x20
 1509 07f1 FF070000 		.4byte	0x7ff
 1510 07f5 2B       		.uleb128 0x2b
 1511 07f6 39060000 		.4byte	0x639
 1512 07fa 27010000 		.4byte	.LLST9
 1513 07fe 00       		.byte	0
 1514 07ff 2F       		.uleb128 0x2f
 1515 0800 FE050000 		.4byte	0x5fe
 1516 0804 50000000 		.4byte	.LBB56
 1517 0808 00000000 		.4byte	.Ldebug_ranges0+0
 1518 080c 01       		.byte	0x1
 1519 080d 24       		.byte	0x24
 1520 080e 2E080000 		.4byte	0x82e
 1521 0812 2B       		.uleb128 0x2b
 1522 0813 1F060000 		.4byte	0x61f
 1523 0817 3F010000 		.4byte	.LLST10
 1524 081b 2B       		.uleb128 0x2b
 1525 081c 15060000 		.4byte	0x615
 1526 0820 57010000 		.4byte	.LLST11
 1527 0824 2B       		.uleb128 0x2b
 1528 0825 0C060000 		.4byte	0x60c
 1529 0829 6E010000 		.4byte	.LLST12
 1530 082d 00       		.byte	0
ARM GAS  C:\msys64\tmp\ccXqW09Z.s 			page 28


 1531 082e 30       		.uleb128 0x30
 1532 082f 40000000 		.4byte	.LVL10
 1533 0833 ED0C0000 		.4byte	0xced
 1534 0837 00       		.byte	0
 1535 0838 27       		.uleb128 0x27
 1536 0839 57060000 		.4byte	.LASF101
 1537 083d 01       		.byte	0x1
 1538 083e 2C       		.byte	0x2c
 1539 083f 88000000 		.4byte	.LFB317
 1540 0843 34010000 		.4byte	.LFE317-.LFB317
 1541 0847 01       		.uleb128 0x1
 1542 0848 9C       		.byte	0x9c
 1543 0849 080A0000 		.4byte	0xa08
 1544 084d 29       		.uleb128 0x29
 1545 084e 786E00   		.ascii	"xn\000"
 1546 0851 01       		.byte	0x1
 1547 0852 2C       		.byte	0x2c
 1548 0853 47010000 		.4byte	0x147
 1549 0857 86010000 		.4byte	.LLST13
 1550 085b 28       		.uleb128 0x28
 1551 085c 69040000 		.4byte	.LASF102
 1552 0860 01       		.byte	0x1
 1553 0861 2C       		.byte	0x2c
 1554 0862 A9000000 		.4byte	0xa9
 1555 0866 A7010000 		.4byte	.LLST14
 1556 086a 31       		.uleb128 0x31
 1557 086b 7800     		.ascii	"x\000"
 1558 086d 01       		.byte	0x1
 1559 086e 2E       		.byte	0x2e
 1560 086f 47010000 		.4byte	0x147
 1561 0873 C8010000 		.4byte	.LLST15
 1562 0877 31       		.uleb128 0x31
 1563 0878 785F6500 		.ascii	"x_e\000"
 1564 087c 01       		.byte	0x1
 1565 087d 2F       		.byte	0x2f
 1566 087e D9050000 		.4byte	0x5d9
 1567 0882 FE010000 		.4byte	.LLST16
 1568 0886 32       		.uleb128 0x32
 1569 0887 77657400 		.ascii	"wet\000"
 1570 088b 01       		.byte	0x1
 1571 088c 31       		.byte	0x31
 1572 088d DF050000 		.4byte	0x5df
 1573 0891 02       		.uleb128 0x2
 1574 0892 90       		.byte	0x90
 1575 0893 4C       		.uleb128 0x4c
 1576 0894 32       		.uleb128 0x32
 1577 0895 64727900 		.ascii	"dry\000"
 1578 0899 01       		.byte	0x1
 1579 089a 32       		.byte	0x32
 1580 089b DF050000 		.4byte	0x5df
 1581 089f 0C       		.uleb128 0xc
 1582 08a0 F4       		.byte	0xf4
 1583 08a1 25       		.uleb128 0x25
 1584 08a2 04       		.byte	0x4
 1585 08a3 0000803F 		.4byte	0x3f800000
 1586 08a7 F5       		.byte	0xf5
 1587 08a8 4C       		.uleb128 0x4c
ARM GAS  C:\msys64\tmp\ccXqW09Z.s 			page 29


 1588 08a9 25       		.uleb128 0x25
 1589 08aa 1C       		.byte	0x1c
 1590 08ab 9F       		.byte	0x9f
 1591 08ac 33       		.uleb128 0x33
 1592 08ad 18000000 		.4byte	.Ldebug_ranges0+0x18
 1593 08b1 34       		.uleb128 0x34
 1594 08b2 76030000 		.4byte	.LASF103
 1595 08b6 01       		.byte	0x1
 1596 08b7 36       		.byte	0x36
 1597 08b8 DF050000 		.4byte	0x5df
 1598 08bc 25020000 		.4byte	.LLST17
 1599 08c0 34       		.uleb128 0x34
 1600 08c1 94030000 		.4byte	.LASF104
 1601 08c5 01       		.byte	0x1
 1602 08c6 38       		.byte	0x38
 1603 08c7 DF050000 		.4byte	0x5df
 1604 08cb 6A020000 		.4byte	.LLST18
 1605 08cf 2F       		.uleb128 0x2f
 1606 08d0 C7060000 		.4byte	0x6c7
 1607 08d4 8E000000 		.4byte	.LBB62
 1608 08d8 40000000 		.4byte	.Ldebug_ranges0+0x40
 1609 08dc 01       		.byte	0x1
 1610 08dd 36       		.byte	0x36
 1611 08de 1A090000 		.4byte	0x91a
 1612 08e2 2B       		.uleb128 0x2b
 1613 08e3 D5060000 		.4byte	0x6d5
 1614 08e7 7E020000 		.4byte	.LLST19
 1615 08eb 33       		.uleb128 0x33
 1616 08ec 40000000 		.4byte	.Ldebug_ranges0+0x40
 1617 08f0 35       		.uleb128 0x35
 1618 08f1 DE060000 		.4byte	0x6de
 1619 08f5 02       		.uleb128 0x2
 1620 08f6 90       		.byte	0x90
 1621 08f7 4D       		.uleb128 0x4d
 1622 08f8 36       		.uleb128 0x36
 1623 08f9 5D050000 		.4byte	0x55d
 1624 08fd 0C010000 		.4byte	.LBB64
 1625 0901 58000000 		.4byte	.Ldebug_ranges0+0x58
 1626 0905 04       		.byte	0x4
 1627 0906 7E       		.byte	0x7e
 1628 0907 37       		.uleb128 0x37
 1629 0908 6E050000 		.4byte	0x56e
 1630 090c 33       		.uleb128 0x33
 1631 090d 58000000 		.4byte	.Ldebug_ranges0+0x58
 1632 0911 38       		.uleb128 0x38
 1633 0912 78050000 		.4byte	0x578
 1634 0916 00       		.byte	0
 1635 0917 00       		.byte	0
 1636 0918 00       		.byte	0
 1637 0919 00       		.byte	0
 1638 091a 2F       		.uleb128 0x2f
 1639 091b AF060000 		.4byte	0x6af
 1640 091f 92000000 		.4byte	.LBB75
 1641 0923 78000000 		.4byte	.Ldebug_ranges0+0x78
 1642 0927 01       		.byte	0x1
 1643 0928 37       		.byte	0x37
 1644 0929 33090000 		.4byte	0x933
ARM GAS  C:\msys64\tmp\ccXqW09Z.s 			page 30


 1645 092d 37       		.uleb128 0x37
 1646 092e BD060000 		.4byte	0x6bd
 1647 0932 00       		.byte	0
 1648 0933 2F       		.uleb128 0x2f
 1649 0934 EA060000 		.4byte	0x6ea
 1650 0938 A0000000 		.4byte	.LBB78
 1651 093c 90000000 		.4byte	.Ldebug_ranges0+0x90
 1652 0940 01       		.byte	0x1
 1653 0941 36       		.byte	0x36
 1654 0942 51090000 		.4byte	0x951
 1655 0946 37       		.uleb128 0x37
 1656 0947 01070000 		.4byte	0x701
 1657 094b 37       		.uleb128 0x37
 1658 094c F8060000 		.4byte	0x6f8
 1659 0950 00       		.byte	0
 1660 0951 2F       		.uleb128 0x2f
 1661 0952 C7060000 		.4byte	0x6c7
 1662 0956 D6000000 		.4byte	.LBB83
 1663 095a B0000000 		.4byte	.Ldebug_ranges0+0xb0
 1664 095e 01       		.byte	0x1
 1665 095f 38       		.byte	0x38
 1666 0960 A0090000 		.4byte	0x9a0
 1667 0964 2B       		.uleb128 0x2b
 1668 0965 D5060000 		.4byte	0x6d5
 1669 0969 96020000 		.4byte	.LLST20
 1670 096d 33       		.uleb128 0x33
 1671 096e B0000000 		.4byte	.Ldebug_ranges0+0xb0
 1672 0972 35       		.uleb128 0x35
 1673 0973 DE060000 		.4byte	0x6de
 1674 0977 02       		.uleb128 0x2
 1675 0978 90       		.byte	0x90
 1676 0979 4E       		.uleb128 0x4e
 1677 097a 2C       		.uleb128 0x2c
 1678 097b 5D050000 		.4byte	0x55d
 1679 097f F2000000 		.4byte	.LBB85
 1680 0983 0C000000 		.4byte	.LBE85-.LBB85
 1681 0987 04       		.byte	0x4
 1682 0988 7E       		.byte	0x7e
 1683 0989 37       		.uleb128 0x37
 1684 098a 6E050000 		.4byte	0x56e
 1685 098e 2D       		.uleb128 0x2d
 1686 098f F2000000 		.4byte	.LBB86
 1687 0993 0C000000 		.4byte	.LBE86-.LBB86
 1688 0997 38       		.uleb128 0x38
 1689 0998 78050000 		.4byte	0x578
 1690 099c 00       		.byte	0
 1691 099d 00       		.byte	0
 1692 099e 00       		.byte	0
 1693 099f 00       		.byte	0
 1694 09a0 2F       		.uleb128 0x2f
 1695 09a1 EA060000 		.4byte	0x6ea
 1696 09a5 EE000000 		.4byte	.LBB94
 1697 09a9 D8000000 		.4byte	.Ldebug_ranges0+0xd8
 1698 09ad 01       		.byte	0x1
 1699 09ae 38       		.byte	0x38
 1700 09af BE090000 		.4byte	0x9be
 1701 09b3 37       		.uleb128 0x37
ARM GAS  C:\msys64\tmp\ccXqW09Z.s 			page 31


 1702 09b4 01070000 		.4byte	0x701
 1703 09b8 37       		.uleb128 0x37
 1704 09b9 F8060000 		.4byte	0x6f8
 1705 09bd 00       		.byte	0
 1706 09be 2F       		.uleb128 0x2f
 1707 09bf 8E060000 		.4byte	0x68e
 1708 09c3 70010000 		.4byte	.LBB106
 1709 09c7 F8000000 		.4byte	.Ldebug_ranges0+0xf8
 1710 09cb 01       		.byte	0x1
 1711 09cc 3E       		.byte	0x3e
 1712 09cd E4090000 		.4byte	0x9e4
 1713 09d1 2B       		.uleb128 0x2b
 1714 09d2 A5060000 		.4byte	0x6a5
 1715 09d6 AE020000 		.4byte	.LLST21
 1716 09da 2B       		.uleb128 0x2b
 1717 09db 9C060000 		.4byte	0x69c
 1718 09df C2020000 		.4byte	.LLST22
 1719 09e3 00       		.byte	0
 1720 09e4 36       		.uleb128 0x36
 1721 09e5 8E060000 		.4byte	0x68e
 1722 09e9 78010000 		.4byte	.LBB110
 1723 09ed 18010000 		.4byte	.Ldebug_ranges0+0x118
 1724 09f1 01       		.byte	0x1
 1725 09f2 3F       		.byte	0x3f
 1726 09f3 2B       		.uleb128 0x2b
 1727 09f4 A5060000 		.4byte	0x6a5
 1728 09f8 DA020000 		.4byte	.LLST23
 1729 09fc 2B       		.uleb128 0x2b
 1730 09fd 9C060000 		.4byte	0x69c
 1731 0a01 ED020000 		.4byte	.LLST24
 1732 0a05 00       		.byte	0
 1733 0a06 00       		.byte	0
 1734 0a07 00       		.byte	0
 1735 0a08 27       		.uleb128 0x27
 1736 0a09 80000000 		.4byte	.LASF105
 1737 0a0d 01       		.byte	0x1
 1738 0a0e 43       		.byte	0x43
 1739 0a0f BC010000 		.4byte	.LFB318
 1740 0a13 50000000 		.4byte	.LFE318-.LFB318
 1741 0a17 01       		.uleb128 0x1
 1742 0a18 9C       		.byte	0x9c
 1743 0a19 720A0000 		.4byte	0xa72
 1744 0a1d 39       		.uleb128 0x39
 1745 0a1e 98020000 		.4byte	.LASF106
 1746 0a22 01       		.byte	0x1
 1747 0a23 43       		.byte	0x43
 1748 0a24 93000000 		.4byte	0x93
 1749 0a28 01       		.uleb128 0x1
 1750 0a29 50       		.byte	0x50
 1751 0a2a 39       		.uleb128 0x39
 1752 0a2b 9B090000 		.4byte	.LASF107
 1753 0a2f 01       		.byte	0x1
 1754 0a30 43       		.byte	0x43
 1755 0a31 9E000000 		.4byte	0x9e
 1756 0a35 01       		.uleb128 0x1
 1757 0a36 51       		.byte	0x51
 1758 0a37 34       		.uleb128 0x34
ARM GAS  C:\msys64\tmp\ccXqW09Z.s 			page 32


 1759 0a38 4B020000 		.4byte	.LASF108
 1760 0a3c 01       		.byte	0x1
 1761 0a3d 45       		.byte	0x45
 1762 0a3e DF050000 		.4byte	0x5df
 1763 0a42 05030000 		.4byte	.LLST25
 1764 0a46 36       		.uleb128 0x36
 1765 0a47 FE050000 		.4byte	0x5fe
 1766 0a4b DE010000 		.4byte	.LBB125
 1767 0a4f 40010000 		.4byte	.Ldebug_ranges0+0x140
 1768 0a53 01       		.byte	0x1
 1769 0a54 4E       		.byte	0x4e
 1770 0a55 2B       		.uleb128 0x2b
 1771 0a56 1F060000 		.4byte	0x61f
 1772 0a5a 3E030000 		.4byte	.LLST26
 1773 0a5e 2B       		.uleb128 0x2b
 1774 0a5f 15060000 		.4byte	0x615
 1775 0a63 56030000 		.4byte	.LLST27
 1776 0a67 2B       		.uleb128 0x2b
 1777 0a68 0C060000 		.4byte	0x60c
 1778 0a6c 79030000 		.4byte	.LLST28
 1779 0a70 00       		.byte	0
 1780 0a71 00       		.byte	0
 1781 0a72 1C       		.uleb128 0x1c
 1782 0a73 4A040000 		.4byte	0x44a
 1783 0a77 02       		.byte	0x2
 1784 0a78 800A0000 		.4byte	0xa80
 1785 0a7c 8A0A0000 		.4byte	0xa8a
 1786 0a80 1D       		.uleb128 0x1d
 1787 0a81 FA050000 		.4byte	.LASF93
 1788 0a85 5B060000 		.4byte	0x65b
 1789 0a89 00       		.byte	0
 1790 0a8a 3A       		.uleb128 0x3a
 1791 0a8b F4010000 		.4byte	.LASF142
 1792 0a8f 00000000 		.4byte	.LFB320
 1793 0a93 20000000 		.4byte	.LFE320-.LFB320
 1794 0a97 01       		.uleb128 0x1
 1795 0a98 9C       		.byte	0x9c
 1796 0a99 F90A0000 		.4byte	0xaf9
 1797 0a9d 2C       		.uleb128 0x2c
 1798 0a9e 0D070000 		.4byte	0x70d
 1799 0aa2 00000000 		.4byte	.LBB136
 1800 0aa6 20000000 		.4byte	.LBE136-.LBB136
 1801 0aaa 01       		.byte	0x1
 1802 0aab 57       		.byte	0x57
 1803 0aac 2B       		.uleb128 0x2b
 1804 0aad 17070000 		.4byte	0x717
 1805 0ab1 91030000 		.4byte	.LLST29
 1806 0ab5 2B       		.uleb128 0x2b
 1807 0ab6 22070000 		.4byte	0x722
 1808 0aba A5030000 		.4byte	.LLST30
 1809 0abe 2F       		.uleb128 0x2f
 1810 0abf 720A0000 		.4byte	0xa72
 1811 0ac3 00000000 		.4byte	.LBB137
 1812 0ac7 58010000 		.4byte	.Ldebug_ranges0+0x158
 1813 0acb 01       		.byte	0x1
 1814 0acc 0C       		.byte	0xc
 1815 0acd DB0A0000 		.4byte	0xadb
ARM GAS  C:\msys64\tmp\ccXqW09Z.s 			page 33


 1816 0ad1 2B       		.uleb128 0x2b
 1817 0ad2 800A0000 		.4byte	0xa80
 1818 0ad6 BB030000 		.4byte	.LLST31
 1819 0ada 00       		.byte	0
 1820 0adb 36       		.uleb128 0x36
 1821 0adc 84050000 		.4byte	0x584
 1822 0ae0 08000000 		.4byte	.LBB140
 1823 0ae4 70010000 		.4byte	.Ldebug_ranges0+0x170
 1824 0ae8 01       		.byte	0x1
 1825 0ae9 0F       		.byte	0xf
 1826 0aea 3B       		.uleb128 0x3b
 1827 0aeb 92050000 		.4byte	0x592
 1828 0aef 06       		.uleb128 0x6
 1829 0af0 03       		.byte	0x3
 1830 0af1 14000000 		.4byte	_ZL5s_lfo
 1831 0af5 9F       		.byte	0x9f
 1832 0af6 00       		.byte	0
 1833 0af7 00       		.byte	0
 1834 0af8 00       		.byte	0
 1835 0af9 3C       		.uleb128 0x3c
 1836 0afa 28040000 		.4byte	.LASF109
 1837 0afe 0B       		.byte	0xb
 1838 0aff 46       		.byte	0x46
 1839 0b00 D4050000 		.4byte	0x5d4
 1840 0b04 3C       		.uleb128 0x3c
 1841 0b05 07070000 		.4byte	.LASF110
 1842 0b09 0B       		.byte	0xb
 1843 0b0a 4B       		.byte	0x4b
 1844 0b0b D4050000 		.4byte	0x5d4
 1845 0b0f 3D       		.uleb128 0x3d
 1846 0b10 DF050000 		.4byte	0x5df
 1847 0b14 1F0B0000 		.4byte	0xb1f
 1848 0b18 3E       		.uleb128 0x3e
 1849 0b19 CB000000 		.4byte	0xcb
 1850 0b1d 80       		.byte	0x80
 1851 0b1e 00       		.byte	0
 1852 0b1f 3C       		.uleb128 0x3c
 1853 0b20 01080000 		.4byte	.LASF111
 1854 0b24 0C       		.byte	0xc
 1855 0b25 94       		.byte	0x94
 1856 0b26 2A0B0000 		.4byte	0xb2a
 1857 0b2a 1E       		.uleb128 0x1e
 1858 0b2b 0F0B0000 		.4byte	0xb0f
 1859 0b2f 3D       		.uleb128 0x3d
 1860 0b30 DF050000 		.4byte	0x5df
 1861 0b34 400B0000 		.4byte	0xb40
 1862 0b38 3F       		.uleb128 0x3f
 1863 0b39 CB000000 		.4byte	0xcb
 1864 0b3d 0001     		.2byte	0x100
 1865 0b3f 00       		.byte	0
 1866 0b40 40       		.uleb128 0x40
 1867 0b41 D6040000 		.4byte	.LASF112
 1868 0b45 0C       		.byte	0xc
 1869 0b46 4D02     		.2byte	0x24d
 1870 0b48 4C0B0000 		.4byte	0xb4c
 1871 0b4c 1E       		.uleb128 0x1e
 1872 0b4d 2F0B0000 		.4byte	0xb2f
ARM GAS  C:\msys64\tmp\ccXqW09Z.s 			page 34


 1873 0b51 40       		.uleb128 0x40
 1874 0b52 2F020000 		.4byte	.LASF113
 1875 0b56 0C       		.byte	0xc
 1876 0b57 6402     		.2byte	0x264
 1877 0b59 5D0B0000 		.4byte	0xb5d
 1878 0b5d 1E       		.uleb128 0x1e
 1879 0b5e 2F0B0000 		.4byte	0xb2f
 1880 0b62 40       		.uleb128 0x40
 1881 0b63 A0060000 		.4byte	.LASF114
 1882 0b67 0C       		.byte	0xc
 1883 0b68 7C02     		.2byte	0x27c
 1884 0b6a 6E0B0000 		.4byte	0xb6e
 1885 0b6e 1E       		.uleb128 0x1e
 1886 0b6f 2F0B0000 		.4byte	0xb2f
 1887 0b73 40       		.uleb128 0x40
 1888 0b74 0D040000 		.4byte	.LASF115
 1889 0b78 0B       		.byte	0xb
 1890 0b79 0F01     		.2byte	0x10f
 1891 0b7b 7F0B0000 		.4byte	0xb7f
 1892 0b7f 1E       		.uleb128 0x1e
 1893 0b80 2F0B0000 		.4byte	0xb2f
 1894 0b84 40       		.uleb128 0x40
 1895 0b85 B0060000 		.4byte	.LASF116
 1896 0b89 0C       		.byte	0xc
 1897 0b8a AB02     		.2byte	0x2ab
 1898 0b8c 900B0000 		.4byte	0xb90
 1899 0b90 1E       		.uleb128 0x1e
 1900 0b91 0F0B0000 		.4byte	0xb0f
 1901 0b95 40       		.uleb128 0x40
 1902 0b96 70040000 		.4byte	.LASF117
 1903 0b9a 0C       		.byte	0xc
 1904 0b9b C002     		.2byte	0x2c0
 1905 0b9d A10B0000 		.4byte	0xba1
 1906 0ba1 1E       		.uleb128 0x1e
 1907 0ba2 0F0B0000 		.4byte	0xb0f
 1908 0ba6 40       		.uleb128 0x40
 1909 0ba7 87040000 		.4byte	.LASF118
 1910 0bab 0C       		.byte	0xc
 1911 0bac DD02     		.2byte	0x2dd
 1912 0bae B20B0000 		.4byte	0xbb2
 1913 0bb2 1E       		.uleb128 0x1e
 1914 0bb3 0F0B0000 		.4byte	0xb0f
 1915 0bb7 3C       		.uleb128 0x3c
 1916 0bb8 C7090000 		.4byte	.LASF119
 1917 0bbc 0C       		.byte	0xc
 1918 0bbd 45       		.byte	0x45
 1919 0bbe D4050000 		.4byte	0x5d4
 1920 0bc2 3C       		.uleb128 0x3c
 1921 0bc3 9A070000 		.4byte	.LASF120
 1922 0bc7 0C       		.byte	0xc
 1923 0bc8 4A       		.byte	0x4a
 1924 0bc9 D4050000 		.4byte	0x5d4
 1925 0bcd 3D       		.uleb128 0x3d
 1926 0bce DF050000 		.4byte	0x5df
 1927 0bd2 DD0B0000 		.4byte	0xbdd
 1928 0bd6 3E       		.uleb128 0x3e
 1929 0bd7 CB000000 		.4byte	0xcb
ARM GAS  C:\msys64\tmp\ccXqW09Z.s 			page 35


 1930 0bdb 97       		.byte	0x97
 1931 0bdc 00       		.byte	0
 1932 0bdd 3C       		.uleb128 0x3c
 1933 0bde 73020000 		.4byte	.LASF121
 1934 0be2 0C       		.byte	0xc
 1935 0be3 67       		.byte	0x67
 1936 0be4 E80B0000 		.4byte	0xbe8
 1937 0be8 1E       		.uleb128 0x1e
 1938 0be9 CD0B0000 		.4byte	0xbcd
 1939 0bed 3D       		.uleb128 0x3d
 1940 0bee DF050000 		.4byte	0x5df
 1941 0bf2 FE0B0000 		.4byte	0xbfe
 1942 0bf6 3F       		.uleb128 0x3f
 1943 0bf7 CB000000 		.4byte	0xcb
 1944 0bfb 8603     		.2byte	0x386
 1945 0bfd 00       		.byte	0
 1946 0bfe 3C       		.uleb128 0x3c
 1947 0bff CF050000 		.4byte	.LASF122
 1948 0c03 0C       		.byte	0xc
 1949 0c04 C6       		.byte	0xc6
 1950 0c05 090C0000 		.4byte	0xc09
 1951 0c09 1E       		.uleb128 0x1e
 1952 0c0a ED0B0000 		.4byte	0xbed
 1953 0c0e 40       		.uleb128 0x40
 1954 0c0f BF060000 		.4byte	.LASF123
 1955 0c13 0C       		.byte	0xc
 1956 0c14 3801     		.2byte	0x138
 1957 0c16 1A0C0000 		.4byte	0xc1a
 1958 0c1a 1E       		.uleb128 0x1e
 1959 0c1b ED0B0000 		.4byte	0xbed
 1960 0c1f 40       		.uleb128 0x40
 1961 0c20 8C000000 		.4byte	.LASF124
 1962 0c24 0C       		.byte	0xc
 1963 0c25 AB01     		.2byte	0x1ab
 1964 0c27 2B0C0000 		.4byte	0xc2b
 1965 0c2b 1E       		.uleb128 0x1e
 1966 0c2c ED0B0000 		.4byte	0xbed
 1967 0c30 41       		.uleb128 0x41
 1968 0c31 B6080000 		.4byte	.LASF125
 1969 0c35 01       		.byte	0x1
 1970 0c36 0C       		.byte	0xc
 1971 0c37 06040000 		.4byte	0x406
 1972 0c3b 05       		.uleb128 0x5
 1973 0c3c 03       		.byte	0x3
 1974 0c3d 00000000 		.4byte	_ZL7s_delay
 1975 0c41 3D       		.uleb128 0x3d
 1976 0c42 25000000 		.4byte	0x25
 1977 0c46 540C0000 		.4byte	0xc54
 1978 0c4a 42       		.uleb128 0x42
 1979 0c4b CB000000 		.4byte	0xcb
 1980 0c4f 4F340300 		.4byte	0x3344f
 1981 0c53 00       		.byte	0
 1982 0c54 41       		.uleb128 0x41
 1983 0c55 BA000000 		.4byte	.LASF126
 1984 0c59 01       		.byte	0x1
 1985 0c5a 0D       		.byte	0xd
 1986 0c5b 410C0000 		.4byte	0xc41
ARM GAS  C:\msys64\tmp\ccXqW09Z.s 			page 36


 1987 0c5f 05       		.uleb128 0x5
 1988 0c60 03       		.byte	0x3
 1989 0c61 00000000 		.4byte	_ZL11s_delay_ram
 1990 0c65 41       		.uleb128 0x41
 1991 0c66 6D020000 		.4byte	.LASF127
 1992 0c6a 01       		.byte	0x1
 1993 0c6b 0F       		.byte	0xf
 1994 0c6c 58010000 		.4byte	0x158
 1995 0c70 05       		.uleb128 0x5
 1996 0c71 03       		.byte	0x3
 1997 0c72 14000000 		.4byte	_ZL5s_lfo
 1998 0c76 43       		.uleb128 0x43
 1999 0c77 60080000 		.4byte	.LASF128
 2000 0c7b 01       		.byte	0x1
 2001 0c7c 10       		.byte	0x10
 2002 0c7d 25000000 		.4byte	0x25
 2003 0c81 05       		.uleb128 0x5
 2004 0c82 03       		.byte	0x3
 2005 0c83 00000000 		.4byte	lfo_speed
 2006 0c87 43       		.uleb128 0x43
 2007 0c88 20020000 		.4byte	.LASF129
 2008 0c8c 01       		.byte	0x1
 2009 0c8d 12       		.byte	0x12
 2010 0c8e A9000000 		.4byte	0xa9
 2011 0c92 05       		.uleb128 0x5
 2012 0c93 03       		.byte	0x3
 2013 0c94 00000000 		.4byte	s_len
 2014 0c98 41       		.uleb128 0x41
 2015 0c99 38080000 		.4byte	.LASF130
 2016 0c9d 01       		.byte	0x1
 2017 0c9e 13       		.byte	0x13
 2018 0c9f 25000000 		.4byte	0x25
 2019 0ca3 05       		.uleb128 0x5
 2020 0ca4 03       		.byte	0x3
 2021 0ca5 24000000 		.4byte	_ZL5s_mix
 2022 0ca9 41       		.uleb128 0x41
 2023 0caa 94040000 		.4byte	.LASF131
 2024 0cae 01       		.byte	0x1
 2025 0caf 14       		.byte	0x14
 2026 0cb0 25000000 		.4byte	0x25
 2027 0cb4 05       		.uleb128 0x5
 2028 0cb5 03       		.byte	0x3
 2029 0cb6 28000000 		.4byte	_ZL4gain
 2030 0cba 43       		.uleb128 0x43
 2031 0cbb 22050000 		.4byte	.LASF132
 2032 0cbf 01       		.byte	0x1
 2033 0cc0 15       		.byte	0x15
 2034 0cc1 25000000 		.4byte	0x25
 2035 0cc5 05       		.uleb128 0x5
 2036 0cc6 03       		.byte	0x3
 2037 0cc7 00000000 		.4byte	wetXNL
 2038 0ccb 43       		.uleb128 0x43
 2039 0ccc 01040000 		.4byte	.LASF133
 2040 0cd0 01       		.byte	0x1
 2041 0cd1 16       		.byte	0x16
 2042 0cd2 25000000 		.4byte	0x25
 2043 0cd6 05       		.uleb128 0x5
ARM GAS  C:\msys64\tmp\ccXqW09Z.s 			page 37


 2044 0cd7 03       		.byte	0x3
 2045 0cd8 00000000 		.4byte	wetXNR
 2046 0cdc 44       		.uleb128 0x44
 2047 0cdd 62706D00 		.ascii	"bpm\000"
 2048 0ce1 01       		.byte	0x1
 2049 0ce2 17       		.byte	0x17
 2050 0ce3 2C000000 		.4byte	0x2c
 2051 0ce7 05       		.uleb128 0x5
 2052 0ce8 03       		.byte	0x3
 2053 0ce9 00000000 		.4byte	bpm
 2054 0ced 45       		.uleb128 0x45
 2055 0cee 2C080000 		.4byte	.LASF143
 2056 0cf2 2C080000 		.4byte	.LASF143
 2057 0cf6 0B       		.byte	0xb
 2058 0cf7 5D       		.byte	0x5d
 2059 0cf8 00       		.byte	0
 2060              		.section	.debug_abbrev,"",%progbits
 2061              	.Ldebug_abbrev0:
 2062 0000 01       		.uleb128 0x1
 2063 0001 11       		.uleb128 0x11
 2064 0002 01       		.byte	0x1
 2065 0003 25       		.uleb128 0x25
 2066 0004 0E       		.uleb128 0xe
 2067 0005 13       		.uleb128 0x13
 2068 0006 0B       		.uleb128 0xb
 2069 0007 03       		.uleb128 0x3
 2070 0008 0E       		.uleb128 0xe
 2071 0009 1B       		.uleb128 0x1b
 2072 000a 0E       		.uleb128 0xe
 2073 000b 55       		.uleb128 0x55
 2074 000c 17       		.uleb128 0x17
 2075 000d 11       		.uleb128 0x11
 2076 000e 01       		.uleb128 0x1
 2077 000f 10       		.uleb128 0x10
 2078 0010 17       		.uleb128 0x17
 2079 0011 00       		.byte	0
 2080 0012 00       		.byte	0
 2081 0013 02       		.uleb128 0x2
 2082 0014 24       		.uleb128 0x24
 2083 0015 00       		.byte	0
 2084 0016 0B       		.uleb128 0xb
 2085 0017 0B       		.uleb128 0xb
 2086 0018 3E       		.uleb128 0x3e
 2087 0019 0B       		.uleb128 0xb
 2088 001a 03       		.uleb128 0x3
 2089 001b 0E       		.uleb128 0xe
 2090 001c 00       		.byte	0
 2091 001d 00       		.byte	0
 2092 001e 03       		.uleb128 0x3
 2093 001f 24       		.uleb128 0x24
 2094 0020 00       		.byte	0
 2095 0021 0B       		.uleb128 0xb
 2096 0022 0B       		.uleb128 0xb
 2097 0023 3E       		.uleb128 0x3e
 2098 0024 0B       		.uleb128 0xb
 2099 0025 03       		.uleb128 0x3
 2100 0026 08       		.uleb128 0x8
ARM GAS  C:\msys64\tmp\ccXqW09Z.s 			page 38


 2101 0027 00       		.byte	0
 2102 0028 00       		.byte	0
 2103 0029 04       		.uleb128 0x4
 2104 002a 16       		.uleb128 0x16
 2105 002b 00       		.byte	0
 2106 002c 03       		.uleb128 0x3
 2107 002d 0E       		.uleb128 0xe
 2108 002e 3A       		.uleb128 0x3a
 2109 002f 0B       		.uleb128 0xb
 2110 0030 3B       		.uleb128 0x3b
 2111 0031 0B       		.uleb128 0xb
 2112 0032 49       		.uleb128 0x49
 2113 0033 13       		.uleb128 0x13
 2114 0034 00       		.byte	0
 2115 0035 00       		.byte	0
 2116 0036 05       		.uleb128 0x5
 2117 0037 3B       		.uleb128 0x3b
 2118 0038 00       		.byte	0
 2119 0039 03       		.uleb128 0x3
 2120 003a 0E       		.uleb128 0xe
 2121 003b 00       		.byte	0
 2122 003c 00       		.byte	0
 2123 003d 06       		.uleb128 0x6
 2124 003e 17       		.uleb128 0x17
 2125 003f 01       		.byte	0x1
 2126 0040 0B       		.uleb128 0xb
 2127 0041 0B       		.uleb128 0xb
 2128 0042 3A       		.uleb128 0x3a
 2129 0043 0B       		.uleb128 0xb
 2130 0044 3B       		.uleb128 0x3b
 2131 0045 0B       		.uleb128 0xb
 2132 0046 6E       		.uleb128 0x6e
 2133 0047 0E       		.uleb128 0xe
 2134 0048 01       		.uleb128 0x1
 2135 0049 13       		.uleb128 0x13
 2136 004a 00       		.byte	0
 2137 004b 00       		.byte	0
 2138 004c 07       		.uleb128 0x7
 2139 004d 0D       		.uleb128 0xd
 2140 004e 00       		.byte	0
 2141 004f 03       		.uleb128 0x3
 2142 0050 08       		.uleb128 0x8
 2143 0051 3A       		.uleb128 0x3a
 2144 0052 0B       		.uleb128 0xb
 2145 0053 3B       		.uleb128 0x3b
 2146 0054 0B       		.uleb128 0xb
 2147 0055 49       		.uleb128 0x49
 2148 0056 13       		.uleb128 0x13
 2149 0057 00       		.byte	0
 2150 0058 00       		.byte	0
 2151 0059 08       		.uleb128 0x8
 2152 005a 16       		.uleb128 0x16
 2153 005b 00       		.byte	0
 2154 005c 03       		.uleb128 0x3
 2155 005d 0E       		.uleb128 0xe
 2156 005e 3A       		.uleb128 0x3a
 2157 005f 0B       		.uleb128 0xb
ARM GAS  C:\msys64\tmp\ccXqW09Z.s 			page 39


 2158 0060 3B       		.uleb128 0x3b
 2159 0061 05       		.uleb128 0x5
 2160 0062 49       		.uleb128 0x49
 2161 0063 13       		.uleb128 0x13
 2162 0064 00       		.byte	0
 2163 0065 00       		.byte	0
 2164 0066 09       		.uleb128 0x9
 2165 0067 04       		.uleb128 0x4
 2166 0068 01       		.byte	0x1
 2167 0069 0B       		.uleb128 0xb
 2168 006a 0B       		.uleb128 0xb
 2169 006b 49       		.uleb128 0x49
 2170 006c 13       		.uleb128 0x13
 2171 006d 3A       		.uleb128 0x3a
 2172 006e 0B       		.uleb128 0xb
 2173 006f 3B       		.uleb128 0x3b
 2174 0070 0B       		.uleb128 0xb
 2175 0071 01       		.uleb128 0x1
 2176 0072 13       		.uleb128 0x13
 2177 0073 00       		.byte	0
 2178 0074 00       		.byte	0
 2179 0075 0A       		.uleb128 0xa
 2180 0076 28       		.uleb128 0x28
 2181 0077 00       		.byte	0
 2182 0078 03       		.uleb128 0x3
 2183 0079 0E       		.uleb128 0xe
 2184 007a 1C       		.uleb128 0x1c
 2185 007b 0B       		.uleb128 0xb
 2186 007c 00       		.byte	0
 2187 007d 00       		.byte	0
 2188 007e 0B       		.uleb128 0xb
 2189 007f 0F       		.uleb128 0xf
 2190 0080 00       		.byte	0
 2191 0081 0B       		.uleb128 0xb
 2192 0082 0B       		.uleb128 0xb
 2193 0083 49       		.uleb128 0x49
 2194 0084 13       		.uleb128 0x13
 2195 0085 00       		.byte	0
 2196 0086 00       		.byte	0
 2197 0087 0C       		.uleb128 0xc
 2198 0088 39       		.uleb128 0x39
 2199 0089 01       		.byte	0x1
 2200 008a 03       		.uleb128 0x3
 2201 008b 08       		.uleb128 0x8
 2202 008c 3A       		.uleb128 0x3a
 2203 008d 0B       		.uleb128 0xb
 2204 008e 3B       		.uleb128 0x3b
 2205 008f 0B       		.uleb128 0xb
 2206 0090 01       		.uleb128 0x1
 2207 0091 13       		.uleb128 0x13
 2208 0092 00       		.byte	0
 2209 0093 00       		.byte	0
 2210 0094 0D       		.uleb128 0xd
 2211 0095 13       		.uleb128 0x13
 2212 0096 01       		.byte	0x1
 2213 0097 03       		.uleb128 0x3
 2214 0098 0E       		.uleb128 0xe
ARM GAS  C:\msys64\tmp\ccXqW09Z.s 			page 40


 2215 0099 0B       		.uleb128 0xb
 2216 009a 0B       		.uleb128 0xb
 2217 009b 3A       		.uleb128 0x3a
 2218 009c 0B       		.uleb128 0xb
 2219 009d 3B       		.uleb128 0x3b
 2220 009e 0B       		.uleb128 0xb
 2221 009f 01       		.uleb128 0x1
 2222 00a0 13       		.uleb128 0x13
 2223 00a1 00       		.byte	0
 2224 00a2 00       		.byte	0
 2225 00a3 0E       		.uleb128 0xe
 2226 00a4 0D       		.uleb128 0xd
 2227 00a5 00       		.byte	0
 2228 00a6 03       		.uleb128 0x3
 2229 00a7 0E       		.uleb128 0xe
 2230 00a8 3A       		.uleb128 0x3a
 2231 00a9 0B       		.uleb128 0xb
 2232 00aa 3B       		.uleb128 0x3b
 2233 00ab 05       		.uleb128 0x5
 2234 00ac 49       		.uleb128 0x49
 2235 00ad 13       		.uleb128 0x13
 2236 00ae 38       		.uleb128 0x38
 2237 00af 0B       		.uleb128 0xb
 2238 00b0 00       		.byte	0
 2239 00b1 00       		.byte	0
 2240 00b2 0F       		.uleb128 0xf
 2241 00b3 0D       		.uleb128 0xd
 2242 00b4 00       		.byte	0
 2243 00b5 03       		.uleb128 0x3
 2244 00b6 08       		.uleb128 0x8
 2245 00b7 3A       		.uleb128 0x3a
 2246 00b8 0B       		.uleb128 0xb
 2247 00b9 3B       		.uleb128 0x3b
 2248 00ba 05       		.uleb128 0x5
 2249 00bb 49       		.uleb128 0x49
 2250 00bc 13       		.uleb128 0x13
 2251 00bd 38       		.uleb128 0x38
 2252 00be 0B       		.uleb128 0xb
 2253 00bf 00       		.byte	0
 2254 00c0 00       		.byte	0
 2255 00c1 10       		.uleb128 0x10
 2256 00c2 2E       		.uleb128 0x2e
 2257 00c3 01       		.byte	0x1
 2258 00c4 3F       		.uleb128 0x3f
 2259 00c5 19       		.uleb128 0x19
 2260 00c6 03       		.uleb128 0x3
 2261 00c7 0E       		.uleb128 0xe
 2262 00c8 3A       		.uleb128 0x3a
 2263 00c9 0B       		.uleb128 0xb
 2264 00ca 3B       		.uleb128 0x3b
 2265 00cb 0B       		.uleb128 0xb
 2266 00cc 6E       		.uleb128 0x6e
 2267 00cd 0E       		.uleb128 0xe
 2268 00ce 49       		.uleb128 0x49
 2269 00cf 13       		.uleb128 0x13
 2270 00d0 3C       		.uleb128 0x3c
 2271 00d1 19       		.uleb128 0x19
ARM GAS  C:\msys64\tmp\ccXqW09Z.s 			page 41


 2272 00d2 64       		.uleb128 0x64
 2273 00d3 13       		.uleb128 0x13
 2274 00d4 01       		.uleb128 0x1
 2275 00d5 13       		.uleb128 0x13
 2276 00d6 00       		.byte	0
 2277 00d7 00       		.byte	0
 2278 00d8 11       		.uleb128 0x11
 2279 00d9 05       		.uleb128 0x5
 2280 00da 00       		.byte	0
 2281 00db 49       		.uleb128 0x49
 2282 00dc 13       		.uleb128 0x13
 2283 00dd 34       		.uleb128 0x34
 2284 00de 19       		.uleb128 0x19
 2285 00df 00       		.byte	0
 2286 00e0 00       		.byte	0
 2287 00e1 12       		.uleb128 0x12
 2288 00e2 2E       		.uleb128 0x2e
 2289 00e3 01       		.byte	0x1
 2290 00e4 3F       		.uleb128 0x3f
 2291 00e5 19       		.uleb128 0x19
 2292 00e6 03       		.uleb128 0x3
 2293 00e7 0E       		.uleb128 0xe
 2294 00e8 3A       		.uleb128 0x3a
 2295 00e9 0B       		.uleb128 0xb
 2296 00ea 3B       		.uleb128 0x3b
 2297 00eb 0B       		.uleb128 0xb
 2298 00ec 6E       		.uleb128 0x6e
 2299 00ed 0E       		.uleb128 0xe
 2300 00ee 3C       		.uleb128 0x3c
 2301 00ef 19       		.uleb128 0x19
 2302 00f0 64       		.uleb128 0x64
 2303 00f1 13       		.uleb128 0x13
 2304 00f2 01       		.uleb128 0x1
 2305 00f3 13       		.uleb128 0x13
 2306 00f4 00       		.byte	0
 2307 00f5 00       		.byte	0
 2308 00f6 13       		.uleb128 0x13
 2309 00f7 05       		.uleb128 0x5
 2310 00f8 00       		.byte	0
 2311 00f9 49       		.uleb128 0x49
 2312 00fa 13       		.uleb128 0x13
 2313 00fb 00       		.byte	0
 2314 00fc 00       		.byte	0
 2315 00fd 14       		.uleb128 0x14
 2316 00fe 2E       		.uleb128 0x2e
 2317 00ff 01       		.byte	0x1
 2318 0100 3F       		.uleb128 0x3f
 2319 0101 19       		.uleb128 0x19
 2320 0102 03       		.uleb128 0x3
 2321 0103 0E       		.uleb128 0xe
 2322 0104 3A       		.uleb128 0x3a
 2323 0105 0B       		.uleb128 0xb
 2324 0106 3B       		.uleb128 0x3b
 2325 0107 05       		.uleb128 0x5
 2326 0108 6E       		.uleb128 0x6e
 2327 0109 0E       		.uleb128 0xe
 2328 010a 49       		.uleb128 0x49
ARM GAS  C:\msys64\tmp\ccXqW09Z.s 			page 42


 2329 010b 13       		.uleb128 0x13
 2330 010c 3C       		.uleb128 0x3c
 2331 010d 19       		.uleb128 0x19
 2332 010e 64       		.uleb128 0x64
 2333 010f 13       		.uleb128 0x13
 2334 0110 01       		.uleb128 0x1
 2335 0111 13       		.uleb128 0x13
 2336 0112 00       		.byte	0
 2337 0113 00       		.byte	0
 2338 0114 15       		.uleb128 0x15
 2339 0115 2E       		.uleb128 0x2e
 2340 0116 01       		.byte	0x1
 2341 0117 3F       		.uleb128 0x3f
 2342 0118 19       		.uleb128 0x19
 2343 0119 03       		.uleb128 0x3
 2344 011a 0E       		.uleb128 0xe
 2345 011b 3A       		.uleb128 0x3a
 2346 011c 0B       		.uleb128 0xb
 2347 011d 3B       		.uleb128 0x3b
 2348 011e 05       		.uleb128 0x5
 2349 011f 6E       		.uleb128 0x6e
 2350 0120 0E       		.uleb128 0xe
 2351 0121 49       		.uleb128 0x49
 2352 0122 13       		.uleb128 0x13
 2353 0123 3C       		.uleb128 0x3c
 2354 0124 19       		.uleb128 0x19
 2355 0125 64       		.uleb128 0x64
 2356 0126 13       		.uleb128 0x13
 2357 0127 00       		.byte	0
 2358 0128 00       		.byte	0
 2359 0129 16       		.uleb128 0x16
 2360 012a 13       		.uleb128 0x13
 2361 012b 01       		.byte	0x1
 2362 012c 03       		.uleb128 0x3
 2363 012d 0E       		.uleb128 0xe
 2364 012e 0B       		.uleb128 0xb
 2365 012f 0B       		.uleb128 0xb
 2366 0130 3A       		.uleb128 0x3a
 2367 0131 0B       		.uleb128 0xb
 2368 0132 3B       		.uleb128 0x3b
 2369 0133 0B       		.uleb128 0xb
 2370 0134 00       		.byte	0
 2371 0135 00       		.byte	0
 2372 0136 17       		.uleb128 0x17
 2373 0137 0D       		.uleb128 0xd
 2374 0138 00       		.byte	0
 2375 0139 03       		.uleb128 0x3
 2376 013a 0E       		.uleb128 0xe
 2377 013b 3A       		.uleb128 0x3a
 2378 013c 0B       		.uleb128 0xb
 2379 013d 3B       		.uleb128 0x3b
 2380 013e 0B       		.uleb128 0xb
 2381 013f 49       		.uleb128 0x49
 2382 0140 13       		.uleb128 0x13
 2383 0141 38       		.uleb128 0x38
 2384 0142 0B       		.uleb128 0xb
 2385 0143 00       		.byte	0
ARM GAS  C:\msys64\tmp\ccXqW09Z.s 			page 43


 2386 0144 00       		.byte	0
 2387 0145 18       		.uleb128 0x18
 2388 0146 2E       		.uleb128 0x2e
 2389 0147 01       		.byte	0x1
 2390 0148 3F       		.uleb128 0x3f
 2391 0149 19       		.uleb128 0x19
 2392 014a 03       		.uleb128 0x3
 2393 014b 0E       		.uleb128 0xe
 2394 014c 3A       		.uleb128 0x3a
 2395 014d 0B       		.uleb128 0xb
 2396 014e 3B       		.uleb128 0x3b
 2397 014f 0B       		.uleb128 0xb
 2398 0150 6E       		.uleb128 0x6e
 2399 0151 0E       		.uleb128 0xe
 2400 0152 49       		.uleb128 0x49
 2401 0153 13       		.uleb128 0x13
 2402 0154 3C       		.uleb128 0x3c
 2403 0155 19       		.uleb128 0x19
 2404 0156 64       		.uleb128 0x64
 2405 0157 13       		.uleb128 0x13
 2406 0158 00       		.byte	0
 2407 0159 00       		.byte	0
 2408 015a 19       		.uleb128 0x19
 2409 015b 2E       		.uleb128 0x2e
 2410 015c 01       		.byte	0x1
 2411 015d 03       		.uleb128 0x3
 2412 015e 0E       		.uleb128 0xe
 2413 015f 3A       		.uleb128 0x3a
 2414 0160 0B       		.uleb128 0xb
 2415 0161 3B       		.uleb128 0x3b
 2416 0162 05       		.uleb128 0x5
 2417 0163 49       		.uleb128 0x49
 2418 0164 13       		.uleb128 0x13
 2419 0165 20       		.uleb128 0x20
 2420 0166 0B       		.uleb128 0xb
 2421 0167 01       		.uleb128 0x1
 2422 0168 13       		.uleb128 0x13
 2423 0169 00       		.byte	0
 2424 016a 00       		.byte	0
 2425 016b 1A       		.uleb128 0x1a
 2426 016c 05       		.uleb128 0x5
 2427 016d 00       		.byte	0
 2428 016e 03       		.uleb128 0x3
 2429 016f 08       		.uleb128 0x8
 2430 0170 3A       		.uleb128 0x3a
 2431 0171 0B       		.uleb128 0xb
 2432 0172 3B       		.uleb128 0x3b
 2433 0173 05       		.uleb128 0x5
 2434 0174 49       		.uleb128 0x49
 2435 0175 13       		.uleb128 0x13
 2436 0176 00       		.byte	0
 2437 0177 00       		.byte	0
 2438 0178 1B       		.uleb128 0x1b
 2439 0179 34       		.uleb128 0x34
 2440 017a 00       		.byte	0
 2441 017b 03       		.uleb128 0x3
 2442 017c 08       		.uleb128 0x8
ARM GAS  C:\msys64\tmp\ccXqW09Z.s 			page 44


 2443 017d 3A       		.uleb128 0x3a
 2444 017e 0B       		.uleb128 0xb
 2445 017f 3B       		.uleb128 0x3b
 2446 0180 05       		.uleb128 0x5
 2447 0181 49       		.uleb128 0x49
 2448 0182 13       		.uleb128 0x13
 2449 0183 00       		.byte	0
 2450 0184 00       		.byte	0
 2451 0185 1C       		.uleb128 0x1c
 2452 0186 2E       		.uleb128 0x2e
 2453 0187 01       		.byte	0x1
 2454 0188 47       		.uleb128 0x47
 2455 0189 13       		.uleb128 0x13
 2456 018a 20       		.uleb128 0x20
 2457 018b 0B       		.uleb128 0xb
 2458 018c 64       		.uleb128 0x64
 2459 018d 13       		.uleb128 0x13
 2460 018e 01       		.uleb128 0x1
 2461 018f 13       		.uleb128 0x13
 2462 0190 00       		.byte	0
 2463 0191 00       		.byte	0
 2464 0192 1D       		.uleb128 0x1d
 2465 0193 05       		.uleb128 0x5
 2466 0194 00       		.byte	0
 2467 0195 03       		.uleb128 0x3
 2468 0196 0E       		.uleb128 0xe
 2469 0197 49       		.uleb128 0x49
 2470 0198 13       		.uleb128 0x13
 2471 0199 34       		.uleb128 0x34
 2472 019a 19       		.uleb128 0x19
 2473 019b 00       		.byte	0
 2474 019c 00       		.byte	0
 2475 019d 1E       		.uleb128 0x1e
 2476 019e 26       		.uleb128 0x26
 2477 019f 00       		.byte	0
 2478 01a0 49       		.uleb128 0x49
 2479 01a1 13       		.uleb128 0x13
 2480 01a2 00       		.byte	0
 2481 01a3 00       		.byte	0
 2482 01a4 1F       		.uleb128 0x1f
 2483 01a5 2E       		.uleb128 0x2e
 2484 01a6 01       		.byte	0x1
 2485 01a7 03       		.uleb128 0x3
 2486 01a8 0E       		.uleb128 0xe
 2487 01a9 3A       		.uleb128 0x3a
 2488 01aa 0B       		.uleb128 0xb
 2489 01ab 3B       		.uleb128 0x3b
 2490 01ac 0B       		.uleb128 0xb
 2491 01ad 20       		.uleb128 0x20
 2492 01ae 0B       		.uleb128 0xb
 2493 01af 01       		.uleb128 0x1
 2494 01b0 13       		.uleb128 0x13
 2495 01b1 00       		.byte	0
 2496 01b2 00       		.byte	0
 2497 01b3 20       		.uleb128 0x20
 2498 01b4 05       		.uleb128 0x5
 2499 01b5 00       		.byte	0
ARM GAS  C:\msys64\tmp\ccXqW09Z.s 			page 45


 2500 01b6 03       		.uleb128 0x3
 2501 01b7 08       		.uleb128 0x8
 2502 01b8 3A       		.uleb128 0x3a
 2503 01b9 0B       		.uleb128 0xb
 2504 01ba 3B       		.uleb128 0x3b
 2505 01bb 0B       		.uleb128 0xb
 2506 01bc 49       		.uleb128 0x49
 2507 01bd 13       		.uleb128 0x13
 2508 01be 00       		.byte	0
 2509 01bf 00       		.byte	0
 2510 01c0 21       		.uleb128 0x21
 2511 01c1 34       		.uleb128 0x34
 2512 01c2 00       		.byte	0
 2513 01c3 03       		.uleb128 0x3
 2514 01c4 08       		.uleb128 0x8
 2515 01c5 3A       		.uleb128 0x3a
 2516 01c6 0B       		.uleb128 0xb
 2517 01c7 3B       		.uleb128 0x3b
 2518 01c8 0B       		.uleb128 0xb
 2519 01c9 49       		.uleb128 0x49
 2520 01ca 13       		.uleb128 0x13
 2521 01cb 00       		.byte	0
 2522 01cc 00       		.byte	0
 2523 01cd 22       		.uleb128 0x22
 2524 01ce 37       		.uleb128 0x37
 2525 01cf 00       		.byte	0
 2526 01d0 49       		.uleb128 0x49
 2527 01d1 13       		.uleb128 0x13
 2528 01d2 00       		.byte	0
 2529 01d3 00       		.byte	0
 2530 01d4 23       		.uleb128 0x23
 2531 01d5 2E       		.uleb128 0x2e
 2532 01d6 01       		.byte	0x1
 2533 01d7 03       		.uleb128 0x3
 2534 01d8 0E       		.uleb128 0xe
 2535 01d9 3A       		.uleb128 0x3a
 2536 01da 0B       		.uleb128 0xb
 2537 01db 3B       		.uleb128 0x3b
 2538 01dc 0B       		.uleb128 0xb
 2539 01dd 49       		.uleb128 0x49
 2540 01de 13       		.uleb128 0x13
 2541 01df 20       		.uleb128 0x20
 2542 01e0 0B       		.uleb128 0xb
 2543 01e1 01       		.uleb128 0x1
 2544 01e2 13       		.uleb128 0x13
 2545 01e3 00       		.byte	0
 2546 01e4 00       		.byte	0
 2547 01e5 24       		.uleb128 0x24
 2548 01e6 05       		.uleb128 0x5
 2549 01e7 00       		.byte	0
 2550 01e8 03       		.uleb128 0x3
 2551 01e9 0E       		.uleb128 0xe
 2552 01ea 3A       		.uleb128 0x3a
 2553 01eb 0B       		.uleb128 0xb
 2554 01ec 3B       		.uleb128 0x3b
 2555 01ed 0B       		.uleb128 0xb
 2556 01ee 49       		.uleb128 0x49
ARM GAS  C:\msys64\tmp\ccXqW09Z.s 			page 46


 2557 01ef 13       		.uleb128 0x13
 2558 01f0 00       		.byte	0
 2559 01f1 00       		.byte	0
 2560 01f2 25       		.uleb128 0x25
 2561 01f3 34       		.uleb128 0x34
 2562 01f4 00       		.byte	0
 2563 01f5 03       		.uleb128 0x3
 2564 01f6 0E       		.uleb128 0xe
 2565 01f7 3A       		.uleb128 0x3a
 2566 01f8 0B       		.uleb128 0xb
 2567 01f9 3B       		.uleb128 0x3b
 2568 01fa 0B       		.uleb128 0xb
 2569 01fb 49       		.uleb128 0x49
 2570 01fc 13       		.uleb128 0x13
 2571 01fd 00       		.byte	0
 2572 01fe 00       		.byte	0
 2573 01ff 26       		.uleb128 0x26
 2574 0200 2E       		.uleb128 0x2e
 2575 0201 01       		.byte	0x1
 2576 0202 03       		.uleb128 0x3
 2577 0203 0E       		.uleb128 0xe
 2578 0204 34       		.uleb128 0x34
 2579 0205 19       		.uleb128 0x19
 2580 0206 20       		.uleb128 0x20
 2581 0207 0B       		.uleb128 0xb
 2582 0208 01       		.uleb128 0x1
 2583 0209 13       		.uleb128 0x13
 2584 020a 00       		.byte	0
 2585 020b 00       		.byte	0
 2586 020c 27       		.uleb128 0x27
 2587 020d 2E       		.uleb128 0x2e
 2588 020e 01       		.byte	0x1
 2589 020f 3F       		.uleb128 0x3f
 2590 0210 19       		.uleb128 0x19
 2591 0211 03       		.uleb128 0x3
 2592 0212 0E       		.uleb128 0xe
 2593 0213 3A       		.uleb128 0x3a
 2594 0214 0B       		.uleb128 0xb
 2595 0215 3B       		.uleb128 0x3b
 2596 0216 0B       		.uleb128 0xb
 2597 0217 11       		.uleb128 0x11
 2598 0218 01       		.uleb128 0x1
 2599 0219 12       		.uleb128 0x12
 2600 021a 06       		.uleb128 0x6
 2601 021b 40       		.uleb128 0x40
 2602 021c 18       		.uleb128 0x18
 2603 021d 9742     		.uleb128 0x2117
 2604 021f 19       		.uleb128 0x19
 2605 0220 01       		.uleb128 0x1
 2606 0221 13       		.uleb128 0x13
 2607 0222 00       		.byte	0
 2608 0223 00       		.byte	0
 2609 0224 28       		.uleb128 0x28
 2610 0225 05       		.uleb128 0x5
 2611 0226 00       		.byte	0
 2612 0227 03       		.uleb128 0x3
 2613 0228 0E       		.uleb128 0xe
ARM GAS  C:\msys64\tmp\ccXqW09Z.s 			page 47


 2614 0229 3A       		.uleb128 0x3a
 2615 022a 0B       		.uleb128 0xb
 2616 022b 3B       		.uleb128 0x3b
 2617 022c 0B       		.uleb128 0xb
 2618 022d 49       		.uleb128 0x49
 2619 022e 13       		.uleb128 0x13
 2620 022f 02       		.uleb128 0x2
 2621 0230 17       		.uleb128 0x17
 2622 0231 00       		.byte	0
 2623 0232 00       		.byte	0
 2624 0233 29       		.uleb128 0x29
 2625 0234 05       		.uleb128 0x5
 2626 0235 00       		.byte	0
 2627 0236 03       		.uleb128 0x3
 2628 0237 08       		.uleb128 0x8
 2629 0238 3A       		.uleb128 0x3a
 2630 0239 0B       		.uleb128 0xb
 2631 023a 3B       		.uleb128 0x3b
 2632 023b 0B       		.uleb128 0xb
 2633 023c 49       		.uleb128 0x49
 2634 023d 13       		.uleb128 0x13
 2635 023e 02       		.uleb128 0x2
 2636 023f 17       		.uleb128 0x17
 2637 0240 00       		.byte	0
 2638 0241 00       		.byte	0
 2639 0242 2A       		.uleb128 0x2a
 2640 0243 1D       		.uleb128 0x1d
 2641 0244 01       		.byte	0x1
 2642 0245 31       		.uleb128 0x31
 2643 0246 13       		.uleb128 0x13
 2644 0247 11       		.uleb128 0x11
 2645 0248 01       		.uleb128 0x1
 2646 0249 12       		.uleb128 0x12
 2647 024a 06       		.uleb128 0x6
 2648 024b 58       		.uleb128 0x58
 2649 024c 0B       		.uleb128 0xb
 2650 024d 59       		.uleb128 0x59
 2651 024e 0B       		.uleb128 0xb
 2652 024f 01       		.uleb128 0x1
 2653 0250 13       		.uleb128 0x13
 2654 0251 00       		.byte	0
 2655 0252 00       		.byte	0
 2656 0253 2B       		.uleb128 0x2b
 2657 0254 05       		.uleb128 0x5
 2658 0255 00       		.byte	0
 2659 0256 31       		.uleb128 0x31
 2660 0257 13       		.uleb128 0x13
 2661 0258 02       		.uleb128 0x2
 2662 0259 17       		.uleb128 0x17
 2663 025a 00       		.byte	0
 2664 025b 00       		.byte	0
 2665 025c 2C       		.uleb128 0x2c
 2666 025d 1D       		.uleb128 0x1d
 2667 025e 01       		.byte	0x1
 2668 025f 31       		.uleb128 0x31
 2669 0260 13       		.uleb128 0x13
 2670 0261 11       		.uleb128 0x11
ARM GAS  C:\msys64\tmp\ccXqW09Z.s 			page 48


 2671 0262 01       		.uleb128 0x1
 2672 0263 12       		.uleb128 0x12
 2673 0264 06       		.uleb128 0x6
 2674 0265 58       		.uleb128 0x58
 2675 0266 0B       		.uleb128 0xb
 2676 0267 59       		.uleb128 0x59
 2677 0268 0B       		.uleb128 0xb
 2678 0269 00       		.byte	0
 2679 026a 00       		.byte	0
 2680 026b 2D       		.uleb128 0x2d
 2681 026c 0B       		.uleb128 0xb
 2682 026d 01       		.byte	0x1
 2683 026e 11       		.uleb128 0x11
 2684 026f 01       		.uleb128 0x1
 2685 0270 12       		.uleb128 0x12
 2686 0271 06       		.uleb128 0x6
 2687 0272 00       		.byte	0
 2688 0273 00       		.byte	0
 2689 0274 2E       		.uleb128 0x2e
 2690 0275 34       		.uleb128 0x34
 2691 0276 00       		.byte	0
 2692 0277 31       		.uleb128 0x31
 2693 0278 13       		.uleb128 0x13
 2694 0279 02       		.uleb128 0x2
 2695 027a 17       		.uleb128 0x17
 2696 027b 00       		.byte	0
 2697 027c 00       		.byte	0
 2698 027d 2F       		.uleb128 0x2f
 2699 027e 1D       		.uleb128 0x1d
 2700 027f 01       		.byte	0x1
 2701 0280 31       		.uleb128 0x31
 2702 0281 13       		.uleb128 0x13
 2703 0282 52       		.uleb128 0x52
 2704 0283 01       		.uleb128 0x1
 2705 0284 55       		.uleb128 0x55
 2706 0285 17       		.uleb128 0x17
 2707 0286 58       		.uleb128 0x58
 2708 0287 0B       		.uleb128 0xb
 2709 0288 59       		.uleb128 0x59
 2710 0289 0B       		.uleb128 0xb
 2711 028a 01       		.uleb128 0x1
 2712 028b 13       		.uleb128 0x13
 2713 028c 00       		.byte	0
 2714 028d 00       		.byte	0
 2715 028e 30       		.uleb128 0x30
 2716 028f 898201   		.uleb128 0x4109
 2717 0292 00       		.byte	0
 2718 0293 11       		.uleb128 0x11
 2719 0294 01       		.uleb128 0x1
 2720 0295 31       		.uleb128 0x31
 2721 0296 13       		.uleb128 0x13
 2722 0297 00       		.byte	0
 2723 0298 00       		.byte	0
 2724 0299 31       		.uleb128 0x31
 2725 029a 34       		.uleb128 0x34
 2726 029b 00       		.byte	0
 2727 029c 03       		.uleb128 0x3
ARM GAS  C:\msys64\tmp\ccXqW09Z.s 			page 49


 2728 029d 08       		.uleb128 0x8
 2729 029e 3A       		.uleb128 0x3a
 2730 029f 0B       		.uleb128 0xb
 2731 02a0 3B       		.uleb128 0x3b
 2732 02a1 0B       		.uleb128 0xb
 2733 02a2 49       		.uleb128 0x49
 2734 02a3 13       		.uleb128 0x13
 2735 02a4 02       		.uleb128 0x2
 2736 02a5 17       		.uleb128 0x17
 2737 02a6 00       		.byte	0
 2738 02a7 00       		.byte	0
 2739 02a8 32       		.uleb128 0x32
 2740 02a9 34       		.uleb128 0x34
 2741 02aa 00       		.byte	0
 2742 02ab 03       		.uleb128 0x3
 2743 02ac 08       		.uleb128 0x8
 2744 02ad 3A       		.uleb128 0x3a
 2745 02ae 0B       		.uleb128 0xb
 2746 02af 3B       		.uleb128 0x3b
 2747 02b0 0B       		.uleb128 0xb
 2748 02b1 49       		.uleb128 0x49
 2749 02b2 13       		.uleb128 0x13
 2750 02b3 02       		.uleb128 0x2
 2751 02b4 18       		.uleb128 0x18
 2752 02b5 00       		.byte	0
 2753 02b6 00       		.byte	0
 2754 02b7 33       		.uleb128 0x33
 2755 02b8 0B       		.uleb128 0xb
 2756 02b9 01       		.byte	0x1
 2757 02ba 55       		.uleb128 0x55
 2758 02bb 17       		.uleb128 0x17
 2759 02bc 00       		.byte	0
 2760 02bd 00       		.byte	0
 2761 02be 34       		.uleb128 0x34
 2762 02bf 34       		.uleb128 0x34
 2763 02c0 00       		.byte	0
 2764 02c1 03       		.uleb128 0x3
 2765 02c2 0E       		.uleb128 0xe
 2766 02c3 3A       		.uleb128 0x3a
 2767 02c4 0B       		.uleb128 0xb
 2768 02c5 3B       		.uleb128 0x3b
 2769 02c6 0B       		.uleb128 0xb
 2770 02c7 49       		.uleb128 0x49
 2771 02c8 13       		.uleb128 0x13
 2772 02c9 02       		.uleb128 0x2
 2773 02ca 17       		.uleb128 0x17
 2774 02cb 00       		.byte	0
 2775 02cc 00       		.byte	0
 2776 02cd 35       		.uleb128 0x35
 2777 02ce 34       		.uleb128 0x34
 2778 02cf 00       		.byte	0
 2779 02d0 31       		.uleb128 0x31
 2780 02d1 13       		.uleb128 0x13
 2781 02d2 02       		.uleb128 0x2
 2782 02d3 18       		.uleb128 0x18
 2783 02d4 00       		.byte	0
 2784 02d5 00       		.byte	0
ARM GAS  C:\msys64\tmp\ccXqW09Z.s 			page 50


 2785 02d6 36       		.uleb128 0x36
 2786 02d7 1D       		.uleb128 0x1d
 2787 02d8 01       		.byte	0x1
 2788 02d9 31       		.uleb128 0x31
 2789 02da 13       		.uleb128 0x13
 2790 02db 52       		.uleb128 0x52
 2791 02dc 01       		.uleb128 0x1
 2792 02dd 55       		.uleb128 0x55
 2793 02de 17       		.uleb128 0x17
 2794 02df 58       		.uleb128 0x58
 2795 02e0 0B       		.uleb128 0xb
 2796 02e1 59       		.uleb128 0x59
 2797 02e2 0B       		.uleb128 0xb
 2798 02e3 00       		.byte	0
 2799 02e4 00       		.byte	0
 2800 02e5 37       		.uleb128 0x37
 2801 02e6 05       		.uleb128 0x5
 2802 02e7 00       		.byte	0
 2803 02e8 31       		.uleb128 0x31
 2804 02e9 13       		.uleb128 0x13
 2805 02ea 00       		.byte	0
 2806 02eb 00       		.byte	0
 2807 02ec 38       		.uleb128 0x38
 2808 02ed 34       		.uleb128 0x34
 2809 02ee 00       		.byte	0
 2810 02ef 31       		.uleb128 0x31
 2811 02f0 13       		.uleb128 0x13
 2812 02f1 00       		.byte	0
 2813 02f2 00       		.byte	0
 2814 02f3 39       		.uleb128 0x39
 2815 02f4 05       		.uleb128 0x5
 2816 02f5 00       		.byte	0
 2817 02f6 03       		.uleb128 0x3
 2818 02f7 0E       		.uleb128 0xe
 2819 02f8 3A       		.uleb128 0x3a
 2820 02f9 0B       		.uleb128 0xb
 2821 02fa 3B       		.uleb128 0x3b
 2822 02fb 0B       		.uleb128 0xb
 2823 02fc 49       		.uleb128 0x49
 2824 02fd 13       		.uleb128 0x13
 2825 02fe 02       		.uleb128 0x2
 2826 02ff 18       		.uleb128 0x18
 2827 0300 00       		.byte	0
 2828 0301 00       		.byte	0
 2829 0302 3A       		.uleb128 0x3a
 2830 0303 2E       		.uleb128 0x2e
 2831 0304 01       		.byte	0x1
 2832 0305 03       		.uleb128 0x3
 2833 0306 0E       		.uleb128 0xe
 2834 0307 34       		.uleb128 0x34
 2835 0308 19       		.uleb128 0x19
 2836 0309 11       		.uleb128 0x11
 2837 030a 01       		.uleb128 0x1
 2838 030b 12       		.uleb128 0x12
 2839 030c 06       		.uleb128 0x6
 2840 030d 40       		.uleb128 0x40
 2841 030e 18       		.uleb128 0x18
ARM GAS  C:\msys64\tmp\ccXqW09Z.s 			page 51


 2842 030f 9742     		.uleb128 0x2117
 2843 0311 19       		.uleb128 0x19
 2844 0312 01       		.uleb128 0x1
 2845 0313 13       		.uleb128 0x13
 2846 0314 00       		.byte	0
 2847 0315 00       		.byte	0
 2848 0316 3B       		.uleb128 0x3b
 2849 0317 05       		.uleb128 0x5
 2850 0318 00       		.byte	0
 2851 0319 31       		.uleb128 0x31
 2852 031a 13       		.uleb128 0x13
 2853 031b 02       		.uleb128 0x2
 2854 031c 18       		.uleb128 0x18
 2855 031d 00       		.byte	0
 2856 031e 00       		.byte	0
 2857 031f 3C       		.uleb128 0x3c
 2858 0320 34       		.uleb128 0x34
 2859 0321 00       		.byte	0
 2860 0322 03       		.uleb128 0x3
 2861 0323 0E       		.uleb128 0xe
 2862 0324 3A       		.uleb128 0x3a
 2863 0325 0B       		.uleb128 0xb
 2864 0326 3B       		.uleb128 0x3b
 2865 0327 0B       		.uleb128 0xb
 2866 0328 49       		.uleb128 0x49
 2867 0329 13       		.uleb128 0x13
 2868 032a 3F       		.uleb128 0x3f
 2869 032b 19       		.uleb128 0x19
 2870 032c 3C       		.uleb128 0x3c
 2871 032d 19       		.uleb128 0x19
 2872 032e 00       		.byte	0
 2873 032f 00       		.byte	0
 2874 0330 3D       		.uleb128 0x3d
 2875 0331 01       		.uleb128 0x1
 2876 0332 01       		.byte	0x1
 2877 0333 49       		.uleb128 0x49
 2878 0334 13       		.uleb128 0x13
 2879 0335 01       		.uleb128 0x1
 2880 0336 13       		.uleb128 0x13
 2881 0337 00       		.byte	0
 2882 0338 00       		.byte	0
 2883 0339 3E       		.uleb128 0x3e
 2884 033a 21       		.uleb128 0x21
 2885 033b 00       		.byte	0
 2886 033c 49       		.uleb128 0x49
 2887 033d 13       		.uleb128 0x13
 2888 033e 2F       		.uleb128 0x2f
 2889 033f 0B       		.uleb128 0xb
 2890 0340 00       		.byte	0
 2891 0341 00       		.byte	0
 2892 0342 3F       		.uleb128 0x3f
 2893 0343 21       		.uleb128 0x21
 2894 0344 00       		.byte	0
 2895 0345 49       		.uleb128 0x49
 2896 0346 13       		.uleb128 0x13
 2897 0347 2F       		.uleb128 0x2f
 2898 0348 05       		.uleb128 0x5
ARM GAS  C:\msys64\tmp\ccXqW09Z.s 			page 52


 2899 0349 00       		.byte	0
 2900 034a 00       		.byte	0
 2901 034b 40       		.uleb128 0x40
 2902 034c 34       		.uleb128 0x34
 2903 034d 00       		.byte	0
 2904 034e 03       		.uleb128 0x3
 2905 034f 0E       		.uleb128 0xe
 2906 0350 3A       		.uleb128 0x3a
 2907 0351 0B       		.uleb128 0xb
 2908 0352 3B       		.uleb128 0x3b
 2909 0353 05       		.uleb128 0x5
 2910 0354 49       		.uleb128 0x49
 2911 0355 13       		.uleb128 0x13
 2912 0356 3F       		.uleb128 0x3f
 2913 0357 19       		.uleb128 0x19
 2914 0358 3C       		.uleb128 0x3c
 2915 0359 19       		.uleb128 0x19
 2916 035a 00       		.byte	0
 2917 035b 00       		.byte	0
 2918 035c 41       		.uleb128 0x41
 2919 035d 34       		.uleb128 0x34
 2920 035e 00       		.byte	0
 2921 035f 03       		.uleb128 0x3
 2922 0360 0E       		.uleb128 0xe
 2923 0361 3A       		.uleb128 0x3a
 2924 0362 0B       		.uleb128 0xb
 2925 0363 3B       		.uleb128 0x3b
 2926 0364 0B       		.uleb128 0xb
 2927 0365 49       		.uleb128 0x49
 2928 0366 13       		.uleb128 0x13
 2929 0367 02       		.uleb128 0x2
 2930 0368 18       		.uleb128 0x18
 2931 0369 00       		.byte	0
 2932 036a 00       		.byte	0
 2933 036b 42       		.uleb128 0x42
 2934 036c 21       		.uleb128 0x21
 2935 036d 00       		.byte	0
 2936 036e 49       		.uleb128 0x49
 2937 036f 13       		.uleb128 0x13
 2938 0370 2F       		.uleb128 0x2f
 2939 0371 06       		.uleb128 0x6
 2940 0372 00       		.byte	0
 2941 0373 00       		.byte	0
 2942 0374 43       		.uleb128 0x43
 2943 0375 34       		.uleb128 0x34
 2944 0376 00       		.byte	0
 2945 0377 03       		.uleb128 0x3
 2946 0378 0E       		.uleb128 0xe
 2947 0379 3A       		.uleb128 0x3a
 2948 037a 0B       		.uleb128 0xb
 2949 037b 3B       		.uleb128 0x3b
 2950 037c 0B       		.uleb128 0xb
 2951 037d 49       		.uleb128 0x49
 2952 037e 13       		.uleb128 0x13
 2953 037f 3F       		.uleb128 0x3f
 2954 0380 19       		.uleb128 0x19
 2955 0381 02       		.uleb128 0x2
ARM GAS  C:\msys64\tmp\ccXqW09Z.s 			page 53


 2956 0382 18       		.uleb128 0x18
 2957 0383 00       		.byte	0
 2958 0384 00       		.byte	0
 2959 0385 44       		.uleb128 0x44
 2960 0386 34       		.uleb128 0x34
 2961 0387 00       		.byte	0
 2962 0388 03       		.uleb128 0x3
 2963 0389 08       		.uleb128 0x8
 2964 038a 3A       		.uleb128 0x3a
 2965 038b 0B       		.uleb128 0xb
 2966 038c 3B       		.uleb128 0x3b
 2967 038d 0B       		.uleb128 0xb
 2968 038e 49       		.uleb128 0x49
 2969 038f 13       		.uleb128 0x13
 2970 0390 3F       		.uleb128 0x3f
 2971 0391 19       		.uleb128 0x19
 2972 0392 02       		.uleb128 0x2
 2973 0393 18       		.uleb128 0x18
 2974 0394 00       		.byte	0
 2975 0395 00       		.byte	0
 2976 0396 45       		.uleb128 0x45
 2977 0397 2E       		.uleb128 0x2e
 2978 0398 00       		.byte	0
 2979 0399 3F       		.uleb128 0x3f
 2980 039a 19       		.uleb128 0x19
 2981 039b 3C       		.uleb128 0x3c
 2982 039c 19       		.uleb128 0x19
 2983 039d 6E       		.uleb128 0x6e
 2984 039e 0E       		.uleb128 0xe
 2985 039f 03       		.uleb128 0x3
 2986 03a0 0E       		.uleb128 0xe
 2987 03a1 3A       		.uleb128 0x3a
 2988 03a2 0B       		.uleb128 0xb
 2989 03a3 3B       		.uleb128 0x3b
 2990 03a4 0B       		.uleb128 0xb
 2991 03a5 00       		.byte	0
 2992 03a6 00       		.byte	0
 2993 03a7 00       		.byte	0
 2994              		.section	.debug_loc,"",%progbits
 2995              	.Ldebug_loc0:
 2996              	.LLST0:
 2997 0000 00000000 		.4byte	.LVL0
 2998 0004 3F000000 		.4byte	.LVL10-1
 2999 0008 0100     		.2byte	0x1
 3000 000a 50       		.byte	0x50
 3001 000b 3F000000 		.4byte	.LVL10-1
 3002 000f 88000000 		.4byte	.LFE315
 3003 0013 0400     		.2byte	0x4
 3004 0015 F3       		.byte	0xf3
 3005 0016 01       		.uleb128 0x1
 3006 0017 50       		.byte	0x50
 3007 0018 9F       		.byte	0x9f
 3008 0019 00000000 		.4byte	0
 3009 001d 00000000 		.4byte	0
 3010              	.LLST1:
 3011 0021 00000000 		.4byte	.LVL0
 3012 0025 18000000 		.4byte	.LVL2
ARM GAS  C:\msys64\tmp\ccXqW09Z.s 			page 54


 3013 0029 0100     		.2byte	0x1
 3014 002b 51       		.byte	0x51
 3015 002c 18000000 		.4byte	.LVL2
 3016 0030 88000000 		.4byte	.LFE315
 3017 0034 0400     		.2byte	0x4
 3018 0036 F3       		.byte	0xf3
 3019 0037 01       		.uleb128 0x1
 3020 0038 51       		.byte	0x51
 3021 0039 9F       		.byte	0x9f
 3022 003a 00000000 		.4byte	0
 3023 003e 00000000 		.4byte	0
 3024              	.LLST2:
 3025 0042 00000000 		.4byte	.LVL0
 3026 0046 16000000 		.4byte	.LVL1
 3027 004a 0600     		.2byte	0x6
 3028 004c 0C       		.byte	0xc
 3029 004d 50340300 		.4byte	0x33450
 3030 0051 9F       		.byte	0x9f
 3031 0052 00000000 		.4byte	0
 3032 0056 00000000 		.4byte	0
 3033              	.LLST3:
 3034 005a 00000000 		.4byte	.LVL0
 3035 005e 16000000 		.4byte	.LVL1
 3036 0062 0600     		.2byte	0x6
 3037 0064 03       		.byte	0x3
 3038 0065 00000000 		.4byte	_ZL11s_delay_ram
 3039 0069 9F       		.byte	0x9f
 3040 006a 00000000 		.4byte	0
 3041 006e 00000000 		.4byte	0
 3042              	.LLST4:
 3043 0072 00000000 		.4byte	.LVL0
 3044 0076 16000000 		.4byte	.LVL1
 3045 007a 0600     		.2byte	0x6
 3046 007c 03       		.byte	0x3
 3047 007d 00000000 		.4byte	_ZL7s_delay
 3048 0081 9F       		.byte	0x9f
 3049 0082 00000000 		.4byte	0
 3050 0086 00000000 		.4byte	0
 3051              	.LLST5:
 3052 008a 16000000 		.4byte	.LVL1
 3053 008e 36000000 		.4byte	.LVL8
 3054 0092 0600     		.2byte	0x6
 3055 0094 03       		.byte	0x3
 3056 0095 00000000 		.4byte	_ZL7s_delay
 3057 0099 9F       		.byte	0x9f
 3058 009a 00000000 		.4byte	0
 3059 009e 00000000 		.4byte	0
 3060              	.LLST6:
 3061 00a2 16000000 		.4byte	.LVL1
 3062 00a6 36000000 		.4byte	.LVL8
 3063 00aa 0400     		.2byte	0x4
 3064 00ac 40       		.byte	0x40
 3065 00ad 3E       		.byte	0x3e
 3066 00ae 24       		.byte	0x24
 3067 00af 9F       		.byte	0x9f
 3068 00b0 00000000 		.4byte	0
 3069 00b4 00000000 		.4byte	0
ARM GAS  C:\msys64\tmp\ccXqW09Z.s 			page 55


 3070              	.LLST7:
 3071 00b8 16000000 		.4byte	.LVL1
 3072 00bc 20000000 		.4byte	.LVL3
 3073 00c0 0600     		.2byte	0x6
 3074 00c2 03       		.byte	0x3
 3075 00c3 00000000 		.4byte	_ZL11s_delay_ram
 3076 00c7 9F       		.byte	0x9f
 3077 00c8 20000000 		.4byte	.LVL3
 3078 00cc 24000000 		.4byte	.LVL4
 3079 00d0 0300     		.2byte	0x3
 3080 00d2 73       		.byte	0x73
 3081 00d3 74       		.sleb128 -12
 3082 00d4 9F       		.byte	0x9f
 3083 00d5 24000000 		.4byte	.LVL4
 3084 00d9 28000000 		.4byte	.LVL5
 3085 00dd 0300     		.2byte	0x3
 3086 00df 73       		.byte	0x73
 3087 00e0 78       		.sleb128 -8
 3088 00e1 9F       		.byte	0x9f
 3089 00e2 28000000 		.4byte	.LVL5
 3090 00e6 2C000000 		.4byte	.LVL6
 3091 00ea 0300     		.2byte	0x3
 3092 00ec 73       		.byte	0x73
 3093 00ed 7C       		.sleb128 -4
 3094 00ee 9F       		.byte	0x9f
 3095 00ef 2C000000 		.4byte	.LVL6
 3096 00f3 32000000 		.4byte	.LVL7
 3097 00f7 0100     		.2byte	0x1
 3098 00f9 53       		.byte	0x53
 3099 00fa 32000000 		.4byte	.LVL7
 3100 00fe 36000000 		.4byte	.LVL8
 3101 0102 0300     		.2byte	0x3
 3102 0104 73       		.byte	0x73
 3103 0105 70       		.sleb128 -16
 3104 0106 9F       		.byte	0x9f
 3105 0107 00000000 		.4byte	0
 3106 010b 00000000 		.4byte	0
 3107              	.LLST8:
 3108 010f 16000000 		.4byte	.LVL1
 3109 0113 36000000 		.4byte	.LVL8
 3110 0117 0600     		.2byte	0x6
 3111 0119 03       		.byte	0x3
 3112 011a 00001000 		.4byte	_ZL11s_delay_ram+1048576
 3113 011e 9F       		.byte	0x9f
 3114 011f 00000000 		.4byte	0
 3115 0123 00000000 		.4byte	0
 3116              	.LLST9:
 3117 0127 36000000 		.4byte	.LVL8
 3118 012b 3C000000 		.4byte	.LVL9
 3119 012f 0600     		.2byte	0x6
 3120 0131 03       		.byte	0x3
 3121 0132 14000000 		.4byte	_ZL5s_lfo
 3122 0136 9F       		.byte	0x9f
 3123 0137 00000000 		.4byte	0
 3124 013b 00000000 		.4byte	0
 3125              	.LLST10:
 3126 013f 5C000000 		.4byte	.LVL11
ARM GAS  C:\msys64\tmp\ccXqW09Z.s 			page 56


 3127 0143 70000000 		.4byte	.LVL12
 3128 0147 0600     		.2byte	0x6
 3129 0149 9E       		.byte	0x9e
 3130 014a 04       		.uleb128 0x4
 3131 014b 3EC3AE37 		.4byte	0x37aec33e
 3132 014f 00000000 		.4byte	0
 3133 0153 00000000 		.4byte	0
 3134              	.LLST11:
 3135 0157 5C000000 		.4byte	.LVL11
 3136 015b 70000000 		.4byte	.LVL12
 3137 015f 0500     		.2byte	0x5
 3138 0161 03       		.byte	0x3
 3139 0162 00000000 		.4byte	lfo_speed
 3140 0166 00000000 		.4byte	0
 3141 016a 00000000 		.4byte	0
 3142              	.LLST12:
 3143 016e 5C000000 		.4byte	.LVL11
 3144 0172 70000000 		.4byte	.LVL12
 3145 0176 0600     		.2byte	0x6
 3146 0178 03       		.byte	0x3
 3147 0179 14000000 		.4byte	_ZL5s_lfo
 3148 017d 9F       		.byte	0x9f
 3149 017e 00000000 		.4byte	0
 3150 0182 00000000 		.4byte	0
 3151              	.LLST13:
 3152 0186 88000000 		.4byte	.LVL13
 3153 018a C4000000 		.4byte	.LVL16
 3154 018e 0100     		.2byte	0x1
 3155 0190 50       		.byte	0x50
 3156 0191 C4000000 		.4byte	.LVL16
 3157 0195 BC010000 		.4byte	.LFE317
 3158 0199 0400     		.2byte	0x4
 3159 019b F3       		.byte	0xf3
 3160 019c 01       		.uleb128 0x1
 3161 019d 50       		.byte	0x50
 3162 019e 9F       		.byte	0x9f
 3163 019f 00000000 		.4byte	0
 3164 01a3 00000000 		.4byte	0
 3165              	.LLST14:
 3166 01a7 88000000 		.4byte	.LVL13
 3167 01ab B0000000 		.4byte	.LVL14
 3168 01af 0100     		.2byte	0x1
 3169 01b1 51       		.byte	0x51
 3170 01b2 B0000000 		.4byte	.LVL14
 3171 01b6 BC010000 		.4byte	.LFE317
 3172 01ba 0400     		.2byte	0x4
 3173 01bc F3       		.byte	0xf3
 3174 01bd 01       		.uleb128 0x1
 3175 01be 51       		.byte	0x51
 3176 01bf 9F       		.byte	0x9f
 3177 01c0 00000000 		.4byte	0
 3178 01c4 00000000 		.4byte	0
 3179              	.LLST15:
 3180 01c8 88000000 		.4byte	.LVL13
 3181 01cc DA000000 		.4byte	.LVL18
 3182 01d0 0100     		.2byte	0x1
 3183 01d2 50       		.byte	0x50
ARM GAS  C:\msys64\tmp\ccXqW09Z.s 			page 57


 3184 01d3 DA000000 		.4byte	.LVL18
 3185 01d7 92010000 		.4byte	.LVL27
 3186 01db 0300     		.2byte	0x3
 3187 01dd 74       		.byte	0x74
 3188 01de 78       		.sleb128 -8
 3189 01df 9F       		.byte	0x9f
 3190 01e0 92010000 		.4byte	.LVL27
 3191 01e4 98010000 		.4byte	.LVL28
 3192 01e8 0100     		.2byte	0x1
 3193 01ea 54       		.byte	0x54
 3194 01eb 98010000 		.4byte	.LVL28
 3195 01ef BC010000 		.4byte	.LFE317
 3196 01f3 0100     		.2byte	0x1
 3197 01f5 50       		.byte	0x50
 3198 01f6 00000000 		.4byte	0
 3199 01fa 00000000 		.4byte	0
 3200              	.LLST16:
 3201 01fe B4000000 		.4byte	.LVL15
 3202 0202 AE010000 		.4byte	.LVL29
 3203 0206 0100     		.2byte	0x1
 3204 0208 5B       		.byte	0x5b
 3205 0209 AE010000 		.4byte	.LVL29
 3206 020d BC010000 		.4byte	.LFE317
 3207 0211 0A00     		.2byte	0xa
 3208 0213 F3       		.byte	0xf3
 3209 0214 01       		.uleb128 0x1
 3210 0215 51       		.byte	0x51
 3211 0216 33       		.byte	0x33
 3212 0217 24       		.byte	0x24
 3213 0218 F3       		.byte	0xf3
 3214 0219 01       		.uleb128 0x1
 3215 021a 50       		.byte	0x50
 3216 021b 22       		.byte	0x22
 3217 021c 9F       		.byte	0x9f
 3218 021d 00000000 		.4byte	0
 3219 0221 00000000 		.4byte	0
 3220              	.LLST17:
 3221 0225 EA000000 		.4byte	.LVL19
 3222 0229 3A010000 		.4byte	.LVL21
 3223 022d 3300     		.2byte	0x33
 3224 022f 92       		.byte	0x92
 3225 0230 4D       		.uleb128 0x4d
 3226 0231 00       		.sleb128 0
 3227 0232 0C       		.byte	0xc
 3228 0233 FFFFFF7F 		.4byte	0x7fffffff
 3229 0237 1A       		.byte	0x1a
 3230 0238 F9       		.byte	0xf9
 3231 0239 25       		.uleb128 0x25
 3232 023a F4       		.byte	0xf4
 3233 023b 25       		.uleb128 0x25
 3234 023c 04       		.byte	0x4
 3235 023d 0000803F 		.4byte	0x3f800000
 3236 0241 1C       		.byte	0x1c
 3237 0242 F5       		.byte	0xf5
 3238 0243 4D       		.uleb128 0x4d
 3239 0244 25       		.uleb128 0x25
 3240 0245 1E       		.byte	0x1e
ARM GAS  C:\msys64\tmp\ccXqW09Z.s 			page 58


 3241 0246 F4       		.byte	0xf4
 3242 0247 25       		.uleb128 0x25
 3243 0248 04       		.byte	0x4
 3244 0249 00008040 		.4byte	0x40800000
 3245 024d 1E       		.byte	0x1e
 3246 024e 73       		.byte	0x73
 3247 024f F001     		.sleb128 240
 3248 0251 77       		.byte	0x77
 3249 0252 00       		.sleb128 0
 3250 0253 1A       		.byte	0x1a
 3251 0254 32       		.byte	0x32
 3252 0255 24       		.byte	0x24
 3253 0256 76       		.byte	0x76
 3254 0257 00       		.sleb128 0
 3255 0258 22       		.byte	0x22
 3256 0259 F6       		.byte	0xf6
 3257 025a 04       		.byte	0x4
 3258 025b 25       		.uleb128 0x25
 3259 025c 1E       		.byte	0x1e
 3260 025d F5       		.byte	0xf5
 3261 025e 4B       		.uleb128 0x4b
 3262 025f 25       		.uleb128 0x25
 3263 0260 1E       		.byte	0x1e
 3264 0261 9F       		.byte	0x9f
 3265 0262 00000000 		.4byte	0
 3266 0266 00000000 		.4byte	0
 3267              	.LLST18:
 3268 026a 44010000 		.4byte	.LVL22
 3269 026e 4C010000 		.4byte	.LVL23
 3270 0272 0200     		.2byte	0x2
 3271 0274 90       		.byte	0x90
 3272 0275 4F       		.uleb128 0x4f
 3273 0276 00000000 		.4byte	0
 3274 027a 00000000 		.4byte	0
 3275              	.LLST19:
 3276 027e D6000000 		.4byte	.LVL17
 3277 0282 EA000000 		.4byte	.LVL19
 3278 0286 0600     		.2byte	0x6
 3279 0288 03       		.byte	0x3
 3280 0289 14000000 		.4byte	_ZL5s_lfo
 3281 028d 9F       		.byte	0x9f
 3282 028e 00000000 		.4byte	0
 3283 0292 00000000 		.4byte	0
 3284              	.LLST20:
 3285 0296 EA000000 		.4byte	.LVL19
 3286 029a EE000000 		.4byte	.LVL20
 3287 029e 0600     		.2byte	0x6
 3288 02a0 03       		.byte	0x3
 3289 02a1 14000000 		.4byte	_ZL5s_lfo
 3290 02a5 9F       		.byte	0x9f
 3291 02a6 00000000 		.4byte	0
 3292 02aa 00000000 		.4byte	0
 3293              	.LLST21:
 3294 02ae 84010000 		.4byte	.LVL24
 3295 02b2 8C010000 		.4byte	.LVL25
 3296 02b6 0200     		.2byte	0x2
 3297 02b8 90       		.byte	0x90
ARM GAS  C:\msys64\tmp\ccXqW09Z.s 			page 59


 3298 02b9 4F       		.uleb128 0x4f
 3299 02ba 00000000 		.4byte	0
 3300 02be 00000000 		.4byte	0
 3301              	.LLST22:
 3302 02c2 84010000 		.4byte	.LVL24
 3303 02c6 8C010000 		.4byte	.LVL25
 3304 02ca 0600     		.2byte	0x6
 3305 02cc 03       		.byte	0x3
 3306 02cd 00000000 		.4byte	_ZL7s_delay
 3307 02d1 9F       		.byte	0x9f
 3308 02d2 00000000 		.4byte	0
 3309 02d6 00000000 		.4byte	0
 3310              	.LLST23:
 3311 02da 90010000 		.4byte	.LVL26
 3312 02de 92010000 		.4byte	.LVL27
 3313 02e2 0100     		.2byte	0x1
 3314 02e4 50       		.byte	0x50
 3315 02e5 00000000 		.4byte	0
 3316 02e9 00000000 		.4byte	0
 3317              	.LLST24:
 3318 02ed 90010000 		.4byte	.LVL26
 3319 02f1 92010000 		.4byte	.LVL27
 3320 02f5 0600     		.2byte	0x6
 3321 02f7 03       		.byte	0x3
 3322 02f8 00000000 		.4byte	_ZL7s_delay
 3323 02fc 9F       		.byte	0x9f
 3324 02fd 00000000 		.4byte	0
 3325 0301 00000000 		.4byte	0
 3326              	.LLST25:
 3327 0305 C6010000 		.4byte	.LVL31
 3328 0309 DC010000 		.4byte	.LVL32
 3329 030d 0200     		.2byte	0x2
 3330 030f 90       		.byte	0x90
 3331 0310 4F       		.uleb128 0x4f
 3332 0311 DC010000 		.4byte	.LVL32
 3333 0315 F6010000 		.4byte	.LVL35
 3334 0319 0F00     		.2byte	0xf
 3335 031b 71       		.byte	0x71
 3336 031c 00       		.sleb128 0
 3337 031d F7       		.byte	0xf7
 3338 031e 2C       		.uleb128 0x2c
 3339 031f F7       		.byte	0xf7
 3340 0320 25       		.uleb128 0x25
 3341 0321 F4       		.byte	0xf4
 3342 0322 25       		.uleb128 0x25
 3343 0323 04       		.byte	0x4
 3344 0324 00000030 		.4byte	0x30000000
 3345 0328 1E       		.byte	0x1e
 3346 0329 9F       		.byte	0x9f
 3347 032a F6010000 		.4byte	.LVL35
 3348 032e 0C020000 		.4byte	.LFE318
 3349 0332 0200     		.2byte	0x2
 3350 0334 90       		.byte	0x90
 3351 0335 4F       		.uleb128 0x4f
 3352 0336 00000000 		.4byte	0
 3353 033a 00000000 		.4byte	0
 3354              	.LLST26:
ARM GAS  C:\msys64\tmp\ccXqW09Z.s 			page 60


 3355 033e E6010000 		.4byte	.LVL33
 3356 0342 F6010000 		.4byte	.LVL35
 3357 0346 0600     		.2byte	0x6
 3358 0348 9E       		.byte	0x9e
 3359 0349 04       		.uleb128 0x4
 3360 034a 3EC3AE37 		.4byte	0x37aec33e
 3361 034e 00000000 		.4byte	0
 3362 0352 00000000 		.4byte	0
 3363              	.LLST27:
 3364 0356 E6010000 		.4byte	.LVL33
 3365 035a EA010000 		.4byte	.LVL34
 3366 035e 0200     		.2byte	0x2
 3367 0360 90       		.byte	0x90
 3368 0361 4F       		.uleb128 0x4f
 3369 0362 EA010000 		.4byte	.LVL34
 3370 0366 F6010000 		.4byte	.LVL35
 3371 036a 0500     		.2byte	0x5
 3372 036c 03       		.byte	0x3
 3373 036d 00000000 		.4byte	lfo_speed
 3374 0371 00000000 		.4byte	0
 3375 0375 00000000 		.4byte	0
 3376              	.LLST28:
 3377 0379 E6010000 		.4byte	.LVL33
 3378 037d F6010000 		.4byte	.LVL35
 3379 0381 0600     		.2byte	0x6
 3380 0383 03       		.byte	0x3
 3381 0384 14000000 		.4byte	_ZL5s_lfo
 3382 0388 9F       		.byte	0x9f
 3383 0389 00000000 		.4byte	0
 3384 038d 00000000 		.4byte	0
 3385              	.LLST29:
 3386 0391 00000000 		.4byte	.LVL36
 3387 0395 18000000 		.4byte	.LVL38
 3388 0399 0200     		.2byte	0x2
 3389 039b 31       		.byte	0x31
 3390 039c 9F       		.byte	0x9f
 3391 039d 00000000 		.4byte	0
 3392 03a1 00000000 		.4byte	0
 3393              	.LLST30:
 3394 03a5 00000000 		.4byte	.LVL36
 3395 03a9 18000000 		.4byte	.LVL38
 3396 03ad 0400     		.2byte	0x4
 3397 03af 0A       		.byte	0xa
 3398 03b0 FFFF     		.2byte	0xffff
 3399 03b2 9F       		.byte	0x9f
 3400 03b3 00000000 		.4byte	0
 3401 03b7 00000000 		.4byte	0
 3402              	.LLST31:
 3403 03bb 00000000 		.4byte	.LVL36
 3404 03bf 14000000 		.4byte	.LVL37
 3405 03c3 0600     		.2byte	0x6
 3406 03c5 03       		.byte	0x3
 3407 03c6 00000000 		.4byte	_ZL7s_delay
 3408 03ca 9F       		.byte	0x9f
 3409 03cb 00000000 		.4byte	0
 3410 03cf 00000000 		.4byte	0
 3411              		.section	.debug_aranges,"",%progbits
ARM GAS  C:\msys64\tmp\ccXqW09Z.s 			page 61


 3412 0000 24000000 		.4byte	0x24
 3413 0004 0200     		.2byte	0x2
 3414 0006 00000000 		.4byte	.Ldebug_info0
 3415 000a 04       		.byte	0x4
 3416 000b 00       		.byte	0
 3417 000c 0000     		.2byte	0
 3418 000e 0000     		.2byte	0
 3419 0010 00000000 		.4byte	.Ltext0
 3420 0014 0C020000 		.4byte	.Letext0-.Ltext0
 3421 0018 00000000 		.4byte	.LFB320
 3422 001c 20000000 		.4byte	.LFE320-.LFB320
 3423 0020 00000000 		.4byte	0
 3424 0024 00000000 		.4byte	0
 3425              		.section	.debug_ranges,"",%progbits
 3426              	.Ldebug_ranges0:
 3427 0000 50000000 		.4byte	.LBB56
 3428 0004 54000000 		.4byte	.LBE56
 3429 0008 60000000 		.4byte	.LBB59
 3430 000c 88000000 		.4byte	.LBE59
 3431 0010 00000000 		.4byte	0
 3432 0014 00000000 		.4byte	0
 3433 0018 8E000000 		.4byte	.LBB61
 3434 001c 9C000000 		.4byte	.LBE61
 3435 0020 A0000000 		.4byte	.LBB120
 3436 0024 AE000000 		.4byte	.LBE120
 3437 0028 BA000000 		.4byte	.LBB121
 3438 002c C4000000 		.4byte	.LBE121
 3439 0030 D6000000 		.4byte	.LBB122
 3440 0034 92010000 		.4byte	.LBE122
 3441 0038 00000000 		.4byte	0
 3442 003c 00000000 		.4byte	0
 3443 0040 8E000000 		.4byte	.LBB62
 3444 0044 92000000 		.4byte	.LBE62
 3445 0048 DE000000 		.4byte	.LBB90
 3446 004c E2000000 		.4byte	.LBE90
 3447 0050 E6000000 		.4byte	.LBB92
 3448 0054 EA000000 		.4byte	.LBE92
 3449 0058 0C010000 		.4byte	.LBB101
 3450 005c 10010000 		.4byte	.LBE101
 3451 0060 18010000 		.4byte	.LBB102
 3452 0064 1C010000 		.4byte	.LBE102
 3453 0068 20010000 		.4byte	.LBB103
 3454 006c 24010000 		.4byte	.LBE103
 3455 0070 00000000 		.4byte	0
 3456 0074 00000000 		.4byte	0
 3457 0078 92000000 		.4byte	.LBB75
 3458 007c 9C000000 		.4byte	.LBE75
 3459 0080 BA000000 		.4byte	.LBB82
 3460 0084 BC000000 		.4byte	.LBE82
 3461 0088 00000000 		.4byte	0
 3462 008c 00000000 		.4byte	0
 3463 0090 A0000000 		.4byte	.LBB78
 3464 0094 A4000000 		.4byte	.LBE78
 3465 0098 28010000 		.4byte	.LBB104
 3466 009c 2C010000 		.4byte	.LBE104
 3467 00a0 30010000 		.4byte	.LBB105
 3468 00a4 36010000 		.4byte	.LBE105
ARM GAS  C:\msys64\tmp\ccXqW09Z.s 			page 62


 3469 00a8 00000000 		.4byte	0
 3470 00ac 00000000 		.4byte	0
 3471 00b0 D6000000 		.4byte	.LBB83
 3472 00b4 DE000000 		.4byte	.LBE83
 3473 00b8 E2000000 		.4byte	.LBB91
 3474 00bc E6000000 		.4byte	.LBE91
 3475 00c0 EA000000 		.4byte	.LBB93
 3476 00c4 EE000000 		.4byte	.LBE93
 3477 00c8 F2000000 		.4byte	.LBB98
 3478 00cc FE000000 		.4byte	.LBE98
 3479 00d0 00000000 		.4byte	0
 3480 00d4 00000000 		.4byte	0
 3481 00d8 EE000000 		.4byte	.LBB94
 3482 00dc F2000000 		.4byte	.LBE94
 3483 00e0 02010000 		.4byte	.LBB99
 3484 00e4 04010000 		.4byte	.LBE99
 3485 00e8 08010000 		.4byte	.LBB100
 3486 00ec 0C010000 		.4byte	.LBE100
 3487 00f0 00000000 		.4byte	0
 3488 00f4 00000000 		.4byte	0
 3489 00f8 70010000 		.4byte	.LBB106
 3490 00fc 74010000 		.4byte	.LBE106
 3491 0100 7A010000 		.4byte	.LBB115
 3492 0104 7E010000 		.4byte	.LBE115
 3493 0108 88010000 		.4byte	.LBB118
 3494 010c 8C010000 		.4byte	.LBE118
 3495 0110 00000000 		.4byte	0
 3496 0114 00000000 		.4byte	0
 3497 0118 78010000 		.4byte	.LBB110
 3498 011c 7A010000 		.4byte	.LBE110
 3499 0120 7E010000 		.4byte	.LBB116
 3500 0124 80010000 		.4byte	.LBE116
 3501 0128 84010000 		.4byte	.LBB117
 3502 012c 88010000 		.4byte	.LBE117
 3503 0130 90010000 		.4byte	.LBB119
 3504 0134 92010000 		.4byte	.LBE119
 3505 0138 00000000 		.4byte	0
 3506 013c 00000000 		.4byte	0
 3507 0140 DE010000 		.4byte	.LBB125
 3508 0144 E2010000 		.4byte	.LBE125
 3509 0148 E6010000 		.4byte	.LBB128
 3510 014c F6010000 		.4byte	.LBE128
 3511 0150 00000000 		.4byte	0
 3512 0154 00000000 		.4byte	0
 3513 0158 00000000 		.4byte	.LBB137
 3514 015c 08000000 		.4byte	.LBE137
 3515 0160 0C000000 		.4byte	.LBB143
 3516 0164 14000000 		.4byte	.LBE143
 3517 0168 00000000 		.4byte	0
 3518 016c 00000000 		.4byte	0
 3519 0170 08000000 		.4byte	.LBB140
 3520 0174 0C000000 		.4byte	.LBE140
 3521 0178 14000000 		.4byte	.LBB144
 3522 017c 20000000 		.4byte	.LBE144
 3523 0180 00000000 		.4byte	0
 3524 0184 00000000 		.4byte	0
 3525 0188 00000000 		.4byte	.Ltext0
ARM GAS  C:\msys64\tmp\ccXqW09Z.s 			page 63


 3526 018c 0C020000 		.4byte	.Letext0
 3527 0190 00000000 		.4byte	.LFB320
 3528 0194 20000000 		.4byte	.LFE320
 3529 0198 00000000 		.4byte	0
 3530 019c 00000000 		.4byte	0
 3531              		.section	.debug_line,"",%progbits
 3532              	.Ldebug_line0:
 3533 0000 03040000 		.section	.debug_str,"MS",%progbits,1
 3533      0200AD02 
 3533      00000201 
 3533      FB0E0D00 
 3533      01010101 
 3534              	.LASF21:
 3535 0000 6633325F 		.ascii	"f32_t\000"
 3535      7400
 3536              	.LASF84:
 3537 0006 5F5A4E33 		.ascii	"_ZN3dsp9DelayLine5writeEf\000"
 3537      64737039 
 3537      44656C61 
 3537      794C696E 
 3537      65357772 
 3538              	.LASF136:
 3539 0020 433A5C75 		.ascii	"C:\\users\\bradl\\desktop\\Code Projects\\KorgFX\\K"
 3539      73657273 
 3539      5C627261 
 3539      646C5C64 
 3539      65736B74 
 3540 004d 6F726744 		.ascii	"orgDelayFXSet\\Delays\\platform\\minilogue-xd\\flan"
 3540      656C6179 
 3540      46585365 
 3540      745C4465 
 3540      6C617973 
 3541 007c 67657200 		.ascii	"ger\000"
 3542              	.LASF105:
 3543 0080 5F686F6F 		.ascii	"_hook_param\000"
 3543      6B5F7061 
 3543      72616D00 
 3544              	.LASF124:
 3545 008c 77745F70 		.ascii	"wt_par_lut_f\000"
 3545      61725F6C 
 3545      75745F66 
 3545      00
 3546              	.LASF49:
 3547 0099 5F5A4E33 		.ascii	"_ZN3dsp9SimpleLFO11triangle_biEv\000"
 3547      64737039 
 3547      53696D70 
 3547      6C654C46 
 3547      4F313174 
 3548              	.LASF126:
 3549 00ba 735F6465 		.ascii	"s_delay_ram\000"
 3549      6C61795F 
 3549      72616D00 
 3550              	.LASF134:
 3551 00c6 474E5520 		.ascii	"GNU C++11 5.4.1 20160919 (release) [ARM/embedded-5-"
 3551      432B2B31 
 3551      3120352E 
 3551      342E3120 
ARM GAS  C:\msys64\tmp\ccXqW09Z.s 			page 64


 3551      32303136 
 3552 00f9 6272616E 		.ascii	"branch revision 240496] -mcpu=cortex-m4 -mthumb -mn"
 3552      63682072 
 3552      65766973 
 3552      696F6E20 
 3552      32343034 
 3553 012c 6F2D7468 		.ascii	"o-thumb-interwork -mlittle-endian -mfloat-abi=hard "
 3553      756D622D 
 3553      696E7465 
 3553      72776F72 
 3553      6B202D6D 
 3554 015f 2D6D6670 		.ascii	"-mfpu=fpv4-sp-d16 -g -Os -std=c++11 -fsingle-precis"
 3554      753D6670 
 3554      76342D73 
 3554      702D6431 
 3554      36202D67 
 3555 0192 696F6E2D 		.ascii	"ion-constant -fcheck-new -fno-rtti -fno-exceptions "
 3555      636F6E73 
 3555      74616E74 
 3555      202D6663 
 3555      6865636B 
 3556 01c5 2D666E6F 		.ascii	"-fno-non-call-exceptions\000"
 3556      2D6E6F6E 
 3556      2D63616C 
 3556      6C2D6578 
 3556      63657074 
 3557              	.LASF12:
 3558 01de 756E7369 		.ascii	"unsigned int\000"
 3558      676E6564 
 3558      20696E74 
 3558      00
 3559              	.LASF87:
 3560 01eb 72656164 		.ascii	"readFrac\000"
 3560      46726163 
 3560      00
 3561              	.LASF142:
 3562 01f4 5F474C4F 		.ascii	"_GLOBAL__sub_I_lfo_speed\000"
 3562      42414C5F 
 3562      5F737562 
 3562      5F495F6C 
 3562      666F5F73 
 3563              	.LASF6:
 3564 020d 5F5F696E 		.ascii	"__int32_t\000"
 3564      7433325F 
 3564      7400
 3565              	.LASF100:
 3566 0217 706C6174 		.ascii	"platform\000"
 3566      666F726D 
 3566      00
 3567              	.LASF129:
 3568 0220 735F6C65 		.ascii	"s_len\000"
 3568      6E00
 3569              	.LASF91:
 3570 0226 73695F66 		.ascii	"si_fabsf\000"
 3570      61627366 
 3570      00
 3571              	.LASF113:
ARM GAS  C:\msys64\tmp\ccXqW09Z.s 			page 65


 3572 022f 74616E70 		.ascii	"tanpi_lut_f\000"
 3572      695F6C75 
 3572      745F6600 
 3573              	.LASF56:
 3574 023b 7361775F 		.ascii	"saw_bi\000"
 3574      626900
 3575              	.LASF15:
 3576 0242 75696E74 		.ascii	"uint32_t\000"
 3576      33325F74 
 3576      00
 3577              	.LASF108:
 3578 024b 76616C66 		.ascii	"valf\000"
 3578      00
 3579              	.LASF43:
 3580 0250 5F5A4E33 		.ascii	"_ZN3dsp9SimpleLFO8sine_uniEv\000"
 3580      64737039 
 3580      53696D70 
 3580      6C654C46 
 3580      4F387369 
 3581              	.LASF127:
 3582 026d 735F6C66 		.ascii	"s_lfo\000"
 3582      6F00
 3583              	.LASF121:
 3584 0273 6D696469 		.ascii	"midi_to_hz_lut_f\000"
 3584      5F746F5F 
 3584      687A5F6C 
 3584      75745F66 
 3584      00
 3585              	.LASF68:
 3586 0284 73717561 		.ascii	"square_bi_off\000"
 3586      72655F62 
 3586      695F6F66 
 3586      6600
 3587              	.LASF0:
 3588 0292 666C6F61 		.ascii	"float\000"
 3588      7400
 3589              	.LASF106:
 3590 0298 696E6465 		.ascii	"index\000"
 3590      7800
 3591              	.LASF25:
 3592 029e 6B5F7573 		.ascii	"k_user_module_delfx\000"
 3592      65725F6D 
 3592      6F64756C 
 3592      655F6465 
 3592      6C667800 
 3593              	.LASF33:
 3594 02b2 5F5A4E33 		.ascii	"_ZN3dsp9SimpleLFO5resetEv\000"
 3594      64737039 
 3594      53696D70 
 3594      6C654C46 
 3594      4F357265 
 3595              	.LASF11:
 3596 02cc 6C6F6E67 		.ascii	"long long unsigned int\000"
 3596      206C6F6E 
 3596      6720756E 
 3596      7369676E 
 3596      65642069 
ARM GAS  C:\msys64\tmp\ccXqW09Z.s 			page 66


 3597              	.LASF64:
 3598 02e3 73717561 		.ascii	"square_bi\000"
 3598      72655F62 
 3598      6900
 3599              	.LASF41:
 3600 02ed 5F5A4E33 		.ascii	"_ZN3dsp9SimpleLFO7sine_biEv\000"
 3600      64737039 
 3600      53696D70 
 3600      6C654C46 
 3600      4F377369 
 3601              	.LASF79:
 3602 0309 636C6561 		.ascii	"clear\000"
 3602      7200
 3603              	.LASF90:
 3604 030f 5F5A4E33 		.ascii	"_ZN3dsp9DelayLine9readFraczEmf\000"
 3604      64737039 
 3604      44656C61 
 3604      794C696E 
 3604      65397265 
 3605              	.LASF81:
 3606 032e 7365744D 		.ascii	"setMemory\000"
 3606      656D6F72 
 3606      7900
 3607              	.LASF97:
 3608 0338 5F5F696E 		.ascii	"__initialize_p\000"
 3608      69746961 
 3608      6C697A65 
 3608      5F7000
 3609              	.LASF44:
 3610 0347 73696E65 		.ascii	"sine_bi_off\000"
 3610      5F62695F 
 3610      6F666600 
 3611              	.LASF16:
 3612 0353 73697A65 		.ascii	"size_t\000"
 3612      5F7400
 3613              	.LASF26:
 3614 035a 6B5F7573 		.ascii	"k_user_module_revfx\000"
 3614      65725F6D 
 3614      6F64756C 
 3614      655F7265 
 3614      76667800 
 3615              	.LASF39:
 3616 036e 73696E65 		.ascii	"sine_bi\000"
 3616      5F626900 
 3617              	.LASF103:
 3618 0376 64656C53 		.ascii	"delSampleL\000"
 3618      616D706C 
 3618      654C00
 3619              	.LASF98:
 3620 0381 5F5F7072 		.ascii	"__priority\000"
 3620      696F7269 
 3620      747900
 3621              	.LASF58:
 3622 038c 7361775F 		.ascii	"saw_uni\000"
 3622      756E6900 
 3623              	.LASF104:
 3624 0394 64656C53 		.ascii	"delSampleR\000"
ARM GAS  C:\msys64\tmp\ccXqW09Z.s 			page 67


 3624      616D706C 
 3624      655200
 3625              	.LASF40:
 3626 039f 5F5A4E33 		.ascii	"_ZN3dsp9SimpleLFOC4Ev\000"
 3626      64737039 
 3626      53696D70 
 3626      6C654C46 
 3626      4F433445 
 3627              	.LASF29:
 3628 03b5 70686930 		.ascii	"phi0\000"
 3628      00
 3629              	.LASF62:
 3630 03ba 7361775F 		.ascii	"saw_uni_off\000"
 3630      756E695F 
 3630      6F666600 
 3631              	.LASF63:
 3632 03c6 5F5A4E33 		.ascii	"_ZN3dsp9SimpleLFO11saw_uni_offEf\000"
 3632      64737039 
 3632      53696D70 
 3632      6C654C46 
 3632      4F313173 
 3633              	.LASF37:
 3634 03e7 5F5A4E33 		.ascii	"_ZN3dsp9SimpleLFO5setW0Ef\000"
 3634      64737039 
 3634      53696D70 
 3634      6C654C46 
 3634      4F357365 
 3635              	.LASF133:
 3636 0401 77657458 		.ascii	"wetXNR\000"
 3636      4E5200
 3637              	.LASF19:
 3638 0408 63686172 		.ascii	"char\000"
 3638      00
 3639              	.LASF115:
 3640 040d 706F7732 		.ascii	"pow2_lut_f\000"
 3640      5F6C7574 
 3640      5F6600
 3641              	.LASF52:
 3642 0418 74726961 		.ascii	"triangle_bi_off\000"
 3642      6E676C65 
 3642      5F62695F 
 3642      6F666600 
 3643              	.LASF109:
 3644 0428 6B5F6678 		.ascii	"k_fx_api_platform\000"
 3644      5F617069 
 3644      5F706C61 
 3644      74666F72 
 3644      6D00
 3645              	.LASF69:
 3646 043a 5F5A4E33 		.ascii	"_ZN3dsp9SimpleLFO13square_bi_offEf\000"
 3646      64737039 
 3646      53696D70 
 3646      6C654C46 
 3646      4F313373 
 3647              	.LASF140:
 3648 045d 6275665F 		.ascii	"buf_clr_f32\000"
 3648      636C725F 
ARM GAS  C:\msys64\tmp\ccXqW09Z.s 			page 68


 3648      66333200 
 3649              	.LASF102:
 3650 0469 6672616D 		.ascii	"frames\000"
 3650      657300
 3651              	.LASF117:
 3652 0470 73636865 		.ascii	"schetzen_lut_f\000"
 3652      747A656E 
 3652      5F6C7574 
 3652      5F6600
 3653              	.LASF13:
 3654 047f 75696E74 		.ascii	"uint8_t\000"
 3654      385F7400 
 3655              	.LASF118:
 3656 0487 62697472 		.ascii	"bitres_lut_f\000"
 3656      65735F6C 
 3656      75745F66 
 3656      00
 3657              	.LASF131:
 3658 0494 6761696E 		.ascii	"gain\000"
 3658      00
 3659              	.LASF35:
 3660 0499 5F5A4E33 		.ascii	"_ZN3dsp9SimpleLFO5setF0Eff\000"
 3660      64737039 
 3660      53696D70 
 3660      6C654C46 
 3660      4F357365 
 3661              	.LASF47:
 3662 04b4 5F5A4E33 		.ascii	"_ZN3dsp9SimpleLFO12sine_uni_offEf\000"
 3662      64737039 
 3662      53696D70 
 3662      6C654C46 
 3662      4F313273 
 3663              	.LASF112:
 3664 04d6 6C6F675F 		.ascii	"log_lut_f\000"
 3664      6C75745F 
 3664      6600
 3665              	.LASF78:
 3666 04e0 5F5A4E33 		.ascii	"_ZN3dsp9DelayLineC4EPfj\000"
 3666      64737039 
 3666      44656C61 
 3666      794C696E 
 3666      65433445 
 3667              	.LASF10:
 3668 04f8 6C6F6E67 		.ascii	"long long int\000"
 3668      206C6F6E 
 3668      6720696E 
 3668      7400
 3669              	.LASF83:
 3670 0506 77726974 		.ascii	"write\000"
 3670      6500
 3671              	.LASF75:
 3672 050c 6D577269 		.ascii	"mWriteIdx\000"
 3672      74654964 
 3672      7800
 3673              	.LASF74:
 3674 0516 6D4D6173 		.ascii	"mMask\000"
 3674      6B00
ARM GAS  C:\msys64\tmp\ccXqW09Z.s 			page 69


 3675              	.LASF71:
 3676 051c 6D4C696E 		.ascii	"mLine\000"
 3676      6500
 3677              	.LASF132:
 3678 0522 77657458 		.ascii	"wetXNL\000"
 3678      4E4C00
 3679              	.LASF67:
 3680 0529 5F5A4E33 		.ascii	"_ZN3dsp9SimpleLFO10square_uniEv\000"
 3680      64737039 
 3680      53696D70 
 3680      6C654C46 
 3680      4F313073 
 3681              	.LASF28:
 3682 0549 6B5F6E75 		.ascii	"k_num_user_modules\000"
 3682      6D5F7573 
 3682      65725F6D 
 3682      6F64756C 
 3682      657300
 3683              	.LASF89:
 3684 055c 72656164 		.ascii	"readFracz\000"
 3684      46726163 
 3684      7A00
 3685              	.LASF57:
 3686 0566 5F5A4E33 		.ascii	"_ZN3dsp9SimpleLFO6saw_biEv\000"
 3686      64737039 
 3686      53696D70 
 3686      6C654C46 
 3686      4F367361 
 3687              	.LASF77:
 3688 0581 5F5A4E33 		.ascii	"_ZN3dsp9DelayLineC4Ev\000"
 3688      64737039 
 3688      44656C61 
 3688      794C696E 
 3688      65433445 
 3689              	.LASF95:
 3690 0597 6C696E65 		.ascii	"line_size\000"
 3690      5F73697A 
 3690      6500
 3691              	.LASF45:
 3692 05a1 5F5A4E33 		.ascii	"_ZN3dsp9SimpleLFO11sine_bi_offEf\000"
 3692      64737039 
 3692      53696D70 
 3692      6C654C46 
 3692      4F313173 
 3693              	.LASF138:
 3694 05c2 35663332 		.ascii	"5f32_t\000"
 3694      5F7400
 3695              	.LASF73:
 3696 05c9 6D53697A 		.ascii	"mSize\000"
 3696      6500
 3697              	.LASF122:
 3698 05cf 77745F73 		.ascii	"wt_saw_lut_f\000"
 3698      61775F6C 
 3698      75745F66 
 3698      00
 3699              	.LASF27:
 3700 05dc 6B5F7573 		.ascii	"k_user_module_osc\000"
ARM GAS  C:\msys64\tmp\ccXqW09Z.s 			page 70


 3700      65725F6D 
 3700      6F64756C 
 3700      655F6F73 
 3700      6300
 3701              	.LASF17:
 3702 05ee 6C6F6E67 		.ascii	"long double\000"
 3702      20646F75 
 3702      626C6500 
 3703              	.LASF93:
 3704 05fa 74686973 		.ascii	"this\000"
 3704      00
 3705              	.LASF141:
 3706 05ff 5F5F7374 		.ascii	"__static_initialization_and_destruction_0\000"
 3706      61746963 
 3706      5F696E69 
 3706      7469616C 
 3706      697A6174 
 3707              	.LASF48:
 3708 0629 74726961 		.ascii	"triangle_bi\000"
 3708      6E676C65 
 3708      5F626900 
 3709              	.LASF51:
 3710 0635 5F5A4E33 		.ascii	"_ZN3dsp9SimpleLFO12triangle_uniEv\000"
 3710      64737039 
 3710      53696D70 
 3710      6C654C46 
 3710      4F313274 
 3711              	.LASF101:
 3712 0657 5F686F6F 		.ascii	"_hook_process\000"
 3712      6B5F7072 
 3712      6F636573 
 3712      7300
 3713              	.LASF55:
 3714 0665 5F5A4E33 		.ascii	"_ZN3dsp9SimpleLFO16triangle_uni_offEf\000"
 3714      64737039 
 3714      53696D70 
 3714      6C654C46 
 3714      4F313674 
 3715              	.LASF99:
 3716 068b 5F686F6F 		.ascii	"_hook_init\000"
 3716      6B5F696E 
 3716      697400
 3717              	.LASF3:
 3718 0696 73686F72 		.ascii	"short int\000"
 3718      7420696E 
 3718      7400
 3719              	.LASF114:
 3720 06a0 73717274 		.ascii	"sqrtm2log_lut_f\000"
 3720      6D326C6F 
 3720      675F6C75 
 3720      745F6600 
 3721              	.LASF116:
 3722 06b0 63756269 		.ascii	"cubicsat_lut_f\000"
 3722      63736174 
 3722      5F6C7574 
 3722      5F6600
 3723              	.LASF123:
ARM GAS  C:\msys64\tmp\ccXqW09Z.s 			page 71


 3724 06bf 77745F73 		.ascii	"wt_sqr_lut_f\000"
 3724      71725F6C 
 3724      75745F66 
 3724      00
 3725              	.LASF7:
 3726 06cc 6C6F6E67 		.ascii	"long int\000"
 3726      20696E74 
 3726      00
 3727              	.LASF34:
 3728 06d5 73657446 		.ascii	"setF0\000"
 3728      3000
 3729              	.LASF135:
 3730 06db 2E2F7372 		.ascii	"./src/flanger.cpp\000"
 3730      632F666C 
 3730      616E6765 
 3730      722E6370 
 3730      7000
 3731              	.LASF32:
 3732 06ed 5F5A4E33 		.ascii	"_ZN3dsp9SimpleLFO5cycleEv\000"
 3732      64737039 
 3732      53696D70 
 3732      6C654C46 
 3732      4F356379 
 3733              	.LASF110:
 3734 0707 6B5F6678 		.ascii	"k_fx_api_version\000"
 3734      5F617069 
 3734      5F766572 
 3734      73696F6E 
 3734      00
 3735              	.LASF82:
 3736 0718 5F5A4E33 		.ascii	"_ZN3dsp9DelayLine9setMemoryEPfj\000"
 3736      64737039 
 3736      44656C61 
 3736      794C696E 
 3736      65397365 
 3737              	.LASF24:
 3738 0738 6B5F7573 		.ascii	"k_user_module_modfx\000"
 3738      65725F6D 
 3738      6F64756C 
 3738      655F6D6F 
 3738      64667800 
 3739              	.LASF30:
 3740 074c 6379636C 		.ascii	"cycle\000"
 3740      6500
 3741              	.LASF42:
 3742 0752 73696E65 		.ascii	"sine_uni\000"
 3742      5F756E69 
 3742      00
 3743              	.LASF53:
 3744 075b 5F5A4E33 		.ascii	"_ZN3dsp9SimpleLFO15triangle_bi_offEf\000"
 3744      64737039 
 3744      53696D70 
 3744      6C654C46 
 3744      4F313574 
 3745              	.LASF96:
 3746 0780 70686966 		.ascii	"phif\000"
 3746      00
ARM GAS  C:\msys64\tmp\ccXqW09Z.s 			page 72


 3747              	.LASF31:
 3748 0785 72657365 		.ascii	"reset\000"
 3748      7400
 3749              	.LASF5:
 3750 078b 5F5F7569 		.ascii	"__uint8_t\000"
 3750      6E74385F 
 3750      7400
 3751              	.LASF85:
 3752 0795 72656164 		.ascii	"read\000"
 3752      00
 3753              	.LASF120:
 3754 079a 6B5F6F73 		.ascii	"k_osc_api_version\000"
 3754      635F6170 
 3754      695F7665 
 3754      7273696F 
 3754      6E00
 3755              	.LASF46:
 3756 07ac 73696E65 		.ascii	"sine_uni_off\000"
 3756      5F756E69 
 3756      5F6F6666 
 3756      00
 3757              	.LASF76:
 3758 07b9 44656C61 		.ascii	"DelayLine\000"
 3758      794C696E 
 3758      6500
 3759              	.LASF22:
 3760 07c3 7133315F 		.ascii	"q31_t\000"
 3760      7400
 3761              	.LASF18:
 3762 07c9 73697A65 		.ascii	"sizetype\000"
 3762      74797065 
 3762      00
 3763              	.LASF88:
 3764 07d2 5F5A4E33 		.ascii	"_ZN3dsp9DelayLine8readFracEf\000"
 3764      64737039 
 3764      44656C61 
 3764      794C696E 
 3764      65387265 
 3765              	.LASF9:
 3766 07ef 6C6F6E67 		.ascii	"long unsigned int\000"
 3766      20756E73 
 3766      69676E65 
 3766      6420696E 
 3766      7400
 3767              	.LASF111:
 3768 0801 77745F73 		.ascii	"wt_sine_lut_f\000"
 3768      696E655F 
 3768      6C75745F 
 3768      6600
 3769              	.LASF36:
 3770 080f 73657457 		.ascii	"setW0\000"
 3770      3000
 3771              	.LASF14:
 3772 0815 696E7433 		.ascii	"int32_t\000"
 3772      325F7400 
 3773              	.LASF70:
 3774 081d 73717561 		.ascii	"square_uni_off\000"
ARM GAS  C:\msys64\tmp\ccXqW09Z.s 			page 73


 3774      72655F75 
 3774      6E695F6F 
 3774      666600
 3775              	.LASF143:
 3776 082c 5F66785F 		.ascii	"_fx_get_bpm\000"
 3776      6765745F 
 3776      62706D00 
 3777              	.LASF130:
 3778 0838 735F6D69 		.ascii	"s_mix\000"
 3778      7800
 3779              	.LASF80:
 3780 083e 5F5A4E33 		.ascii	"_ZN3dsp9DelayLine5clearEv\000"
 3780      64737039 
 3780      44656C61 
 3780      794C696E 
 3780      6535636C 
 3781              	.LASF94:
 3782 0858 66737265 		.ascii	"fsrecip\000"
 3782      63697000 
 3783              	.LASF128:
 3784 0860 6C666F5F 		.ascii	"lfo_speed\000"
 3784      73706565 
 3784      6400
 3785              	.LASF2:
 3786 086a 756E7369 		.ascii	"unsigned char\000"
 3786      676E6564 
 3786      20636861 
 3786      7200
 3787              	.LASF8:
 3788 0878 5F5F7569 		.ascii	"__uint32_t\000"
 3788      6E743332 
 3788      5F7400
 3789              	.LASF54:
 3790 0883 74726961 		.ascii	"triangle_uni_off\000"
 3790      6E676C65 
 3790      5F756E69 
 3790      5F6F6666 
 3790      00
 3791              	.LASF92:
 3792 0894 6E657874 		.ascii	"nextpow2_u32\000"
 3792      706F7732 
 3792      5F753332 
 3792      00
 3793              	.LASF23:
 3794 08a1 6B5F7573 		.ascii	"k_user_module_global\000"
 3794      65725F6D 
 3794      6F64756C 
 3794      655F676C 
 3794      6F62616C 
 3795              	.LASF125:
 3796 08b6 735F6465 		.ascii	"s_delay\000"
 3796      6C617900 
 3797              	.LASF137:
 3798 08be 6465636C 		.ascii	"decltype(nullptr)\000"
 3798      74797065 
 3798      286E756C 
 3798      6C707472 
ARM GAS  C:\msys64\tmp\ccXqW09Z.s 			page 74


 3798      2900
 3799              	.LASF65:
 3800 08d0 73717561 		.ascii	"square_uni\000"
 3800      72655F75 
 3800      6E6900
 3801              	.LASF139:
 3802 08db 5F5A4E33 		.ascii	"_ZN3dsp9SimpleLFO14square_uni_offEf\000"
 3802      64737039 
 3802      53696D70 
 3802      6C654C46 
 3802      4F313473 
 3803              	.LASF60:
 3804 08ff 7361775F 		.ascii	"saw_bi_off\000"
 3804      62695F6F 
 3804      666600
 3805              	.LASF1:
 3806 090a 7369676E 		.ascii	"signed char\000"
 3806      65642063 
 3806      68617200 
 3807              	.LASF4:
 3808 0916 73686F72 		.ascii	"short unsigned int\000"
 3808      7420756E 
 3808      7369676E 
 3808      65642069 
 3808      6E7400
 3809              	.LASF86:
 3810 0929 5F5A4E33 		.ascii	"_ZN3dsp9DelayLine4readEm\000"
 3810      64737039 
 3810      44656C61 
 3810      794C696E 
 3810      65347265 
 3811              	.LASF66:
 3812 0942 5F5A4E33 		.ascii	"_ZN3dsp9SimpleLFO9square_biEv\000"
 3812      64737039 
 3812      53696D70 
 3812      6C654C46 
 3812      4F397371 
 3813              	.LASF72:
 3814 0960 6D467261 		.ascii	"mFracZ\000"
 3814      635A00
 3815              	.LASF20:
 3816 0967 646F7562 		.ascii	"double\000"
 3816      6C6500
 3817              	.LASF61:
 3818 096e 5F5A4E33 		.ascii	"_ZN3dsp9SimpleLFO10saw_bi_offEf\000"
 3818      64737039 
 3818      53696D70 
 3818      6C654C46 
 3818      4F313073 
 3819              	.LASF50:
 3820 098e 74726961 		.ascii	"triangle_uni\000"
 3820      6E676C65 
 3820      5F756E69 
 3820      00
 3821              	.LASF107:
 3822 099b 76616C75 		.ascii	"value\000"
 3822      6500
ARM GAS  C:\msys64\tmp\ccXqW09Z.s 			page 75


 3823              	.LASF59:
 3824 09a1 5F5A4E33 		.ascii	"_ZN3dsp9SimpleLFO7saw_uniEv\000"
 3824      64737039 
 3824      53696D70 
 3824      6C654C46 
 3824      4F377361 
 3825              	.LASF38:
 3826 09bd 53696D70 		.ascii	"SimpleLFO\000"
 3826      6C654C46 
 3826      4F00
 3827              	.LASF119:
 3828 09c7 6B5F6F73 		.ascii	"k_osc_api_platform\000"
 3828      635F6170 
 3828      695F706C 
 3828      6174666F 
 3828      726D00
 3829              		.ident	"GCC: (GNU Tools for ARM Embedded Processors) 5.4.1 20160919 (release) [ARM/embedded-5-bran
ARM GAS  C:\msys64\tmp\ccXqW09Z.s 			page 76


DEFINED SYMBOLS
                            *ABS*:00000000 flanger.cpp
C:\msys64\tmp\ccXqW09Z.s:21     .text:00000000 $t
C:\msys64\tmp\ccXqW09Z.s:26     .text:00000000 _hook_init
C:\msys64\tmp\ccXqW09Z.s:133    .text:00000074 $d
C:\msys64\tmp\ccXqW09Z.s:143    .text:00000088 $t
C:\msys64\tmp\ccXqW09Z.s:148    .text:00000088 _hook_process
C:\msys64\tmp\ccXqW09Z.s:453    .text:000001b0 $d
C:\msys64\tmp\ccXqW09Z.s:459    .text:000001bc $t
C:\msys64\tmp\ccXqW09Z.s:464    .text:000001bc _hook_param
C:\msys64\tmp\ccXqW09Z.s:525    .text:00000200 $d
C:\msys64\tmp\ccXqW09Z.s:532    .text.startup:00000000 $t
C:\msys64\tmp\ccXqW09Z.s:536    .text.startup:00000000 _GLOBAL__sub_I_lfo_speed
C:\msys64\tmp\ccXqW09Z.s:580    .text.startup:0000001c $d
C:\msys64\tmp\ccXqW09Z.s:588    .init_array:00000000 $d
C:\msys64\tmp\ccXqW09Z.s:615    .bss:0000001c bpm
C:\msys64\tmp\ccXqW09Z.s:635    .bss:00000030 wetXNR
C:\msys64\tmp\ccXqW09Z.s:631    .bss:0000002c wetXNL
C:\msys64\tmp\ccXqW09Z.s:619    .bss:00000020 s_len
C:\msys64\tmp\ccXqW09Z.s:600    .data:00000000 lfo_speed
C:\msys64\tmp\ccXqW09Z.s:596    .data:00000000 $d
C:\msys64\tmp\ccXqW09Z.s:603    .bss:00000000 $d
C:\msys64\tmp\ccXqW09Z.s:607    .bss:00000000 _ZL7s_delay
C:\msys64\tmp\ccXqW09Z.s:611    .bss:00000014 _ZL5s_lfo
C:\msys64\tmp\ccXqW09Z.s:623    .bss:00000024 _ZL5s_mix
C:\msys64\tmp\ccXqW09Z.s:627    .bss:00000028 _ZL4gain
C:\msys64\tmp\ccXqW09Z.s:638    .sdram:00000000 $d
C:\msys64\tmp\ccXqW09Z.s:642    .sdram:00000000 _ZL11s_delay_ram
                     .debug_frame:00000010 $d

UNDEFINED SYMBOLS
_fx_get_bpm
