ARM GAS  C:\msys64\tmp\ccdMD31d.s 			page 1


   1              		.syntax unified
   2              		.cpu cortex-m4
   3              		.eabi_attribute 27, 1
   4              		.eabi_attribute 28, 1
   5              		.fpu fpv4-sp-d16
   6              		.eabi_attribute 20, 1
   7              		.eabi_attribute 21, 1
   8              		.eabi_attribute 23, 3
   9              		.eabi_attribute 24, 1
  10              		.eabi_attribute 25, 1
  11              		.eabi_attribute 26, 1
  12              		.eabi_attribute 30, 4
  13              		.eabi_attribute 34, 1
  14              		.eabi_attribute 18, 4
  15              		.thumb
  16              		.syntax unified
  17              		.file	"flanger.cpp"
  18              		.text
  19              	.Ltext0:
  20              		.cfi_sections	.debug_frame
  21              		.align	1
  22              		.global	_hook_init
  23              		.thumb
  24              		.thumb_func
  25              		.type	_hook_init, %function
  26              	_hook_init:
  27              	.LFB316:
  28              		.file 1 "./src/flanger.cpp"
  29              		.loc 1 32 0
  30              		.cfi_startproc
  31              		@ args = 0, pretend = 0, frame = 0
  32              		@ frame_needed = 0, uses_anonymous_args = 0
  33              		@ link register save eliminated.
  34              	.LVL0:
  35              	.LBB43:
  36              	.LBB44:
  37              		.file 2 "../inc/dsp/delayline.hpp"
  38              		.loc 2 114 0
  39 0000 154B     		ldr	r3, .L5
  40 0002 1649     		ldr	r1, .L5+4
  41              	.LVL1:
  42 0004 1960     		str	r1, [r3]
  43              		.loc 2 115 0
  44 0006 4FF48022 		mov	r2, #262144
  45 000a 9A60     		str	r2, [r3, #8]
  46              		.loc 2 116 0
  47 000c 013A     		subs	r2, r2, #1
  48 000e DA60     		str	r2, [r3, #12]
  49              		.loc 2 117 0
  50 0010 0022     		movs	r2, #0
  51 0012 1A61     		str	r2, [r3, #16]
  52              	.LVL2:
  53              	.LBE44:
  54              	.LBE43:
  55              	.LBB45:
  56              	.LBB46:
  57              	.LBB47:
ARM GAS  C:\msys64\tmp\ccdMD31d.s 			page 2


  58              		.file 3 "../inc/utils/buffer_ops.h"
  59              		.loc 3 109 0
  60 0014 0020     		movs	r0, #0
  61              	.LVL3:
  62 0016 01F11002 		add	r2, r1, #16
  63 001a 01F11011 		add	r1, r1, #1048592
  64              	.LVL4:
  65              	.L2:
  66 001e 42F8100C 		str	r0, [r2, #-16]	@ float
  67              	.LVL5:
  68 0022 42F80C0C 		str	r0, [r2, #-12]	@ float
  69              	.LVL6:
  70 0026 42F8080C 		str	r0, [r2, #-8]	@ float
  71              	.LVL7:
  72 002a 42F8040C 		str	r0, [r2, #-4]	@ float
  73 002e 1032     		adds	r2, r2, #16
  74              	.LVL8:
  75              		.loc 3 108 0
  76 0030 9142     		cmp	r1, r2
  77 0032 F4D1     		bne	.L2
  78              	.LVL9:
  79              	.LBE47:
  80              	.LBE46:
  81              	.LBE45:
  82              	.LBB48:
  83              	.LBB49:
  84              		.file 4 "../inc/dsp/simplelfo.hpp"
  85              		.loc 4 91 0
  86 0034 4FF00042 		mov	r2, #-2147483648
  87 0038 5A61     		str	r2, [r3, #20]
  88              	.LVL10:
  89              	.LBE49:
  90              	.LBE48:
  91              		.loc 1 36 0
  92 003a 4FF07C52 		mov	r2, #1056964608
  93 003e DA61     		str	r2, [r3, #28]	@ float
  94              	.LVL11:
  95              		.loc 1 37 0
  96 0040 074A     		ldr	r2, .L5+8
  97              	.LBB50:
  98              	.LBB51:
  99              		.loc 4 103 0
 100 0042 9FED087A 		vldr.32	s14, .L5+12
 101 0046 D2ED007A 		vldr.32	s15, [r2]
 102 004a 67EE877A 		vmul.f32	s15, s15, s14
 103 004e FEEEC07A 		vcvt.s32.f32	s15, s15, #32
 104 0052 C3ED067A 		vstr.32	s15, [r3, #24]	@ int
 105              	.LVL12:
 106 0056 7047     		bx	lr
 107              	.L6:
 108              		.align	2
 109              	.L5:
 110 0058 00000000 		.word	.LANCHOR0
 111 005c 00000000 		.word	.LANCHOR1
 112 0060 00000000 		.word	.LANCHOR2
 113 0064 3EC3AE37 		.word	934200126
 114              	.LBE51:
ARM GAS  C:\msys64\tmp\ccdMD31d.s 			page 3


 115              	.LBE50:
 116              		.cfi_endproc
 117              	.LFE316:
 118              		.size	_hook_init, .-_hook_init
 119              		.align	1
 120              		.global	_hook_process
 121              		.thumb
 122              		.thumb_func
 123              		.type	_hook_process, %function
 124              	_hook_process:
 125              	.LFB317:
 126              		.loc 1 41 0
 127              		.cfi_startproc
 128              		@ args = 0, pretend = 0, frame = 0
 129              		@ frame_needed = 0, uses_anonymous_args = 0
 130              	.LVL13:
 131              		.loc 1 45 0
 132 0068 3A4B     		ldr	r3, .L11
 133              	.LBB52:
 134              	.LBB53:
 135              	.LBB54:
 136              	.LBB55:
 137              		.loc 4 125 0
 138 006a DFED3B3A 		vldr.32	s7, .L11+4
 139              	.LBE55:
 140              	.LBE54:
 141              	.LBE53:
 142              	.LBE52:
 143              		.loc 1 45 0
 144 006e 93ED076A 		vldr.32	s12, [r3, #28]
 145              	.LBB92:
 146              	.LBB88:
 147              	.LBB59:
 148              	.LBB60:
 149              		.loc 2 138 0
 150 0072 9FED3A5A 		vldr.32	s10, .L11+8
 151 0076 DFED3A5A 		vldr.32	s11, .L11+12
 152              	.LBE60:
 153              	.LBE59:
 154              	.LBE88:
 155              	.LBE92:
 156              		.loc 1 41 0
 157 007a 2DE9F047 		push	{r4, r5, r6, r7, r8, r9, r10, lr}
 158              		.cfi_def_cfa_offset 32
 159              		.cfi_offset 4, -32
 160              		.cfi_offset 5, -28
 161              		.cfi_offset 6, -24
 162              		.cfi_offset 7, -20
 163              		.cfi_offset 8, -16
 164              		.cfi_offset 9, -12
 165              		.cfi_offset 10, -8
 166              		.cfi_offset 14, -4
 167 007e D3F81480 		ldr	r8, [r3, #20]
 168 0082 1D69     		ldr	r5, [r3, #16]
 169              	.LBB93:
 170              	.LBB89:
 171              	.LBB65:
ARM GAS  C:\msys64\tmp\ccdMD31d.s 			page 4


 172              	.LBB61:
 173              		.loc 2 138 0
 174 0084 1F68     		ldr	r7, [r3]
 175 0086 D3F80CE0 		ldr	lr, [r3, #12]
 176              	.LBE61:
 177              	.LBE65:
 178              	.LBB66:
 179              	.LBB67:
 180              		.loc 4 82 0
 181 008a 9E69     		ldr	r6, [r3, #24]
 182              	.LBE67:
 183              	.LBE66:
 184              	.LBE89:
 185              	.LBE93:
 186              		.loc 1 43 0
 187 008c C900     		lsls	r1, r1, #3
 188              	.LVL14:
 189 008e 00EB010A 		add	r10, r0, r1
 190              	.LVL15:
 191 0092 C446     		mov	ip, r8
 192              	.LBB94:
 193              	.LBB90:
 194              	.LBB69:
 195              	.LBB68:
 196              		.loc 4 82 0
 197 0094 2A46     		mov	r2, r5
 198              	.LBE68:
 199              	.LBE69:
 200              	.LBB70:
 201              	.LBB62:
 202              		.loc 2 138 0
 203 0096 B7EE004A 		vmov.f32	s8, #1.0e+0
 204 009a F1EE004A 		vmov.f32	s9, #4.0e+0
 205              	.LVL16:
 206              	.L9:
 207              	.LBE62:
 208              	.LBE70:
 209              	.LBE90:
 210              		.loc 1 48 0 discriminator 2
 211 009e 8245     		cmp	r10, r0
 212 00a0 07EE90CA 		vmov	s15, ip	@ int
 213 00a4 00F10804 		add	r4, r0, #8
 214 00a8 A2F10209 		sub	r9, r2, #2
 215 00ac B444     		add	ip, ip, r6
 216 00ae 47D0     		beq	.L8
 217              	.LVL17:
 218              	.LBB91:
 219              	.LBB71:
 220              	.LBB58:
 221              		.loc 4 125 0
 222 00b0 F8EEE77A 		vcvt.f32.s32	s15, s15
 223 00b4 27EEA37A 		vmul.f32	s14, s15, s7
 224              	.LVL18:
 225              	.LBB56:
 226              	.LBB57:
 227              		.file 5 "../inc/utils/float_math.h"
 228              		.loc 5 287 0
ARM GAS  C:\msys64\tmp\ccdMD31d.s 			page 5


 229 00b8 17EE100A 		vmov	r0, s14	@ int
 230              	.LVL19:
 231 00bc 20F00040 		bic	r0, r0, #-2147483648
 232 00c0 07EE900A 		vmov	s15, r0	@ int
 233              	.LBE57:
 234              	.LBE56:
 235              	.LBE58:
 236              	.LBE71:
 237              	.LBB72:
 238              	.LBB63:
 239              		.loc 2 138 0
 240 00c4 77EEC47A 		vsub.f32	s15, s15, s8
 241 00c8 67EE877A 		vmul.f32	s15, s15, s14
 242 00cc B0EE657A 		vmov.f32	s14, s11
 243              	.LVL20:
 244 00d0 67EEA47A 		vmul.f32	s15, s15, s9
 245 00d4 A7EE857A 		vfma.f32	s14, s15, s10
 246 00d8 FCEEC77A 		vcvt.u32.f32	s15, s14
 247              	.LBE63:
 248              	.LBE72:
 249              		.loc 1 55 0
 250 00dc 93ED087A 		vldr.32	s14, [r3, #32]
 251              	.LBB73:
 252              	.LBB64:
 253              		.loc 2 138 0
 254 00e0 17EE900A 		vmov	r0, s15	@ int
 255 00e4 1044     		add	r0, r0, r2
 256 00e6 00EA0E00 		and	r0, r0, lr
 257 00ea 07EB8000 		add	r0, r7, r0, lsl #2
 258              	.LBE64:
 259              	.LBE73:
 260              		.loc 1 55 0
 261 00ee D0ED007A 		vldr.32	s15, [r0]
 262 00f2 67EE877A 		vmul.f32	s15, s15, s14
 263              	.LBB74:
 264              	.LBB75:
 265              		.loc 2 127 0
 266 00f6 0EEA0200 		and	r0, lr, r2
 267              	.LBE75:
 268              	.LBE74:
 269              		.loc 1 55 0
 270 00fa 67EE867A 		vmul.f32	s15, s15, s12
 271              	.LBB78:
 272              	.LBB79:
 273              		.loc 2 127 0
 274 00fe 013A     		subs	r2, r2, #1
 275              	.LBE79:
 276              	.LBE78:
 277              		.loc 1 56 0
 278 0100 C3ED0A7A 		vstr.32	s15, [r3, #40]
 279              		.loc 1 55 0
 280 0104 C3ED097A 		vstr.32	s15, [r3, #36]
 281              		.loc 1 58 0
 282 0108 14ED027A 		vldr.32	s14, [r4, #-8]
 283 010c 77EE877A 		vadd.f32	s15, s15, s14
 284              		.loc 1 59 0
 285 0110 14ED017A 		vldr.32	s14, [r4, #-4]
ARM GAS  C:\msys64\tmp\ccdMD31d.s 			page 6


 286              		.loc 1 58 0
 287 0114 44ED027A 		vstr.32	s15, [r4, #-8]
 288              		.loc 1 59 0
 289 0118 D3ED0A6A 		vldr.32	s13, [r3, #40]
 290 011c 37EE267A 		vadd.f32	s14, s14, s13
 291              	.LBB83:
 292              	.LBB76:
 293              		.loc 2 127 0
 294 0120 07EB8000 		add	r0, r7, r0, lsl #2
 295              	.LBE76:
 296              	.LBE83:
 297              	.LBB84:
 298              	.LBB80:
 299 0124 02EA0E02 		and	r2, r2, lr
 300              	.LBE80:
 301              	.LBE84:
 302              		.loc 1 59 0
 303 0128 04ED017A 		vstr.32	s14, [r4, #-4]
 304              	.LVL21:
 305              	.LBB85:
 306              	.LBB81:
 307              		.loc 2 127 0
 308 012c 07EB8202 		add	r2, r7, r2, lsl #2
 309              	.LBE81:
 310              	.LBE85:
 311              	.LBB86:
 312              	.LBB77:
 313 0130 C0ED007A 		vstr.32	s15, [r0]
 314              	.LVL22:
 315              	.LBE77:
 316              	.LBE86:
 317              		.loc 1 61 0
 318 0134 54F8040C 		ldr	r0, [r4, #-4]	@ float
 319              	.LVL23:
 320              	.LBB87:
 321              	.LBB82:
 322              		.loc 2 127 0
 323 0138 1060     		str	r0, [r2]	@ float
 324              	.LVL24:
 325              	.LBE82:
 326              	.LBE87:
 327              	.LBE91:
 328              		.loc 1 48 0
 329 013a 4A46     		mov	r2, r9
 330 013c 2046     		mov	r0, r4
 331 013e AEE7     		b	.L9
 332              	.LVL25:
 333              	.L8:
 334 0140 C908     		lsrs	r1, r1, #3
 335 0142 06FB0186 		mla	r6, r6, r1, r8
 336 0146 A5EB4101 		sub	r1, r5, r1, lsl #1
 337 014a 5E61     		str	r6, [r3, #20]
 338 014c 1961     		str	r1, [r3, #16]
 339 014e BDE8F087 		pop	{r4, r5, r6, r7, r8, r9, r10, pc}
 340              	.LVL26:
 341              	.L12:
 342 0152 00BF     		.align	2
ARM GAS  C:\msys64\tmp\ccdMD31d.s 			page 7


 343              	.L11:
 344 0154 00000000 		.word	.LANCHOR0
 345 0158 00000030 		.word	805306368
 346 015c 00007043 		.word	1131413504
 347 0160 00009043 		.word	1133510656
 348              	.LBE94:
 349              		.cfi_endproc
 350              	.LFE317:
 351              		.size	_hook_process, .-_hook_process
 352              		.align	1
 353              		.global	_hook_param
 354              		.thumb
 355              		.thumb_func
 356              		.type	_hook_param, %function
 357              	_hook_param:
 358              	.LFB318:
 359              		.loc 1 66 0
 360              		.cfi_startproc
 361              		@ args = 0, pretend = 0, frame = 0
 362              		@ frame_needed = 0, uses_anonymous_args = 0
 363              		@ link register save eliminated.
 364              	.LVL27:
 365              		.loc 1 67 0
 366 0164 07EE901A 		vmov	s15, r1	@ int
 367              		.loc 1 68 0
 368 0168 0128     		cmp	r0, #1
 369              		.loc 1 67 0
 370 016a FAEEE07A 		vcvt.f32.s32	s15, s15, #31
 371              	.LVL28:
 372              		.loc 1 68 0
 373 016e 07D0     		beq	.L15
 374 0170 02D3     		bcc	.L16
 375 0172 0328     		cmp	r0, #3
 376 0174 13D0     		beq	.L17
 377 0176 7047     		bx	lr
 378              	.L16:
 379              		.loc 1 72 0
 380 0178 0B4B     		ldr	r3, .L18
 381 017a C3ED087A 		vstr.32	s15, [r3, #32]
 382              		.loc 1 73 0
 383 017e 7047     		bx	lr
 384              	.L15:
 385              		.loc 1 75 0
 386 0180 77EEA77A 		vadd.f32	s15, s15, s15
 387              	.LVL29:
 388 0184 094B     		ldr	r3, .L18+4
 389              	.LBB95:
 390              	.LBB96:
 391              		.loc 4 103 0
 392 0186 9FED0A7A 		vldr.32	s14, .L18+8
 393              	.LBE96:
 394              	.LBE95:
 395              		.loc 1 75 0
 396 018a C3ED007A 		vstr.32	s15, [r3]
 397              	.LVL30:
 398              	.LBB98:
 399              	.LBB97:
ARM GAS  C:\msys64\tmp\ccdMD31d.s 			page 8


 400              		.loc 4 103 0
 401 018e 67EE877A 		vmul.f32	s15, s15, s14
 402              	.LVL31:
 403 0192 054B     		ldr	r3, .L18
 404 0194 FEEEC07A 		vcvt.s32.f32	s15, s15, #32
 405 0198 C3ED067A 		vstr.32	s15, [r3, #24]	@ int
 406 019c 7047     		bx	lr
 407              	.LVL32:
 408              	.L17:
 409              	.LBE97:
 410              	.LBE98:
 411              		.loc 1 80 0
 412 019e 024B     		ldr	r3, .L18
 413 01a0 C3ED077A 		vstr.32	s15, [r3, #28]
 414 01a4 7047     		bx	lr
 415              	.L19:
 416 01a6 00BF     		.align	2
 417              	.L18:
 418 01a8 00000000 		.word	.LANCHOR0
 419 01ac 00000000 		.word	.LANCHOR2
 420 01b0 3EC3AE37 		.word	934200126
 421              		.cfi_endproc
 422              	.LFE318:
 423              		.size	_hook_param, .-_hook_param
 424              		.section	.text.startup,"ax",%progbits
 425              		.align	1
 426              		.thumb
 427              		.thumb_func
 428              		.type	_GLOBAL__sub_I_lfo_speed, %function
 429              	_GLOBAL__sub_I_lfo_speed:
 430              	.LFB320:
 431              		.loc 1 85 0
 432              		.cfi_startproc
 433              		@ args = 0, pretend = 0, frame = 0
 434              		@ frame_needed = 0, uses_anonymous_args = 0
 435              		@ link register save eliminated.
 436              	.LVL33:
 437              	.LBB106:
 438              	.LBB107:
 439              	.LBB108:
 440              		.loc 2 74 0
 441 0000 064B     		ldr	r3, .L21
 442 0002 0021     		movs	r1, #0
 443 0004 0022     		movs	r2, #0
 444 0006 5960     		str	r1, [r3, #4]	@ float
 445              	.LBE108:
 446              	.LBE107:
 447              	.LBB110:
 448              	.LBB111:
 449              		.loc 4 69 0
 450 0008 4FF00041 		mov	r1, #-2147483648
 451              	.LBE111:
 452              	.LBE110:
 453              	.LBB113:
 454              	.LBB109:
 455              		.loc 2 74 0
 456 000c 1A60     		str	r2, [r3]
ARM GAS  C:\msys64\tmp\ccdMD31d.s 			page 9


 457 000e 9A60     		str	r2, [r3, #8]
 458 0010 DA60     		str	r2, [r3, #12]
 459 0012 1A61     		str	r2, [r3, #16]
 460              	.LVL34:
 461              	.LBE109:
 462              	.LBE113:
 463              	.LBB114:
 464              	.LBB112:
 465              		.loc 4 69 0
 466 0014 5961     		str	r1, [r3, #20]
 467 0016 9A61     		str	r2, [r3, #24]
 468              	.LVL35:
 469 0018 7047     		bx	lr
 470              	.L22:
 471 001a 00BF     		.align	2
 472              	.L21:
 473 001c 00000000 		.word	.LANCHOR0
 474              	.LBE112:
 475              	.LBE114:
 476              	.LBE106:
 477              		.cfi_endproc
 478              	.LFE320:
 479              		.size	_GLOBAL__sub_I_lfo_speed, .-_GLOBAL__sub_I_lfo_speed
 480              		.section	.init_array,"aw",%init_array
 481              		.align	2
 482 0000 00000000 		.word	_GLOBAL__sub_I_lfo_speed(target1)
 483              		.global	bpm_valf
 484              		.global	wetXNR
 485              		.global	wetXNL
 486              		.global	gain
 487              		.global	s_mix
 488              		.global	lfo_speed
 489              		.data
 490              		.align	2
 491              		.set	.LANCHOR2,. + 0
 492              		.type	lfo_speed, %object
 493              		.size	lfo_speed, 4
 494              	lfo_speed:
 495 0000 0000003F 		.word	1056964608
 496              		.bss
 497              		.align	2
 498              		.set	.LANCHOR0,. + 0
 499              		.type	_ZL7s_delay, %object
 500              		.size	_ZL7s_delay, 20
 501              	_ZL7s_delay:
 502 0000 00000000 		.space	20
 502      00000000 
 502      00000000 
 502      00000000 
 502      00000000 
 503              		.type	_ZL5s_lfo, %object
 504              		.size	_ZL5s_lfo, 8
 505              	_ZL5s_lfo:
 506 0014 00000000 		.space	8
 506      00000000 
 507              		.type	s_mix, %object
 508              		.size	s_mix, 4
ARM GAS  C:\msys64\tmp\ccdMD31d.s 			page 10


 509              	s_mix:
 510 001c 00000000 		.space	4
 511              		.type	gain, %object
 512              		.size	gain, 4
 513              	gain:
 514 0020 00000000 		.space	4
 515              		.type	wetXNL, %object
 516              		.size	wetXNL, 4
 517              	wetXNL:
 518 0024 00000000 		.space	4
 519              		.type	wetXNR, %object
 520              		.size	wetXNR, 4
 521              	wetXNR:
 522 0028 00000000 		.space	4
 523              		.type	bpm_valf, %object
 524              		.size	bpm_valf, 4
 525              	bpm_valf:
 526 002c 00000000 		.space	4
 527              		.section	.sdram,"aw",%progbits
 528              		.align	2
 529              		.set	.LANCHOR1,. + 0
 530              		.type	_ZL11s_delay_ram, %object
 531              		.size	_ZL11s_delay_ram, 768000
 532              	_ZL11s_delay_ram:
 533 0000 00000000 		.space	768000
 533      00000000 
 533      00000000 
 533      00000000 
 533      00000000 
 534              		.text
 535              	.Letext0:
 536              		.file 6 "c:\\users\\bradl\\desktop\\code projects\\korgfx\\korgdelayfxset\\delays\\tools\\gcc\\gcc
 537              		.file 7 "c:\\users\\bradl\\desktop\\code projects\\korgfx\\korgdelayfxset\\delays\\tools\\gcc\\gcc
 538              		.file 8 "c:\\users\\bradl\\desktop\\code projects\\korgfx\\korgdelayfxset\\delays\\tools\\gcc\\gcc
 539              		.file 9 "../../ext/CMSIS/CMSIS/Include/arm_math.h"
 540              		.file 10 "../inc/userdelfx.h"
 541              		.file 11 "../inc/utils/int_math.h"
 542              		.file 12 "../inc/fx_api.h"
 543              		.file 13 "../inc/osc_api.h"
 544              		.file 14 "../inc/userprg.h"