ARM GAS  C:\msys64\tmp\ccq8rvFp.s 			page 1


   1              		.syntax unified
   2              		.cpu cortex-m4
   3              		.eabi_attribute 27, 1
   4              		.eabi_attribute 28, 1
   5              		.fpu fpv4-sp-d16
   6              		.eabi_attribute 20, 1
   7              		.eabi_attribute 21, 1
   8              		.eabi_attribute 23, 3
   9              		.eabi_attribute 24, 1
  10              		.eabi_attribute 25, 1
  11              		.eabi_attribute 26, 1
  12              		.eabi_attribute 30, 4
  13              		.eabi_attribute 34, 1
  14              		.eabi_attribute 18, 4
  15              		.thumb
  16              		.syntax unified
  17              		.file	"pingpong.cpp"
  18              		.text
  19              	.Ltext0:
  20              		.cfi_sections	.debug_frame
  21              		.align	1
  22              		.global	_hook_init
  23              		.thumb
  24              		.thumb_func
  25              		.type	_hook_init, %function
  26              	_hook_init:
  27              	.LFB264:
  28              		.file 1 "./src/pingpong.cpp"
  29              		.loc 1 22 0
  30              		.cfi_startproc
  31              		@ args = 0, pretend = 0, frame = 0
  32              		@ frame_needed = 0, uses_anonymous_args = 0
  33              	.LVL0:
  34              	.LBB27:
  35              	.LBB28:
  36              		.file 2 "../inc/dsp/delayline.hpp"
  37              		.loc 2 243 0
  38 0000 154A     		ldr	r2, .L5
  39 0002 164B     		ldr	r3, .L5+4
  40              		.loc 2 244 0
  41 0004 4FF48021 		mov	r1, #262144
  42              	.LVL1:
  43              	.LBE28:
  44              	.LBE27:
  45              		.loc 1 22 0
  46 0008 10B5     		push	{r4, lr}
  47              		.cfi_def_cfa_offset 8
  48              		.cfi_offset 4, -8
  49              		.cfi_offset 14, -4
  50              	.LBB30:
  51              	.LBB29:
  52              		.loc 2 244 0
  53 000a D160     		str	r1, [r2, #12]
  54              		.loc 2 245 0
  55 000c 0139     		subs	r1, r1, #1
  56              		.loc 2 243 0
  57 000e 1360     		str	r3, [r2]
ARM GAS  C:\msys64\tmp\ccq8rvFp.s 			page 2


  58              		.loc 2 245 0
  59 0010 1161     		str	r1, [r2, #16]
  60 0012 1033     		adds	r3, r3, #16
  61              		.loc 2 246 0
  62 0014 0021     		movs	r1, #0
  63 0016 5161     		str	r1, [r2, #20]
  64              	.LVL2:
  65 0018 1446     		mov	r4, r2
  66 001a 03F50011 		add	r1, r3, #2097152
  67              	.LBE29:
  68              	.LBE30:
  69              	.LBB31:
  70              	.LBB32:
  71              	.LBB33:
  72              		.file 3 "../inc/utils/buffer_ops.h"
  73              		.loc 3 109 0
  74 001e 0022     		movs	r2, #0
  75              	.LVL3:
  76              	.L2:
  77 0020 43F8102C 		str	r2, [r3, #-16]	@ float
  78              	.LVL4:
  79 0024 43F80C2C 		str	r2, [r3, #-12]	@ float
  80              	.LVL5:
  81 0028 43F8082C 		str	r2, [r3, #-8]	@ float
  82              	.LVL6:
  83 002c 43F8042C 		str	r2, [r3, #-4]	@ float
  84 0030 1033     		adds	r3, r3, #16
  85              	.LVL7:
  86              		.loc 3 108 0
  87 0032 9942     		cmp	r1, r3
  88 0034 F4D1     		bne	.L2
  89              	.LVL8:
  90              	.LBE33:
  91              	.LBE32:
  92              	.LBE31:
  93              		.loc 1 25 0
  94 0036 FFF7FEFF 		bl	_fx_get_bpm
  95              	.LVL9:
  96              		.loc 1 26 0
  97 003a 0A23     		movs	r3, #10
  98              		.loc 1 25 0
  99 003c A061     		str	r0, [r4, #24]
 100              		.loc 1 26 0
 101 003e 90FBF3F0 		sdiv	r0, r0, r3
 102 0042 3C23     		movs	r3, #60
 103 0044 93FBF0F0 		sdiv	r0, r3, r0
 104 0048 054B     		ldr	r3, .L5+8
 105 004a 5843     		muls	r0, r3, r0
 106              		.loc 1 27 0
 107 004c 4FF07C53 		mov	r3, #1056964608
 108              		.loc 1 26 0
 109 0050 E061     		str	r0, [r4, #28]
 110              		.loc 1 27 0
 111 0052 2362     		str	r3, [r4, #32]	@ float
 112 0054 10BD     		pop	{r4, pc}
 113              	.L6:
 114 0056 00BF     		.align	2
ARM GAS  C:\msys64\tmp\ccq8rvFp.s 			page 3


 115              	.L5:
 116 0058 00000000 		.word	.LANCHOR0
 117 005c 00000000 		.word	.LANCHOR1
 118 0060 008A6600 		.word	6720000
 119              		.cfi_endproc
 120              	.LFE264:
 121              		.size	_hook_init, .-_hook_init
 122              		.align	1
 123              		.global	_hook_process
 124              		.thumb
 125              		.thumb_func
 126              		.type	_hook_process, %function
 127              	_hook_process:
 128              	.LFB266:
 129              		.loc 1 36 0
 130              		.cfi_startproc
 131              		@ args = 0, pretend = 0, frame = 0
 132              		@ frame_needed = 0, uses_anonymous_args = 0
 133              	.LVL10:
 134              		.loc 1 40 0
 135 0064 284B     		ldr	r3, .L11
 136              		.loc 1 36 0
 137 0066 2DE9F041 		push	{r4, r5, r6, r7, r8, lr}
 138              		.cfi_def_cfa_offset 24
 139              		.cfi_offset 4, -24
 140              		.cfi_offset 5, -20
 141              		.cfi_offset 6, -16
 142              		.cfi_offset 7, -12
 143              		.cfi_offset 8, -8
 144              		.cfi_offset 14, -4
 145              	.LBB34:
 146              	.LBB35:
 147              		.loc 1 45 0
 148 006a D3F81CE0 		ldr	lr, [r3, #28]
 149 006e 5D69     		ldr	r5, [r3, #20]
 150              	.LBE35:
 151              	.LBE34:
 152              		.loc 1 40 0
 153 0070 D3ED086A 		vldr.32	s13, [r3, #32]
 154              	.LBB53:
 155              	.LBB50:
 156              	.LBB36:
 157              	.LBB37:
 158              		.loc 2 309 0
 159 0074 1E68     		ldr	r6, [r3]
 160 0076 1F69     		ldr	r7, [r3, #16]
 161              	.LBE37:
 162              	.LBE36:
 163              		.loc 1 45 0
 164 0078 93ED096A 		vldr.32	s12, [r3, #36]
 165              	.LBE50:
 166              	.LBE53:
 167              		.loc 1 38 0
 168 007c C900     		lsls	r1, r1, #3
 169              	.LVL11:
 170 007e 00EB0108 		add	r8, r0, r1
 171              	.LVL12:
ARM GAS  C:\msys64\tmp\ccq8rvFp.s 			page 4


 172              	.LBB54:
 173              	.LBB51:
 174              		.loc 1 46 0
 175 0082 4FEA5E0C 		lsr	ip, lr, #1
 176 0086 2A46     		mov	r2, r5
 177              	.LBB39:
 178              	.LBB40:
 179              		.loc 2 256 0
 180 0088 F7EE005A 		vmov.f32	s11, #1.0e+0
 181              	.LVL13:
 182              	.L9:
 183              	.LBE40:
 184              	.LBE39:
 185              	.LBE51:
 186              		.loc 1 43 0 discriminator 2
 187 008c 8045     		cmp	r8, r0
 188 008e 00F10804 		add	r4, r0, #8
 189 0092 34D0     		beq	.L8
 190              	.LVL14:
 191              	.LBB52:
 192              	.LBB44:
 193              	.LBB45:
 194              		.loc 2 320 0 discriminator 1
 195 0094 0CEB0200 		add	r0, ip, r2
 196              	.LVL15:
 197 0098 3840     		ands	r0, r0, r7
 198 009a 06EBC000 		add	r0, r6, r0, lsl #3
 199              	.LBE45:
 200              	.LBE44:
 201              		.loc 1 46 0 discriminator 1
 202 009e 90ED017A 		vldr.32	s14, [r0, #4]
 203              	.LBB46:
 204              	.LBB38:
 205              		.loc 2 309 0 discriminator 1
 206 00a2 0EEB0200 		add	r0, lr, r2
 207 00a6 3840     		ands	r0, r0, r7
 208              	.LVL16:
 209 00a8 06EBC000 		add	r0, r6, r0, lsl #3
 210              	.LVL17:
 211              	.LBE38:
 212              	.LBE46:
 213              		.loc 1 47 0 discriminator 1
 214 00ac D0ED007A 		vldr.32	s15, [r0]
 215              		.loc 1 46 0 discriminator 1
 216 00b0 26EE077A 		vmul.f32	s14, s12, s14
 217              	.LVL18:
 218              		.loc 1 47 0 discriminator 1
 219 00b4 66EE277A 		vmul.f32	s15, s12, s15
 220              		.loc 1 48 0 discriminator 1
 221 00b8 26EE877A 		vmul.f32	s14, s13, s14
 222              	.LVL19:
 223              		.loc 1 47 0 discriminator 1
 224 00bc 67EEA67A 		vmul.f32	s15, s15, s13
 225              		.loc 1 48 0 discriminator 1
 226 00c0 83ED0B7A 		vstr.32	s14, [r3, #44]
 227              	.LVL20:
 228              		.loc 1 47 0 discriminator 1
ARM GAS  C:\msys64\tmp\ccq8rvFp.s 			page 5


 229 00c4 C3ED0A7A 		vstr.32	s15, [r3, #40]
 230              		.loc 1 49 0 discriminator 1
 231 00c8 14ED027A 		vldr.32	s14, [r4, #-8]
 232 00cc 77EE877A 		vadd.f32	s15, s15, s14
 233              		.loc 1 50 0 discriminator 1
 234 00d0 14ED017A 		vldr.32	s14, [r4, #-4]
 235              		.loc 1 49 0 discriminator 1
 236 00d4 44ED027A 		vstr.32	s15, [r4, #-8]
 237              	.LVL21:
 238              		.loc 1 50 0 discriminator 1
 239 00d8 93ED0B5A 		vldr.32	s10, [r3, #44]
 240              	.LBB47:
 241              	.LBB41:
 242              		.loc 2 256 0 discriminator 1
 243 00dc 07EA0200 		and	r0, r7, r2
 244              	.LBE41:
 245              	.LBE47:
 246              		.loc 1 50 0 discriminator 1
 247 00e0 37EE057A 		vadd.f32	s14, s14, s10
 248              	.LBB48:
 249              	.LBB42:
 250              		.loc 2 256 0 discriminator 1
 251 00e4 06EBC000 		add	r0, r6, r0, lsl #3
 252              	.LBE42:
 253              	.LBE48:
 254              		.loc 1 50 0 discriminator 1
 255 00e8 04ED017A 		vstr.32	s14, [r4, #-4]
 256              	.LVL22:
 257              	.LBB49:
 258              	.LBB43:
 259              		.loc 2 256 0 discriminator 1
 260 00ec C0ED007A 		vstr.32	s15, [r0]
 261 00f0 77EEA57A 		vadd.f32	s15, s15, s11
 262              	.LVL23:
 263 00f4 013A     		subs	r2, r2, #1
 264 00f6 C0ED017A 		vstr.32	s15, [r0, #4]
 265              	.LVL24:
 266              	.LBE43:
 267              	.LBE49:
 268              	.LBE52:
 269              		.loc 1 43 0 discriminator 1
 270 00fa 2046     		mov	r0, r4
 271              	.LVL25:
 272 00fc C6E7     		b	.L9
 273              	.LVL26:
 274              	.L8:
 275 00fe A5EBD101 		sub	r1, r5, r1, lsr #3
 276 0102 5961     		str	r1, [r3, #20]
 277 0104 BDE8F081 		pop	{r4, r5, r6, r7, r8, pc}
 278              	.LVL27:
 279              	.L12:
 280              		.align	2
 281              	.L11:
 282 0108 00000000 		.word	.LANCHOR0
 283              	.LBE54:
 284              		.cfi_endproc
 285              	.LFE266:
ARM GAS  C:\msys64\tmp\ccq8rvFp.s 			page 6


 286              		.size	_hook_process, .-_hook_process
 287              		.align	1
 288              		.global	_hook_param
 289              		.thumb
 290              		.thumb_func
 291              		.type	_hook_param, %function
 292              	_hook_param:
 293              	.LFB267:
 294              		.loc 1 58 0
 295              		.cfi_startproc
 296              		@ args = 0, pretend = 0, frame = 0
 297              		@ frame_needed = 0, uses_anonymous_args = 0
 298              	.LVL28:
 299 010c 08B5     		push	{r3, lr}
 300              		.cfi_def_cfa_offset 8
 301              		.cfi_offset 3, -8
 302              		.cfi_offset 14, -4
 303 010e 2DED028B 		vpush.64	{d8}
 304              		.cfi_def_cfa_offset 16
 305              		.cfi_offset 80, -16
 306              		.cfi_offset 81, -12
 307              		.loc 1 59 0
 308 0112 08EE101A 		vmov	s16, r1	@ int
 309              		.loc 1 60 0
 310 0116 0128     		cmp	r0, #1
 311              		.loc 1 59 0
 312 0118 BAEEE08A 		vcvt.f32.s32	s16, s16, #31
 313              	.LVL29:
 314              		.loc 1 60 0
 315 011c 0AD0     		beq	.L15
 316 011e 05D3     		bcc	.L16
 317 0120 0328     		cmp	r0, #3
 318 0122 35D1     		bne	.L13
 319              		.loc 1 92 0
 320 0124 1C4B     		ldr	r3, .L30
 321 0126 83ED088A 		vstr.32	s16, [r3, #32]
 322              		.loc 1 97 0
 323 012a 31E0     		b	.L13
 324              	.L16:
 325              		.loc 1 64 0
 326 012c 1A4B     		ldr	r3, .L30
 327 012e 83ED098A 		vstr.32	s16, [r3, #36]
 328              		.loc 1 65 0
 329 0132 2DE0     		b	.L13
 330              	.L15:
 331              		.loc 1 67 0
 332 0134 FFF7FEFF 		bl	_fx_get_bpm
 333              	.LVL30:
 334              		.loc 1 69 0
 335 0138 F5EE007A 		vmov.f32	s15, #2.5e-1
 336              		.loc 1 67 0
 337 013c 0A23     		movs	r3, #10
 338              		.loc 1 69 0
 339 013e B4EEE78A 		vcmpe.f32	s16, s15
 340              		.loc 1 67 0
 341 0142 B0FBF3F0 		udiv	r0, r0, r3
 342 0146 144B     		ldr	r3, .L30
ARM GAS  C:\msys64\tmp\ccq8rvFp.s 			page 7


 343 0148 80B2     		uxth	r0, r0
 344              		.loc 1 69 0
 345 014a F1EE10FA 		vmrs	APSR_nzcv, FPSCR
 346              		.loc 1 67 0
 347 014e 9861     		str	r0, [r3, #24]
 348              		.loc 1 69 0
 349 0150 05D5     		bpl	.L27
 350              		.loc 1 72 0
 351 0152 124A     		ldr	r2, .L30+4
 352 0154 92FBF0F0 		sdiv	r0, r2, r0
 353 0158 8000     		lsls	r0, r0, #2
 354 015a D861     		str	r0, [r3, #28]
 355 015c 18E0     		b	.L13
 356              	.L27:
 357              		.loc 1 74 0
 358 015e F6EE007A 		vmov.f32	s15, #5.0e-1
 359 0162 B4EEE78A 		vcmpe.f32	s16, s15
 360 0166 F1EE10FA 		vmrs	APSR_nzcv, FPSCR
 361 016a 05D5     		bpl	.L28
 362              		.loc 1 77 0
 363 016c 0B4A     		ldr	r2, .L30+4
 364 016e 92FBF0F0 		sdiv	r0, r2, r0
 365 0172 4000     		lsls	r0, r0, #1
 366 0174 D861     		str	r0, [r3, #28]
 367 0176 0BE0     		b	.L13
 368              	.L28:
 369              		.loc 1 79 0
 370 0178 F6EE087A 		vmov.f32	s15, #7.5e-1
 371 017c B4EEE78A 		vcmpe.f32	s16, s15
 372 0180 F1EE10FA 		vmrs	APSR_nzcv, FPSCR
 373              		.loc 1 82 0
 374 0184 4CBF     		ite	mi
 375 0186 054A     		ldrmi	r2, .L30+4
 376              		.loc 1 87 0
 377 0188 054A     		ldrpl	r2, .L30+8
 378 018a 92FBF0F0 		sdiv	r0, r2, r0
 379 018e D861     		str	r0, [r3, #28]
 380              	.L13:
 381              		.loc 1 97 0
 382 0190 BDEC028B 		vldm	sp!, {d8}
 383              		.cfi_restore 80
 384              		.cfi_restore 81
 385              		.cfi_def_cfa_offset 8
 386              	.LVL31:
 387 0194 08BD     		pop	{r3, pc}
 388              	.L31:
 389 0196 00BF     		.align	2
 390              	.L30:
 391 0198 00000000 		.word	.LANCHOR0
 392 019c 00F22B00 		.word	2880000
 393 01a0 00F91500 		.word	1440000
 394              		.cfi_endproc
 395              	.LFE267:
 396              		.size	_hook_param, .-_hook_param
 397              		.section	.text.startup,"ax",%progbits
 398              		.align	1
 399              		.thumb
ARM GAS  C:\msys64\tmp\ccq8rvFp.s 			page 8


 400              		.thumb_func
 401              		.type	_GLOBAL__sub_I_s_len, %function
 402              	_GLOBAL__sub_I_s_len:
 403              	.LFB269:
 404              		.loc 1 97 0
 405              		.cfi_startproc
 406              		@ args = 0, pretend = 0, frame = 0
 407              		@ frame_needed = 0, uses_anonymous_args = 0
 408              		@ link register save eliminated.
 409              	.LVL32:
 410              	.LBB59:
 411              	.LBB60:
 412              	.LBB61:
 413              		.loc 2 204 0
 414 0000 034B     		ldr	r3, .L33
 415 0002 0022     		movs	r2, #0
 416 0004 1A60     		str	r2, [r3]
 417 0006 DA60     		str	r2, [r3, #12]
 418 0008 1A61     		str	r2, [r3, #16]
 419 000a 5A61     		str	r2, [r3, #20]
 420              	.LVL33:
 421 000c 7047     		bx	lr
 422              	.L34:
 423 000e 00BF     		.align	2
 424              	.L33:
 425 0010 00000000 		.word	.LANCHOR0
 426              	.LBE61:
 427              	.LBE60:
 428              	.LBE59:
 429              		.cfi_endproc
 430              	.LFE269:
 431              		.size	_GLOBAL__sub_I_s_len, .-_GLOBAL__sub_I_s_len
 432              		.section	.init_array,"aw",%init_array
 433              		.align	2
 434 0000 00000000 		.word	_GLOBAL__sub_I_s_len(target1)
 435              		.global	bpm
 436              		.global	wetXNR
 437              		.global	wetXNL
 438              		.global	s_len
 439              		.bss
 440              		.align	2
 441              		.set	.LANCHOR0,. + 0
 442              		.type	_ZL7s_delay, %object
 443              		.size	_ZL7s_delay, 24
 444              	_ZL7s_delay:
 445 0000 00000000 		.space	24
 445      00000000 
 445      00000000 
 445      00000000 
 445      00000000 
 446              		.type	bpm, %object
 447              		.size	bpm, 4
 448              	bpm:
 449 0018 00000000 		.space	4
 450              		.type	s_len, %object
 451              		.size	s_len, 4
 452              	s_len:
ARM GAS  C:\msys64\tmp\ccq8rvFp.s 			page 9


 453 001c 00000000 		.space	4
 454              		.type	_ZL5s_mix, %object
 455              		.size	_ZL5s_mix, 4
 456              	_ZL5s_mix:
 457 0020 00000000 		.space	4
 458              		.type	_ZL4gain, %object
 459              		.size	_ZL4gain, 4
 460              	_ZL4gain:
 461 0024 00000000 		.space	4
 462              		.type	wetXNL, %object
 463              		.size	wetXNL, 4
 464              	wetXNL:
 465 0028 00000000 		.space	4
 466              		.type	wetXNR, %object
 467              		.size	wetXNR, 4
 468              	wetXNR:
 469 002c 00000000 		.space	4
 470              		.section	.sdram,"aw",%progbits
 471              		.align	2
 472              		.set	.LANCHOR1,. + 0
 473              		.type	_ZL11s_delay_ram, %object
 474              		.size	_ZL11s_delay_ram, 1680000
 475              	_ZL11s_delay_ram:
 476 0000 00000000 		.space	1680000
 476      00000000 
 476      00000000 
 476      00000000 
 476      00000000 
 477              		.text
 478              	.Letext0:
 479              		.file 4 "c:\\users\\bradl\\desktop\\code projects\\korgfx\\korgdelayfxset\\delays\\tools\\gcc\\gcc
 480              		.file 5 "c:\\users\\bradl\\desktop\\code projects\\korgfx\\korgdelayfxset\\delays\\tools\\gcc\\gcc
 481              		.file 6 "c:\\users\\bradl\\desktop\\code projects\\korgfx\\korgdelayfxset\\delays\\tools\\gcc\\gcc
 482              		.file 7 "../inc/utils/float_math.h"
 483              		.file 8 "../inc/utils/int_math.h"
 484              		.file 9 "../inc/fx_api.h"
 485              		.file 10 "../inc/userprg.h"