ARM GAS  C:\msys64\tmp\ccstHBqi.s 			page 1


   1              		.syntax unified
   2              		.cpu cortex-m4
   3              		.eabi_attribute 27, 1
   4              		.eabi_attribute 28, 1
   5              		.fpu fpv4-sp-d16
   6              		.eabi_attribute 20, 1
   7              		.eabi_attribute 21, 1
   8              		.eabi_attribute 23, 3
   9              		.eabi_attribute 24, 1
  10              		.eabi_attribute 25, 1
  11              		.eabi_attribute 26, 1
  12              		.eabi_attribute 30, 4
  13              		.eabi_attribute 34, 1
  14              		.eabi_attribute 18, 4
  15              		.thumb
  16              		.syntax unified
  17              		.file	"pingpong.cpp"
  18              		.text
  19              	.Ltext0:
  20              		.cfi_sections	.debug_frame
  21              		.align	1
  22              		.global	_Z9setMemoryv
  23              		.thumb
  24              		.thumb_func
  25              		.type	_Z9setMemoryv, %function
  26              	_Z9setMemoryv:
  27              	.LFB264:
  28              		.file 1 "./src/pingpong.cpp"
  29              		.loc 1 21 0
  30              		.cfi_startproc
  31              		@ args = 0, pretend = 0, frame = 0
  32              		@ frame_needed = 0, uses_anonymous_args = 0
  33              		@ link register save eliminated.
  34              	.LVL0:
  35              	.LBB2:
  36              		.loc 1 22 0
  37 0000 034A     		ldr	r2, .L5
  38              	.LBE2:
  39              		.loc 1 21 0
  40 0002 0023     		movs	r3, #0
  41              	.LBB3:
  42              		.loc 1 23 0
  43 0004 0021     		movs	r1, #0
  44              	.LVL1:
  45              	.L2:
  46              		.loc 1 23 0 is_stmt 0 discriminator 2
  47 0006 43F8041B 		str	r1, [r3], #4	@ float
  48              		.loc 1 22 0 is_stmt 1 discriminator 2
  49 000a 9342     		cmp	r3, r2
  50 000c FBD1     		bne	.L2
  51              	.LBE3:
  52              		.loc 1 24 0
  53 000e 7047     		bx	lr
  54              	.L6:
  55              		.align	2
  56              	.L5:
  57 0010 40D10C00 		.word	840000
ARM GAS  C:\msys64\tmp\ccstHBqi.s 			page 2


  58              		.cfi_endproc
  59              	.LFE264:
  60              		.size	_Z9setMemoryv, .-_Z9setMemoryv
  61              		.align	1
  62              		.global	_hook_init
  63              		.thumb
  64              		.thumb_func
  65              		.type	_hook_init, %function
  66              	_hook_init:
  67              	.LFB265:
  68              		.loc 1 27 0
  69              		.cfi_startproc
  70              		@ args = 0, pretend = 0, frame = 0
  71              		@ frame_needed = 0, uses_anonymous_args = 0
  72              	.LVL2:
  73 0014 08B5     		push	{r3, lr}
  74              		.cfi_def_cfa_offset 8
  75              		.cfi_offset 3, -8
  76              		.cfi_offset 14, -4
  77              		.loc 1 28 0
  78 0016 FFF7FEFF 		bl	_Z9setMemoryv
  79              	.LVL3:
  80              		.loc 1 29 0
  81 001a 024B     		ldr	r3, .L8
  82 001c 4FF07C52 		mov	r2, #1056964608
  83 0020 1A60     		str	r2, [r3]	@ float
  84 0022 08BD     		pop	{r3, pc}
  85              	.L9:
  86              		.align	2
  87              	.L8:
  88 0024 00000000 		.word	.LANCHOR0
  89              		.cfi_endproc
  90              	.LFE265:
  91              		.size	_hook_init, .-_hook_init
  92              		.align	1
  93              		.global	_hook_process
  94              		.thumb
  95              		.thumb_func
  96              		.type	_hook_process, %function
  97              	_hook_process:
  98              	.LFB266:
  99              		.loc 1 33 0
 100              		.cfi_startproc
 101              		@ args = 0, pretend = 0, frame = 0
 102              		@ frame_needed = 0, uses_anonymous_args = 0
 103              	.LVL4:
 104              		.loc 1 37 0
 105 0028 264B     		ldr	r3, .L14
 106              		.loc 1 33 0
 107 002a 2DE9F041 		push	{r4, r5, r6, r7, r8, lr}
 108              		.cfi_def_cfa_offset 24
 109              		.cfi_offset 4, -24
 110              		.cfi_offset 5, -20
 111              		.cfi_offset 6, -16
 112              		.cfi_offset 7, -12
 113              		.cfi_offset 8, -8
 114              		.cfi_offset 14, -4
ARM GAS  C:\msys64\tmp\ccstHBqi.s 			page 3


 115              	.LBB4:
 116              	.LBB5:
 117              		.loc 1 44 0
 118 002e 5C68     		ldr	r4, [r3, #4]
 119 0030 DE68     		ldr	r6, [r3, #12]
 120              	.LBE5:
 121              	.LBE4:
 122              		.loc 1 37 0
 123 0032 D3ED005A 		vldr.32	s11, [r3]
 124              	.LBB10:
 125              	.LBB6:
 126              		.loc 1 44 0
 127 0036 93ED025A 		vldr.32	s10, [r3, #8]
 128              		.loc 1 52 0
 129 003a 234F     		ldr	r7, .L14+4
 130              	.LBE6:
 131              	.LBE10:
 132              		.loc 1 35 0
 133 003c C900     		lsls	r1, r1, #3
 134              	.LVL5:
 135              	.LBB11:
 136              	.LBB7:
 137              		.loc 1 44 0
 138 003e 4FEA840E 		lsl	lr, r4, #2
 139              		.loc 1 45 0
 140 0042 6408     		lsrs	r4, r4, #1
 141              	.LBE7:
 142              	.LBE11:
 143              		.loc 1 35 0
 144 0044 00EB010C 		add	ip, r0, r1
 145              	.LVL6:
 146              	.LBB12:
 147              	.LBB8:
 148              		.loc 1 45 0
 149 0048 A400     		lsls	r4, r4, #2
 150 004a 3246     		mov	r2, r6
 151              	.LVL7:
 152              	.L12:
 153              	.LBE8:
 154              		.loc 1 38 0 discriminator 2
 155 004c 8445     		cmp	ip, r0
 156 004e 00F10805 		add	r5, r0, #8
 157 0052 02F10208 		add	r8, r2, #2
 158 0056 2FD0     		beq	.L11
 159              	.LBB9:
 160              		.loc 1 47 0 discriminator 1
 161 0058 DEED007A 		vldr.32	s15, [lr]
 162              		.loc 1 45 0 discriminator 1
 163 005c 94ED007A 		vldr.32	s14, [r4]
 164              		.loc 1 40 0 discriminator 1
 165 0060 15ED026A 		vldr.32	s12, [r5, #-8]
 166              	.LVL8:
 167              		.loc 1 41 0 discriminator 1
 168 0064 D0ED016A 		vldr.32	s13, [r0, #4]
 169              	.LVL9:
 170              		.loc 1 47 0 discriminator 1
 171 0068 65EE277A 		vmul.f32	s15, s10, s15
ARM GAS  C:\msys64\tmp\ccstHBqi.s 			page 4


 172              	.LVL10:
 173              		.loc 1 45 0 discriminator 1
 174 006c 25EE077A 		vmul.f32	s14, s10, s14
 175              	.LVL11:
 176              		.loc 1 47 0 discriminator 1
 177 0070 67EEA57A 		vmul.f32	s15, s15, s11
 178              	.LVL12:
 179              		.loc 1 48 0 discriminator 1
 180 0074 25EE877A 		vmul.f32	s14, s11, s14
 181              	.LVL13:
 182              		.loc 1 47 0 discriminator 1
 183 0078 C3ED047A 		vstr.32	s15, [r3, #16]
 184              	.LVL14:
 185              		.loc 1 49 0 discriminator 1
 186 007c 76EE277A 		vadd.f32	s15, s12, s15
 187              		.loc 1 48 0 discriminator 1
 188 0080 83ED057A 		vstr.32	s14, [r3, #20]
 189              		.loc 1 49 0 discriminator 1
 190 0084 45ED027A 		vstr.32	s15, [r5, #-8]
 191              		.loc 1 50 0 discriminator 1
 192 0088 D3ED057A 		vldr.32	s15, [r3, #20]
 193 008c 77EEA67A 		vadd.f32	s15, s15, s13
 194 0090 C0ED017A 		vstr.32	s15, [r0, #4]
 195              		.loc 1 52 0 discriminator 1
 196 0094 92FBF7F0 		sdiv	r0, r2, r7
 197              	.LVL15:
 198 0098 07FB1020 		mls	r0, r7, r0, r2
 199 009c 8000     		lsls	r0, r0, #2
 200              		.loc 1 54 0 discriminator 1
 201 009e 0132     		adds	r2, r2, #1
 202              		.loc 1 52 0 discriminator 1
 203 00a0 80ED006A 		vstr.32	s12, [r0]
 204              		.loc 1 54 0 discriminator 1
 205 00a4 92FBF7F0 		sdiv	r0, r2, r7
 206 00a8 07FB1022 		mls	r2, r7, r0, r2
 207 00ac 9200     		lsls	r2, r2, #2
 208 00ae C2ED006A 		vstr.32	s13, [r2]
 209              	.LVL16:
 210              	.LBE9:
 211              		.loc 1 38 0 discriminator 1
 212 00b2 2846     		mov	r0, r5
 213 00b4 4246     		mov	r2, r8
 214 00b6 C9E7     		b	.L12
 215              	.LVL17:
 216              	.L11:
 217 00b8 06EB9101 		add	r1, r6, r1, lsr #2
 218 00bc D960     		str	r1, [r3, #12]
 219 00be BDE8F081 		pop	{r4, r5, r6, r7, r8, pc}
 220              	.L15:
 221 00c2 00BF     		.align	2
 222              	.L14:
 223 00c4 00000000 		.word	.LANCHOR0
 224 00c8 50340300 		.word	210000
 225              	.LBE12:
 226              		.cfi_endproc
 227              	.LFE266:
 228              		.size	_hook_process, .-_hook_process
ARM GAS  C:\msys64\tmp\ccstHBqi.s 			page 5


 229              		.align	1
 230              		.global	_hook_param
 231              		.thumb
 232              		.thumb_func
 233              		.type	_hook_param, %function
 234              	_hook_param:
 235              	.LFB267:
 236              		.loc 1 60 0
 237              		.cfi_startproc
 238              		@ args = 0, pretend = 0, frame = 0
 239              		@ frame_needed = 0, uses_anonymous_args = 0
 240              	.LVL18:
 241 00cc 08B5     		push	{r3, lr}
 242              		.cfi_def_cfa_offset 8
 243              		.cfi_offset 3, -8
 244              		.cfi_offset 14, -4
 245 00ce 2DED028B 		vpush.64	{d8}
 246              		.cfi_def_cfa_offset 16
 247              		.cfi_offset 80, -16
 248              		.cfi_offset 81, -12
 249              		.loc 1 61 0
 250 00d2 08EE101A 		vmov	s16, r1	@ int
 251              		.loc 1 62 0
 252 00d6 0128     		cmp	r0, #1
 253              		.loc 1 61 0
 254 00d8 BAEEE08A 		vcvt.f32.s32	s16, s16, #31
 255              	.LVL19:
 256              		.loc 1 62 0
 257 00dc 0AD0     		beq	.L18
 258 00de 05D3     		bcc	.L19
 259 00e0 0328     		cmp	r0, #3
 260 00e2 35D1     		bne	.L16
 261              		.loc 1 95 0
 262 00e4 1C4B     		ldr	r3, .L33
 263 00e6 83ED008A 		vstr.32	s16, [r3]
 264              		.loc 1 100 0
 265 00ea 31E0     		b	.L16
 266              	.L19:
 267              		.loc 1 66 0
 268 00ec 1A4B     		ldr	r3, .L33
 269 00ee 83ED028A 		vstr.32	s16, [r3, #8]
 270              		.loc 1 67 0
 271 00f2 2DE0     		b	.L16
 272              	.L18:
 273              		.loc 1 70 0
 274 00f4 FFF7FEFF 		bl	_fx_get_bpm
 275              	.LVL20:
 276              		.loc 1 72 0
 277 00f8 F5EE007A 		vmov.f32	s15, #2.5e-1
 278              		.loc 1 70 0
 279 00fc 0A23     		movs	r3, #10
 280              		.loc 1 72 0
 281 00fe B4EEE78A 		vcmpe.f32	s16, s15
 282              		.loc 1 70 0
 283 0102 B0FBF3F0 		udiv	r0, r0, r3
 284 0106 144B     		ldr	r3, .L33
 285 0108 80B2     		uxth	r0, r0
ARM GAS  C:\msys64\tmp\ccstHBqi.s 			page 6


 286              		.loc 1 72 0
 287 010a F1EE10FA 		vmrs	APSR_nzcv, FPSCR
 288              		.loc 1 70 0
 289 010e 9861     		str	r0, [r3, #24]
 290              		.loc 1 72 0
 291 0110 05D5     		bpl	.L30
 292              		.loc 1 75 0
 293 0112 124A     		ldr	r2, .L33+4
 294 0114 92FBF0F0 		sdiv	r0, r2, r0
 295 0118 8000     		lsls	r0, r0, #2
 296 011a 5860     		str	r0, [r3, #4]
 297 011c 18E0     		b	.L16
 298              	.L30:
 299              		.loc 1 77 0
 300 011e F6EE007A 		vmov.f32	s15, #5.0e-1
 301 0122 B4EEE78A 		vcmpe.f32	s16, s15
 302 0126 F1EE10FA 		vmrs	APSR_nzcv, FPSCR
 303 012a 05D5     		bpl	.L31
 304              		.loc 1 80 0
 305 012c 0B4A     		ldr	r2, .L33+4
 306 012e 92FBF0F0 		sdiv	r0, r2, r0
 307 0132 4000     		lsls	r0, r0, #1
 308 0134 5860     		str	r0, [r3, #4]
 309 0136 0BE0     		b	.L16
 310              	.L31:
 311              		.loc 1 82 0
 312 0138 F6EE087A 		vmov.f32	s15, #7.5e-1
 313 013c B4EEE78A 		vcmpe.f32	s16, s15
 314 0140 F1EE10FA 		vmrs	APSR_nzcv, FPSCR
 315              		.loc 1 85 0
 316 0144 4CBF     		ite	mi
 317 0146 054A     		ldrmi	r2, .L33+4
 318              		.loc 1 90 0
 319 0148 054A     		ldrpl	r2, .L33+8
 320 014a 92FBF0F0 		sdiv	r0, r2, r0
 321 014e 5860     		str	r0, [r3, #4]
 322              	.L16:
 323              		.loc 1 100 0
 324 0150 BDEC028B 		vldm	sp!, {d8}
 325              		.cfi_restore 80
 326              		.cfi_restore 81
 327              		.cfi_def_cfa_offset 8
 328              	.LVL21:
 329 0154 08BD     		pop	{r3, pc}
 330              	.L34:
 331 0156 00BF     		.align	2
 332              	.L33:
 333 0158 00000000 		.word	.LANCHOR0
 334 015c 00F22B00 		.word	2880000
 335 0160 00F91500 		.word	1440000
 336              		.cfi_endproc
 337              	.LFE267:
 338              		.size	_hook_param, .-_hook_param
 339              		.global	bpm
 340              		.global	wetXNR
 341              		.global	wetXNL
 342              		.global	s_len
ARM GAS  C:\msys64\tmp\ccstHBqi.s 			page 7


 343              		.global	mwriteidx
 344              		.bss
 345              		.align	2
 346              		.set	.LANCHOR0,. + 0
 347              		.type	_ZL5s_mix, %object
 348              		.size	_ZL5s_mix, 4
 349              	_ZL5s_mix:
 350 0000 00000000 		.space	4
 351              		.type	s_len, %object
 352              		.size	s_len, 4
 353              	s_len:
 354 0004 00000000 		.space	4
 355              		.type	_ZL4gain, %object
 356              		.size	_ZL4gain, 4
 357              	_ZL4gain:
 358 0008 00000000 		.space	4
 359              		.type	mwriteidx, %object
 360              		.size	mwriteidx, 4
 361              	mwriteidx:
 362 000c 00000000 		.space	4
 363              		.type	wetXNL, %object
 364              		.size	wetXNL, 4
 365              	wetXNL:
 366 0010 00000000 		.space	4
 367              		.type	wetXNR, %object
 368              		.size	wetXNR, 4
 369              	wetXNR:
 370 0014 00000000 		.space	4
 371              		.type	bpm, %object
 372              		.size	bpm, 4
 373              	bpm:
 374 0018 00000000 		.space	4
 375              		.text
 376              	.Letext0:
 377              		.file 2 "c:\\users\\bradl\\desktop\\code projects\\korgfx\\korgdelayfxset\\delays\\tools\\gcc\\gcc
 378              		.file 3 "c:\\users\\bradl\\desktop\\code projects\\korgfx\\korgdelayfxset\\delays\\tools\\gcc\\gcc
 379              		.file 4 "../inc/fx_api.h"
 380              		.file 5 "../inc/dsp/delayline.hpp"