ARM GAS  C:\msys64\tmp\ccs4HP4c.s 			page 1


   1              		.syntax unified
   2              		.cpu cortex-m4
   3              		.eabi_attribute 27, 1
   4              		.eabi_attribute 28, 1
   5              		.fpu fpv4-sp-d16
   6              		.eabi_attribute 20, 1
   7              		.eabi_attribute 21, 1
   8              		.eabi_attribute 23, 3
   9              		.eabi_attribute 24, 1
  10              		.eabi_attribute 25, 1
  11              		.eabi_attribute 26, 1
  12              		.eabi_attribute 30, 4
  13              		.eabi_attribute 34, 1
  14              		.eabi_attribute 18, 4
  15              		.thumb
  16              		.syntax unified
  17              		.file	"main.c"
  18              		.text
  19              	.Ltext0:
  20              		.cfi_sections	.debug_frame
  21              		.align	1
  22              		.global	_hook_init
  23              		.thumb
  24              		.thumb_func
  25              		.type	_hook_init, %function
  26              	_hook_init:
  27              	.LFB228:
  28              		.file 1 "main.c"
  29              		.loc 1 4 0
  30              		.cfi_startproc
  31              		@ args = 0, pretend = 0, frame = 0
  32              		@ frame_needed = 0, uses_anonymous_args = 0
  33              		@ link register save eliminated.
  34              	.LVL0:
  35 0000 7047     		bx	lr
  36              		.cfi_endproc
  37              	.LFE228:
  38              		.size	_hook_init, .-_hook_init
  39              		.align	1
  40              		.global	_hook_process
  41              		.thumb
  42              		.thumb_func
  43              		.type	_hook_process, %function
  44              	_hook_process:
  45              	.LFB229:
  46              		.loc 1 9 0
  47              		.cfi_startproc
  48              		@ args = 0, pretend = 0, frame = 0
  49              		@ frame_needed = 0, uses_anonymous_args = 0
  50              		@ link register save eliminated.
  51              	.LVL1:
  52 0002 7047     		bx	lr
  53              		.cfi_endproc
  54              	.LFE229:
  55              		.size	_hook_process, .-_hook_process
  56              		.align	1
  57              		.global	_hook_param
ARM GAS  C:\msys64\tmp\ccs4HP4c.s 			page 2


  58              		.thumb
  59              		.thumb_func
  60              		.type	_hook_param, %function
  61              	_hook_param:
  62              	.LFB230:
  63              		.loc 1 14 0
  64              		.cfi_startproc
  65              		@ args = 0, pretend = 0, frame = 0
  66              		@ frame_needed = 0, uses_anonymous_args = 0
  67              		@ link register save eliminated.
  68              	.LVL2:
  69 0004 7047     		bx	lr
  70              		.cfi_endproc
  71              	.LFE230:
  72              		.size	_hook_param, .-_hook_param
  73              	.Letext0:
  74              		.file 2 "c:\\users\\bradl\\desktop\\code projects\\korgfx\\korgdelayfxset\\delays\\tools\\gcc\\gcc
  75              		.file 3 "c:\\users\\bradl\\desktop\\code projects\\korgfx\\korgdelayfxset\\delays\\tools\\gcc\\gcc
  76              		.file 4 "../inc/fx_api.h"
  77              		.file 5 "../inc/userdelfx.h"