ARM GAS  C:\msys64\tmp\ccMiE5FV.s 			page 1


   1              		.syntax unified
   2              		.cpu cortex-m4
   3              		.eabi_attribute 27, 1
   4              		.eabi_attribute 28, 1
   5              		.fpu fpv4-sp-d16
   6              		.eabi_attribute 20, 1
   7              		.eabi_attribute 21, 1
   8              		.eabi_attribute 23, 3
   9              		.eabi_attribute 24, 1
  10              		.eabi_attribute 25, 1
  11              		.eabi_attribute 26, 1
  12              		.eabi_attribute 30, 4
  13              		.eabi_attribute 34, 1
  14              		.eabi_attribute 18, 4
  15              		.thumb
  16              		.syntax unified
  17              		.file	"multifx.cpp"
  18              		.text
  19              	.Ltext0:
  20              		.cfi_sections	.debug_frame
  21              		.align	1
  22              		.global	_hook_init
  23              		.thumb
  24              		.thumb_func
  25              		.type	_hook_init, %function
  26              	_hook_init:
  27              	.LFB320:
  28              		.file 1 "./src/multifx.cpp"
  29              		.loc 1 88 0
  30              		.cfi_startproc
  31              		@ args = 0, pretend = 0, frame = 0
  32              		@ frame_needed = 0, uses_anonymous_args = 0
  33              	.LVL0:
  34              	.LBB89:
  35              	.LBB90:
  36              		.file 2 "../inc/dsp/delayline.hpp"
  37              		.loc 2 114 0
  38 0000 1D4A     		ldr	r2, .L5
  39 0002 1E4B     		ldr	r3, .L5+4
  40              		.loc 2 115 0
  41 0004 4FF48031 		mov	r1, #65536
  42              	.LVL1:
  43              	.LBE90:
  44              	.LBE89:
  45              		.loc 1 88 0
  46 0008 10B5     		push	{r4, lr}
  47              		.cfi_def_cfa_offset 8
  48              		.cfi_offset 4, -8
  49              		.cfi_offset 14, -4
  50              	.LBB92:
  51              	.LBB91:
  52              		.loc 2 115 0
  53 000a 9160     		str	r1, [r2, #8]
  54              		.loc 2 116 0
  55 000c 4FF6FF71 		movw	r1, #65535
  56              		.loc 2 114 0
  57 0010 1360     		str	r3, [r2]
ARM GAS  C:\msys64\tmp\ccMiE5FV.s 			page 2


  58              		.loc 2 116 0
  59 0012 D160     		str	r1, [r2, #12]
  60 0014 1033     		adds	r3, r3, #16
  61              		.loc 2 117 0
  62 0016 0021     		movs	r1, #0
  63 0018 1161     		str	r1, [r2, #16]
  64              	.LVL2:
  65 001a 1446     		mov	r4, r2
  66 001c 03F58021 		add	r1, r3, #262144
  67              	.LBE91:
  68              	.LBE92:
  69              	.LBB93:
  70              	.LBB94:
  71              	.LBB95:
  72              		.file 3 "../inc/utils/buffer_ops.h"
  73              		.loc 3 109 0
  74 0020 0022     		movs	r2, #0
  75              	.LVL3:
  76              	.L2:
  77 0022 43F8102C 		str	r2, [r3, #-16]	@ float
  78              	.LVL4:
  79 0026 43F80C2C 		str	r2, [r3, #-12]	@ float
  80              	.LVL5:
  81 002a 43F8082C 		str	r2, [r3, #-8]	@ float
  82              	.LVL6:
  83 002e 43F8042C 		str	r2, [r3, #-4]	@ float
  84 0032 1033     		adds	r3, r3, #16
  85              	.LVL7:
  86              		.loc 3 108 0
  87 0034 9942     		cmp	r1, r3
  88 0036 F4D1     		bne	.L2
  89              	.LVL8:
  90              	.LBE95:
  91              	.LBE94:
  92              	.LBE93:
  93              	.LBB96:
  94              	.LBB97:
  95              		.file 4 "../inc/dsp/simplelfo.hpp"
  96              		.loc 4 91 0
  97 0038 4FF00043 		mov	r3, #-2147483648
  98 003c 6361     		str	r3, [r4, #20]
  99              	.LVL9:
 100              	.LBE97:
 101              	.LBE96:
 102              		.loc 1 92 0
 103 003e FFF7FEFF 		bl	_fx_get_bpm
 104              	.LVL10:
 105 0042 0F4B     		ldr	r3, .L5+8
 106              		.loc 1 93 0
 107 0044 9FED0F6A 		vldr.32	s12, .L5+12
 108 0048 93ED017A 		vldr.32	s14, [r3, #4]
 109              		.loc 1 92 0
 110 004c 1860     		str	r0, [r3]
 111              		.loc 1 93 0
 112 004e 07EE900A 		vmov	s15, r0	@ int
 113 0052 F8EEE77A 		vcvt.f32.s32	s15, s15
 114 0056 27EE877A 		vmul.f32	s14, s15, s14
ARM GAS  C:\msys64\tmp\ccMiE5FV.s 			page 3


 115 005a C6EE076A 		vdiv.f32	s13, s12, s14
 116              	.LBB98:
 117              	.LBB99:
 118              		.loc 4 103 0
 119 005e 9FED0A7A 		vldr.32	s14, .L5+16
 120              	.LBE99:
 121              	.LBE98:
 122              		.loc 1 93 0
 123 0062 C3ED026A 		vstr.32	s13, [r3, #8]
 124              	.LVL11:
 125              	.LBB101:
 126              	.LBB100:
 127              		.loc 4 103 0
 128 0066 67EE877A 		vmul.f32	s15, s15, s14
 129              	.LVL12:
 130 006a 67EEA67A 		vmul.f32	s15, s15, s13
 131              	.LVL13:
 132 006e FEEEC07A 		vcvt.s32.f32	s15, s15, #32
 133 0072 C4ED067A 		vstr.32	s15, [r4, #24]	@ int
 134              	.LVL14:
 135 0076 10BD     		pop	{r4, pc}
 136              	.L6:
 137              		.align	2
 138              	.L5:
 139 0078 00000000 		.word	.LANCHOR0
 140 007c 00000000 		.word	.LANCHOR1
 141 0080 00000000 		.word	.LANCHOR2
 142 0084 00007042 		.word	1114636288
 143 0088 3EC3AE37 		.word	934200126
 144              	.LBE100:
 145              	.LBE101:
 146              		.cfi_endproc
 147              	.LFE320:
 148              		.size	_hook_init, .-_hook_init
 149              		.global	__aeabi_f2d
 150              		.global	__aeabi_dmul
 151              		.global	__aeabi_d2f
 152              		.align	1
 153              		.global	_hook_process
 154              		.thumb
 155              		.thumb_func
 156              		.type	_hook_process, %function
 157              	_hook_process:
 158              	.LFB321:
 159              		.loc 1 102 0
 160              		.cfi_startproc
 161              		@ args = 4, pretend = 0, frame = 8
 162              		@ frame_needed = 0, uses_anonymous_args = 0
 163              	.LVL15:
 164 008c 2DE9F04F 		push	{r4, r5, r6, r7, r8, r9, r10, fp, lr}
 165              		.cfi_def_cfa_offset 36
 166              		.cfi_offset 4, -36
 167              		.cfi_offset 5, -32
 168              		.cfi_offset 6, -28
 169              		.cfi_offset 7, -24
 170              		.cfi_offset 8, -20
 171              		.cfi_offset 9, -16
ARM GAS  C:\msys64\tmp\ccMiE5FV.s 			page 4


 172              		.cfi_offset 10, -12
 173              		.cfi_offset 11, -8
 174              		.cfi_offset 14, -4
 175 0090 2DED048B 		vpush.64	{d8, d9}
 176              		.cfi_def_cfa_offset 52
 177              		.cfi_offset 80, -52
 178              		.cfi_offset 81, -48
 179              		.cfi_offset 82, -44
 180              		.cfi_offset 83, -40
 181 0094 83B0     		sub	sp, sp, #12
 182              		.cfi_def_cfa_offset 64
 183              	.LBB102:
 184              		.loc 1 109 0
 185 0096 DFF8E092 		ldr	r9, .L27+36
 186 009a 109B     		ldr	r3, [sp, #64]
 187              	.LVL16:
 188              	.LBB103:
 189              	.LBB104:
 190              	.LBB105:
 191              	.LBB106:
 192              		.loc 4 125 0
 193 009c AD4D     		ldr	r5, .L27
 194              	.LBE106:
 195              	.LBE105:
 196              	.LBE104:
 197              	.LBE103:
 198              	.LBE102:
 199              		.loc 1 102 0
 200 009e 0C46     		mov	r4, r1
 201 00a0 4FEA4308 		lsl	r8, r3, #1
 202              	.LBB149:
 203              		.loc 1 107 0
 204 00a4 0027     		movs	r7, #0
 205 00a6 4E46     		mov	r6, r9
 206              	.LVL17:
 207              	.L22:
 208              		.loc 1 107 0 is_stmt 0 discriminator 1
 209 00a8 4745     		cmp	r7, r8
 210 00aa 00F04D81 		beq	.L7
 211              		.loc 1 109 0 is_stmt 1
 212 00ae D9F80C30 		ldr	r3, [r9, #12]
 213 00b2 032B     		cmp	r3, #3
 214 00b4 00F24681 		bhi	.L9
 215 00b8 DFE813F0 		tbh	[pc, r3, lsl #1]
 216              	.L11:
 217 00bc 0400     		.2byte	(.L10-.L11)/2
 218 00be 6500     		.2byte	(.L12-.L11)/2
 219 00c0 9700     		.2byte	(.L13-.L11)/2
 220 00c2 2801     		.2byte	(.L14-.L11)/2
 221              		.p2align 1
 222              	.L10:
 223              		.loc 1 113 0
 224 00c4 D0ED006A 		vldr.32	s13, [r0]
 225 00c8 96ED048A 		vldr.32	s16, [r6, #16]
 226              	.LBB130:
 227              	.LBB131:
 228              		.loc 1 46 0
ARM GAS  C:\msys64\tmp\ccMiE5FV.s 			page 5


 229 00cc FFEE007A 		vmov.f32	s15, #-1.0e+0
 230 00d0 F4EE676A 		vcmp.f32	s13, s15
 231 00d4 F1EE10FA 		vmrs	APSR_nzcv, FPSCR
 232              	.LBE131:
 233              	.LBE130:
 234              		.loc 1 113 0
 235 00d8 04F1040B 		add	fp, r4, #4
 236              	.LVL18:
 237 00dc 00F1040A 		add	r10, r0, #4
 238              	.LVL19:
 239              	.LBB136:
 240              	.LBB135:
 241              		.loc 1 46 0
 242 00e0 48D0     		beq	.L15
 243              	.LBB132:
 244              	.LBB133:
 245              	.LBB134:
 246              		.file 5 "../inc/utils/float_math.h"
 247              		.loc 5 680 0
 248 00e2 F7EE008A 		vmov.f32	s17, #1.0e+0
 249 00e6 DFED9C7A 		vldr.32	s15, .L27+4
 250              		.loc 5 685 0
 251 00ea 9FED9C6A 		vldr.32	s12, .L27+8
 252 00ee DFED9C5A 		vldr.32	s11, .L27+12
 253              		.loc 5 680 0
 254 00f2 38EE688A 		vsub.f32	s16, s16, s17
 255 00f6 B4EEE78A 		vcmpe.f32	s16, s15
 256 00fa F1EE10FA 		vmrs	APSR_nzcv, FPSCR
 257 00fe B8BF     		it	lt
 258 0100 B0EE678A 		vmovlt.f32	s16, s15
 259              		.loc 5 682 0
 260 0104 BDEEC87A 		vcvt.s32.f32	s14, s16
 261 0108 B8EEC77A 		vcvt.f32.s32	s14, s14
 262 010c 38EE477A 		vsub.f32	s14, s16, s14
 263 0110 37EE287A 		vadd.f32	s14, s14, s17
 264              		.loc 5 685 0
 265 0114 36EE476A 		vsub.f32	s12, s12, s14
 266 0118 C5EE867A 		vdiv.f32	s15, s11, s12
 267 011c 37EE888A 		vadd.f32	s16, s15, s16
 268 0120 DFED907A 		vldr.32	s15, .L27+16
 269 0124 A7EE678A 		vfms.f32	s16, s14, s15
 270 0128 DFED8F7A 		vldr.32	s15, .L27+20
 271 012c 38EE278A 		vadd.f32	s16, s16, s15
 272 0130 DFED8E7A 		vldr.32	s15, .L27+24
 273 0134 28EE278A 		vmul.f32	s16, s16, s15
 274 0138 BCEEC88A 		vcvt.u32.f32	s16, s16
 275              	.LBE134:
 276              	.LBE133:
 277              	.LBE132:
 278              		.loc 1 46 0
 279 013c 66EE887A 		vmul.f32	s15, s13, s16
 280 0140 17EE900A 		vmov	r0, s15
 281 0144 FFF7FEFF 		bl	__aeabi_f2d
 282              	.LVL20:
 283 0148 41EC100B 		vmov	d0, r0, r1
 284 014c FFF7FEFF 		bl	ceil
 285              	.LVL21:
ARM GAS  C:\msys64\tmp\ccMiE5FV.s 			page 6


 286 0150 C8EE887A 		vdiv.f32	s15, s17, s16
 287 0154 53EC102B 		vmov	r2, r3, d0
 288 0158 17EE900A 		vmov	r0, s15
 289 015c CDE90023 		strd	r2, [sp]
 290 0160 FFF7FEFF 		bl	__aeabi_f2d
 291              	.LVL22:
 292 0164 DDE90023 		ldrd	r2, [sp]
 293 0168 FFF7FEFF 		bl	__aeabi_dmul
 294              	.LVL23:
 295 016c FFF7FEFF 		bl	__aeabi_d2f
 296              	.LVL24:
 297 0170 06EE900A 		vmov	s13, r0
 298              	.L15:
 299              	.LBE135:
 300              	.LBE136:
 301              		.loc 1 113 0
 302 0174 DFED7E7A 		vldr.32	s15, .L27+28
 303 0178 76EEA76A 		vadd.f32	s13, s13, s15
 304 017c 5046     		mov	r0, r10
 305 017e C4ED006A 		vstr.32	s13, [r4]
 306 0182 5C46     		mov	r4, fp
 307              		.loc 1 114 0
 308 0184 DEE0     		b	.L9
 309              	.LVL25:
 310              	.L12:
 311              		.loc 1 117 0
 312 0186 90ED008A 		vldr.32	s16, [r0]
 313              	.LBB137:
 314              	.LBB138:
 315              	.LBB139:
 316              	.LBB140:
 317              		.loc 5 785 0
 318 018a B5EEC08A 		vcmpe.f32	s16, #0
 319 018e F1EE10FA 		vmrs	APSR_nzcv, FPSCR
 320              	.LBE140:
 321              	.LBE139:
 322              	.LBE138:
 323              	.LBE137:
 324              		.loc 1 117 0
 325 0192 04F1040B 		add	fp, r4, #4
 326              	.LVL26:
 327 0196 00F1040A 		add	r10, r0, #4
 328              	.LVL27:
 329              	.LBB146:
 330              	.LBB145:
 331              	.LBB142:
 332              	.LBB141:
 333              		.loc 5 785 0
 334 019a 08DB     		blt	.L26
 335 019c B0EE480A 		vmov.f32	s0, s16
 336 01a0 FFF7FEFF 		bl	log10f
 337              	.LVL28:
 338 01a4 F3EE047A 		vmov.f32	s15, #2.0e+1
 339 01a8 20EE270A 		vmul.f32	s0, s0, s15
 340 01ac 01E0     		b	.L16
 341              	.L26:
 342 01ae 9FED710A 		vldr.32	s0, .L27+32
ARM GAS  C:\msys64\tmp\ccMiE5FV.s 			page 7


 343              	.L16:
 344              	.LVL29:
 345              	.LBE141:
 346              	.LBE142:
 347              		.loc 1 68 0
 348 01b2 D5ED077A 		vldr.32	s15, [r5, #28]
 349 01b6 F4EEC07A 		vcmpe.f32	s15, s0
 350 01ba F1EE10FA 		vmrs	APSR_nzcv, FPSCR
 351 01be 0FDD     		ble	.L18
 352              	.LVL30:
 353              	.LBB143:
 354              	.LBB144:
 355              		.loc 1 52 0
 356 01c0 2B6A     		ldr	r3, [r5, #32]
 357 01c2 5BB1     		cbz	r3, .L20
 358              		.loc 1 54 0
 359 01c4 0122     		movs	r2, #1
 360 01c6 92FBF3F2 		sdiv	r2, r2, r3
 361 01ca 07EE902A 		vmov	s15, r2	@ int
 362 01ce F8EEE77A 		vcvt.f32.s32	s15, s15
 363              		.loc 1 55 0
 364 01d2 013B     		subs	r3, r3, #1
 365              		.loc 1 54 0
 366 01d4 28EE278A 		vmul.f32	s16, s16, s15
 367              	.LVL31:
 368              		.loc 1 55 0
 369 01d8 2B62     		str	r3, [r5, #32]
 370 01da 01E0     		b	.L18
 371              	.LVL32:
 372              	.L20:
 373              		.loc 1 59 0
 374 01dc 3C23     		movs	r3, #60
 375 01de 2B62     		str	r3, [r5, #32]
 376              	.LVL33:
 377              	.L18:
 378              	.LBE144:
 379              	.LBE143:
 380              	.LBE145:
 381              	.LBE146:
 382              		.loc 1 117 0
 383 01e0 84ED008A 		vstr.32	s16, [r4]
 384 01e4 5046     		mov	r0, r10
 385 01e6 5C46     		mov	r4, fp
 386              		.loc 1 118 0
 387 01e8 ACE0     		b	.L9
 388              	.LVL34:
 389              	.L13:
 390              	.LBB147:
 391              	.LBB128:
 392              		.loc 1 78 0
 393 01ea 96ED057A 		vldr.32	s14, [r6, #20]
 394 01ee D0ED005A 		vldr.32	s11, [r0]
 395              		.loc 1 80 0
 396 01f2 96ED048A 		vldr.32	s16, [r6, #16]
 397              		.loc 1 78 0
 398 01f6 F7EE006A 		vmov.f32	s13, #1.0e+0
 399 01fa F2EE047A 		vmov.f32	s15, #1.0e+1
ARM GAS  C:\msys64\tmp\ccMiE5FV.s 			page 8


 400 01fe B0EE666A 		vmov.f32	s12, s13
 401 0202 A7EE276A 		vfma.f32	s12, s14, s15
 402              	.LBE128:
 403              	.LBE147:
 404              		.loc 1 121 0
 405 0206 04F1040B 		add	fp, r4, #4
 406              	.LVL35:
 407 020a 00F1040A 		add	r10, r0, #4
 408              	.LVL36:
 409              	.LBB148:
 410              	.LBB129:
 411              	.LBB112:
 412              	.LBB113:
 413              		.loc 1 37 0
 414 020e F6EE007A 		vmov.f32	s15, #5.0e-1
 415              	.LBE113:
 416              	.LBE112:
 417              		.loc 1 78 0
 418 0212 66EE255A 		vmul.f32	s11, s12, s11
 419              	.LVL37:
 420              	.LBB115:
 421              	.LBB114:
 422              		.loc 1 37 0
 423 0216 B7EE087A 		vmov.f32	s14, #1.5e+0
 424 021a 25EEA56A 		vmul.f32	s12, s11, s11
 425 021e F0EE668A 		vmov.f32	s17, s13
 426 0222 26EE256A 		vmul.f32	s12, s12, s11
 427 0226 B0EE679A 		vmov.f32	s18, s15
 428 022a 27EEC66A 		vnmul.f32	s12, s15, s12
 429 022e A5EE876A 		vfma.f32	s12, s11, s14
 430              	.LVL38:
 431              	.LBE114:
 432              	.LBE115:
 433              	.LBB116:
 434              	.LBB117:
 435              		.loc 1 46 0
 436 0232 BFEE007A 		vmov.f32	s14, #-1.0e+0
 437 0236 B4EE476A 		vcmp.f32	s12, s14
 438 023a F1EE10FA 		vmrs	APSR_nzcv, FPSCR
 439 023e 46D0     		beq	.L21
 440              	.LBB118:
 441              	.LBB119:
 442              	.LBB120:
 443              		.loc 5 680 0
 444 0240 38EE668A 		vsub.f32	s16, s16, s13
 445 0244 DFED447A 		vldr.32	s15, .L27+4
 446              		.loc 5 685 0
 447 0248 9FED447A 		vldr.32	s14, .L27+8
 448              		.loc 5 680 0
 449 024c B4EEE78A 		vcmpe.f32	s16, s15
 450 0250 F1EE10FA 		vmrs	APSR_nzcv, FPSCR
 451 0254 B8BF     		it	lt
 452 0256 B0EE678A 		vmovlt.f32	s16, s15
 453              		.loc 5 682 0
 454 025a FDEEC85A 		vcvt.s32.f32	s11, s16
 455 025e F8EEE55A 		vcvt.f32.s32	s11, s11
 456 0262 78EE655A 		vsub.f32	s11, s16, s11
ARM GAS  C:\msys64\tmp\ccMiE5FV.s 			page 9


 457 0266 75EEA65A 		vadd.f32	s11, s11, s13
 458              		.loc 5 685 0
 459 026a DFED3D6A 		vldr.32	s13, .L27+12
 460 026e 37EE657A 		vsub.f32	s14, s14, s11
 461 0272 C6EE877A 		vdiv.f32	s15, s13, s14
 462 0276 37EE888A 		vadd.f32	s16, s15, s16
 463 027a DFED3A7A 		vldr.32	s15, .L27+16
 464 027e A5EEE78A 		vfms.f32	s16, s11, s15
 465 0282 DFED397A 		vldr.32	s15, .L27+20
 466 0286 38EE278A 		vadd.f32	s16, s16, s15
 467 028a DFED387A 		vldr.32	s15, .L27+24
 468 028e 28EE278A 		vmul.f32	s16, s16, s15
 469 0292 BCEEC88A 		vcvt.u32.f32	s16, s16
 470              	.LBE120:
 471              	.LBE119:
 472              	.LBE118:
 473              		.loc 1 46 0
 474 0296 66EE087A 		vmul.f32	s15, s12, s16
 475 029a 17EE900A 		vmov	r0, s15
 476 029e FFF7FEFF 		bl	__aeabi_f2d
 477              	.LVL39:
 478 02a2 41EC100B 		vmov	d0, r0, r1
 479 02a6 FFF7FEFF 		bl	ceil
 480              	.LVL40:
 481 02aa C8EE887A 		vdiv.f32	s15, s17, s16
 482 02ae 53EC102B 		vmov	r2, r3, d0
 483 02b2 17EE900A 		vmov	r0, s15
 484 02b6 CDE90023 		strd	r2, [sp]
 485 02ba FFF7FEFF 		bl	__aeabi_f2d
 486              	.LVL41:
 487 02be DDE90023 		ldrd	r2, [sp]
 488 02c2 FFF7FEFF 		bl	__aeabi_dmul
 489              	.LVL42:
 490 02c6 FFF7FEFF 		bl	__aeabi_d2f
 491              	.LVL43:
 492 02ca 06EE100A 		vmov	s12, r0
 493              	.L21:
 494              	.LVL44:
 495              	.LBE117:
 496              	.LBE116:
 497              	.LBB121:
 498              	.LBB109:
 499              		.loc 4 125 0
 500 02ce 95ED057A 		vldr.32	s14, [r5, #20]	@ int
 501              	.LBE109:
 502              	.LBE121:
 503              	.LBB122:
 504              	.LBB123:
 505              		.loc 4 82 0
 506 02d2 6A69     		ldr	r2, [r5, #20]
 507 02d4 AB69     		ldr	r3, [r5, #24]
 508              	.LBE123:
 509              	.LBE122:
 510              	.LBB125:
 511              	.LBB110:
 512              		.loc 4 125 0
 513 02d6 BAEEE07A 		vcvt.f32.s32	s14, s14, #31
ARM GAS  C:\msys64\tmp\ccMiE5FV.s 			page 10


 514              	.LVL45:
 515              	.LBE110:
 516              	.LBE125:
 517              	.LBB126:
 518              	.LBB124:
 519              		.loc 4 82 0
 520 02da 1344     		add	r3, r3, r2
 521 02dc 6B61     		str	r3, [r5, #20]
 522              	.LVL46:
 523              	.LBE124:
 524              	.LBE126:
 525              	.LBB127:
 526              	.LBB111:
 527              	.LBB107:
 528              	.LBB108:
 529              		.loc 5 287 0
 530 02de 17EE103A 		vmov	r3, s14	@ int
 531 02e2 23F00043 		bic	r3, r3, #-2147483648
 532 02e6 06EE903A 		vmov	s13, r3	@ int
 533              	.LBE108:
 534              	.LBE107:
 535              	.LBE111:
 536              	.LBE127:
 537              	.LBE129:
 538              	.LBE148:
 539              		.loc 1 121 0
 540 02ea 76EEE86A 		vsub.f32	s13, s13, s17
 541 02ee 5046     		mov	r0, r10
 542 02f0 66EE876A 		vmul.f32	s13, s13, s14
 543 02f4 B1EE007A 		vmov.f32	s14, #4.0e+0
 544 02f8 66EE876A 		vmul.f32	s13, s13, s14
 545 02fc 26EE897A 		vmul.f32	s14, s13, s18
 546 0300 67EE067A 		vmul.f32	s15, s14, s12
 547 0304 C4ED007A 		vstr.32	s15, [r4]
 548 0308 5C46     		mov	r4, fp
 549              		.loc 1 122 0
 550 030a 1BE0     		b	.L9
 551              	.LVL47:
 552              	.L14:
 553              		.loc 1 125 0
 554 030c D6ED056A 		vldr.32	s13, [r6, #20]
 555 0310 B2EE047A 		vmov.f32	s14, #1.0e+1
 556 0314 F7EE007A 		vmov.f32	s15, #1.0e+0
 557 0318 E6EE877A 		vfma.f32	s15, s13, s14
 558              		.loc 1 126 0
 559 031c 0434     		adds	r4, r4, #4
 560              	.LVL48:
 561              		.loc 1 125 0
 562 031e 0430     		adds	r0, r0, #4
 563              	.LVL49:
 564 0320 10ED017A 		vldr.32	s14, [r0, #-4]
 565 0324 67EE877A 		vmul.f32	s15, s15, s14
 566              	.LVL50:
 567              		.loc 1 126 0
 568 0328 27EEA77A 		vmul.f32	s14, s15, s15
 569 032c 67EE276A 		vmul.f32	s13, s14, s15
 570 0330 B6EE007A 		vmov.f32	s14, #5.0e-1
ARM GAS  C:\msys64\tmp\ccMiE5FV.s 			page 11


 571 0334 27EE667A 		vnmul.f32	s14, s14, s13
 572 0338 F7EE086A 		vmov.f32	s13, #1.5e+0
 573 033c A7EEA67A 		vfma.f32	s14, s15, s13
 574 0340 04ED017A 		vstr.32	s14, [r4, #-4]
 575              	.LVL51:
 576              	.L9:
 577              		.loc 1 107 0 discriminator 2
 578 0344 0137     		adds	r7, r7, #1
 579              	.LVL52:
 580 0346 AFE6     		b	.L22
 581              	.L7:
 582              	.LBE149:
 583              		.loc 1 131 0
 584 0348 03B0     		add	sp, sp, #12
 585              		.cfi_def_cfa_offset 52
 586              		@ sp needed
 587 034a BDEC048B 		vldm	sp!, {d8-d9}
 588              		.cfi_restore 82
 589              		.cfi_restore 83
 590              		.cfi_restore 80
 591              		.cfi_restore 81
 592              		.cfi_def_cfa_offset 36
 593 034e BDE8F08F 		pop	{r4, r5, r6, r7, r8, r9, r10, fp, pc}
 594              	.LVL53:
 595              	.L28:
 596 0352 00BF     		.align	2
 597              	.L27:
 598 0354 00000000 		.word	.LANCHOR0
 599 0358 0000FCC2 		.word	-1023672320
 600 035c F8F59A40 		.word	1083897336
 601 0360 FED2DD41 		.word	1105056510
 602 0364 8DBCBE3F 		.word	1069464717
 603 0368 518CF242 		.word	1123191889
 604 036c 0000004B 		.word	1258291200
 605 0370 00000000 		.word	0
 606 0374 00C079C4 		.word	-998653952
 607 0378 00000000 		.word	.LANCHOR2
 608              		.cfi_endproc
 609              	.LFE321:
 610              		.size	_hook_process, .-_hook_process
 611              		.align	1
 612              		.global	_hook_param
 613              		.thumb
 614              		.thumb_func
 615              		.type	_hook_param, %function
 616              	_hook_param:
 617              	.LFB322:
 618              		.loc 1 135 0
 619              		.cfi_startproc
 620              		@ args = 0, pretend = 0, frame = 0
 621              		@ frame_needed = 0, uses_anonymous_args = 0
 622              	.LVL54:
 623 037c 10B5     		push	{r4, lr}
 624              		.cfi_def_cfa_offset 8
 625              		.cfi_offset 4, -8
 626              		.cfi_offset 14, -4
 627 037e 2DED028B 		vpush.64	{d8}
ARM GAS  C:\msys64\tmp\ccMiE5FV.s 			page 12


 628              		.cfi_def_cfa_offset 16
 629              		.cfi_offset 80, -16
 630              		.cfi_offset 81, -12
 631              		.loc 1 137 0
 632 0382 08EE101A 		vmov	s16, r1	@ int
 633 0386 BAEEE08A 		vcvt.f32.s32	s16, s16, #31
 634              	.LVL55:
 635              		.loc 1 138 0
 636 038a 10B1     		cbz	r0, .L31
 637 038c 0128     		cmp	r0, #1
 638 038e 4AD0     		beq	.L32
 639 0390 67E0     		b	.L29
 640              	.L31:
 641              		.loc 1 141 0
 642 0392 354C     		ldr	r4, .L59
 643              		.loc 1 142 0
 644 0394 E368     		ldr	r3, [r4, #12]
 645              		.loc 1 141 0
 646 0396 84ED058A 		vstr.32	s16, [r4, #20]
 647              		.loc 1 142 0
 648 039a 3BB9     		cbnz	r3, .L33
 649              		.loc 1 144 0
 650 039c F1EE007A 		vmov.f32	s15, #4.0e+0
 651 03a0 B2EE0C7A 		vmov.f32	s14, #1.4e+1
 652 03a4 E8EE077A 		vfma.f32	s15, s16, s14
 653 03a8 C4ED047A 		vstr.32	s15, [r4, #16]
 654              	.L33:
 655              		.loc 1 151 0
 656 03ac FFF7FEFF 		bl	_fx_get_bpm
 657              	.LVL56:
 658              		.loc 1 152 0
 659 03b0 B5EE007A 		vmov.f32	s14, #2.5e-1
 660 03b4 B4EEC78A 		vcmpe.f32	s16, s14
 661 03b8 F1EE10FA 		vmrs	APSR_nzcv, FPSCR
 662              		.loc 1 151 0
 663 03bc 2A4B     		ldr	r3, .L59
 664 03be 2060     		str	r0, [r4]
 665              		.loc 1 152 0
 666 03c0 03D5     		bpl	.L53
 667              		.loc 1 154 0
 668 03c2 4FF07852 		mov	r2, #1040187392
 669 03c6 5A60     		str	r2, [r3, #4]	@ float
 670 03c8 15E0     		b	.L36
 671              	.L53:
 672              		.loc 1 156 0
 673 03ca F6EE007A 		vmov.f32	s15, #5.0e-1
 674 03ce B4EEE78A 		vcmpe.f32	s16, s15
 675 03d2 F1EE10FA 		vmrs	APSR_nzcv, FPSCR
 676 03d6 02D5     		bpl	.L54
 677              		.loc 1 158 0
 678 03d8 83ED017A 		vstr.32	s14, [r3, #4]
 679 03dc 0BE0     		b	.L36
 680              	.L54:
 681              		.loc 1 160 0
 682 03de B6EE087A 		vmov.f32	s14, #7.5e-1
 683 03e2 B4EEC78A 		vcmpe.f32	s16, s14
 684 03e6 F1EE10FA 		vmrs	APSR_nzcv, FPSCR
ARM GAS  C:\msys64\tmp\ccMiE5FV.s 			page 13


 685              		.loc 1 166 0
 686 03ea 56BF     		itet	pl
 687 03ec 4FF07E52 		movpl	r2, #1065353216
 688              		.loc 1 162 0
 689 03f0 C3ED017A 		vstrmi.32	s15, [r3, #4]
 690              		.loc 1 166 0
 691 03f4 5A60     		strpl	r2, [r3, #4]	@ float
 692              	.L36:
 693              		.loc 1 169 0
 694 03f6 07EE900A 		vmov	s15, r0	@ int
 695 03fa 94ED017A 		vldr.32	s14, [r4, #4]
 696 03fe DFED1B6A 		vldr.32	s13, .L59+4
 697              	.LBB150:
 698              	.LBB151:
 699              		.loc 4 103 0
 700 0402 1B4B     		ldr	r3, .L59+8
 701              	.LBE151:
 702              	.LBE150:
 703              		.loc 1 169 0
 704 0404 F8EEE77A 		vcvt.f32.s32	s15, s15
 705 0408 27EE877A 		vmul.f32	s14, s15, s14
 706 040c C6EE877A 		vdiv.f32	s15, s13, s14
 707              	.LBB154:
 708              	.LBB152:
 709              		.loc 4 103 0
 710 0410 9FED187A 		vldr.32	s14, .L59+12
 711              	.LBE152:
 712              	.LBE154:
 713              		.loc 1 169 0
 714 0414 C4ED027A 		vstr.32	s15, [r4, #8]
 715              	.LVL57:
 716              	.LBB155:
 717              	.LBB153:
 718              		.loc 4 103 0
 719 0418 67EE877A 		vmul.f32	s15, s15, s14
 720              	.LVL58:
 721 041c FEEEC07A 		vcvt.s32.f32	s15, s15, #32
 722 0420 C3ED067A 		vstr.32	s15, [r3, #24]	@ int
 723 0424 1DE0     		b	.L29
 724              	.LVL59:
 725              	.L32:
 726              	.LBE153:
 727              	.LBE155:
 728              		.loc 1 174 0
 729 0426 F5EE007A 		vmov.f32	s15, #2.5e-1
 730 042a B4EEE78A 		vcmpe.f32	s16, s15
 731 042e F1EE10FA 		vmrs	APSR_nzcv, FPSCR
 732 0432 0D4B     		ldr	r3, .L59
 733 0434 02D5     		bpl	.L56
 734              		.loc 1 176 0
 735 0436 0022     		movs	r2, #0
 736 0438 DA60     		str	r2, [r3, #12]
 737 043a 12E0     		b	.L29
 738              	.L56:
 739              		.loc 1 178 0
 740 043c F6EE007A 		vmov.f32	s15, #5.0e-1
 741 0440 B4EEE78A 		vcmpe.f32	s16, s15
ARM GAS  C:\msys64\tmp\ccMiE5FV.s 			page 14


 742 0444 F1EE10FA 		vmrs	APSR_nzcv, FPSCR
 743 0448 01D5     		bpl	.L57
 744              		.loc 1 180 0
 745 044a D860     		str	r0, [r3, #12]
 746 044c 09E0     		b	.L29
 747              	.L57:
 748              		.loc 1 182 0
 749 044e F6EE087A 		vmov.f32	s15, #7.5e-1
 750 0452 B4EEE78A 		vcmpe.f32	s16, s15
 751 0456 F1EE10FA 		vmrs	APSR_nzcv, FPSCR
 752              		.loc 1 184 0
 753 045a 4CBF     		ite	mi
 754 045c 0222     		movmi	r2, #2
 755              		.loc 1 188 0
 756 045e 0322     		movpl	r2, #3
 757 0460 DA60     		str	r2, [r3, #12]
 758              	.LVL60:
 759              	.L29:
 760              		.loc 1 194 0
 761 0462 BDEC028B 		vldm	sp!, {d8}
 762              		.cfi_restore 80
 763              		.cfi_restore 81
 764              		.cfi_def_cfa_offset 8
 765              	.LVL61:
 766 0466 10BD     		pop	{r4, pc}
 767              	.L60:
 768              		.align	2
 769              	.L59:
 770 0468 00000000 		.word	.LANCHOR2
 771 046c 00007042 		.word	1114636288
 772 0470 00000000 		.word	.LANCHOR0
 773 0474 3EC3AE37 		.word	934200126
 774              		.cfi_endproc
 775              	.LFE322:
 776              		.size	_hook_param, .-_hook_param
 777              		.section	.text.startup,"ax",%progbits
 778              		.align	1
 779              		.thumb
 780              		.thumb_func
 781              		.type	_GLOBAL__sub_I_s_len, %function
 782              	_GLOBAL__sub_I_s_len:
 783              	.LFB324:
 784              		.loc 1 194 0
 785              		.cfi_startproc
 786              		@ args = 0, pretend = 0, frame = 0
 787              		@ frame_needed = 0, uses_anonymous_args = 0
 788              		@ link register save eliminated.
 789              	.LVL62:
 790              	.LBB163:
 791              	.LBB164:
 792              	.LBB165:
 793              		.loc 2 74 0
 794 0000 064B     		ldr	r3, .L62
 795 0002 0021     		movs	r1, #0
 796 0004 0022     		movs	r2, #0
 797 0006 5960     		str	r1, [r3, #4]	@ float
 798              	.LBE165:
ARM GAS  C:\msys64\tmp\ccMiE5FV.s 			page 15


 799              	.LBE164:
 800              	.LBB167:
 801              	.LBB168:
 802              		.loc 4 69 0
 803 0008 4FF00041 		mov	r1, #-2147483648
 804              	.LBE168:
 805              	.LBE167:
 806              	.LBB170:
 807              	.LBB166:
 808              		.loc 2 74 0
 809 000c 1A60     		str	r2, [r3]
 810 000e 9A60     		str	r2, [r3, #8]
 811 0010 DA60     		str	r2, [r3, #12]
 812 0012 1A61     		str	r2, [r3, #16]
 813              	.LVL63:
 814              	.LBE166:
 815              	.LBE170:
 816              	.LBB171:
 817              	.LBB169:
 818              		.loc 4 69 0
 819 0014 5961     		str	r1, [r3, #20]
 820 0016 9A61     		str	r2, [r3, #24]
 821              	.LVL64:
 822 0018 7047     		bx	lr
 823              	.L63:
 824 001a 00BF     		.align	2
 825              	.L62:
 826 001c 00000000 		.word	.LANCHOR0
 827              	.LBE169:
 828              	.LBE171:
 829              	.LBE163:
 830              		.cfi_endproc
 831              	.LFE324:
 832              		.size	_GLOBAL__sub_I_s_len, .-_GLOBAL__sub_I_s_len
 833              		.section	.init_array,"aw",%init_array
 834              		.align	2
 835 0000 00000000 		.word	_GLOBAL__sub_I_s_len(target1)
 836              		.global	lfo_speed
 837              		.global	bpm
 838              		.global	releaseCount
 839              		.global	trem_rate
 840              		.global	thresh
 841              		.global	s_len
 842              		.data
 843              		.align	2
 844              		.set	.LANCHOR2,. + 0
 845              		.type	bpm, %object
 846              		.size	bpm, 4
 847              	bpm:
 848 0000 5A000000 		.word	90
 849              		.type	trem_rate, %object
 850              		.size	trem_rate, 4
 851              	trem_rate:
 852 0004 0000003F 		.word	1056964608
 853              		.type	lfo_speed, %object
 854              		.size	lfo_speed, 4
 855              	lfo_speed:
ARM GAS  C:\msys64\tmp\ccMiE5FV.s 			page 16


 856 0008 0000003F 		.word	1056964608
 857              		.type	_ZL4type, %object
 858              		.size	_ZL4type, 4
 859              	_ZL4type:
 860 000c 01000000 		.word	1
 861              		.type	_ZL8bit_rate, %object
 862              		.size	_ZL8bit_rate, 4
 863              	_ZL8bit_rate:
 864 0010 00008041 		.word	1098907648
 865              		.type	_ZL5fxamt, %object
 866              		.size	_ZL5fxamt, 4
 867              	_ZL5fxamt:
 868 0014 0000003F 		.word	1056964608
 869              		.bss
 870              		.align	2
 871              		.set	.LANCHOR0,. + 0
 872              		.type	_ZL7s_delay, %object
 873              		.size	_ZL7s_delay, 20
 874              	_ZL7s_delay:
 875 0000 00000000 		.space	20
 875      00000000 
 875      00000000 
 875      00000000 
 875      00000000 
 876              		.type	_ZL5s_lfo, %object
 877              		.size	_ZL5s_lfo, 8
 878              	_ZL5s_lfo:
 879 0014 00000000 		.space	8
 879      00000000 
 880              		.type	thresh, %object
 881              		.size	thresh, 4
 882              	thresh:
 883 001c 00000000 		.space	4
 884              		.type	releaseCount, %object
 885              		.size	releaseCount, 4
 886              	releaseCount:
 887 0020 00000000 		.space	4
 888              		.type	s_len, %object
 889              		.size	s_len, 4
 890              	s_len:
 891 0024 00000000 		.space	4
 892              		.section	.sdram,"aw",%progbits
 893              		.align	2
 894              		.set	.LANCHOR1,. + 0
 895              		.type	_ZL11s_delay_ram, %object
 896              		.size	_ZL11s_delay_ram, 192000
 897              	_ZL11s_delay_ram:
 898 0000 00000000 		.space	192000
 898      00000000 
 898      00000000 
 898      00000000 
 898      00000000 
 899              		.text
 900              	.Letext0:
 901              		.file 6 "c:\\users\\bradl\\desktop\\code projects\\korgfx\\korgdelayfxset\\delays\\tools\\gcc\\gcc
 902              		.file 7 "c:\\users\\bradl\\desktop\\code projects\\korgfx\\korgdelayfxset\\delays\\tools\\gcc\\gcc
 903              		.file 8 "c:\\users\\bradl\\desktop\\code projects\\korgfx\\korgdelayfxset\\delays\\tools\\gcc\\gcc
ARM GAS  C:\msys64\tmp\ccMiE5FV.s 			page 17


 904              		.file 9 "../../ext/CMSIS/CMSIS/Include/arm_math.h"
 905              		.file 10 "../inc/utils/int_math.h"
 906              		.file 11 "./inc/fx_api.h"
 907              		.file 12 "./inc/osc_api.h"
 908              		.file 13 "c:\\users\\bradl\\desktop\\code projects\\korgfx\\korgdelayfxset\\delays\\tools\\gcc\\gc
 909              		.file 14 "./inc/userprg.h"
 910              		.section	.debug_info,"",%progbits
 911              	.Ldebug_info0:
 912 0000 C3100000 		.4byte	0x10c3
 913 0004 0400     		.2byte	0x4
 914 0006 00000000 		.4byte	.Ldebug_abbrev0
 915 000a 04       		.byte	0x4
 916 000b 01       		.uleb128 0x1
 917 000c 88000000 		.4byte	.LASF151
 918 0010 04       		.byte	0x4
 919 0011 08050000 		.4byte	.LASF152
 920 0015 29090000 		.4byte	.LASF153
 921 0019 58010000 		.4byte	.Ldebug_ranges0+0x158
 922 001d 00000000 		.4byte	0
 923 0021 00000000 		.4byte	.Ldebug_line0
 924 0025 02       		.uleb128 0x2
 925 0026 04       		.byte	0x4
 926 0027 04       		.byte	0x4
 927 0028 56020000 		.4byte	.LASF0
 928 002c 03       		.uleb128 0x3
 929 002d 04       		.byte	0x4
 930 002e 05       		.byte	0x5
 931 002f 696E7400 		.ascii	"int\000"
 932 0033 02       		.uleb128 0x2
 933 0034 01       		.byte	0x1
 934 0035 06       		.byte	0x6
 935 0036 1D090000 		.4byte	.LASF1
 936 003a 04       		.uleb128 0x4
 937 003b 75070000 		.4byte	.LASF5
 938 003f 06       		.byte	0x6
 939 0040 1D       		.byte	0x1d
 940 0041 45000000 		.4byte	0x45
 941 0045 02       		.uleb128 0x2
 942 0046 01       		.byte	0x1
 943 0047 08       		.byte	0x8
 944 0048 58080000 		.4byte	.LASF2
 945 004c 02       		.uleb128 0x2
 946 004d 02       		.byte	0x2
 947 004e 05       		.byte	0x5
 948 004f 79060000 		.4byte	.LASF3
 949 0053 02       		.uleb128 0x2
 950 0054 02       		.byte	0x2
 951 0055 07       		.byte	0x7
 952 0056 89090000 		.4byte	.LASF4
 953 005a 04       		.uleb128 0x4
 954 005b C2010000 		.4byte	.LASF6
 955 005f 06       		.byte	0x6
 956 0060 3F       		.byte	0x3f
 957 0061 65000000 		.4byte	0x65
 958 0065 02       		.uleb128 0x2
 959 0066 04       		.byte	0x4
 960 0067 05       		.byte	0x5
ARM GAS  C:\msys64\tmp\ccMiE5FV.s 			page 18


 961 0068 B8060000 		.4byte	.LASF7
 962 006c 04       		.uleb128 0x4
 963 006d 66080000 		.4byte	.LASF8
 964 0071 06       		.byte	0x6
 965 0072 41       		.byte	0x41
 966 0073 77000000 		.4byte	0x77
 967 0077 02       		.uleb128 0x2
 968 0078 04       		.byte	0x4
 969 0079 07       		.byte	0x7
 970 007a D9070000 		.4byte	.LASF9
 971 007e 02       		.uleb128 0x2
 972 007f 08       		.byte	0x8
 973 0080 05       		.byte	0x5
 974 0081 E4040000 		.4byte	.LASF10
 975 0085 02       		.uleb128 0x2
 976 0086 08       		.byte	0x8
 977 0087 07       		.byte	0x7
 978 0088 A6020000 		.4byte	.LASF11
 979 008c 02       		.uleb128 0x2
 980 008d 04       		.byte	0x4
 981 008e 07       		.byte	0x7
 982 008f A0010000 		.4byte	.LASF12
 983 0093 04       		.uleb128 0x4
 984 0094 61040000 		.4byte	.LASF13
 985 0098 07       		.byte	0x7
 986 0099 18       		.byte	0x18
 987 009a 3A000000 		.4byte	0x3a
 988 009e 04       		.uleb128 0x4
 989 009f FF070000 		.4byte	.LASF14
 990 00a3 07       		.byte	0x7
 991 00a4 2C       		.byte	0x2c
 992 00a5 5A000000 		.4byte	0x5a
 993 00a9 04       		.uleb128 0x4
 994 00aa 01020000 		.4byte	.LASF15
 995 00ae 07       		.byte	0x7
 996 00af 30       		.byte	0x30
 997 00b0 6C000000 		.4byte	0x6c
 998 00b4 04       		.uleb128 0x4
 999 00b5 3D030000 		.4byte	.LASF16
 1000 00b9 08       		.byte	0x8
 1001 00ba D8       		.byte	0xd8
 1002 00bb 8C000000 		.4byte	0x8c
 1003 00bf 02       		.uleb128 0x2
 1004 00c0 08       		.byte	0x8
 1005 00c1 04       		.byte	0x4
 1006 00c2 F3050000 		.4byte	.LASF17
 1007 00c6 05       		.uleb128 0x5
 1008 00c7 AC080000 		.4byte	.LASF154
 1009 00cb 02       		.uleb128 0x2
 1010 00cc 04       		.byte	0x4
 1011 00cd 07       		.byte	0x7
 1012 00ce B3070000 		.4byte	.LASF18
 1013 00d2 06       		.uleb128 0x6
 1014 00d3 04       		.byte	0x4
 1015 00d4 02       		.uleb128 0x2
 1016 00d5 01       		.byte	0x1
 1017 00d6 08       		.byte	0x8
ARM GAS  C:\msys64\tmp\ccMiE5FV.s 			page 19


 1018 00d7 E0030000 		.4byte	.LASF19
 1019 00db 02       		.uleb128 0x2
 1020 00dc 08       		.byte	0x8
 1021 00dd 04       		.byte	0x4
 1022 00de DA090000 		.4byte	.LASF20
 1023 00e2 07       		.uleb128 0x7
 1024 00e3 04       		.byte	0x4
 1025 00e4 05       		.byte	0x5
 1026 00e5 A1       		.byte	0xa1
 1027 00e6 C0050000 		.4byte	.LASF155
 1028 00ea 01010000 		.4byte	0x101
 1029 00ee 08       		.uleb128 0x8
 1030 00ef 6600     		.ascii	"f\000"
 1031 00f1 05       		.byte	0x5
 1032 00f2 A2       		.byte	0xa2
 1033 00f3 25000000 		.4byte	0x25
 1034 00f7 08       		.uleb128 0x8
 1035 00f8 6900     		.ascii	"i\000"
 1036 00fa 05       		.byte	0x5
 1037 00fb A3       		.byte	0xa3
 1038 00fc A9000000 		.4byte	0xa9
 1039 0100 00       		.byte	0
 1040 0101 04       		.uleb128 0x4
 1041 0102 00000000 		.4byte	.LASF21
 1042 0106 05       		.byte	0x5
 1043 0107 A4       		.byte	0xa4
 1044 0108 E2000000 		.4byte	0xe2
 1045 010c 09       		.uleb128 0x9
 1046 010d AD070000 		.4byte	.LASF22
 1047 0111 09       		.byte	0x9
 1048 0112 8D01     		.2byte	0x18d
 1049 0114 9E000000 		.4byte	0x9e
 1050 0118 0A       		.uleb128 0xa
 1051 0119 01       		.byte	0x1
 1052 011a 45000000 		.4byte	0x45
 1053 011e 0E       		.byte	0xe
 1054 011f 35       		.byte	0x35
 1055 0120 49010000 		.4byte	0x149
 1056 0124 0B       		.uleb128 0xb
 1057 0125 8F080000 		.4byte	.LASF23
 1058 0129 00       		.byte	0
 1059 012a 0B       		.uleb128 0xb
 1060 012b 12070000 		.4byte	.LASF24
 1061 012f 01       		.byte	0x1
 1062 0130 0B       		.uleb128 0xb
 1063 0131 6B020000 		.4byte	.LASF25
 1064 0135 02       		.byte	0x2
 1065 0136 0B       		.uleb128 0xb
 1066 0137 44030000 		.4byte	.LASF26
 1067 013b 03       		.byte	0x3
 1068 013c 0B       		.uleb128 0xb
 1069 013d E1050000 		.4byte	.LASF27
 1070 0141 04       		.byte	0x4
 1071 0142 0B       		.uleb128 0xb
 1072 0143 47050000 		.4byte	.LASF28
 1073 0147 05       		.byte	0x5
 1074 0148 00       		.byte	0
ARM GAS  C:\msys64\tmp\ccMiE5FV.s 			page 20


 1075 0149 0C       		.uleb128 0xc
 1076 014a 04       		.byte	0x4
 1077 014b 4F010000 		.4byte	0x14f
 1078 014f 0D       		.uleb128 0xd
 1079 0150 25000000 		.4byte	0x25
 1080 0154 0C       		.uleb128 0xc
 1081 0155 04       		.byte	0x4
 1082 0156 25000000 		.4byte	0x25
 1083 015a 0E       		.uleb128 0xe
 1084 015b 64737000 		.ascii	"dsp\000"
 1085 015f 04       		.byte	0x4
 1086 0160 32       		.byte	0x32
 1087 0161 5E050000 		.4byte	0x55e
 1088 0165 0F       		.uleb128 0xf
 1089 0166 370A0000 		.4byte	.LASF38
 1090 016a 08       		.byte	0x8
 1091 016b 04       		.byte	0x4
 1092 016c 37       		.byte	0x37
 1093 016d 13040000 		.4byte	0x413
 1094 0171 10       		.uleb128 0x10
 1095 0172 8E030000 		.4byte	.LASF29
 1096 0176 04       		.byte	0x4
 1097 0177 2A01     		.2byte	0x12a
 1098 0179 0C010000 		.4byte	0x10c
 1099 017d 00       		.byte	0
 1100 017e 11       		.uleb128 0x11
 1101 017f 773000   		.ascii	"w0\000"
 1102 0182 04       		.byte	0x4
 1103 0183 2B01     		.2byte	0x12b
 1104 0185 0C010000 		.4byte	0x10c
 1105 0189 04       		.byte	0x4
 1106 018a 12       		.uleb128 0x12
 1107 018b 370A0000 		.4byte	.LASF38
 1108 018f 04       		.byte	0x4
 1109 0190 44       		.byte	0x44
 1110 0191 78030000 		.4byte	.LASF40
 1111 0195 5E050000 		.4byte	0x55e
 1112 0199 A1010000 		.4byte	0x1a1
 1113 019d A7010000 		.4byte	0x1a7
 1114 01a1 13       		.uleb128 0x13
 1115 01a2 5E050000 		.4byte	0x55e
 1116 01a6 00       		.byte	0
 1117 01a7 14       		.uleb128 0x14
 1118 01a8 31070000 		.4byte	.LASF30
 1119 01ac 04       		.byte	0x4
 1120 01ad 50       		.byte	0x50
 1121 01ae C7060000 		.4byte	.LASF32
 1122 01b2 BA010000 		.4byte	0x1ba
 1123 01b6 C0010000 		.4byte	0x1c0
 1124 01ba 13       		.uleb128 0x13
 1125 01bb 5E050000 		.4byte	0x55e
 1126 01bf 00       		.byte	0
 1127 01c0 14       		.uleb128 0x14
 1128 01c1 6A070000 		.4byte	.LASF31
 1129 01c5 04       		.byte	0x4
 1130 01c6 59       		.byte	0x59
 1131 01c7 8C020000 		.4byte	.LASF33
ARM GAS  C:\msys64\tmp\ccMiE5FV.s 			page 21


 1132 01cb D3010000 		.4byte	0x1d3
 1133 01cf D9010000 		.4byte	0x1d9
 1134 01d3 13       		.uleb128 0x13
 1135 01d4 5E050000 		.4byte	0x55e
 1136 01d8 00       		.byte	0
 1137 01d9 14       		.uleb128 0x14
 1138 01da C1060000 		.4byte	.LASF34
 1139 01de 04       		.byte	0x4
 1140 01df 65       		.byte	0x65
 1141 01e0 76040000 		.4byte	.LASF35
 1142 01e4 EC010000 		.4byte	0x1ec
 1143 01e8 FC010000 		.4byte	0x1fc
 1144 01ec 13       		.uleb128 0x13
 1145 01ed 5E050000 		.4byte	0x55e
 1146 01f1 15       		.uleb128 0x15
 1147 01f2 25000000 		.4byte	0x25
 1148 01f6 15       		.uleb128 0x15
 1149 01f7 25000000 		.4byte	0x25
 1150 01fb 00       		.byte	0
 1151 01fc 14       		.uleb128 0x14
 1152 01fd F9070000 		.4byte	.LASF36
 1153 0201 04       		.byte	0x4
 1154 0202 70       		.byte	0x70
 1155 0203 C6030000 		.4byte	.LASF37
 1156 0207 0F020000 		.4byte	0x20f
 1157 020b 1A020000 		.4byte	0x21a
 1158 020f 13       		.uleb128 0x13
 1159 0210 5E050000 		.4byte	0x55e
 1160 0214 15       		.uleb128 0x15
 1161 0215 25000000 		.4byte	0x25
 1162 0219 00       		.byte	0
 1163 021a 12       		.uleb128 0x12
 1164 021b 58030000 		.4byte	.LASF39
 1165 021f 04       		.byte	0x4
 1166 0220 7B       		.byte	0x7b
 1167 0221 C7020000 		.4byte	.LASF41
 1168 0225 25000000 		.4byte	0x25
 1169 0229 31020000 		.4byte	0x231
 1170 022d 37020000 		.4byte	0x237
 1171 0231 13       		.uleb128 0x13
 1172 0232 5E050000 		.4byte	0x55e
 1173 0236 00       		.byte	0
 1174 0237 12       		.uleb128 0x12
 1175 0238 37070000 		.4byte	.LASF42
 1176 023c 04       		.byte	0x4
 1177 023d 85       		.byte	0x85
 1178 023e 14020000 		.4byte	.LASF43
 1179 0242 25000000 		.4byte	0x25
 1180 0246 4E020000 		.4byte	0x24e
 1181 024a 54020000 		.4byte	0x254
 1182 024e 13       		.uleb128 0x13
 1183 024f 5E050000 		.4byte	0x55e
 1184 0253 00       		.byte	0
 1185 0254 12       		.uleb128 0x12
 1186 0255 31030000 		.4byte	.LASF44
 1187 0259 04       		.byte	0x4
 1188 025a 91       		.byte	0x91
ARM GAS  C:\msys64\tmp\ccMiE5FV.s 			page 22


 1189 025b 9F050000 		.4byte	.LASF45
 1190 025f 25000000 		.4byte	0x25
 1191 0263 6B020000 		.4byte	0x26b
 1192 0267 76020000 		.4byte	0x276
 1193 026b 13       		.uleb128 0x13
 1194 026c 5E050000 		.4byte	0x55e
 1195 0270 15       		.uleb128 0x15
 1196 0271 25000000 		.4byte	0x25
 1197 0275 00       		.byte	0
 1198 0276 12       		.uleb128 0x12
 1199 0277 96070000 		.4byte	.LASF46
 1200 027b 04       		.byte	0x4
 1201 027c 9D       		.byte	0x9d
 1202 027d 91040000 		.4byte	.LASF47
 1203 0281 25000000 		.4byte	0x25
 1204 0285 8D020000 		.4byte	0x28d
 1205 0289 98020000 		.4byte	0x298
 1206 028d 13       		.uleb128 0x13
 1207 028e 5E050000 		.4byte	0x55e
 1208 0292 15       		.uleb128 0x15
 1209 0293 25000000 		.4byte	0x25
 1210 0297 00       		.byte	0
 1211 0298 12       		.uleb128 0x12
 1212 0299 2E060000 		.4byte	.LASF48
 1213 029d 04       		.byte	0x4
 1214 029e A8       		.byte	0xa8
 1215 029f 5B000000 		.4byte	.LASF49
 1216 02a3 25000000 		.4byte	0x25
 1217 02a7 AF020000 		.4byte	0x2af
 1218 02ab B5020000 		.4byte	0x2b5
 1219 02af 13       		.uleb128 0x13
 1220 02b0 5E050000 		.4byte	0x55e
 1221 02b4 00       		.byte	0
 1222 02b5 12       		.uleb128 0x12
 1223 02b6 010A0000 		.4byte	.LASF50
 1224 02ba 04       		.byte	0x4
 1225 02bb B1       		.byte	0xb1
 1226 02bc 20000000 		.4byte	.LASF51
 1227 02c0 25000000 		.4byte	0x25
 1228 02c4 CC020000 		.4byte	0x2cc
 1229 02c8 D2020000 		.4byte	0x2d2
 1230 02cc 13       		.uleb128 0x13
 1231 02cd 5E050000 		.4byte	0x55e
 1232 02d1 00       		.byte	0
 1233 02d2 12       		.uleb128 0x12
 1234 02d3 F0030000 		.4byte	.LASF52
 1235 02d7 04       		.byte	0x4
 1236 02d8 BC       		.byte	0xbc
 1237 02d9 40070000 		.4byte	.LASF53
 1238 02dd 25000000 		.4byte	0x25
 1239 02e1 E9020000 		.4byte	0x2e9
 1240 02e5 F4020000 		.4byte	0x2f4
 1241 02e9 13       		.uleb128 0x13
 1242 02ea 5E050000 		.4byte	0x55e
 1243 02ee 15       		.uleb128 0x15
 1244 02ef 25000000 		.4byte	0x25
 1245 02f3 00       		.byte	0
ARM GAS  C:\msys64\tmp\ccMiE5FV.s 			page 23


 1246 02f4 12       		.uleb128 0x12
 1247 02f5 71080000 		.4byte	.LASF54
 1248 02f9 04       		.byte	0x4
 1249 02fa C8       		.byte	0xc8
 1250 02fb 48060000 		.4byte	.LASF55
 1251 02ff 25000000 		.4byte	0x25
 1252 0303 0B030000 		.4byte	0x30b
 1253 0307 16030000 		.4byte	0x316
 1254 030b 13       		.uleb128 0x13
 1255 030c 5E050000 		.4byte	0x55e
 1256 0310 15       		.uleb128 0x15
 1257 0311 25000000 		.4byte	0x25
 1258 0315 00       		.byte	0
 1259 0316 12       		.uleb128 0x12
 1260 0317 FA010000 		.4byte	.LASF56
 1261 031b 04       		.byte	0x4
 1262 031c D3       		.byte	0xd3
 1263 031d 64050000 		.4byte	.LASF57
 1264 0321 25000000 		.4byte	0x25
 1265 0325 2D030000 		.4byte	0x32d
 1266 0329 33030000 		.4byte	0x333
 1267 032d 13       		.uleb128 0x13
 1268 032e 5E050000 		.4byte	0x55e
 1269 0332 00       		.byte	0
 1270 0333 12       		.uleb128 0x12
 1271 0334 70030000 		.4byte	.LASF58
 1272 0338 04       		.byte	0x4
 1273 0339 DC       		.byte	0xdc
 1274 033a 140A0000 		.4byte	.LASF59
 1275 033e 25000000 		.4byte	0x25
 1276 0342 4A030000 		.4byte	0x34a
 1277 0346 50030000 		.4byte	0x350
 1278 034a 13       		.uleb128 0x13
 1279 034b 5E050000 		.4byte	0x55e
 1280 034f 00       		.byte	0
 1281 0350 12       		.uleb128 0x12
 1282 0351 FD080000 		.4byte	.LASF60
 1283 0355 04       		.byte	0x4
 1284 0356 E7       		.byte	0xe7
 1285 0357 E1090000 		.4byte	.LASF61
 1286 035b 25000000 		.4byte	0x25
 1287 035f 67030000 		.4byte	0x367
 1288 0363 72030000 		.4byte	0x372
 1289 0367 13       		.uleb128 0x13
 1290 0368 5E050000 		.4byte	0x55e
 1291 036c 15       		.uleb128 0x15
 1292 036d 25000000 		.4byte	0x25
 1293 0371 00       		.byte	0
 1294 0372 12       		.uleb128 0x12
 1295 0373 99030000 		.4byte	.LASF62
 1296 0377 04       		.byte	0x4
 1297 0378 F3       		.byte	0xf3
 1298 0379 A5030000 		.4byte	.LASF63
 1299 037d 25000000 		.4byte	0x25
 1300 0381 89030000 		.4byte	0x389
 1301 0385 94030000 		.4byte	0x394
 1302 0389 13       		.uleb128 0x13
ARM GAS  C:\msys64\tmp\ccMiE5FV.s 			page 24


 1303 038a 5E050000 		.4byte	0x55e
 1304 038e 15       		.uleb128 0x15
 1305 038f 25000000 		.4byte	0x25
 1306 0393 00       		.byte	0
 1307 0394 16       		.uleb128 0x16
 1308 0395 BD020000 		.4byte	.LASF64
 1309 0399 04       		.byte	0x4
 1310 039a 0001     		.2byte	0x100
 1311 039c B5090000 		.4byte	.LASF66
 1312 03a0 25000000 		.4byte	0x25
 1313 03a4 AC030000 		.4byte	0x3ac
 1314 03a8 B2030000 		.4byte	0x3b2
 1315 03ac 13       		.uleb128 0x13
 1316 03ad 5E050000 		.4byte	0x55e
 1317 03b1 00       		.byte	0
 1318 03b2 16       		.uleb128 0x16
 1319 03b3 BE080000 		.4byte	.LASF65
 1320 03b7 04       		.byte	0x4
 1321 03b8 0901     		.2byte	0x109
 1322 03ba 20050000 		.4byte	.LASF67
 1323 03be 25000000 		.4byte	0x25
 1324 03c2 CA030000 		.4byte	0x3ca
 1325 03c6 D0030000 		.4byte	0x3d0
 1326 03ca 13       		.uleb128 0x13
 1327 03cb 5E050000 		.4byte	0x55e
 1328 03cf 00       		.byte	0
 1329 03d0 16       		.uleb128 0x16
 1330 03d1 48020000 		.4byte	.LASF68
 1331 03d5 04       		.byte	0x4
 1332 03d6 1401     		.2byte	0x114
 1333 03d8 1C040000 		.4byte	.LASF69
 1334 03dc 25000000 		.4byte	0x25
 1335 03e0 E8030000 		.4byte	0x3e8
 1336 03e4 F3030000 		.4byte	0x3f3
 1337 03e8 13       		.uleb128 0x13
 1338 03e9 5E050000 		.4byte	0x55e
 1339 03ed 15       		.uleb128 0x15
 1340 03ee 25000000 		.4byte	0x25
 1341 03f2 00       		.byte	0
 1342 03f3 17       		.uleb128 0x17
 1343 03f4 07080000 		.4byte	.LASF70
 1344 03f8 04       		.byte	0x4
 1345 03f9 2001     		.2byte	0x120
 1346 03fb C9080000 		.4byte	.LASF156
 1347 03ff 25000000 		.4byte	0x25
 1348 0403 07040000 		.4byte	0x407
 1349 0407 13       		.uleb128 0x13
 1350 0408 5E050000 		.4byte	0x55e
 1351 040c 15       		.uleb128 0x15
 1352 040d 25000000 		.4byte	0x25
 1353 0411 00       		.byte	0
 1354 0412 00       		.byte	0
 1355 0413 18       		.uleb128 0x18
 1356 0414 A3070000 		.4byte	.LASF76
 1357 0418 14       		.byte	0x14
 1358 0419 02       		.byte	0x2
 1359 041a 38       		.byte	0x38
ARM GAS  C:\msys64\tmp\ccMiE5FV.s 			page 25


 1360 041b 19       		.uleb128 0x19
 1361 041c 1A050000 		.4byte	.LASF71
 1362 0420 02       		.byte	0x2
 1363 0421 B0       		.byte	0xb0
 1364 0422 54010000 		.4byte	0x154
 1365 0426 00       		.byte	0
 1366 0427 19       		.uleb128 0x19
 1367 0428 D3090000 		.4byte	.LASF72
 1368 042c 02       		.byte	0x2
 1369 042d B1       		.byte	0xb1
 1370 042e 25000000 		.4byte	0x25
 1371 0432 04       		.byte	0x4
 1372 0433 19       		.uleb128 0x19
 1373 0434 C7050000 		.4byte	.LASF73
 1374 0438 02       		.byte	0x2
 1375 0439 B2       		.byte	0xb2
 1376 043a B4000000 		.4byte	0xb4
 1377 043e 08       		.byte	0x8
 1378 043f 19       		.uleb128 0x19
 1379 0440 F8040000 		.4byte	.LASF74
 1380 0444 02       		.byte	0x2
 1381 0445 B3       		.byte	0xb3
 1382 0446 B4000000 		.4byte	0xb4
 1383 044a 0C       		.byte	0xc
 1384 044b 19       		.uleb128 0x19
 1385 044c FE040000 		.4byte	.LASF75
 1386 0450 02       		.byte	0x2
 1387 0451 B4       		.byte	0xb4
 1388 0452 A9000000 		.4byte	0xa9
 1389 0456 10       		.byte	0x10
 1390 0457 12       		.uleb128 0x12
 1391 0458 A3070000 		.4byte	.LASF76
 1392 045c 02       		.byte	0x2
 1393 045d 45       		.byte	0x45
 1394 045e 7F050000 		.4byte	.LASF77
 1395 0462 64050000 		.4byte	0x564
 1396 0466 6E040000 		.4byte	0x46e
 1397 046a 74040000 		.4byte	0x474
 1398 046e 13       		.uleb128 0x13
 1399 046f 64050000 		.4byte	0x564
 1400 0473 00       		.byte	0
 1401 0474 12       		.uleb128 0x12
 1402 0475 A3070000 		.4byte	.LASF76
 1403 0479 02       		.byte	0x2
 1404 047a 54       		.byte	0x54
 1405 047b CC040000 		.4byte	.LASF78
 1406 047f 64050000 		.4byte	0x564
 1407 0483 8B040000 		.4byte	0x48b
 1408 0487 9B040000 		.4byte	0x49b
 1409 048b 13       		.uleb128 0x13
 1410 048c 64050000 		.4byte	0x564
 1411 0490 15       		.uleb128 0x15
 1412 0491 54010000 		.4byte	0x154
 1413 0495 15       		.uleb128 0x15
 1414 0496 B4000000 		.4byte	0xb4
 1415 049a 00       		.byte	0
 1416 049b 14       		.uleb128 0x14
ARM GAS  C:\msys64\tmp\ccMiE5FV.s 			page 26


 1417 049c EA020000 		.4byte	.LASF79
 1418 04a0 02       		.byte	0x2
 1419 04a1 64       		.byte	0x64
 1420 04a2 2C080000 		.4byte	.LASF80
 1421 04a6 AE040000 		.4byte	0x4ae
 1422 04aa B4040000 		.4byte	0x4b4
 1423 04ae 13       		.uleb128 0x13
 1424 04af 64050000 		.4byte	0x564
 1425 04b3 00       		.byte	0
 1426 04b4 14       		.uleb128 0x14
 1427 04b5 18030000 		.4byte	.LASF81
 1428 04b9 02       		.byte	0x2
 1429 04ba 71       		.byte	0x71
 1430 04bb F2060000 		.4byte	.LASF82
 1431 04bf C7040000 		.4byte	0x4c7
 1432 04c3 D7040000 		.4byte	0x4d7
 1433 04c7 13       		.uleb128 0x13
 1434 04c8 64050000 		.4byte	0x564
 1435 04cc 15       		.uleb128 0x15
 1436 04cd 54010000 		.4byte	0x154
 1437 04d1 15       		.uleb128 0x15
 1438 04d2 B4000000 		.4byte	0xb4
 1439 04d6 00       		.byte	0
 1440 04d7 14       		.uleb128 0x14
 1441 04d8 F2040000 		.4byte	.LASF83
 1442 04dc 02       		.byte	0x2
 1443 04dd 7E       		.byte	0x7e
 1444 04de 06000000 		.4byte	.LASF84
 1445 04e2 EA040000 		.4byte	0x4ea
 1446 04e6 F5040000 		.4byte	0x4f5
 1447 04ea 13       		.uleb128 0x13
 1448 04eb 64050000 		.4byte	0x564
 1449 04ef 15       		.uleb128 0x15
 1450 04f0 25000000 		.4byte	0x25
 1451 04f4 00       		.byte	0
 1452 04f5 12       		.uleb128 0x12
 1453 04f6 7F070000 		.4byte	.LASF85
 1454 04fa 02       		.byte	0x2
 1455 04fb 89       		.byte	0x89
 1456 04fc 9C090000 		.4byte	.LASF86
 1457 0500 25000000 		.4byte	0x25
 1458 0504 0C050000 		.4byte	0x50c
 1459 0508 17050000 		.4byte	0x517
 1460 050c 13       		.uleb128 0x13
 1461 050d 64050000 		.4byte	0x564
 1462 0511 15       		.uleb128 0x15
 1463 0512 A9000000 		.4byte	0xa9
 1464 0516 00       		.byte	0
 1465 0517 12       		.uleb128 0x12
 1466 0518 AD010000 		.4byte	.LASF87
 1467 051c 02       		.byte	0x2
 1468 051d 94       		.byte	0x94
 1469 051e BC070000 		.4byte	.LASF88
 1470 0522 25000000 		.4byte	0x25
 1471 0526 2E050000 		.4byte	0x52e
 1472 052a 39050000 		.4byte	0x539
 1473 052e 13       		.uleb128 0x13
ARM GAS  C:\msys64\tmp\ccMiE5FV.s 			page 27


 1474 052f 64050000 		.4byte	0x564
 1475 0533 15       		.uleb128 0x15
 1476 0534 25000000 		.4byte	0x25
 1477 0538 00       		.byte	0
 1478 0539 1A       		.uleb128 0x1a
 1479 053a 5A050000 		.4byte	.LASF89
 1480 053e 02       		.byte	0x2
 1481 053f A4       		.byte	0xa4
 1482 0540 F0020000 		.4byte	.LASF90
 1483 0544 25000000 		.4byte	0x25
 1484 0548 4C050000 		.4byte	0x54c
 1485 054c 13       		.uleb128 0x13
 1486 054d 64050000 		.4byte	0x564
 1487 0551 15       		.uleb128 0x15
 1488 0552 A9000000 		.4byte	0xa9
 1489 0556 15       		.uleb128 0x15
 1490 0557 25000000 		.4byte	0x25
 1491 055b 00       		.byte	0
 1492 055c 00       		.byte	0
 1493 055d 00       		.byte	0
 1494 055e 0C       		.uleb128 0xc
 1495 055f 04       		.byte	0x4
 1496 0560 65010000 		.4byte	0x165
 1497 0564 0C       		.uleb128 0xc
 1498 0565 04       		.byte	0x4
 1499 0566 13040000 		.4byte	0x413
 1500 056a 1B       		.uleb128 0x1b
 1501 056b 12040000 		.4byte	.LASF92
 1502 056f 05       		.byte	0x5
 1503 0570 A702     		.2byte	0x2a7
 1504 0572 25000000 		.4byte	0x25
 1505 0576 03       		.byte	0x3
 1506 0577 3C060000 		.4byte	0x63c
 1507 057b 1C       		.uleb128 0x1c
 1508 057c 7000     		.ascii	"p\000"
 1509 057e 05       		.byte	0x5
 1510 057f A702     		.2byte	0x2a7
 1511 0581 25000000 		.4byte	0x25
 1512 0585 1D       		.uleb128 0x1d
 1513 0586 ED080000 		.4byte	.LASF91
 1514 058a 05       		.byte	0x5
 1515 058b A802     		.2byte	0x2a8
 1516 058d 25000000 		.4byte	0x25
 1517 0591 1E       		.uleb128 0x1e
 1518 0592 7700     		.ascii	"w\000"
 1519 0594 05       		.byte	0x5
 1520 0595 A902     		.2byte	0x2a9
 1521 0597 2C000000 		.4byte	0x2c
 1522 059b 1E       		.uleb128 0x1e
 1523 059c 7A00     		.ascii	"z\000"
 1524 059e 05       		.byte	0x5
 1525 059f AA02     		.2byte	0x2aa
 1526 05a1 25000000 		.4byte	0x25
 1527 05a5 1F       		.uleb128 0x1f
 1528 05a6 04       		.byte	0x4
 1529 05a7 05       		.byte	0x5
 1530 05a8 AB02     		.2byte	0x2ab
ARM GAS  C:\msys64\tmp\ccMiE5FV.s 			page 28


 1531 05aa 31060000 		.4byte	0x631
 1532 05ae 20       		.uleb128 0x20
 1533 05af 6900     		.ascii	"i\000"
 1534 05b1 05       		.byte	0x5
 1535 05b2 AB02     		.2byte	0x2ab
 1536 05b4 A9000000 		.4byte	0xa9
 1537 05b8 20       		.uleb128 0x20
 1538 05b9 6600     		.ascii	"f\000"
 1539 05bb 05       		.byte	0x5
 1540 05bc AB02     		.2byte	0x2ab
 1541 05be 25000000 		.4byte	0x25
 1542 05c2 21       		.uleb128 0x21
 1543 05c3 D2000000 		.4byte	0xd2
 1544 05c7 CF050000 		.4byte	0x5cf
 1545 05cb E0050000 		.4byte	0x5e0
 1546 05cf 13       		.uleb128 0x13
 1547 05d0 D4050000 		.4byte	0x5d4
 1548 05d4 0C       		.uleb128 0xc
 1549 05d5 04       		.byte	0x4
 1550 05d6 A5050000 		.4byte	0x5a5
 1551 05da 13       		.uleb128 0x13
 1552 05db 2C000000 		.4byte	0x2c
 1553 05df 00       		.byte	0
 1554 05e0 21       		.uleb128 0x21
 1555 05e1 D4050000 		.4byte	0x5d4
 1556 05e5 ED050000 		.4byte	0x5ed
 1557 05e9 FE050000 		.4byte	0x5fe
 1558 05ed 13       		.uleb128 0x13
 1559 05ee D4050000 		.4byte	0x5d4
 1560 05f2 15       		.uleb128 0x15
 1561 05f3 F7050000 		.4byte	0x5f7
 1562 05f7 22       		.uleb128 0x22
 1563 05f8 04       		.byte	0x4
 1564 05f9 A5050000 		.4byte	0x5a5
 1565 05fd 00       		.byte	0
 1566 05fe 21       		.uleb128 0x21
 1567 05ff D4050000 		.4byte	0x5d4
 1568 0603 0B060000 		.4byte	0x60b
 1569 0607 21060000 		.4byte	0x621
 1570 060b 13       		.uleb128 0x13
 1571 060c D4050000 		.4byte	0x5d4
 1572 0610 15       		.uleb128 0x15
 1573 0611 15060000 		.4byte	0x615
 1574 0615 23       		.uleb128 0x23
 1575 0616 04       		.byte	0x4
 1576 0617 1B060000 		.4byte	0x61b
 1577 061b 0D       		.uleb128 0xd
 1578 061c A5050000 		.4byte	0x5a5
 1579 0620 00       		.byte	0
 1580 0621 24       		.uleb128 0x24
 1581 0622 D4050000 		.4byte	0x5d4
 1582 0626 2A060000 		.4byte	0x62a
 1583 062a 13       		.uleb128 0x13
 1584 062b D4050000 		.4byte	0x5d4
 1585 062f 00       		.byte	0
 1586 0630 00       		.byte	0
 1587 0631 1E       		.uleb128 0x1e
ARM GAS  C:\msys64\tmp\ccMiE5FV.s 			page 29


 1588 0632 7600     		.ascii	"v\000"
 1589 0634 05       		.byte	0x5
 1590 0635 AB02     		.2byte	0x2ab
 1591 0637 A5050000 		.4byte	0x5a5
 1592 063b 00       		.byte	0
 1593 063c 1B       		.uleb128 0x1b
 1594 063d BD040000 		.4byte	.LASF93
 1595 0641 05       		.byte	0x5
 1596 0642 7D02     		.2byte	0x27d
 1597 0644 25000000 		.4byte	0x25
 1598 0648 03       		.byte	0x3
 1599 0649 90070000 		.4byte	0x790
 1600 064d 1C       		.uleb128 0x1c
 1601 064e 7800     		.ascii	"x\000"
 1602 0650 05       		.byte	0x5
 1603 0651 7D02     		.2byte	0x27d
 1604 0653 25000000 		.4byte	0x25
 1605 0657 1F       		.uleb128 0x1f
 1606 0658 04       		.byte	0x4
 1607 0659 05       		.byte	0x5
 1608 065a 7E02     		.2byte	0x27e
 1609 065c E3060000 		.4byte	0x6e3
 1610 0660 20       		.uleb128 0x20
 1611 0661 6600     		.ascii	"f\000"
 1612 0663 05       		.byte	0x5
 1613 0664 7E02     		.2byte	0x27e
 1614 0666 25000000 		.4byte	0x25
 1615 066a 20       		.uleb128 0x20
 1616 066b 6900     		.ascii	"i\000"
 1617 066d 05       		.byte	0x5
 1618 066e 7E02     		.2byte	0x27e
 1619 0670 A9000000 		.4byte	0xa9
 1620 0674 21       		.uleb128 0x21
 1621 0675 D2000000 		.4byte	0xd2
 1622 0679 81060000 		.4byte	0x681
 1623 067d 92060000 		.4byte	0x692
 1624 0681 13       		.uleb128 0x13
 1625 0682 86060000 		.4byte	0x686
 1626 0686 0C       		.uleb128 0xc
 1627 0687 04       		.byte	0x4
 1628 0688 57060000 		.4byte	0x657
 1629 068c 13       		.uleb128 0x13
 1630 068d 2C000000 		.4byte	0x2c
 1631 0691 00       		.byte	0
 1632 0692 21       		.uleb128 0x21
 1633 0693 86060000 		.4byte	0x686
 1634 0697 9F060000 		.4byte	0x69f
 1635 069b B0060000 		.4byte	0x6b0
 1636 069f 13       		.uleb128 0x13
 1637 06a0 86060000 		.4byte	0x686
 1638 06a4 15       		.uleb128 0x15
 1639 06a5 A9060000 		.4byte	0x6a9
 1640 06a9 22       		.uleb128 0x22
 1641 06aa 04       		.byte	0x4
 1642 06ab 57060000 		.4byte	0x657
 1643 06af 00       		.byte	0
 1644 06b0 21       		.uleb128 0x21
ARM GAS  C:\msys64\tmp\ccMiE5FV.s 			page 30


 1645 06b1 86060000 		.4byte	0x686
 1646 06b5 BD060000 		.4byte	0x6bd
 1647 06b9 D3060000 		.4byte	0x6d3
 1648 06bd 13       		.uleb128 0x13
 1649 06be 86060000 		.4byte	0x686
 1650 06c2 15       		.uleb128 0x15
 1651 06c3 C7060000 		.4byte	0x6c7
 1652 06c7 23       		.uleb128 0x23
 1653 06c8 04       		.byte	0x4
 1654 06c9 CD060000 		.4byte	0x6cd
 1655 06cd 0D       		.uleb128 0xd
 1656 06ce 57060000 		.4byte	0x657
 1657 06d2 00       		.byte	0
 1658 06d3 24       		.uleb128 0x24
 1659 06d4 86060000 		.4byte	0x686
 1660 06d8 DC060000 		.4byte	0x6dc
 1661 06dc 13       		.uleb128 0x13
 1662 06dd 86060000 		.4byte	0x686
 1663 06e1 00       		.byte	0
 1664 06e2 00       		.byte	0
 1665 06e3 1E       		.uleb128 0x1e
 1666 06e4 767800   		.ascii	"vx\000"
 1667 06e7 05       		.byte	0x5
 1668 06e8 7E02     		.2byte	0x27e
 1669 06ea 57060000 		.4byte	0x657
 1670 06ee 1F       		.uleb128 0x1f
 1671 06ef 04       		.byte	0x4
 1672 06f0 05       		.byte	0x5
 1673 06f1 7F02     		.2byte	0x27f
 1674 06f3 7A070000 		.4byte	0x77a
 1675 06f7 20       		.uleb128 0x20
 1676 06f8 6900     		.ascii	"i\000"
 1677 06fa 05       		.byte	0x5
 1678 06fb 7F02     		.2byte	0x27f
 1679 06fd A9000000 		.4byte	0xa9
 1680 0701 20       		.uleb128 0x20
 1681 0702 6600     		.ascii	"f\000"
 1682 0704 05       		.byte	0x5
 1683 0705 7F02     		.2byte	0x27f
 1684 0707 25000000 		.4byte	0x25
 1685 070b 21       		.uleb128 0x21
 1686 070c D2000000 		.4byte	0xd2
 1687 0710 18070000 		.4byte	0x718
 1688 0714 29070000 		.4byte	0x729
 1689 0718 13       		.uleb128 0x13
 1690 0719 1D070000 		.4byte	0x71d
 1691 071d 0C       		.uleb128 0xc
 1692 071e 04       		.byte	0x4
 1693 071f EE060000 		.4byte	0x6ee
 1694 0723 13       		.uleb128 0x13
 1695 0724 2C000000 		.4byte	0x2c
 1696 0728 00       		.byte	0
 1697 0729 21       		.uleb128 0x21
 1698 072a 1D070000 		.4byte	0x71d
 1699 072e 36070000 		.4byte	0x736
 1700 0732 47070000 		.4byte	0x747
 1701 0736 13       		.uleb128 0x13
ARM GAS  C:\msys64\tmp\ccMiE5FV.s 			page 31


 1702 0737 1D070000 		.4byte	0x71d
 1703 073b 15       		.uleb128 0x15
 1704 073c 40070000 		.4byte	0x740
 1705 0740 22       		.uleb128 0x22
 1706 0741 04       		.byte	0x4
 1707 0742 EE060000 		.4byte	0x6ee
 1708 0746 00       		.byte	0
 1709 0747 21       		.uleb128 0x21
 1710 0748 1D070000 		.4byte	0x71d
 1711 074c 54070000 		.4byte	0x754
 1712 0750 6A070000 		.4byte	0x76a
 1713 0754 13       		.uleb128 0x13
 1714 0755 1D070000 		.4byte	0x71d
 1715 0759 15       		.uleb128 0x15
 1716 075a 5E070000 		.4byte	0x75e
 1717 075e 23       		.uleb128 0x23
 1718 075f 04       		.byte	0x4
 1719 0760 64070000 		.4byte	0x764
 1720 0764 0D       		.uleb128 0xd
 1721 0765 EE060000 		.4byte	0x6ee
 1722 0769 00       		.byte	0
 1723 076a 24       		.uleb128 0x24
 1724 076b 1D070000 		.4byte	0x71d
 1725 076f 73070000 		.4byte	0x773
 1726 0773 13       		.uleb128 0x13
 1727 0774 1D070000 		.4byte	0x71d
 1728 0778 00       		.byte	0
 1729 0779 00       		.byte	0
 1730 077a 1E       		.uleb128 0x1e
 1731 077b 6D7800   		.ascii	"mx\000"
 1732 077e 05       		.byte	0x5
 1733 077f 7F02     		.2byte	0x27f
 1734 0781 EE060000 		.4byte	0x6ee
 1735 0785 1E       		.uleb128 0x1e
 1736 0786 7900     		.ascii	"y\000"
 1737 0788 05       		.byte	0x5
 1738 0789 8002     		.2byte	0x280
 1739 078b 25000000 		.4byte	0x25
 1740 078f 00       		.byte	0
 1741 0790 1B       		.uleb128 0x1b
 1742 0791 0F030000 		.4byte	.LASF94
 1743 0795 05       		.byte	0x5
 1744 0796 C102     		.2byte	0x2c1
 1745 0798 25000000 		.4byte	0x25
 1746 079c 03       		.byte	0x3
 1747 079d B6070000 		.4byte	0x7b6
 1748 07a1 1C       		.uleb128 0x1c
 1749 07a2 7800     		.ascii	"x\000"
 1750 07a4 05       		.byte	0x5
 1751 07a5 C102     		.2byte	0x2c1
 1752 07a7 25000000 		.4byte	0x25
 1753 07ab 1C       		.uleb128 0x1c
 1754 07ac 7000     		.ascii	"p\000"
 1755 07ae 05       		.byte	0x5
 1756 07af C102     		.2byte	0x2c1
 1757 07b1 25000000 		.4byte	0x25
 1758 07b5 00       		.byte	0
ARM GAS  C:\msys64\tmp\ccMiE5FV.s 			page 32


 1759 07b6 1B       		.uleb128 0x1b
 1760 07b7 B6010000 		.4byte	.LASF95
 1761 07bb 05       		.byte	0x5
 1762 07bc 1003     		.2byte	0x310
 1763 07be 25000000 		.4byte	0x25
 1764 07c2 03       		.byte	0x3
 1765 07c3 D4070000 		.4byte	0x7d4
 1766 07c7 1C       		.uleb128 0x1c
 1767 07c8 616D7000 		.ascii	"amp\000"
 1768 07cc 05       		.byte	0x5
 1769 07cd 1003     		.2byte	0x310
 1770 07cf 4F010000 		.4byte	0x14f
 1771 07d3 00       		.byte	0
 1772 07d4 25       		.uleb128 0x25
 1773 07d5 26070000 		.4byte	.LASF96
 1774 07d9 01       		.byte	0x1
 1775 07da 32       		.byte	0x32
 1776 07db 25000000 		.4byte	0x25
 1777 07df 03       		.byte	0x3
 1778 07e0 EF070000 		.4byte	0x7ef
 1779 07e4 26       		.uleb128 0x26
 1780 07e5 696E00   		.ascii	"in\000"
 1781 07e8 01       		.byte	0x1
 1782 07e9 32       		.byte	0x32
 1783 07ea 25000000 		.4byte	0x25
 1784 07ee 00       		.byte	0
 1785 07ef 1B       		.uleb128 0x1b
 1786 07f0 E0010000 		.4byte	.LASF97
 1787 07f4 05       		.byte	0x5
 1788 07f5 1C01     		.2byte	0x11c
 1789 07f7 25000000 		.4byte	0x25
 1790 07fb 03       		.byte	0x3
 1791 07fc 16080000 		.4byte	0x816
 1792 0800 1C       		.uleb128 0x1c
 1793 0801 7800     		.ascii	"x\000"
 1794 0803 05       		.byte	0x5
 1795 0804 1C01     		.2byte	0x11c
 1796 0806 25000000 		.4byte	0x25
 1797 080a 1E       		.uleb128 0x1e
 1798 080b 787300   		.ascii	"xs\000"
 1799 080e 05       		.byte	0x5
 1800 080f 1E01     		.2byte	0x11e
 1801 0811 01010000 		.4byte	0x101
 1802 0815 00       		.byte	0
 1803 0816 27       		.uleb128 0x27
 1804 0817 A7010000 		.4byte	0x1a7
 1805 081b 03       		.byte	0x3
 1806 081c 24080000 		.4byte	0x824
 1807 0820 2E080000 		.4byte	0x82e
 1808 0824 28       		.uleb128 0x28
 1809 0825 FF050000 		.4byte	.LASF98
 1810 0829 2E080000 		.4byte	0x82e
 1811 082d 00       		.byte	0
 1812 082e 0D       		.uleb128 0xd
 1813 082f 5E050000 		.4byte	0x55e
 1814 0833 27       		.uleb128 0x27
 1815 0834 1A020000 		.4byte	0x21a
ARM GAS  C:\msys64\tmp\ccMiE5FV.s 			page 33


 1816 0838 03       		.byte	0x3
 1817 0839 41080000 		.4byte	0x841
 1818 083d 56080000 		.4byte	0x856
 1819 0841 28       		.uleb128 0x28
 1820 0842 FF050000 		.4byte	.LASF98
 1821 0846 2E080000 		.4byte	0x82e
 1822 084a 29       		.uleb128 0x29
 1823 084b 65070000 		.4byte	.LASF99
 1824 084f 04       		.byte	0x4
 1825 0850 7D       		.byte	0x7d
 1826 0851 4F010000 		.4byte	0x14f
 1827 0855 00       		.byte	0
 1828 0856 25       		.uleb128 0x25
 1829 0857 5C020000 		.4byte	.LASF100
 1830 085b 01       		.byte	0x1
 1831 085c 2B       		.byte	0x2b
 1832 085d 25000000 		.4byte	0x25
 1833 0861 03       		.byte	0x3
 1834 0862 7C080000 		.4byte	0x87c
 1835 0866 26       		.uleb128 0x26
 1836 0867 696E00   		.ascii	"in\000"
 1837 086a 01       		.byte	0x1
 1838 086b 2B       		.byte	0x2b
 1839 086c 25000000 		.4byte	0x25
 1840 0870 2A       		.uleb128 0x2a
 1841 0871 C7040000 		.4byte	.LASF101
 1842 0875 01       		.byte	0x1
 1843 0876 2B       		.byte	0x2b
 1844 0877 25000000 		.4byte	0x25
 1845 087b 00       		.byte	0
 1846 087c 25       		.uleb128 0x25
 1847 087d 0A020000 		.4byte	.LASF102
 1848 0881 01       		.byte	0x1
 1849 0882 23       		.byte	0x23
 1850 0883 25000000 		.4byte	0x25
 1851 0887 03       		.byte	0x3
 1852 0888 97080000 		.4byte	0x897
 1853 088c 26       		.uleb128 0x26
 1854 088d 696E00   		.ascii	"in\000"
 1855 0890 01       		.byte	0x1
 1856 0891 23       		.byte	0x23
 1857 0892 25000000 		.4byte	0x25
 1858 0896 00       		.byte	0
 1859 0897 27       		.uleb128 0x27
 1860 0898 8A010000 		.4byte	0x18a
 1861 089c 03       		.byte	0x3
 1862 089d A5080000 		.4byte	0x8a5
 1863 08a1 AF080000 		.4byte	0x8af
 1864 08a5 28       		.uleb128 0x28
 1865 08a6 FF050000 		.4byte	.LASF98
 1866 08aa 2E080000 		.4byte	0x82e
 1867 08ae 00       		.byte	0
 1868 08af 2B       		.uleb128 0x2b
 1869 08b0 3F040000 		.4byte	.LASF157
 1870 08b4 03       		.byte	0x3
 1871 08b5 68       		.byte	0x68
 1872 08b6 03       		.byte	0x3
ARM GAS  C:\msys64\tmp\ccMiE5FV.s 			page 34


 1873 08b7 DD080000 		.4byte	0x8dd
 1874 08bb 26       		.uleb128 0x26
 1875 08bc 70747200 		.ascii	"ptr\000"
 1876 08c0 03       		.byte	0x3
 1877 08c1 68       		.byte	0x68
 1878 08c2 DD080000 		.4byte	0x8dd
 1879 08c6 26       		.uleb128 0x26
 1880 08c7 6C656E00 		.ascii	"len\000"
 1881 08cb 03       		.byte	0x3
 1882 08cc 69       		.byte	0x69
 1883 08cd E2080000 		.4byte	0x8e2
 1884 08d1 2C       		.uleb128 0x2c
 1885 08d2 656E6400 		.ascii	"end\000"
 1886 08d6 03       		.byte	0x3
 1887 08d7 6B       		.byte	0x6b
 1888 08d8 49010000 		.4byte	0x149
 1889 08dc 00       		.byte	0
 1890 08dd 2D       		.uleb128 0x2d
 1891 08de 54010000 		.4byte	0x154
 1892 08e2 0D       		.uleb128 0xd
 1893 08e3 A9000000 		.4byte	0xa9
 1894 08e7 25       		.uleb128 0x25
 1895 08e8 82080000 		.4byte	.LASF103
 1896 08ec 0A       		.byte	0xa
 1897 08ed 75       		.byte	0x75
 1898 08ee A9000000 		.4byte	0xa9
 1899 08f2 03       		.byte	0x3
 1900 08f3 01090000 		.4byte	0x901
 1901 08f7 26       		.uleb128 0x26
 1902 08f8 7800     		.ascii	"x\000"
 1903 08fa 0A       		.byte	0xa
 1904 08fb 75       		.byte	0x75
 1905 08fc A9000000 		.4byte	0xa9
 1906 0900 00       		.byte	0
 1907 0901 27       		.uleb128 0x27
 1908 0902 D9010000 		.4byte	0x1d9
 1909 0906 03       		.byte	0x3
 1910 0907 0F090000 		.4byte	0x90f
 1911 090b 2E090000 		.4byte	0x92e
 1912 090f 28       		.uleb128 0x28
 1913 0910 FF050000 		.4byte	.LASF98
 1914 0914 2E080000 		.4byte	0x82e
 1915 0918 26       		.uleb128 0x26
 1916 0919 663000   		.ascii	"f0\000"
 1917 091c 04       		.byte	0x4
 1918 091d 65       		.byte	0x65
 1919 091e 4F010000 		.4byte	0x14f
 1920 0922 2A       		.uleb128 0x2a
 1921 0923 46080000 		.4byte	.LASF104
 1922 0927 04       		.byte	0x4
 1923 0928 65       		.byte	0x65
 1924 0929 4F010000 		.4byte	0x14f
 1925 092d 00       		.byte	0
 1926 092e 27       		.uleb128 0x27
 1927 092f C0010000 		.4byte	0x1c0
 1928 0933 03       		.byte	0x3
 1929 0934 3C090000 		.4byte	0x93c
ARM GAS  C:\msys64\tmp\ccMiE5FV.s 			page 35


 1930 0938 46090000 		.4byte	0x946
 1931 093c 28       		.uleb128 0x28
 1932 093d FF050000 		.4byte	.LASF98
 1933 0941 2E080000 		.4byte	0x82e
 1934 0945 00       		.byte	0
 1935 0946 27       		.uleb128 0x27
 1936 0947 9B040000 		.4byte	0x49b
 1937 094b 03       		.byte	0x3
 1938 094c 54090000 		.4byte	0x954
 1939 0950 5E090000 		.4byte	0x95e
 1940 0954 28       		.uleb128 0x28
 1941 0955 FF050000 		.4byte	.LASF98
 1942 0959 5E090000 		.4byte	0x95e
 1943 095d 00       		.byte	0
 1944 095e 0D       		.uleb128 0xd
 1945 095f 64050000 		.4byte	0x564
 1946 0963 27       		.uleb128 0x27
 1947 0964 B4040000 		.4byte	0x4b4
 1948 0968 03       		.byte	0x3
 1949 0969 71090000 		.4byte	0x971
 1950 096d 91090000 		.4byte	0x991
 1951 0971 28       		.uleb128 0x28
 1952 0972 FF050000 		.4byte	.LASF98
 1953 0976 5E090000 		.4byte	0x95e
 1954 097a 26       		.uleb128 0x26
 1955 097b 72616D00 		.ascii	"ram\000"
 1956 097f 02       		.byte	0x2
 1957 0980 71       		.byte	0x71
 1958 0981 54010000 		.4byte	0x154
 1959 0985 2A       		.uleb128 0x2a
 1960 0986 95050000 		.4byte	.LASF105
 1961 098a 02       		.byte	0x2
 1962 098b 71       		.byte	0x71
 1963 098c B4000000 		.4byte	0xb4
 1964 0990 00       		.byte	0
 1965 0991 25       		.uleb128 0x25
 1966 0992 F5010000 		.4byte	.LASF106
 1967 0996 01       		.byte	0x1
 1968 0997 41       		.byte	0x41
 1969 0998 25000000 		.4byte	0x25
 1970 099c 03       		.byte	0x3
 1971 099d B7090000 		.4byte	0x9b7
 1972 09a1 26       		.uleb128 0x26
 1973 09a2 696E00   		.ascii	"in\000"
 1974 09a5 01       		.byte	0x1
 1975 09a6 41       		.byte	0x41
 1976 09a7 25000000 		.4byte	0x25
 1977 09ab 2C       		.uleb128 0x2c
 1978 09ac 746D7000 		.ascii	"tmp\000"
 1979 09b0 01       		.byte	0x1
 1980 09b1 43       		.byte	0x43
 1981 09b2 25000000 		.4byte	0x25
 1982 09b6 00       		.byte	0
 1983 09b7 25       		.uleb128 0x25
 1984 09b8 60030000 		.4byte	.LASF107
 1985 09bc 01       		.byte	0x1
 1986 09bd 4B       		.byte	0x4b
ARM GAS  C:\msys64\tmp\ccMiE5FV.s 			page 36


 1987 09be 25000000 		.4byte	0x25
 1988 09c2 03       		.byte	0x3
 1989 09c3 D2090000 		.4byte	0x9d2
 1990 09c7 26       		.uleb128 0x26
 1991 09c8 696E00   		.ascii	"in\000"
 1992 09cb 01       		.byte	0x1
 1993 09cc 4B       		.byte	0x4b
 1994 09cd 25000000 		.4byte	0x25
 1995 09d1 00       		.byte	0
 1996 09d2 2E       		.uleb128 0x2e
 1997 09d3 04060000 		.4byte	.LASF158
 1998 09d7 01       		.byte	0x1
 1999 09d8 F3090000 		.4byte	0x9f3
 2000 09dc 2A       		.uleb128 0x2a
 2001 09dd 22030000 		.4byte	.LASF108
 2002 09e1 01       		.byte	0x1
 2003 09e2 C2       		.byte	0xc2
 2004 09e3 2C000000 		.4byte	0x2c
 2005 09e7 2A       		.uleb128 0x2a
 2006 09e8 65030000 		.4byte	.LASF109
 2007 09ec 01       		.byte	0x1
 2008 09ed C2       		.byte	0xc2
 2009 09ee 2C000000 		.4byte	0x2c
 2010 09f2 00       		.byte	0
 2011 09f3 2F       		.uleb128 0x2f
 2012 09f4 6E060000 		.4byte	.LASF110
 2013 09f8 01       		.byte	0x1
 2014 09f9 57       		.byte	0x57
 2015 09fa 00000000 		.4byte	.LFB320
 2016 09fe 8C000000 		.4byte	.LFE320-.LFB320
 2017 0a02 01       		.uleb128 0x1
 2018 0a03 9C       		.byte	0x9c
 2019 0a04 FD0A0000 		.4byte	0xafd
 2020 0a08 30       		.uleb128 0x30
 2021 0a09 CC010000 		.4byte	.LASF111
 2022 0a0d 01       		.byte	0x1
 2023 0a0e 57       		.byte	0x57
 2024 0a0f A9000000 		.4byte	0xa9
 2025 0a13 00000000 		.4byte	.LLST0
 2026 0a17 31       		.uleb128 0x31
 2027 0a18 61706900 		.ascii	"api\000"
 2028 0a1c 01       		.byte	0x1
 2029 0a1d 57       		.byte	0x57
 2030 0a1e A9000000 		.4byte	0xa9
 2031 0a22 21000000 		.4byte	.LLST1
 2032 0a26 32       		.uleb128 0x32
 2033 0a27 63090000 		.4byte	0x963
 2034 0a2b 00000000 		.4byte	.LBB89
 2035 0a2f 00000000 		.4byte	.Ldebug_ranges0+0
 2036 0a33 01       		.byte	0x1
 2037 0a34 59       		.byte	0x59
 2038 0a35 550A0000 		.4byte	0xa55
 2039 0a39 33       		.uleb128 0x33
 2040 0a3a 85090000 		.4byte	0x985
 2041 0a3e 42000000 		.4byte	.LLST2
 2042 0a42 33       		.uleb128 0x33
 2043 0a43 7A090000 		.4byte	0x97a
ARM GAS  C:\msys64\tmp\ccMiE5FV.s 			page 37


 2044 0a47 58000000 		.4byte	.LLST3
 2045 0a4b 33       		.uleb128 0x33
 2046 0a4c 71090000 		.4byte	0x971
 2047 0a50 70000000 		.4byte	.LLST4
 2048 0a54 00       		.byte	0
 2049 0a55 34       		.uleb128 0x34
 2050 0a56 46090000 		.4byte	0x946
 2051 0a5a 20000000 		.4byte	.LBB93
 2052 0a5e 18000000 		.4byte	.LBE93-.LBB93
 2053 0a62 01       		.byte	0x1
 2054 0a63 5A       		.byte	0x5a
 2055 0a64 A70A0000 		.4byte	0xaa7
 2056 0a68 33       		.uleb128 0x33
 2057 0a69 54090000 		.4byte	0x954
 2058 0a6d 88000000 		.4byte	.LLST5
 2059 0a71 35       		.uleb128 0x35
 2060 0a72 AF080000 		.4byte	0x8af
 2061 0a76 20000000 		.4byte	.LBB94
 2062 0a7a 18000000 		.4byte	.LBE94-.LBB94
 2063 0a7e 02       		.byte	0x2
 2064 0a7f 65       		.byte	0x65
 2065 0a80 33       		.uleb128 0x33
 2066 0a81 C6080000 		.4byte	0x8c6
 2067 0a85 A0000000 		.4byte	.LLST6
 2068 0a89 33       		.uleb128 0x33
 2069 0a8a BB080000 		.4byte	0x8bb
 2070 0a8e B6000000 		.4byte	.LLST7
 2071 0a92 36       		.uleb128 0x36
 2072 0a93 20000000 		.4byte	.LBB95
 2073 0a97 18000000 		.4byte	.LBE95-.LBB95
 2074 0a9b 37       		.uleb128 0x37
 2075 0a9c D1080000 		.4byte	0x8d1
 2076 0aa0 0D010000 		.4byte	.LLST8
 2077 0aa4 00       		.byte	0
 2078 0aa5 00       		.byte	0
 2079 0aa6 00       		.byte	0
 2080 0aa7 34       		.uleb128 0x34
 2081 0aa8 2E090000 		.4byte	0x92e
 2082 0aac 38000000 		.4byte	.LBB96
 2083 0ab0 06000000 		.4byte	.LBE96-.LBB96
 2084 0ab4 01       		.byte	0x1
 2085 0ab5 5B       		.byte	0x5b
 2086 0ab6 C40A0000 		.4byte	0xac4
 2087 0aba 33       		.uleb128 0x33
 2088 0abb 3C090000 		.4byte	0x93c
 2089 0abf 25010000 		.4byte	.LLST9
 2090 0ac3 00       		.byte	0
 2091 0ac4 32       		.uleb128 0x32
 2092 0ac5 01090000 		.4byte	0x901
 2093 0ac9 5E000000 		.4byte	.LBB98
 2094 0acd 18000000 		.4byte	.Ldebug_ranges0+0x18
 2095 0ad1 01       		.byte	0x1
 2096 0ad2 5E       		.byte	0x5e
 2097 0ad3 F30A0000 		.4byte	0xaf3
 2098 0ad7 33       		.uleb128 0x33
 2099 0ad8 22090000 		.4byte	0x922
 2100 0adc 3D010000 		.4byte	.LLST10
ARM GAS  C:\msys64\tmp\ccMiE5FV.s 			page 38


 2101 0ae0 33       		.uleb128 0x33
 2102 0ae1 18090000 		.4byte	0x918
 2103 0ae5 80010000 		.4byte	.LLST11
 2104 0ae9 33       		.uleb128 0x33
 2105 0aea 0F090000 		.4byte	0x90f
 2106 0aee 94010000 		.4byte	.LLST12
 2107 0af2 00       		.byte	0
 2108 0af3 38       		.uleb128 0x38
 2109 0af4 42000000 		.4byte	.LVL10
 2110 0af8 A4100000 		.4byte	0x10a4
 2111 0afc 00       		.byte	0
 2112 0afd 39       		.uleb128 0x39
 2113 0afe 3A060000 		.4byte	.LASF112
 2114 0b02 01       		.byte	0x1
 2115 0b03 63       		.byte	0x63
 2116 0b04 8C000000 		.4byte	.LFB321
 2117 0b08 F0020000 		.4byte	.LFE321-.LFB321
 2118 0b0c 01       		.uleb128 0x1
 2119 0b0d 9C       		.byte	0x9c
 2120 0b0e 8E0D0000 		.4byte	0xd8e
 2121 0b12 31       		.uleb128 0x31
 2122 0b13 786E00   		.ascii	"xn\000"
 2123 0b16 01       		.byte	0x1
 2124 0b17 63       		.byte	0x63
 2125 0b18 49010000 		.4byte	0x149
 2126 0b1c AC010000 		.4byte	.LLST13
 2127 0b20 31       		.uleb128 0x31
 2128 0b21 796E00   		.ascii	"yn\000"
 2129 0b24 01       		.byte	0x1
 2130 0b25 63       		.byte	0x63
 2131 0b26 54010000 		.4byte	0x154
 2132 0b2a 0E020000 		.4byte	.LLST14
 2133 0b2e 30       		.uleb128 0x30
 2134 0b2f 40050000 		.4byte	.LASF113
 2135 0b33 01       		.byte	0x1
 2136 0b34 64       		.byte	0x64
 2137 0b35 49010000 		.4byte	0x149
 2138 0b39 86020000 		.4byte	.LLST15
 2139 0b3d 30       		.uleb128 0x30
 2140 0b3e DA050000 		.4byte	.LASF114
 2141 0b42 01       		.byte	0x1
 2142 0b43 64       		.byte	0x64
 2143 0b44 54010000 		.4byte	0x154
 2144 0b48 A7020000 		.4byte	.LLST16
 2145 0b4c 30       		.uleb128 0x30
 2146 0b4d 4B040000 		.4byte	.LASF115
 2147 0b51 01       		.byte	0x1
 2148 0b52 65       		.byte	0x65
 2149 0b53 A9000000 		.4byte	0xa9
 2150 0b57 C8020000 		.4byte	.LLST17
 2151 0b5b 3A       		.uleb128 0x3a
 2152 0b5c F3080000 		.4byte	.LASF116
 2153 0b60 01       		.byte	0x1
 2154 0b61 67       		.byte	0x67
 2155 0b62 25000000 		.4byte	0x25
 2156 0b66 E8020000 		.4byte	.LLST18
 2157 0b6a 3B       		.uleb128 0x3b
ARM GAS  C:\msys64\tmp\ccMiE5FV.s 			page 39


 2158 0b6b 30000000 		.4byte	.Ldebug_ranges0+0x30
 2159 0b6f 3C       		.uleb128 0x3c
 2160 0b70 6900     		.ascii	"i\000"
 2161 0b72 01       		.byte	0x1
 2162 0b73 6B       		.byte	0x6b
 2163 0b74 2C000000 		.4byte	0x2c
 2164 0b78 FC020000 		.4byte	.LLST19
 2165 0b7c 32       		.uleb128 0x32
 2166 0b7d B7090000 		.4byte	0x9b7
 2167 0b81 9C000000 		.4byte	.LBB103
 2168 0b85 48000000 		.4byte	.Ldebug_ranges0+0x48
 2169 0b89 01       		.byte	0x1
 2170 0b8a 79       		.byte	0x79
 2171 0b8b 9D0C0000 		.4byte	0xc9d
 2172 0b8f 33       		.uleb128 0x33
 2173 0b90 C7090000 		.4byte	0x9c7
 2174 0b94 1B030000 		.4byte	.LLST20
 2175 0b98 32       		.uleb128 0x32
 2176 0b99 33080000 		.4byte	0x833
 2177 0b9d 9C000000 		.4byte	.LBB105
 2178 0ba1 68000000 		.4byte	.Ldebug_ranges0+0x68
 2179 0ba5 01       		.byte	0x1
 2180 0ba6 51       		.byte	0x51
 2181 0ba7 E70B0000 		.4byte	0xbe7
 2182 0bab 33       		.uleb128 0x33
 2183 0bac 41080000 		.4byte	0x841
 2184 0bb0 65030000 		.4byte	.LLST21
 2185 0bb4 3B       		.uleb128 0x3b
 2186 0bb5 68000000 		.4byte	.Ldebug_ranges0+0x68
 2187 0bb9 3D       		.uleb128 0x3d
 2188 0bba 4A080000 		.4byte	0x84a
 2189 0bbe 02       		.uleb128 0x2
 2190 0bbf 90       		.byte	0x90
 2191 0bc0 4E       		.uleb128 0x4e
 2192 0bc1 35       		.uleb128 0x35
 2193 0bc2 EF070000 		.4byte	0x7ef
 2194 0bc6 DE020000 		.4byte	.LBB107
 2195 0bca 0C000000 		.4byte	.LBE107-.LBB107
 2196 0bce 04       		.byte	0x4
 2197 0bcf 7E       		.byte	0x7e
 2198 0bd0 3E       		.uleb128 0x3e
 2199 0bd1 00080000 		.4byte	0x800
 2200 0bd5 36       		.uleb128 0x36
 2201 0bd6 DE020000 		.4byte	.LBB108
 2202 0bda 0C000000 		.4byte	.LBE108-.LBB108
 2203 0bde 3F       		.uleb128 0x3f
 2204 0bdf 0A080000 		.4byte	0x80a
 2205 0be3 00       		.byte	0
 2206 0be4 00       		.byte	0
 2207 0be5 00       		.byte	0
 2208 0be6 00       		.byte	0
 2209 0be7 32       		.uleb128 0x32
 2210 0be8 7C080000 		.4byte	0x87c
 2211 0bec 0E020000 		.4byte	.LBB112
 2212 0bf0 90000000 		.4byte	.Ldebug_ranges0+0x90
 2213 0bf4 01       		.byte	0x1
 2214 0bf5 4F       		.byte	0x4f
ARM GAS  C:\msys64\tmp\ccMiE5FV.s 			page 40


 2215 0bf6 040C0000 		.4byte	0xc04
 2216 0bfa 33       		.uleb128 0x33
 2217 0bfb 8C080000 		.4byte	0x88c
 2218 0bff 7D030000 		.4byte	.LLST22
 2219 0c03 00       		.byte	0
 2220 0c04 34       		.uleb128 0x34
 2221 0c05 56080000 		.4byte	0x856
 2222 0c09 32020000 		.4byte	.LBB116
 2223 0c0d 9C000000 		.4byte	.LBE116-.LBB116
 2224 0c11 01       		.byte	0x1
 2225 0c12 50       		.byte	0x50
 2226 0c13 830C0000 		.4byte	0xc83
 2227 0c17 3E       		.uleb128 0x3e
 2228 0c18 70080000 		.4byte	0x870
 2229 0c1c 3E       		.uleb128 0x3e
 2230 0c1d 66080000 		.4byte	0x866
 2231 0c21 34       		.uleb128 0x34
 2232 0c22 90070000 		.4byte	0x790
 2233 0c26 40020000 		.4byte	.LBB118
 2234 0c2a 56000000 		.4byte	.LBE118-.LBB118
 2235 0c2e 01       		.byte	0x1
 2236 0c2f 2D       		.byte	0x2d
 2237 0c30 790C0000 		.4byte	0xc79
 2238 0c34 3E       		.uleb128 0x3e
 2239 0c35 AB070000 		.4byte	0x7ab
 2240 0c39 3E       		.uleb128 0x3e
 2241 0c3a A1070000 		.4byte	0x7a1
 2242 0c3e 40       		.uleb128 0x40
 2243 0c3f 6A050000 		.4byte	0x56a
 2244 0c43 40020000 		.4byte	.LBB119
 2245 0c47 56000000 		.4byte	.LBE119-.LBB119
 2246 0c4b 05       		.byte	0x5
 2247 0c4c C202     		.2byte	0x2c2
 2248 0c4e 3E       		.uleb128 0x3e
 2249 0c4f 7B050000 		.4byte	0x57b
 2250 0c53 36       		.uleb128 0x36
 2251 0c54 40020000 		.4byte	.LBB120
 2252 0c58 56000000 		.4byte	.LBE120-.LBB120
 2253 0c5c 3D       		.uleb128 0x3d
 2254 0c5d 85050000 		.4byte	0x585
 2255 0c61 02       		.uleb128 0x2
 2256 0c62 90       		.byte	0x90
 2257 0c63 50       		.uleb128 0x50
 2258 0c64 3F       		.uleb128 0x3f
 2259 0c65 91050000 		.4byte	0x591
 2260 0c69 3D       		.uleb128 0x3d
 2261 0c6a 9B050000 		.4byte	0x59b
 2262 0c6e 02       		.uleb128 0x2
 2263 0c6f 90       		.byte	0x90
 2264 0c70 4B       		.uleb128 0x4b
 2265 0c71 3F       		.uleb128 0x3f
 2266 0c72 31060000 		.4byte	0x631
 2267 0c76 00       		.byte	0
 2268 0c77 00       		.byte	0
 2269 0c78 00       		.byte	0
 2270 0c79 38       		.uleb128 0x38
 2271 0c7a AA020000 		.4byte	.LVL40
ARM GAS  C:\msys64\tmp\ccMiE5FV.s 			page 41


 2272 0c7e AF100000 		.4byte	0x10af
 2273 0c82 00       		.byte	0
 2274 0c83 41       		.uleb128 0x41
 2275 0c84 16080000 		.4byte	0x816
 2276 0c88 D2020000 		.4byte	.LBB122
 2277 0c8c A8000000 		.4byte	.Ldebug_ranges0+0xa8
 2278 0c90 01       		.byte	0x1
 2279 0c91 52       		.byte	0x52
 2280 0c92 33       		.uleb128 0x33
 2281 0c93 24080000 		.4byte	0x824
 2282 0c97 91030000 		.4byte	.LLST23
 2283 0c9b 00       		.byte	0
 2284 0c9c 00       		.byte	0
 2285 0c9d 32       		.uleb128 0x32
 2286 0c9e 56080000 		.4byte	0x856
 2287 0ca2 CC000000 		.4byte	.LBB130
 2288 0ca6 C0000000 		.4byte	.Ldebug_ranges0+0xc0
 2289 0caa 01       		.byte	0x1
 2290 0cab 71       		.byte	0x71
 2291 0cac 200D0000 		.4byte	0xd20
 2292 0cb0 3E       		.uleb128 0x3e
 2293 0cb1 70080000 		.4byte	0x870
 2294 0cb5 33       		.uleb128 0x33
 2295 0cb6 66080000 		.4byte	0x866
 2296 0cba A9030000 		.4byte	.LLST24
 2297 0cbe 34       		.uleb128 0x34
 2298 0cbf 90070000 		.4byte	0x790
 2299 0cc3 E2000000 		.4byte	.LBB132
 2300 0cc7 5A000000 		.4byte	.LBE132-.LBB132
 2301 0ccb 01       		.byte	0x1
 2302 0ccc 2D       		.byte	0x2d
 2303 0ccd 160D0000 		.4byte	0xd16
 2304 0cd1 3E       		.uleb128 0x3e
 2305 0cd2 AB070000 		.4byte	0x7ab
 2306 0cd6 3E       		.uleb128 0x3e
 2307 0cd7 A1070000 		.4byte	0x7a1
 2308 0cdb 40       		.uleb128 0x40
 2309 0cdc 6A050000 		.4byte	0x56a
 2310 0ce0 E2000000 		.4byte	.LBB133
 2311 0ce4 5A000000 		.4byte	.LBE133-.LBB133
 2312 0ce8 05       		.byte	0x5
 2313 0ce9 C202     		.2byte	0x2c2
 2314 0ceb 3E       		.uleb128 0x3e
 2315 0cec 7B050000 		.4byte	0x57b
 2316 0cf0 36       		.uleb128 0x36
 2317 0cf1 E2000000 		.4byte	.LBB134
 2318 0cf5 5A000000 		.4byte	.LBE134-.LBB134
 2319 0cf9 3D       		.uleb128 0x3d
 2320 0cfa 85050000 		.4byte	0x585
 2321 0cfe 02       		.uleb128 0x2
 2322 0cff 90       		.byte	0x90
 2323 0d00 50       		.uleb128 0x50
 2324 0d01 3F       		.uleb128 0x3f
 2325 0d02 91050000 		.4byte	0x591
 2326 0d06 3D       		.uleb128 0x3d
 2327 0d07 9B050000 		.4byte	0x59b
 2328 0d0b 02       		.uleb128 0x2
ARM GAS  C:\msys64\tmp\ccMiE5FV.s 			page 42


 2329 0d0c 90       		.byte	0x90
 2330 0d0d 4E       		.uleb128 0x4e
 2331 0d0e 3F       		.uleb128 0x3f
 2332 0d0f 31060000 		.4byte	0x631
 2333 0d13 00       		.byte	0
 2334 0d14 00       		.byte	0
 2335 0d15 00       		.byte	0
 2336 0d16 38       		.uleb128 0x38
 2337 0d17 50010000 		.4byte	.LVL21
 2338 0d1b AF100000 		.4byte	0x10af
 2339 0d1f 00       		.byte	0
 2340 0d20 41       		.uleb128 0x41
 2341 0d21 91090000 		.4byte	0x991
 2342 0d25 8A010000 		.4byte	.LBB137
 2343 0d29 D8000000 		.4byte	.Ldebug_ranges0+0xd8
 2344 0d2d 01       		.byte	0x1
 2345 0d2e 75       		.byte	0x75
 2346 0d2f 33       		.uleb128 0x33
 2347 0d30 A1090000 		.4byte	0x9a1
 2348 0d34 BD030000 		.4byte	.LLST25
 2349 0d38 3B       		.uleb128 0x3b
 2350 0d39 D8000000 		.4byte	.Ldebug_ranges0+0xd8
 2351 0d3d 3F       		.uleb128 0x3f
 2352 0d3e AB090000 		.4byte	0x9ab
 2353 0d42 32       		.uleb128 0x32
 2354 0d43 B6070000 		.4byte	0x7b6
 2355 0d47 8A010000 		.4byte	.LBB139
 2356 0d4b F0000000 		.4byte	.Ldebug_ranges0+0xf0
 2357 0d4f 01       		.byte	0x1
 2358 0d50 43       		.byte	0x43
 2359 0d51 710D0000 		.4byte	0xd71
 2360 0d55 33       		.uleb128 0x33
 2361 0d56 C7070000 		.4byte	0x7c7
 2362 0d5a DD030000 		.4byte	.LLST26
 2363 0d5e 42       		.uleb128 0x42
 2364 0d5f A4010000 		.4byte	.LVL28
 2365 0d63 BA100000 		.4byte	0x10ba
 2366 0d67 43       		.uleb128 0x43
 2367 0d68 02       		.uleb128 0x2
 2368 0d69 90       		.byte	0x90
 2369 0d6a 40       		.uleb128 0x40
 2370 0d6b 03       		.uleb128 0x3
 2371 0d6c F5       		.byte	0xf5
 2372 0d6d 50       		.uleb128 0x50
 2373 0d6e 25       		.uleb128 0x25
 2374 0d6f 00       		.byte	0
 2375 0d70 00       		.byte	0
 2376 0d71 35       		.uleb128 0x35
 2377 0d72 D4070000 		.4byte	0x7d4
 2378 0d76 C0010000 		.4byte	.LBB143
 2379 0d7a 20000000 		.4byte	.LBE143-.LBB143
 2380 0d7e 01       		.byte	0x1
 2381 0d7f 44       		.byte	0x44
 2382 0d80 33       		.uleb128 0x33
 2383 0d81 E4070000 		.4byte	0x7e4
 2384 0d85 F1030000 		.4byte	.LLST27
 2385 0d89 00       		.byte	0
ARM GAS  C:\msys64\tmp\ccMiE5FV.s 			page 43


 2386 0d8a 00       		.byte	0
 2387 0d8b 00       		.byte	0
 2388 0d8c 00       		.byte	0
 2389 0d8d 00       		.byte	0
 2390 0d8e 2F       		.uleb128 0x2f
 2391 0d8f 42000000 		.4byte	.LASF117
 2392 0d93 01       		.byte	0x1
 2393 0d94 86       		.byte	0x86
 2394 0d95 7C030000 		.4byte	.LFB322
 2395 0d99 FC000000 		.4byte	.LFE322-.LFB322
 2396 0d9d 01       		.uleb128 0x1
 2397 0d9e 9C       		.byte	0x9c
 2398 0d9f 090E0000 		.4byte	0xe09
 2399 0da3 30       		.uleb128 0x30
 2400 0da4 65020000 		.4byte	.LASF118
 2401 0da8 01       		.byte	0x1
 2402 0da9 86       		.byte	0x86
 2403 0daa 93000000 		.4byte	0x93
 2404 0dae 05040000 		.4byte	.LLST28
 2405 0db2 30       		.uleb128 0x30
 2406 0db3 0E0A0000 		.4byte	.LASF119
 2407 0db7 01       		.byte	0x1
 2408 0db8 86       		.byte	0x86
 2409 0db9 9E000000 		.4byte	0x9e
 2410 0dbd 3F040000 		.4byte	.LLST29
 2411 0dc1 3A       		.uleb128 0x3a
 2412 0dc2 DB010000 		.4byte	.LASF120
 2413 0dc6 01       		.byte	0x1
 2414 0dc7 89       		.byte	0x89
 2415 0dc8 4F010000 		.4byte	0x14f
 2416 0dcc 79040000 		.4byte	.LLST30
 2417 0dd0 32       		.uleb128 0x32
 2418 0dd1 01090000 		.4byte	0x901
 2419 0dd5 02040000 		.4byte	.LBB150
 2420 0dd9 08010000 		.4byte	.Ldebug_ranges0+0x108
 2421 0ddd 01       		.byte	0x1
 2422 0dde AA       		.byte	0xaa
 2423 0ddf FF0D0000 		.4byte	0xdff
 2424 0de3 33       		.uleb128 0x33
 2425 0de4 22090000 		.4byte	0x922
 2426 0de8 A7040000 		.4byte	.LLST31
 2427 0dec 33       		.uleb128 0x33
 2428 0ded 18090000 		.4byte	0x918
 2429 0df1 BF040000 		.4byte	.LLST32
 2430 0df5 33       		.uleb128 0x33
 2431 0df6 0F090000 		.4byte	0x90f
 2432 0dfa E2040000 		.4byte	.LLST33
 2433 0dfe 00       		.byte	0
 2434 0dff 38       		.uleb128 0x38
 2435 0e00 B0030000 		.4byte	.LVL56
 2436 0e04 A4100000 		.4byte	0x10a4
 2437 0e08 00       		.byte	0
 2438 0e09 27       		.uleb128 0x27
 2439 0e0a 57040000 		.4byte	0x457
 2440 0e0e 02       		.byte	0x2
 2441 0e0f 170E0000 		.4byte	0xe17
 2442 0e13 210E0000 		.4byte	0xe21
ARM GAS  C:\msys64\tmp\ccMiE5FV.s 			page 44


 2443 0e17 28       		.uleb128 0x28
 2444 0e18 FF050000 		.4byte	.LASF98
 2445 0e1c 5E090000 		.4byte	0x95e
 2446 0e20 00       		.byte	0
 2447 0e21 44       		.uleb128 0x44
 2448 0e22 08090000 		.4byte	.LASF159
 2449 0e26 00000000 		.4byte	.LFB324
 2450 0e2a 20000000 		.4byte	.LFE324-.LFB324
 2451 0e2e 01       		.uleb128 0x1
 2452 0e2f 9C       		.byte	0x9c
 2453 0e30 900E0000 		.4byte	0xe90
 2454 0e34 35       		.uleb128 0x35
 2455 0e35 D2090000 		.4byte	0x9d2
 2456 0e39 00000000 		.4byte	.LBB163
 2457 0e3d 20000000 		.4byte	.LBE163-.LBB163
 2458 0e41 01       		.byte	0x1
 2459 0e42 C2       		.byte	0xc2
 2460 0e43 33       		.uleb128 0x33
 2461 0e44 DC090000 		.4byte	0x9dc
 2462 0e48 FA040000 		.4byte	.LLST34
 2463 0e4c 33       		.uleb128 0x33
 2464 0e4d E7090000 		.4byte	0x9e7
 2465 0e51 0E050000 		.4byte	.LLST35
 2466 0e55 32       		.uleb128 0x32
 2467 0e56 090E0000 		.4byte	0xe09
 2468 0e5a 00000000 		.4byte	.LBB164
 2469 0e5e 28010000 		.4byte	.Ldebug_ranges0+0x128
 2470 0e62 01       		.byte	0x1
 2471 0e63 0E       		.byte	0xe
 2472 0e64 720E0000 		.4byte	0xe72
 2473 0e68 33       		.uleb128 0x33
 2474 0e69 170E0000 		.4byte	0xe17
 2475 0e6d 24050000 		.4byte	.LLST36
 2476 0e71 00       		.byte	0
 2477 0e72 41       		.uleb128 0x41
 2478 0e73 97080000 		.4byte	0x897
 2479 0e77 08000000 		.4byte	.LBB167
 2480 0e7b 40010000 		.4byte	.Ldebug_ranges0+0x140
 2481 0e7f 01       		.byte	0x1
 2482 0e80 1E       		.byte	0x1e
 2483 0e81 45       		.uleb128 0x45
 2484 0e82 A5080000 		.4byte	0x8a5
 2485 0e86 06       		.uleb128 0x6
 2486 0e87 03       		.byte	0x3
 2487 0e88 14000000 		.4byte	_ZL5s_lfo
 2488 0e8c 9F       		.byte	0x9f
 2489 0e8d 00       		.byte	0
 2490 0e8e 00       		.byte	0
 2491 0e8f 00       		.byte	0
 2492 0e90 46       		.uleb128 0x46
 2493 0e91 00040000 		.4byte	.LASF121
 2494 0e95 0B       		.byte	0xb
 2495 0e96 46       		.byte	0x46
 2496 0e97 E2080000 		.4byte	0x8e2
 2497 0e9b 46       		.uleb128 0x46
 2498 0e9c E1060000 		.4byte	.LASF122
 2499 0ea0 0B       		.byte	0xb
ARM GAS  C:\msys64\tmp\ccMiE5FV.s 			page 45


 2500 0ea1 4B       		.byte	0x4b
 2501 0ea2 E2080000 		.4byte	0x8e2
 2502 0ea6 47       		.uleb128 0x47
 2503 0ea7 4F010000 		.4byte	0x14f
 2504 0eab B60E0000 		.4byte	0xeb6
 2505 0eaf 48       		.uleb128 0x48
 2506 0eb0 CB000000 		.4byte	0xcb
 2507 0eb4 80       		.byte	0x80
 2508 0eb5 00       		.byte	0
 2509 0eb6 46       		.uleb128 0x46
 2510 0eb7 EB070000 		.4byte	.LASF123
 2511 0ebb 0C       		.byte	0xc
 2512 0ebc 94       		.byte	0x94
 2513 0ebd C10E0000 		.4byte	0xec1
 2514 0ec1 0D       		.uleb128 0xd
 2515 0ec2 A60E0000 		.4byte	0xea6
 2516 0ec6 47       		.uleb128 0x47
 2517 0ec7 4F010000 		.4byte	0x14f
 2518 0ecb D70E0000 		.4byte	0xed7
 2519 0ecf 49       		.uleb128 0x49
 2520 0ed0 CB000000 		.4byte	0xcb
 2521 0ed4 0001     		.2byte	0x100
 2522 0ed6 00       		.byte	0
 2523 0ed7 4A       		.uleb128 0x4a
 2524 0ed8 B3040000 		.4byte	.LASF124
 2525 0edc 0C       		.byte	0xc
 2526 0edd 4D02     		.2byte	0x24d
 2527 0edf E30E0000 		.4byte	0xee3
 2528 0ee3 0D       		.uleb128 0xd
 2529 0ee4 C60E0000 		.4byte	0xec6
 2530 0ee8 4A       		.uleb128 0x4a
 2531 0ee9 E9010000 		.4byte	.LASF125
 2532 0eed 0C       		.byte	0xc
 2533 0eee 6402     		.2byte	0x264
 2534 0ef0 F40E0000 		.4byte	0xef4
 2535 0ef4 0D       		.uleb128 0xd
 2536 0ef5 C60E0000 		.4byte	0xec6
 2537 0ef9 4A       		.uleb128 0x4a
 2538 0efa 8C060000 		.4byte	.LASF126
 2539 0efe 0C       		.byte	0xc
 2540 0eff 7C02     		.2byte	0x27c
 2541 0f01 050F0000 		.4byte	0xf05
 2542 0f05 0D       		.uleb128 0xd
 2543 0f06 C60E0000 		.4byte	0xec6
 2544 0f0a 4A       		.uleb128 0x4a
 2545 0f0b E5030000 		.4byte	.LASF127
 2546 0f0f 0B       		.byte	0xb
 2547 0f10 0F01     		.2byte	0x10f
 2548 0f12 160F0000 		.4byte	0xf16
 2549 0f16 0D       		.uleb128 0xd
 2550 0f17 C60E0000 		.4byte	0xec6
 2551 0f1b 4A       		.uleb128 0x4a
 2552 0f1c 9C060000 		.4byte	.LASF128
 2553 0f20 0C       		.byte	0xc
 2554 0f21 AB02     		.2byte	0x2ab
 2555 0f23 270F0000 		.4byte	0xf27
 2556 0f27 0D       		.uleb128 0xd
ARM GAS  C:\msys64\tmp\ccMiE5FV.s 			page 46


 2557 0f28 A60E0000 		.4byte	0xea6
 2558 0f2c 4A       		.uleb128 0x4a
 2559 0f2d 52040000 		.4byte	.LASF129
 2560 0f31 0C       		.byte	0xc
 2561 0f32 C002     		.2byte	0x2c0
 2562 0f34 380F0000 		.4byte	0xf38
 2563 0f38 0D       		.uleb128 0xd
 2564 0f39 A60E0000 		.4byte	0xea6
 2565 0f3d 4A       		.uleb128 0x4a
 2566 0f3e 69040000 		.4byte	.LASF130
 2567 0f42 0C       		.byte	0xc
 2568 0f43 DD02     		.2byte	0x2dd
 2569 0f45 490F0000 		.4byte	0xf49
 2570 0f49 0D       		.uleb128 0xd
 2571 0f4a A60E0000 		.4byte	0xea6
 2572 0f4e 46       		.uleb128 0x46
 2573 0f4f 410A0000 		.4byte	.LASF131
 2574 0f53 0C       		.byte	0xc
 2575 0f54 45       		.byte	0x45
 2576 0f55 E2080000 		.4byte	0x8e2
 2577 0f59 46       		.uleb128 0x46
 2578 0f5a 84070000 		.4byte	.LASF132
 2579 0f5e 0C       		.byte	0xc
 2580 0f5f 4A       		.byte	0x4a
 2581 0f60 E2080000 		.4byte	0x8e2
 2582 0f64 47       		.uleb128 0x47
 2583 0f65 4F010000 		.4byte	0x14f
 2584 0f69 740F0000 		.4byte	0xf74
 2585 0f6d 48       		.uleb128 0x48
 2586 0f6e CB000000 		.4byte	0xcb
 2587 0f72 97       		.byte	0x97
 2588 0f73 00       		.byte	0
 2589 0f74 46       		.uleb128 0x46
 2590 0f75 37020000 		.4byte	.LASF133
 2591 0f79 0C       		.byte	0xc
 2592 0f7a 67       		.byte	0x67
 2593 0f7b 7F0F0000 		.4byte	0xf7f
 2594 0f7f 0D       		.uleb128 0xd
 2595 0f80 640F0000 		.4byte	0xf64
 2596 0f84 47       		.uleb128 0x47
 2597 0f85 4F010000 		.4byte	0x14f
 2598 0f89 950F0000 		.4byte	0xf95
 2599 0f8d 49       		.uleb128 0x49
 2600 0f8e CB000000 		.4byte	0xcb
 2601 0f92 8603     		.2byte	0x386
 2602 0f94 00       		.byte	0
 2603 0f95 46       		.uleb128 0x46
 2604 0f96 CD050000 		.4byte	.LASF134
 2605 0f9a 0C       		.byte	0xc
 2606 0f9b C6       		.byte	0xc6
 2607 0f9c A00F0000 		.4byte	0xfa0
 2608 0fa0 0D       		.uleb128 0xd
 2609 0fa1 840F0000 		.4byte	0xf84
 2610 0fa5 4A       		.uleb128 0x4a
 2611 0fa6 AB060000 		.4byte	.LASF135
 2612 0faa 0C       		.byte	0xc
 2613 0fab 3801     		.2byte	0x138
ARM GAS  C:\msys64\tmp\ccMiE5FV.s 			page 47


 2614 0fad B10F0000 		.4byte	0xfb1
 2615 0fb1 0D       		.uleb128 0xd
 2616 0fb2 840F0000 		.4byte	0xf84
 2617 0fb6 4A       		.uleb128 0x4a
 2618 0fb7 4E000000 		.4byte	.LASF136
 2619 0fbb 0C       		.byte	0xc
 2620 0fbc AB01     		.2byte	0x1ab
 2621 0fbe C20F0000 		.4byte	0xfc2
 2622 0fc2 0D       		.uleb128 0xd
 2623 0fc3 840F0000 		.4byte	0xf84
 2624 0fc7 4B       		.uleb128 0x4b
 2625 0fc8 A4080000 		.4byte	.LASF137
 2626 0fcc 01       		.byte	0x1
 2627 0fcd 0E       		.byte	0xe
 2628 0fce 13040000 		.4byte	0x413
 2629 0fd2 05       		.uleb128 0x5
 2630 0fd3 03       		.byte	0x3
 2631 0fd4 00000000 		.4byte	_ZL7s_delay
 2632 0fd8 47       		.uleb128 0x47
 2633 0fd9 25000000 		.4byte	0x25
 2634 0fdd E90F0000 		.4byte	0xfe9
 2635 0fe1 49       		.uleb128 0x49
 2636 0fe2 CB000000 		.4byte	0xcb
 2637 0fe6 7FBB     		.2byte	0xbb7f
 2638 0fe8 00       		.byte	0
 2639 0fe9 4B       		.uleb128 0x4b
 2640 0fea 7C000000 		.4byte	.LASF138
 2641 0fee 01       		.byte	0x1
 2642 0fef 0F       		.byte	0xf
 2643 0ff0 D80F0000 		.4byte	0xfd8
 2644 0ff4 05       		.uleb128 0x5
 2645 0ff5 03       		.byte	0x3
 2646 0ff6 00000000 		.4byte	_ZL11s_delay_ram
 2647 0ffa 4C       		.uleb128 0x4c
 2648 0ffb D5010000 		.4byte	.LASF139
 2649 0fff 01       		.byte	0x1
 2650 1000 11       		.byte	0x11
 2651 1001 A9000000 		.4byte	0xa9
 2652 1005 05       		.uleb128 0x5
 2653 1006 03       		.byte	0x3
 2654 1007 00000000 		.4byte	s_len
 2655 100b 4B       		.uleb128 0x4b
 2656 100c 93030000 		.4byte	.LASF140
 2657 1010 01       		.byte	0x1
 2658 1011 14       		.byte	0x14
 2659 1012 25000000 		.4byte	0x25
 2660 1016 05       		.uleb128 0x5
 2661 1017 03       		.byte	0x3
 2662 1018 14000000 		.4byte	_ZL5fxamt
 2663 101c 4B       		.uleb128 0x4b
 2664 101d BD010000 		.4byte	.LASF141
 2665 1021 01       		.byte	0x1
 2666 1022 15       		.byte	0x15
 2667 1023 2C000000 		.4byte	0x2c
 2668 1027 05       		.uleb128 0x5
 2669 1028 03       		.byte	0x3
 2670 1029 0C000000 		.4byte	_ZL4type
ARM GAS  C:\msys64\tmp\ccMiE5FV.s 			page 48


 2671 102d 4B       		.uleb128 0x4b
 2672 102e 83060000 		.4byte	.LASF142
 2673 1032 01       		.byte	0x1
 2674 1033 16       		.byte	0x16
 2675 1034 25000000 		.4byte	0x25
 2676 1038 05       		.uleb128 0x5
 2677 1039 03       		.byte	0x3
 2678 103a 10000000 		.4byte	_ZL8bit_rate
 2679 103e 4C       		.uleb128 0x4c
 2680 103f 300A0000 		.4byte	.LASF143
 2681 1043 01       		.byte	0x1
 2682 1044 17       		.byte	0x17
 2683 1045 25000000 		.4byte	0x25
 2684 1049 05       		.uleb128 0x5
 2685 104a 03       		.byte	0x3
 2686 104b 00000000 		.4byte	thresh
 2687 104f 4C       		.uleb128 0x4c
 2688 1050 22080000 		.4byte	.LASF144
 2689 1054 01       		.byte	0x1
 2690 1055 18       		.byte	0x18
 2691 1056 25000000 		.4byte	0x25
 2692 105a 05       		.uleb128 0x5
 2693 105b 03       		.byte	0x3
 2694 105c 00000000 		.4byte	trem_rate
 2695 1060 4C       		.uleb128 0x4c
 2696 1061 7F020000 		.4byte	.LASF145
 2697 1065 01       		.byte	0x1
 2698 1066 19       		.byte	0x19
 2699 1067 2C000000 		.4byte	0x2c
 2700 106b 05       		.uleb128 0x5
 2701 106c 03       		.byte	0x3
 2702 106d 00000000 		.4byte	releaseCount
 2703 1071 4D       		.uleb128 0x4d
 2704 1072 62706D00 		.ascii	"bpm\000"
 2705 1076 01       		.byte	0x1
 2706 1077 1A       		.byte	0x1a
 2707 1078 2C000000 		.4byte	0x2c
 2708 107c 05       		.uleb128 0x5
 2709 107d 03       		.byte	0x3
 2710 107e 00000000 		.4byte	bpm
 2711 1082 4C       		.uleb128 0x4c
 2712 1083 4E080000 		.4byte	.LASF146
 2713 1087 01       		.byte	0x1
 2714 1088 1B       		.byte	0x1b
 2715 1089 25000000 		.4byte	0x25
 2716 108d 05       		.uleb128 0x5
 2717 108e 03       		.byte	0x3
 2718 108f 00000000 		.4byte	lfo_speed
 2719 1093 4B       		.uleb128 0x4b
 2720 1094 31020000 		.4byte	.LASF147
 2721 1098 01       		.byte	0x1
 2722 1099 1E       		.byte	0x1e
 2723 109a 65010000 		.4byte	0x165
 2724 109e 05       		.uleb128 0x5
 2725 109f 03       		.byte	0x3
 2726 10a0 14000000 		.4byte	_ZL5s_lfo
 2727 10a4 4E       		.uleb128 0x4e
ARM GAS  C:\msys64\tmp\ccMiE5FV.s 			page 49


 2728 10a5 16080000 		.4byte	.LASF148
 2729 10a9 16080000 		.4byte	.LASF148
 2730 10ad 0B       		.byte	0xb
 2731 10ae 5D       		.byte	0x5d
 2732 10af 4E       		.uleb128 0x4e
 2733 10b0 70070000 		.4byte	.LASF149
 2734 10b4 70070000 		.4byte	.LASF149
 2735 10b8 0D       		.byte	0xd
 2736 10b9 74       		.byte	0x74
 2737 10ba 4F       		.uleb128 0x4f
 2738 10bb E3020000 		.4byte	.LASF150
 2739 10bf E3020000 		.4byte	.LASF150
 2740 10c3 0D       		.byte	0xd
 2741 10c4 8301     		.2byte	0x183
 2742 10c6 00       		.byte	0
 2743              		.section	.debug_abbrev,"",%progbits
 2744              	.Ldebug_abbrev0:
 2745 0000 01       		.uleb128 0x1
 2746 0001 11       		.uleb128 0x11
 2747 0002 01       		.byte	0x1
 2748 0003 25       		.uleb128 0x25
 2749 0004 0E       		.uleb128 0xe
 2750 0005 13       		.uleb128 0x13
 2751 0006 0B       		.uleb128 0xb
 2752 0007 03       		.uleb128 0x3
 2753 0008 0E       		.uleb128 0xe
 2754 0009 1B       		.uleb128 0x1b
 2755 000a 0E       		.uleb128 0xe
 2756 000b 55       		.uleb128 0x55
 2757 000c 17       		.uleb128 0x17
 2758 000d 11       		.uleb128 0x11
 2759 000e 01       		.uleb128 0x1
 2760 000f 10       		.uleb128 0x10
 2761 0010 17       		.uleb128 0x17
 2762 0011 00       		.byte	0
 2763 0012 00       		.byte	0
 2764 0013 02       		.uleb128 0x2
 2765 0014 24       		.uleb128 0x24
 2766 0015 00       		.byte	0
 2767 0016 0B       		.uleb128 0xb
 2768 0017 0B       		.uleb128 0xb
 2769 0018 3E       		.uleb128 0x3e
 2770 0019 0B       		.uleb128 0xb
 2771 001a 03       		.uleb128 0x3
 2772 001b 0E       		.uleb128 0xe
 2773 001c 00       		.byte	0
 2774 001d 00       		.byte	0
 2775 001e 03       		.uleb128 0x3
 2776 001f 24       		.uleb128 0x24
 2777 0020 00       		.byte	0
 2778 0021 0B       		.uleb128 0xb
 2779 0022 0B       		.uleb128 0xb
 2780 0023 3E       		.uleb128 0x3e
 2781 0024 0B       		.uleb128 0xb
 2782 0025 03       		.uleb128 0x3
 2783 0026 08       		.uleb128 0x8
 2784 0027 00       		.byte	0
ARM GAS  C:\msys64\tmp\ccMiE5FV.s 			page 50


 2785 0028 00       		.byte	0
 2786 0029 04       		.uleb128 0x4
 2787 002a 16       		.uleb128 0x16
 2788 002b 00       		.byte	0
 2789 002c 03       		.uleb128 0x3
 2790 002d 0E       		.uleb128 0xe
 2791 002e 3A       		.uleb128 0x3a
 2792 002f 0B       		.uleb128 0xb
 2793 0030 3B       		.uleb128 0x3b
 2794 0031 0B       		.uleb128 0xb
 2795 0032 49       		.uleb128 0x49
 2796 0033 13       		.uleb128 0x13
 2797 0034 00       		.byte	0
 2798 0035 00       		.byte	0
 2799 0036 05       		.uleb128 0x5
 2800 0037 3B       		.uleb128 0x3b
 2801 0038 00       		.byte	0
 2802 0039 03       		.uleb128 0x3
 2803 003a 0E       		.uleb128 0xe
 2804 003b 00       		.byte	0
 2805 003c 00       		.byte	0
 2806 003d 06       		.uleb128 0x6
 2807 003e 0F       		.uleb128 0xf
 2808 003f 00       		.byte	0
 2809 0040 0B       		.uleb128 0xb
 2810 0041 0B       		.uleb128 0xb
 2811 0042 00       		.byte	0
 2812 0043 00       		.byte	0
 2813 0044 07       		.uleb128 0x7
 2814 0045 17       		.uleb128 0x17
 2815 0046 01       		.byte	0x1
 2816 0047 0B       		.uleb128 0xb
 2817 0048 0B       		.uleb128 0xb
 2818 0049 3A       		.uleb128 0x3a
 2819 004a 0B       		.uleb128 0xb
 2820 004b 3B       		.uleb128 0x3b
 2821 004c 0B       		.uleb128 0xb
 2822 004d 6E       		.uleb128 0x6e
 2823 004e 0E       		.uleb128 0xe
 2824 004f 01       		.uleb128 0x1
 2825 0050 13       		.uleb128 0x13
 2826 0051 00       		.byte	0
 2827 0052 00       		.byte	0
 2828 0053 08       		.uleb128 0x8
 2829 0054 0D       		.uleb128 0xd
 2830 0055 00       		.byte	0
 2831 0056 03       		.uleb128 0x3
 2832 0057 08       		.uleb128 0x8
 2833 0058 3A       		.uleb128 0x3a
 2834 0059 0B       		.uleb128 0xb
 2835 005a 3B       		.uleb128 0x3b
 2836 005b 0B       		.uleb128 0xb
 2837 005c 49       		.uleb128 0x49
 2838 005d 13       		.uleb128 0x13
 2839 005e 00       		.byte	0
 2840 005f 00       		.byte	0
 2841 0060 09       		.uleb128 0x9
ARM GAS  C:\msys64\tmp\ccMiE5FV.s 			page 51


 2842 0061 16       		.uleb128 0x16
 2843 0062 00       		.byte	0
 2844 0063 03       		.uleb128 0x3
 2845 0064 0E       		.uleb128 0xe
 2846 0065 3A       		.uleb128 0x3a
 2847 0066 0B       		.uleb128 0xb
 2848 0067 3B       		.uleb128 0x3b
 2849 0068 05       		.uleb128 0x5
 2850 0069 49       		.uleb128 0x49
 2851 006a 13       		.uleb128 0x13
 2852 006b 00       		.byte	0
 2853 006c 00       		.byte	0
 2854 006d 0A       		.uleb128 0xa
 2855 006e 04       		.uleb128 0x4
 2856 006f 01       		.byte	0x1
 2857 0070 0B       		.uleb128 0xb
 2858 0071 0B       		.uleb128 0xb
 2859 0072 49       		.uleb128 0x49
 2860 0073 13       		.uleb128 0x13
 2861 0074 3A       		.uleb128 0x3a
 2862 0075 0B       		.uleb128 0xb
 2863 0076 3B       		.uleb128 0x3b
 2864 0077 0B       		.uleb128 0xb
 2865 0078 01       		.uleb128 0x1
 2866 0079 13       		.uleb128 0x13
 2867 007a 00       		.byte	0
 2868 007b 00       		.byte	0
 2869 007c 0B       		.uleb128 0xb
 2870 007d 28       		.uleb128 0x28
 2871 007e 00       		.byte	0
 2872 007f 03       		.uleb128 0x3
 2873 0080 0E       		.uleb128 0xe
 2874 0081 1C       		.uleb128 0x1c
 2875 0082 0B       		.uleb128 0xb
 2876 0083 00       		.byte	0
 2877 0084 00       		.byte	0
 2878 0085 0C       		.uleb128 0xc
 2879 0086 0F       		.uleb128 0xf
 2880 0087 00       		.byte	0
 2881 0088 0B       		.uleb128 0xb
 2882 0089 0B       		.uleb128 0xb
 2883 008a 49       		.uleb128 0x49
 2884 008b 13       		.uleb128 0x13
 2885 008c 00       		.byte	0
 2886 008d 00       		.byte	0
 2887 008e 0D       		.uleb128 0xd
 2888 008f 26       		.uleb128 0x26
 2889 0090 00       		.byte	0
 2890 0091 49       		.uleb128 0x49
 2891 0092 13       		.uleb128 0x13
 2892 0093 00       		.byte	0
 2893 0094 00       		.byte	0
 2894 0095 0E       		.uleb128 0xe
 2895 0096 39       		.uleb128 0x39
 2896 0097 01       		.byte	0x1
 2897 0098 03       		.uleb128 0x3
 2898 0099 08       		.uleb128 0x8
ARM GAS  C:\msys64\tmp\ccMiE5FV.s 			page 52


 2899 009a 3A       		.uleb128 0x3a
 2900 009b 0B       		.uleb128 0xb
 2901 009c 3B       		.uleb128 0x3b
 2902 009d 0B       		.uleb128 0xb
 2903 009e 01       		.uleb128 0x1
 2904 009f 13       		.uleb128 0x13
 2905 00a0 00       		.byte	0
 2906 00a1 00       		.byte	0
 2907 00a2 0F       		.uleb128 0xf
 2908 00a3 13       		.uleb128 0x13
 2909 00a4 01       		.byte	0x1
 2910 00a5 03       		.uleb128 0x3
 2911 00a6 0E       		.uleb128 0xe
 2912 00a7 0B       		.uleb128 0xb
 2913 00a8 0B       		.uleb128 0xb
 2914 00a9 3A       		.uleb128 0x3a
 2915 00aa 0B       		.uleb128 0xb
 2916 00ab 3B       		.uleb128 0x3b
 2917 00ac 0B       		.uleb128 0xb
 2918 00ad 01       		.uleb128 0x1
 2919 00ae 13       		.uleb128 0x13
 2920 00af 00       		.byte	0
 2921 00b0 00       		.byte	0
 2922 00b1 10       		.uleb128 0x10
 2923 00b2 0D       		.uleb128 0xd
 2924 00b3 00       		.byte	0
 2925 00b4 03       		.uleb128 0x3
 2926 00b5 0E       		.uleb128 0xe
 2927 00b6 3A       		.uleb128 0x3a
 2928 00b7 0B       		.uleb128 0xb
 2929 00b8 3B       		.uleb128 0x3b
 2930 00b9 05       		.uleb128 0x5
 2931 00ba 49       		.uleb128 0x49
 2932 00bb 13       		.uleb128 0x13
 2933 00bc 38       		.uleb128 0x38
 2934 00bd 0B       		.uleb128 0xb
 2935 00be 00       		.byte	0
 2936 00bf 00       		.byte	0
 2937 00c0 11       		.uleb128 0x11
 2938 00c1 0D       		.uleb128 0xd
 2939 00c2 00       		.byte	0
 2940 00c3 03       		.uleb128 0x3
 2941 00c4 08       		.uleb128 0x8
 2942 00c5 3A       		.uleb128 0x3a
 2943 00c6 0B       		.uleb128 0xb
 2944 00c7 3B       		.uleb128 0x3b
 2945 00c8 05       		.uleb128 0x5
 2946 00c9 49       		.uleb128 0x49
 2947 00ca 13       		.uleb128 0x13
 2948 00cb 38       		.uleb128 0x38
 2949 00cc 0B       		.uleb128 0xb
 2950 00cd 00       		.byte	0
 2951 00ce 00       		.byte	0
 2952 00cf 12       		.uleb128 0x12
 2953 00d0 2E       		.uleb128 0x2e
 2954 00d1 01       		.byte	0x1
 2955 00d2 3F       		.uleb128 0x3f
ARM GAS  C:\msys64\tmp\ccMiE5FV.s 			page 53


 2956 00d3 19       		.uleb128 0x19
 2957 00d4 03       		.uleb128 0x3
 2958 00d5 0E       		.uleb128 0xe
 2959 00d6 3A       		.uleb128 0x3a
 2960 00d7 0B       		.uleb128 0xb
 2961 00d8 3B       		.uleb128 0x3b
 2962 00d9 0B       		.uleb128 0xb
 2963 00da 6E       		.uleb128 0x6e
 2964 00db 0E       		.uleb128 0xe
 2965 00dc 49       		.uleb128 0x49
 2966 00dd 13       		.uleb128 0x13
 2967 00de 3C       		.uleb128 0x3c
 2968 00df 19       		.uleb128 0x19
 2969 00e0 64       		.uleb128 0x64
 2970 00e1 13       		.uleb128 0x13
 2971 00e2 01       		.uleb128 0x1
 2972 00e3 13       		.uleb128 0x13
 2973 00e4 00       		.byte	0
 2974 00e5 00       		.byte	0
 2975 00e6 13       		.uleb128 0x13
 2976 00e7 05       		.uleb128 0x5
 2977 00e8 00       		.byte	0
 2978 00e9 49       		.uleb128 0x49
 2979 00ea 13       		.uleb128 0x13
 2980 00eb 34       		.uleb128 0x34
 2981 00ec 19       		.uleb128 0x19
 2982 00ed 00       		.byte	0
 2983 00ee 00       		.byte	0
 2984 00ef 14       		.uleb128 0x14
 2985 00f0 2E       		.uleb128 0x2e
 2986 00f1 01       		.byte	0x1
 2987 00f2 3F       		.uleb128 0x3f
 2988 00f3 19       		.uleb128 0x19
 2989 00f4 03       		.uleb128 0x3
 2990 00f5 0E       		.uleb128 0xe
 2991 00f6 3A       		.uleb128 0x3a
 2992 00f7 0B       		.uleb128 0xb
 2993 00f8 3B       		.uleb128 0x3b
 2994 00f9 0B       		.uleb128 0xb
 2995 00fa 6E       		.uleb128 0x6e
 2996 00fb 0E       		.uleb128 0xe
 2997 00fc 3C       		.uleb128 0x3c
 2998 00fd 19       		.uleb128 0x19
 2999 00fe 64       		.uleb128 0x64
 3000 00ff 13       		.uleb128 0x13
 3001 0100 01       		.uleb128 0x1
 3002 0101 13       		.uleb128 0x13
 3003 0102 00       		.byte	0
 3004 0103 00       		.byte	0
 3005 0104 15       		.uleb128 0x15
 3006 0105 05       		.uleb128 0x5
 3007 0106 00       		.byte	0
 3008 0107 49       		.uleb128 0x49
 3009 0108 13       		.uleb128 0x13
 3010 0109 00       		.byte	0
 3011 010a 00       		.byte	0
 3012 010b 16       		.uleb128 0x16
ARM GAS  C:\msys64\tmp\ccMiE5FV.s 			page 54


 3013 010c 2E       		.uleb128 0x2e
 3014 010d 01       		.byte	0x1
 3015 010e 3F       		.uleb128 0x3f
 3016 010f 19       		.uleb128 0x19
 3017 0110 03       		.uleb128 0x3
 3018 0111 0E       		.uleb128 0xe
 3019 0112 3A       		.uleb128 0x3a
 3020 0113 0B       		.uleb128 0xb
 3021 0114 3B       		.uleb128 0x3b
 3022 0115 05       		.uleb128 0x5
 3023 0116 6E       		.uleb128 0x6e
 3024 0117 0E       		.uleb128 0xe
 3025 0118 49       		.uleb128 0x49
 3026 0119 13       		.uleb128 0x13
 3027 011a 3C       		.uleb128 0x3c
 3028 011b 19       		.uleb128 0x19
 3029 011c 64       		.uleb128 0x64
 3030 011d 13       		.uleb128 0x13
 3031 011e 01       		.uleb128 0x1
 3032 011f 13       		.uleb128 0x13
 3033 0120 00       		.byte	0
 3034 0121 00       		.byte	0
 3035 0122 17       		.uleb128 0x17
 3036 0123 2E       		.uleb128 0x2e
 3037 0124 01       		.byte	0x1
 3038 0125 3F       		.uleb128 0x3f
 3039 0126 19       		.uleb128 0x19
 3040 0127 03       		.uleb128 0x3
 3041 0128 0E       		.uleb128 0xe
 3042 0129 3A       		.uleb128 0x3a
 3043 012a 0B       		.uleb128 0xb
 3044 012b 3B       		.uleb128 0x3b
 3045 012c 05       		.uleb128 0x5
 3046 012d 6E       		.uleb128 0x6e
 3047 012e 0E       		.uleb128 0xe
 3048 012f 49       		.uleb128 0x49
 3049 0130 13       		.uleb128 0x13
 3050 0131 3C       		.uleb128 0x3c
 3051 0132 19       		.uleb128 0x19
 3052 0133 64       		.uleb128 0x64
 3053 0134 13       		.uleb128 0x13
 3054 0135 00       		.byte	0
 3055 0136 00       		.byte	0
 3056 0137 18       		.uleb128 0x18
 3057 0138 13       		.uleb128 0x13
 3058 0139 01       		.byte	0x1
 3059 013a 03       		.uleb128 0x3
 3060 013b 0E       		.uleb128 0xe
 3061 013c 0B       		.uleb128 0xb
 3062 013d 0B       		.uleb128 0xb
 3063 013e 3A       		.uleb128 0x3a
 3064 013f 0B       		.uleb128 0xb
 3065 0140 3B       		.uleb128 0x3b
 3066 0141 0B       		.uleb128 0xb
 3067 0142 00       		.byte	0
 3068 0143 00       		.byte	0
 3069 0144 19       		.uleb128 0x19
ARM GAS  C:\msys64\tmp\ccMiE5FV.s 			page 55


 3070 0145 0D       		.uleb128 0xd
 3071 0146 00       		.byte	0
 3072 0147 03       		.uleb128 0x3
 3073 0148 0E       		.uleb128 0xe
 3074 0149 3A       		.uleb128 0x3a
 3075 014a 0B       		.uleb128 0xb
 3076 014b 3B       		.uleb128 0x3b
 3077 014c 0B       		.uleb128 0xb
 3078 014d 49       		.uleb128 0x49
 3079 014e 13       		.uleb128 0x13
 3080 014f 38       		.uleb128 0x38
 3081 0150 0B       		.uleb128 0xb
 3082 0151 00       		.byte	0
 3083 0152 00       		.byte	0
 3084 0153 1A       		.uleb128 0x1a
 3085 0154 2E       		.uleb128 0x2e
 3086 0155 01       		.byte	0x1
 3087 0156 3F       		.uleb128 0x3f
 3088 0157 19       		.uleb128 0x19
 3089 0158 03       		.uleb128 0x3
 3090 0159 0E       		.uleb128 0xe
 3091 015a 3A       		.uleb128 0x3a
 3092 015b 0B       		.uleb128 0xb
 3093 015c 3B       		.uleb128 0x3b
 3094 015d 0B       		.uleb128 0xb
 3095 015e 6E       		.uleb128 0x6e
 3096 015f 0E       		.uleb128 0xe
 3097 0160 49       		.uleb128 0x49
 3098 0161 13       		.uleb128 0x13
 3099 0162 3C       		.uleb128 0x3c
 3100 0163 19       		.uleb128 0x19
 3101 0164 64       		.uleb128 0x64
 3102 0165 13       		.uleb128 0x13
 3103 0166 00       		.byte	0
 3104 0167 00       		.byte	0
 3105 0168 1B       		.uleb128 0x1b
 3106 0169 2E       		.uleb128 0x2e
 3107 016a 01       		.byte	0x1
 3108 016b 03       		.uleb128 0x3
 3109 016c 0E       		.uleb128 0xe
 3110 016d 3A       		.uleb128 0x3a
 3111 016e 0B       		.uleb128 0xb
 3112 016f 3B       		.uleb128 0x3b
 3113 0170 05       		.uleb128 0x5
 3114 0171 49       		.uleb128 0x49
 3115 0172 13       		.uleb128 0x13
 3116 0173 20       		.uleb128 0x20
 3117 0174 0B       		.uleb128 0xb
 3118 0175 01       		.uleb128 0x1
 3119 0176 13       		.uleb128 0x13
 3120 0177 00       		.byte	0
 3121 0178 00       		.byte	0
 3122 0179 1C       		.uleb128 0x1c
 3123 017a 05       		.uleb128 0x5
 3124 017b 00       		.byte	0
 3125 017c 03       		.uleb128 0x3
 3126 017d 08       		.uleb128 0x8
ARM GAS  C:\msys64\tmp\ccMiE5FV.s 			page 56


 3127 017e 3A       		.uleb128 0x3a
 3128 017f 0B       		.uleb128 0xb
 3129 0180 3B       		.uleb128 0x3b
 3130 0181 05       		.uleb128 0x5
 3131 0182 49       		.uleb128 0x49
 3132 0183 13       		.uleb128 0x13
 3133 0184 00       		.byte	0
 3134 0185 00       		.byte	0
 3135 0186 1D       		.uleb128 0x1d
 3136 0187 34       		.uleb128 0x34
 3137 0188 00       		.byte	0
 3138 0189 03       		.uleb128 0x3
 3139 018a 0E       		.uleb128 0xe
 3140 018b 3A       		.uleb128 0x3a
 3141 018c 0B       		.uleb128 0xb
 3142 018d 3B       		.uleb128 0x3b
 3143 018e 05       		.uleb128 0x5
 3144 018f 49       		.uleb128 0x49
 3145 0190 13       		.uleb128 0x13
 3146 0191 00       		.byte	0
 3147 0192 00       		.byte	0
 3148 0193 1E       		.uleb128 0x1e
 3149 0194 34       		.uleb128 0x34
 3150 0195 00       		.byte	0
 3151 0196 03       		.uleb128 0x3
 3152 0197 08       		.uleb128 0x8
 3153 0198 3A       		.uleb128 0x3a
 3154 0199 0B       		.uleb128 0xb
 3155 019a 3B       		.uleb128 0x3b
 3156 019b 05       		.uleb128 0x5
 3157 019c 49       		.uleb128 0x49
 3158 019d 13       		.uleb128 0x13
 3159 019e 00       		.byte	0
 3160 019f 00       		.byte	0
 3161 01a0 1F       		.uleb128 0x1f
 3162 01a1 17       		.uleb128 0x17
 3163 01a2 01       		.byte	0x1
 3164 01a3 0B       		.uleb128 0xb
 3165 01a4 0B       		.uleb128 0xb
 3166 01a5 3A       		.uleb128 0x3a
 3167 01a6 0B       		.uleb128 0xb
 3168 01a7 3B       		.uleb128 0x3b
 3169 01a8 05       		.uleb128 0x5
 3170 01a9 01       		.uleb128 0x1
 3171 01aa 13       		.uleb128 0x13
 3172 01ab 00       		.byte	0
 3173 01ac 00       		.byte	0
 3174 01ad 20       		.uleb128 0x20
 3175 01ae 0D       		.uleb128 0xd
 3176 01af 00       		.byte	0
 3177 01b0 03       		.uleb128 0x3
 3178 01b1 08       		.uleb128 0x8
 3179 01b2 3A       		.uleb128 0x3a
 3180 01b3 0B       		.uleb128 0xb
 3181 01b4 3B       		.uleb128 0x3b
 3182 01b5 05       		.uleb128 0x5
 3183 01b6 49       		.uleb128 0x49
ARM GAS  C:\msys64\tmp\ccMiE5FV.s 			page 57


 3184 01b7 13       		.uleb128 0x13
 3185 01b8 00       		.byte	0
 3186 01b9 00       		.byte	0
 3187 01ba 21       		.uleb128 0x21
 3188 01bb 2E       		.uleb128 0x2e
 3189 01bc 01       		.byte	0x1
 3190 01bd 49       		.uleb128 0x49
 3191 01be 13       		.uleb128 0x13
 3192 01bf 34       		.uleb128 0x34
 3193 01c0 19       		.uleb128 0x19
 3194 01c1 3C       		.uleb128 0x3c
 3195 01c2 19       		.uleb128 0x19
 3196 01c3 64       		.uleb128 0x64
 3197 01c4 13       		.uleb128 0x13
 3198 01c5 01       		.uleb128 0x1
 3199 01c6 13       		.uleb128 0x13
 3200 01c7 00       		.byte	0
 3201 01c8 00       		.byte	0
 3202 01c9 22       		.uleb128 0x22
 3203 01ca 42       		.uleb128 0x42
 3204 01cb 00       		.byte	0
 3205 01cc 0B       		.uleb128 0xb
 3206 01cd 0B       		.uleb128 0xb
 3207 01ce 49       		.uleb128 0x49
 3208 01cf 13       		.uleb128 0x13
 3209 01d0 00       		.byte	0
 3210 01d1 00       		.byte	0
 3211 01d2 23       		.uleb128 0x23
 3212 01d3 10       		.uleb128 0x10
 3213 01d4 00       		.byte	0
 3214 01d5 0B       		.uleb128 0xb
 3215 01d6 0B       		.uleb128 0xb
 3216 01d7 49       		.uleb128 0x49
 3217 01d8 13       		.uleb128 0x13
 3218 01d9 00       		.byte	0
 3219 01da 00       		.byte	0
 3220 01db 24       		.uleb128 0x24
 3221 01dc 2E       		.uleb128 0x2e
 3222 01dd 01       		.byte	0x1
 3223 01de 49       		.uleb128 0x49
 3224 01df 13       		.uleb128 0x13
 3225 01e0 34       		.uleb128 0x34
 3226 01e1 19       		.uleb128 0x19
 3227 01e2 3C       		.uleb128 0x3c
 3228 01e3 19       		.uleb128 0x19
 3229 01e4 64       		.uleb128 0x64
 3230 01e5 13       		.uleb128 0x13
 3231 01e6 00       		.byte	0
 3232 01e7 00       		.byte	0
 3233 01e8 25       		.uleb128 0x25
 3234 01e9 2E       		.uleb128 0x2e
 3235 01ea 01       		.byte	0x1
 3236 01eb 03       		.uleb128 0x3
 3237 01ec 0E       		.uleb128 0xe
 3238 01ed 3A       		.uleb128 0x3a
 3239 01ee 0B       		.uleb128 0xb
 3240 01ef 3B       		.uleb128 0x3b
ARM GAS  C:\msys64\tmp\ccMiE5FV.s 			page 58


 3241 01f0 0B       		.uleb128 0xb
 3242 01f1 49       		.uleb128 0x49
 3243 01f2 13       		.uleb128 0x13
 3244 01f3 20       		.uleb128 0x20
 3245 01f4 0B       		.uleb128 0xb
 3246 01f5 01       		.uleb128 0x1
 3247 01f6 13       		.uleb128 0x13
 3248 01f7 00       		.byte	0
 3249 01f8 00       		.byte	0
 3250 01f9 26       		.uleb128 0x26
 3251 01fa 05       		.uleb128 0x5
 3252 01fb 00       		.byte	0
 3253 01fc 03       		.uleb128 0x3
 3254 01fd 08       		.uleb128 0x8
 3255 01fe 3A       		.uleb128 0x3a
 3256 01ff 0B       		.uleb128 0xb
 3257 0200 3B       		.uleb128 0x3b
 3258 0201 0B       		.uleb128 0xb
 3259 0202 49       		.uleb128 0x49
 3260 0203 13       		.uleb128 0x13
 3261 0204 00       		.byte	0
 3262 0205 00       		.byte	0
 3263 0206 27       		.uleb128 0x27
 3264 0207 2E       		.uleb128 0x2e
 3265 0208 01       		.byte	0x1
 3266 0209 47       		.uleb128 0x47
 3267 020a 13       		.uleb128 0x13
 3268 020b 20       		.uleb128 0x20
 3269 020c 0B       		.uleb128 0xb
 3270 020d 64       		.uleb128 0x64
 3271 020e 13       		.uleb128 0x13
 3272 020f 01       		.uleb128 0x1
 3273 0210 13       		.uleb128 0x13
 3274 0211 00       		.byte	0
 3275 0212 00       		.byte	0
 3276 0213 28       		.uleb128 0x28
 3277 0214 05       		.uleb128 0x5
 3278 0215 00       		.byte	0
 3279 0216 03       		.uleb128 0x3
 3280 0217 0E       		.uleb128 0xe
 3281 0218 49       		.uleb128 0x49
 3282 0219 13       		.uleb128 0x13
 3283 021a 34       		.uleb128 0x34
 3284 021b 19       		.uleb128 0x19
 3285 021c 00       		.byte	0
 3286 021d 00       		.byte	0
 3287 021e 29       		.uleb128 0x29
 3288 021f 34       		.uleb128 0x34
 3289 0220 00       		.byte	0
 3290 0221 03       		.uleb128 0x3
 3291 0222 0E       		.uleb128 0xe
 3292 0223 3A       		.uleb128 0x3a
 3293 0224 0B       		.uleb128 0xb
 3294 0225 3B       		.uleb128 0x3b
 3295 0226 0B       		.uleb128 0xb
 3296 0227 49       		.uleb128 0x49
 3297 0228 13       		.uleb128 0x13
ARM GAS  C:\msys64\tmp\ccMiE5FV.s 			page 59


 3298 0229 00       		.byte	0
 3299 022a 00       		.byte	0
 3300 022b 2A       		.uleb128 0x2a
 3301 022c 05       		.uleb128 0x5
 3302 022d 00       		.byte	0
 3303 022e 03       		.uleb128 0x3
 3304 022f 0E       		.uleb128 0xe
 3305 0230 3A       		.uleb128 0x3a
 3306 0231 0B       		.uleb128 0xb
 3307 0232 3B       		.uleb128 0x3b
 3308 0233 0B       		.uleb128 0xb
 3309 0234 49       		.uleb128 0x49
 3310 0235 13       		.uleb128 0x13
 3311 0236 00       		.byte	0
 3312 0237 00       		.byte	0
 3313 0238 2B       		.uleb128 0x2b
 3314 0239 2E       		.uleb128 0x2e
 3315 023a 01       		.byte	0x1
 3316 023b 03       		.uleb128 0x3
 3317 023c 0E       		.uleb128 0xe
 3318 023d 3A       		.uleb128 0x3a
 3319 023e 0B       		.uleb128 0xb
 3320 023f 3B       		.uleb128 0x3b
 3321 0240 0B       		.uleb128 0xb
 3322 0241 20       		.uleb128 0x20
 3323 0242 0B       		.uleb128 0xb
 3324 0243 01       		.uleb128 0x1
 3325 0244 13       		.uleb128 0x13
 3326 0245 00       		.byte	0
 3327 0246 00       		.byte	0
 3328 0247 2C       		.uleb128 0x2c
 3329 0248 34       		.uleb128 0x34
 3330 0249 00       		.byte	0
 3331 024a 03       		.uleb128 0x3
 3332 024b 08       		.uleb128 0x8
 3333 024c 3A       		.uleb128 0x3a
 3334 024d 0B       		.uleb128 0xb
 3335 024e 3B       		.uleb128 0x3b
 3336 024f 0B       		.uleb128 0xb
 3337 0250 49       		.uleb128 0x49
 3338 0251 13       		.uleb128 0x13
 3339 0252 00       		.byte	0
 3340 0253 00       		.byte	0
 3341 0254 2D       		.uleb128 0x2d
 3342 0255 37       		.uleb128 0x37
 3343 0256 00       		.byte	0
 3344 0257 49       		.uleb128 0x49
 3345 0258 13       		.uleb128 0x13
 3346 0259 00       		.byte	0
 3347 025a 00       		.byte	0
 3348 025b 2E       		.uleb128 0x2e
 3349 025c 2E       		.uleb128 0x2e
 3350 025d 01       		.byte	0x1
 3351 025e 03       		.uleb128 0x3
 3352 025f 0E       		.uleb128 0xe
 3353 0260 34       		.uleb128 0x34
 3354 0261 19       		.uleb128 0x19
ARM GAS  C:\msys64\tmp\ccMiE5FV.s 			page 60


 3355 0262 20       		.uleb128 0x20
 3356 0263 0B       		.uleb128 0xb
 3357 0264 01       		.uleb128 0x1
 3358 0265 13       		.uleb128 0x13
 3359 0266 00       		.byte	0
 3360 0267 00       		.byte	0
 3361 0268 2F       		.uleb128 0x2f
 3362 0269 2E       		.uleb128 0x2e
 3363 026a 01       		.byte	0x1
 3364 026b 3F       		.uleb128 0x3f
 3365 026c 19       		.uleb128 0x19
 3366 026d 03       		.uleb128 0x3
 3367 026e 0E       		.uleb128 0xe
 3368 026f 3A       		.uleb128 0x3a
 3369 0270 0B       		.uleb128 0xb
 3370 0271 3B       		.uleb128 0x3b
 3371 0272 0B       		.uleb128 0xb
 3372 0273 11       		.uleb128 0x11
 3373 0274 01       		.uleb128 0x1
 3374 0275 12       		.uleb128 0x12
 3375 0276 06       		.uleb128 0x6
 3376 0277 40       		.uleb128 0x40
 3377 0278 18       		.uleb128 0x18
 3378 0279 9742     		.uleb128 0x2117
 3379 027b 19       		.uleb128 0x19
 3380 027c 01       		.uleb128 0x1
 3381 027d 13       		.uleb128 0x13
 3382 027e 00       		.byte	0
 3383 027f 00       		.byte	0
 3384 0280 30       		.uleb128 0x30
 3385 0281 05       		.uleb128 0x5
 3386 0282 00       		.byte	0
 3387 0283 03       		.uleb128 0x3
 3388 0284 0E       		.uleb128 0xe
 3389 0285 3A       		.uleb128 0x3a
 3390 0286 0B       		.uleb128 0xb
 3391 0287 3B       		.uleb128 0x3b
 3392 0288 0B       		.uleb128 0xb
 3393 0289 49       		.uleb128 0x49
 3394 028a 13       		.uleb128 0x13
 3395 028b 02       		.uleb128 0x2
 3396 028c 17       		.uleb128 0x17
 3397 028d 00       		.byte	0
 3398 028e 00       		.byte	0
 3399 028f 31       		.uleb128 0x31
 3400 0290 05       		.uleb128 0x5
 3401 0291 00       		.byte	0
 3402 0292 03       		.uleb128 0x3
 3403 0293 08       		.uleb128 0x8
 3404 0294 3A       		.uleb128 0x3a
 3405 0295 0B       		.uleb128 0xb
 3406 0296 3B       		.uleb128 0x3b
 3407 0297 0B       		.uleb128 0xb
 3408 0298 49       		.uleb128 0x49
 3409 0299 13       		.uleb128 0x13
 3410 029a 02       		.uleb128 0x2
 3411 029b 17       		.uleb128 0x17
ARM GAS  C:\msys64\tmp\ccMiE5FV.s 			page 61


 3412 029c 00       		.byte	0
 3413 029d 00       		.byte	0
 3414 029e 32       		.uleb128 0x32
 3415 029f 1D       		.uleb128 0x1d
 3416 02a0 01       		.byte	0x1
 3417 02a1 31       		.uleb128 0x31
 3418 02a2 13       		.uleb128 0x13
 3419 02a3 52       		.uleb128 0x52
 3420 02a4 01       		.uleb128 0x1
 3421 02a5 55       		.uleb128 0x55
 3422 02a6 17       		.uleb128 0x17
 3423 02a7 58       		.uleb128 0x58
 3424 02a8 0B       		.uleb128 0xb
 3425 02a9 59       		.uleb128 0x59
 3426 02aa 0B       		.uleb128 0xb
 3427 02ab 01       		.uleb128 0x1
 3428 02ac 13       		.uleb128 0x13
 3429 02ad 00       		.byte	0
 3430 02ae 00       		.byte	0
 3431 02af 33       		.uleb128 0x33
 3432 02b0 05       		.uleb128 0x5
 3433 02b1 00       		.byte	0
 3434 02b2 31       		.uleb128 0x31
 3435 02b3 13       		.uleb128 0x13
 3436 02b4 02       		.uleb128 0x2
 3437 02b5 17       		.uleb128 0x17
 3438 02b6 00       		.byte	0
 3439 02b7 00       		.byte	0
 3440 02b8 34       		.uleb128 0x34
 3441 02b9 1D       		.uleb128 0x1d
 3442 02ba 01       		.byte	0x1
 3443 02bb 31       		.uleb128 0x31
 3444 02bc 13       		.uleb128 0x13
 3445 02bd 11       		.uleb128 0x11
 3446 02be 01       		.uleb128 0x1
 3447 02bf 12       		.uleb128 0x12
 3448 02c0 06       		.uleb128 0x6
 3449 02c1 58       		.uleb128 0x58
 3450 02c2 0B       		.uleb128 0xb
 3451 02c3 59       		.uleb128 0x59
 3452 02c4 0B       		.uleb128 0xb
 3453 02c5 01       		.uleb128 0x1
 3454 02c6 13       		.uleb128 0x13
 3455 02c7 00       		.byte	0
 3456 02c8 00       		.byte	0
 3457 02c9 35       		.uleb128 0x35
 3458 02ca 1D       		.uleb128 0x1d
 3459 02cb 01       		.byte	0x1
 3460 02cc 31       		.uleb128 0x31
 3461 02cd 13       		.uleb128 0x13
 3462 02ce 11       		.uleb128 0x11
 3463 02cf 01       		.uleb128 0x1
 3464 02d0 12       		.uleb128 0x12
 3465 02d1 06       		.uleb128 0x6
 3466 02d2 58       		.uleb128 0x58
 3467 02d3 0B       		.uleb128 0xb
 3468 02d4 59       		.uleb128 0x59
ARM GAS  C:\msys64\tmp\ccMiE5FV.s 			page 62


 3469 02d5 0B       		.uleb128 0xb
 3470 02d6 00       		.byte	0
 3471 02d7 00       		.byte	0
 3472 02d8 36       		.uleb128 0x36
 3473 02d9 0B       		.uleb128 0xb
 3474 02da 01       		.byte	0x1
 3475 02db 11       		.uleb128 0x11
 3476 02dc 01       		.uleb128 0x1
 3477 02dd 12       		.uleb128 0x12
 3478 02de 06       		.uleb128 0x6
 3479 02df 00       		.byte	0
 3480 02e0 00       		.byte	0
 3481 02e1 37       		.uleb128 0x37
 3482 02e2 34       		.uleb128 0x34
 3483 02e3 00       		.byte	0
 3484 02e4 31       		.uleb128 0x31
 3485 02e5 13       		.uleb128 0x13
 3486 02e6 02       		.uleb128 0x2
 3487 02e7 17       		.uleb128 0x17
 3488 02e8 00       		.byte	0
 3489 02e9 00       		.byte	0
 3490 02ea 38       		.uleb128 0x38
 3491 02eb 898201   		.uleb128 0x4109
 3492 02ee 00       		.byte	0
 3493 02ef 11       		.uleb128 0x11
 3494 02f0 01       		.uleb128 0x1
 3495 02f1 31       		.uleb128 0x31
 3496 02f2 13       		.uleb128 0x13
 3497 02f3 00       		.byte	0
 3498 02f4 00       		.byte	0
 3499 02f5 39       		.uleb128 0x39
 3500 02f6 2E       		.uleb128 0x2e
 3501 02f7 01       		.byte	0x1
 3502 02f8 3F       		.uleb128 0x3f
 3503 02f9 19       		.uleb128 0x19
 3504 02fa 03       		.uleb128 0x3
 3505 02fb 0E       		.uleb128 0xe
 3506 02fc 3A       		.uleb128 0x3a
 3507 02fd 0B       		.uleb128 0xb
 3508 02fe 3B       		.uleb128 0x3b
 3509 02ff 0B       		.uleb128 0xb
 3510 0300 11       		.uleb128 0x11
 3511 0301 01       		.uleb128 0x1
 3512 0302 12       		.uleb128 0x12
 3513 0303 06       		.uleb128 0x6
 3514 0304 40       		.uleb128 0x40
 3515 0305 18       		.uleb128 0x18
 3516 0306 9642     		.uleb128 0x2116
 3517 0308 19       		.uleb128 0x19
 3518 0309 01       		.uleb128 0x1
 3519 030a 13       		.uleb128 0x13
 3520 030b 00       		.byte	0
 3521 030c 00       		.byte	0
 3522 030d 3A       		.uleb128 0x3a
 3523 030e 34       		.uleb128 0x34
 3524 030f 00       		.byte	0
 3525 0310 03       		.uleb128 0x3
ARM GAS  C:\msys64\tmp\ccMiE5FV.s 			page 63


 3526 0311 0E       		.uleb128 0xe
 3527 0312 3A       		.uleb128 0x3a
 3528 0313 0B       		.uleb128 0xb
 3529 0314 3B       		.uleb128 0x3b
 3530 0315 0B       		.uleb128 0xb
 3531 0316 49       		.uleb128 0x49
 3532 0317 13       		.uleb128 0x13
 3533 0318 02       		.uleb128 0x2
 3534 0319 17       		.uleb128 0x17
 3535 031a 00       		.byte	0
 3536 031b 00       		.byte	0
 3537 031c 3B       		.uleb128 0x3b
 3538 031d 0B       		.uleb128 0xb
 3539 031e 01       		.byte	0x1
 3540 031f 55       		.uleb128 0x55
 3541 0320 17       		.uleb128 0x17
 3542 0321 00       		.byte	0
 3543 0322 00       		.byte	0
 3544 0323 3C       		.uleb128 0x3c
 3545 0324 34       		.uleb128 0x34
 3546 0325 00       		.byte	0
 3547 0326 03       		.uleb128 0x3
 3548 0327 08       		.uleb128 0x8
 3549 0328 3A       		.uleb128 0x3a
 3550 0329 0B       		.uleb128 0xb
 3551 032a 3B       		.uleb128 0x3b
 3552 032b 0B       		.uleb128 0xb
 3553 032c 49       		.uleb128 0x49
 3554 032d 13       		.uleb128 0x13
 3555 032e 02       		.uleb128 0x2
 3556 032f 17       		.uleb128 0x17
 3557 0330 00       		.byte	0
 3558 0331 00       		.byte	0
 3559 0332 3D       		.uleb128 0x3d
 3560 0333 34       		.uleb128 0x34
 3561 0334 00       		.byte	0
 3562 0335 31       		.uleb128 0x31
 3563 0336 13       		.uleb128 0x13
 3564 0337 02       		.uleb128 0x2
 3565 0338 18       		.uleb128 0x18
 3566 0339 00       		.byte	0
 3567 033a 00       		.byte	0
 3568 033b 3E       		.uleb128 0x3e
 3569 033c 05       		.uleb128 0x5
 3570 033d 00       		.byte	0
 3571 033e 31       		.uleb128 0x31
 3572 033f 13       		.uleb128 0x13
 3573 0340 00       		.byte	0
 3574 0341 00       		.byte	0
 3575 0342 3F       		.uleb128 0x3f
 3576 0343 34       		.uleb128 0x34
 3577 0344 00       		.byte	0
 3578 0345 31       		.uleb128 0x31
 3579 0346 13       		.uleb128 0x13
 3580 0347 00       		.byte	0
 3581 0348 00       		.byte	0
 3582 0349 40       		.uleb128 0x40
ARM GAS  C:\msys64\tmp\ccMiE5FV.s 			page 64


 3583 034a 1D       		.uleb128 0x1d
 3584 034b 01       		.byte	0x1
 3585 034c 31       		.uleb128 0x31
 3586 034d 13       		.uleb128 0x13
 3587 034e 11       		.uleb128 0x11
 3588 034f 01       		.uleb128 0x1
 3589 0350 12       		.uleb128 0x12
 3590 0351 06       		.uleb128 0x6
 3591 0352 58       		.uleb128 0x58
 3592 0353 0B       		.uleb128 0xb
 3593 0354 59       		.uleb128 0x59
 3594 0355 05       		.uleb128 0x5
 3595 0356 00       		.byte	0
 3596 0357 00       		.byte	0
 3597 0358 41       		.uleb128 0x41
 3598 0359 1D       		.uleb128 0x1d
 3599 035a 01       		.byte	0x1
 3600 035b 31       		.uleb128 0x31
 3601 035c 13       		.uleb128 0x13
 3602 035d 52       		.uleb128 0x52
 3603 035e 01       		.uleb128 0x1
 3604 035f 55       		.uleb128 0x55
 3605 0360 17       		.uleb128 0x17
 3606 0361 58       		.uleb128 0x58
 3607 0362 0B       		.uleb128 0xb
 3608 0363 59       		.uleb128 0x59
 3609 0364 0B       		.uleb128 0xb
 3610 0365 00       		.byte	0
 3611 0366 00       		.byte	0
 3612 0367 42       		.uleb128 0x42
 3613 0368 898201   		.uleb128 0x4109
 3614 036b 01       		.byte	0x1
 3615 036c 11       		.uleb128 0x11
 3616 036d 01       		.uleb128 0x1
 3617 036e 31       		.uleb128 0x31
 3618 036f 13       		.uleb128 0x13
 3619 0370 00       		.byte	0
 3620 0371 00       		.byte	0
 3621 0372 43       		.uleb128 0x43
 3622 0373 8A8201   		.uleb128 0x410a
 3623 0376 00       		.byte	0
 3624 0377 02       		.uleb128 0x2
 3625 0378 18       		.uleb128 0x18
 3626 0379 9142     		.uleb128 0x2111
 3627 037b 18       		.uleb128 0x18
 3628 037c 00       		.byte	0
 3629 037d 00       		.byte	0
 3630 037e 44       		.uleb128 0x44
 3631 037f 2E       		.uleb128 0x2e
 3632 0380 01       		.byte	0x1
 3633 0381 03       		.uleb128 0x3
 3634 0382 0E       		.uleb128 0xe
 3635 0383 34       		.uleb128 0x34
 3636 0384 19       		.uleb128 0x19
 3637 0385 11       		.uleb128 0x11
 3638 0386 01       		.uleb128 0x1
 3639 0387 12       		.uleb128 0x12
ARM GAS  C:\msys64\tmp\ccMiE5FV.s 			page 65


 3640 0388 06       		.uleb128 0x6
 3641 0389 40       		.uleb128 0x40
 3642 038a 18       		.uleb128 0x18
 3643 038b 9742     		.uleb128 0x2117
 3644 038d 19       		.uleb128 0x19
 3645 038e 01       		.uleb128 0x1
 3646 038f 13       		.uleb128 0x13
 3647 0390 00       		.byte	0
 3648 0391 00       		.byte	0
 3649 0392 45       		.uleb128 0x45
 3650 0393 05       		.uleb128 0x5
 3651 0394 00       		.byte	0
 3652 0395 31       		.uleb128 0x31
 3653 0396 13       		.uleb128 0x13
 3654 0397 02       		.uleb128 0x2
 3655 0398 18       		.uleb128 0x18
 3656 0399 00       		.byte	0
 3657 039a 00       		.byte	0
 3658 039b 46       		.uleb128 0x46
 3659 039c 34       		.uleb128 0x34
 3660 039d 00       		.byte	0
 3661 039e 03       		.uleb128 0x3
 3662 039f 0E       		.uleb128 0xe
 3663 03a0 3A       		.uleb128 0x3a
 3664 03a1 0B       		.uleb128 0xb
 3665 03a2 3B       		.uleb128 0x3b
 3666 03a3 0B       		.uleb128 0xb
 3667 03a4 49       		.uleb128 0x49
 3668 03a5 13       		.uleb128 0x13
 3669 03a6 3F       		.uleb128 0x3f
 3670 03a7 19       		.uleb128 0x19
 3671 03a8 3C       		.uleb128 0x3c
 3672 03a9 19       		.uleb128 0x19
 3673 03aa 00       		.byte	0
 3674 03ab 00       		.byte	0
 3675 03ac 47       		.uleb128 0x47
 3676 03ad 01       		.uleb128 0x1
 3677 03ae 01       		.byte	0x1
 3678 03af 49       		.uleb128 0x49
 3679 03b0 13       		.uleb128 0x13
 3680 03b1 01       		.uleb128 0x1
 3681 03b2 13       		.uleb128 0x13
 3682 03b3 00       		.byte	0
 3683 03b4 00       		.byte	0
 3684 03b5 48       		.uleb128 0x48
 3685 03b6 21       		.uleb128 0x21
 3686 03b7 00       		.byte	0
 3687 03b8 49       		.uleb128 0x49
 3688 03b9 13       		.uleb128 0x13
 3689 03ba 2F       		.uleb128 0x2f
 3690 03bb 0B       		.uleb128 0xb
 3691 03bc 00       		.byte	0
 3692 03bd 00       		.byte	0
 3693 03be 49       		.uleb128 0x49
 3694 03bf 21       		.uleb128 0x21
 3695 03c0 00       		.byte	0
 3696 03c1 49       		.uleb128 0x49
ARM GAS  C:\msys64\tmp\ccMiE5FV.s 			page 66


 3697 03c2 13       		.uleb128 0x13
 3698 03c3 2F       		.uleb128 0x2f
 3699 03c4 05       		.uleb128 0x5
 3700 03c5 00       		.byte	0
 3701 03c6 00       		.byte	0
 3702 03c7 4A       		.uleb128 0x4a
 3703 03c8 34       		.uleb128 0x34
 3704 03c9 00       		.byte	0
 3705 03ca 03       		.uleb128 0x3
 3706 03cb 0E       		.uleb128 0xe
 3707 03cc 3A       		.uleb128 0x3a
 3708 03cd 0B       		.uleb128 0xb
 3709 03ce 3B       		.uleb128 0x3b
 3710 03cf 05       		.uleb128 0x5
 3711 03d0 49       		.uleb128 0x49
 3712 03d1 13       		.uleb128 0x13
 3713 03d2 3F       		.uleb128 0x3f
 3714 03d3 19       		.uleb128 0x19
 3715 03d4 3C       		.uleb128 0x3c
 3716 03d5 19       		.uleb128 0x19
 3717 03d6 00       		.byte	0
 3718 03d7 00       		.byte	0
 3719 03d8 4B       		.uleb128 0x4b
 3720 03d9 34       		.uleb128 0x34
 3721 03da 00       		.byte	0
 3722 03db 03       		.uleb128 0x3
 3723 03dc 0E       		.uleb128 0xe
 3724 03dd 3A       		.uleb128 0x3a
 3725 03de 0B       		.uleb128 0xb
 3726 03df 3B       		.uleb128 0x3b
 3727 03e0 0B       		.uleb128 0xb
 3728 03e1 49       		.uleb128 0x49
 3729 03e2 13       		.uleb128 0x13
 3730 03e3 02       		.uleb128 0x2
 3731 03e4 18       		.uleb128 0x18
 3732 03e5 00       		.byte	0
 3733 03e6 00       		.byte	0
 3734 03e7 4C       		.uleb128 0x4c
 3735 03e8 34       		.uleb128 0x34
 3736 03e9 00       		.byte	0
 3737 03ea 03       		.uleb128 0x3
 3738 03eb 0E       		.uleb128 0xe
 3739 03ec 3A       		.uleb128 0x3a
 3740 03ed 0B       		.uleb128 0xb
 3741 03ee 3B       		.uleb128 0x3b
 3742 03ef 0B       		.uleb128 0xb
 3743 03f0 49       		.uleb128 0x49
 3744 03f1 13       		.uleb128 0x13
 3745 03f2 3F       		.uleb128 0x3f
 3746 03f3 19       		.uleb128 0x19
 3747 03f4 02       		.uleb128 0x2
 3748 03f5 18       		.uleb128 0x18
 3749 03f6 00       		.byte	0
 3750 03f7 00       		.byte	0
 3751 03f8 4D       		.uleb128 0x4d
 3752 03f9 34       		.uleb128 0x34
 3753 03fa 00       		.byte	0
ARM GAS  C:\msys64\tmp\ccMiE5FV.s 			page 67


 3754 03fb 03       		.uleb128 0x3
 3755 03fc 08       		.uleb128 0x8
 3756 03fd 3A       		.uleb128 0x3a
 3757 03fe 0B       		.uleb128 0xb
 3758 03ff 3B       		.uleb128 0x3b
 3759 0400 0B       		.uleb128 0xb
 3760 0401 49       		.uleb128 0x49
 3761 0402 13       		.uleb128 0x13
 3762 0403 3F       		.uleb128 0x3f
 3763 0404 19       		.uleb128 0x19
 3764 0405 02       		.uleb128 0x2
 3765 0406 18       		.uleb128 0x18
 3766 0407 00       		.byte	0
 3767 0408 00       		.byte	0
 3768 0409 4E       		.uleb128 0x4e
 3769 040a 2E       		.uleb128 0x2e
 3770 040b 00       		.byte	0
 3771 040c 3F       		.uleb128 0x3f
 3772 040d 19       		.uleb128 0x19
 3773 040e 3C       		.uleb128 0x3c
 3774 040f 19       		.uleb128 0x19
 3775 0410 6E       		.uleb128 0x6e
 3776 0411 0E       		.uleb128 0xe
 3777 0412 03       		.uleb128 0x3
 3778 0413 0E       		.uleb128 0xe
 3779 0414 3A       		.uleb128 0x3a
 3780 0415 0B       		.uleb128 0xb
 3781 0416 3B       		.uleb128 0x3b
 3782 0417 0B       		.uleb128 0xb
 3783 0418 00       		.byte	0
 3784 0419 00       		.byte	0
 3785 041a 4F       		.uleb128 0x4f
 3786 041b 2E       		.uleb128 0x2e
 3787 041c 00       		.byte	0
 3788 041d 3F       		.uleb128 0x3f
 3789 041e 19       		.uleb128 0x19
 3790 041f 3C       		.uleb128 0x3c
 3791 0420 19       		.uleb128 0x19
 3792 0421 6E       		.uleb128 0x6e
 3793 0422 0E       		.uleb128 0xe
 3794 0423 03       		.uleb128 0x3
 3795 0424 0E       		.uleb128 0xe
 3796 0425 3A       		.uleb128 0x3a
 3797 0426 0B       		.uleb128 0xb
 3798 0427 3B       		.uleb128 0x3b
 3799 0428 05       		.uleb128 0x5
 3800 0429 00       		.byte	0
 3801 042a 00       		.byte	0
 3802 042b 00       		.byte	0
 3803              		.section	.debug_loc,"",%progbits
 3804              	.Ldebug_loc0:
 3805              	.LLST0:
 3806 0000 00000000 		.4byte	.LVL0
 3807 0004 41000000 		.4byte	.LVL10-1
 3808 0008 0100     		.2byte	0x1
 3809 000a 50       		.byte	0x50
 3810 000b 41000000 		.4byte	.LVL10-1
ARM GAS  C:\msys64\tmp\ccMiE5FV.s 			page 68


 3811 000f 8C000000 		.4byte	.LFE320
 3812 0013 0400     		.2byte	0x4
 3813 0015 F3       		.byte	0xf3
 3814 0016 01       		.uleb128 0x1
 3815 0017 50       		.byte	0x50
 3816 0018 9F       		.byte	0x9f
 3817 0019 00000000 		.4byte	0
 3818 001d 00000000 		.4byte	0
 3819              	.LLST1:
 3820 0021 00000000 		.4byte	.LVL0
 3821 0025 08000000 		.4byte	.LVL1
 3822 0029 0100     		.2byte	0x1
 3823 002b 51       		.byte	0x51
 3824 002c 08000000 		.4byte	.LVL1
 3825 0030 8C000000 		.4byte	.LFE320
 3826 0034 0400     		.2byte	0x4
 3827 0036 F3       		.byte	0xf3
 3828 0037 01       		.uleb128 0x1
 3829 0038 51       		.byte	0x51
 3830 0039 9F       		.byte	0x9f
 3831 003a 00000000 		.4byte	0
 3832 003e 00000000 		.4byte	0
 3833              	.LLST2:
 3834 0042 00000000 		.4byte	.LVL0
 3835 0046 1A000000 		.4byte	.LVL2
 3836 004a 0400     		.2byte	0x4
 3837 004c 0A       		.byte	0xa
 3838 004d 80BB     		.2byte	0xbb80
 3839 004f 9F       		.byte	0x9f
 3840 0050 00000000 		.4byte	0
 3841 0054 00000000 		.4byte	0
 3842              	.LLST3:
 3843 0058 00000000 		.4byte	.LVL0
 3844 005c 1A000000 		.4byte	.LVL2
 3845 0060 0600     		.2byte	0x6
 3846 0062 03       		.byte	0x3
 3847 0063 00000000 		.4byte	_ZL11s_delay_ram
 3848 0067 9F       		.byte	0x9f
 3849 0068 00000000 		.4byte	0
 3850 006c 00000000 		.4byte	0
 3851              	.LLST4:
 3852 0070 00000000 		.4byte	.LVL0
 3853 0074 1A000000 		.4byte	.LVL2
 3854 0078 0600     		.2byte	0x6
 3855 007a 03       		.byte	0x3
 3856 007b 00000000 		.4byte	_ZL7s_delay
 3857 007f 9F       		.byte	0x9f
 3858 0080 00000000 		.4byte	0
 3859 0084 00000000 		.4byte	0
 3860              	.LLST5:
 3861 0088 1A000000 		.4byte	.LVL2
 3862 008c 38000000 		.4byte	.LVL8
 3863 0090 0600     		.2byte	0x6
 3864 0092 03       		.byte	0x3
 3865 0093 00000000 		.4byte	_ZL7s_delay
 3866 0097 9F       		.byte	0x9f
 3867 0098 00000000 		.4byte	0
ARM GAS  C:\msys64\tmp\ccMiE5FV.s 			page 69


 3868 009c 00000000 		.4byte	0
 3869              	.LLST6:
 3870 00a0 1A000000 		.4byte	.LVL2
 3871 00a4 38000000 		.4byte	.LVL8
 3872 00a8 0400     		.2byte	0x4
 3873 00aa 40       		.byte	0x40
 3874 00ab 3C       		.byte	0x3c
 3875 00ac 24       		.byte	0x24
 3876 00ad 9F       		.byte	0x9f
 3877 00ae 00000000 		.4byte	0
 3878 00b2 00000000 		.4byte	0
 3879              	.LLST7:
 3880 00b6 1A000000 		.4byte	.LVL2
 3881 00ba 22000000 		.4byte	.LVL3
 3882 00be 0600     		.2byte	0x6
 3883 00c0 03       		.byte	0x3
 3884 00c1 00000000 		.4byte	_ZL11s_delay_ram
 3885 00c5 9F       		.byte	0x9f
 3886 00c6 22000000 		.4byte	.LVL3
 3887 00ca 26000000 		.4byte	.LVL4
 3888 00ce 0300     		.2byte	0x3
 3889 00d0 73       		.byte	0x73
 3890 00d1 74       		.sleb128 -12
 3891 00d2 9F       		.byte	0x9f
 3892 00d3 26000000 		.4byte	.LVL4
 3893 00d7 2A000000 		.4byte	.LVL5
 3894 00db 0300     		.2byte	0x3
 3895 00dd 73       		.byte	0x73
 3896 00de 78       		.sleb128 -8
 3897 00df 9F       		.byte	0x9f
 3898 00e0 2A000000 		.4byte	.LVL5
 3899 00e4 2E000000 		.4byte	.LVL6
 3900 00e8 0300     		.2byte	0x3
 3901 00ea 73       		.byte	0x73
 3902 00eb 7C       		.sleb128 -4
 3903 00ec 9F       		.byte	0x9f
 3904 00ed 2E000000 		.4byte	.LVL6
 3905 00f1 34000000 		.4byte	.LVL7
 3906 00f5 0100     		.2byte	0x1
 3907 00f7 53       		.byte	0x53
 3908 00f8 34000000 		.4byte	.LVL7
 3909 00fc 38000000 		.4byte	.LVL8
 3910 0100 0300     		.2byte	0x3
 3911 0102 73       		.byte	0x73
 3912 0103 70       		.sleb128 -16
 3913 0104 9F       		.byte	0x9f
 3914 0105 00000000 		.4byte	0
 3915 0109 00000000 		.4byte	0
 3916              	.LLST8:
 3917 010d 1A000000 		.4byte	.LVL2
 3918 0111 38000000 		.4byte	.LVL8
 3919 0115 0600     		.2byte	0x6
 3920 0117 03       		.byte	0x3
 3921 0118 00000400 		.4byte	_ZL11s_delay_ram+262144
 3922 011c 9F       		.byte	0x9f
 3923 011d 00000000 		.4byte	0
 3924 0121 00000000 		.4byte	0
ARM GAS  C:\msys64\tmp\ccMiE5FV.s 			page 70


 3925              	.LLST9:
 3926 0125 38000000 		.4byte	.LVL8
 3927 0129 3E000000 		.4byte	.LVL9
 3928 012d 0600     		.2byte	0x6
 3929 012f 03       		.byte	0x3
 3930 0130 14000000 		.4byte	_ZL5s_lfo
 3931 0134 9F       		.byte	0x9f
 3932 0135 00000000 		.4byte	0
 3933 0139 00000000 		.4byte	0
 3934              	.LLST10:
 3935 013d 66000000 		.4byte	.LVL11
 3936 0141 6A000000 		.4byte	.LVL12
 3937 0145 0C00     		.2byte	0xc
 3938 0147 F5       		.byte	0xf5
 3939 0148 4F       		.uleb128 0x4f
 3940 0149 25       		.uleb128 0x25
 3941 014a F4       		.byte	0xf4
 3942 014b 25       		.uleb128 0x25
 3943 014c 04       		.byte	0x4
 3944 014d 3EC3AE37 		.4byte	0x37aec33e
 3945 0151 1E       		.byte	0x1e
 3946 0152 9F       		.byte	0x9f
 3947 0153 6A000000 		.4byte	.LVL12
 3948 0157 6E000000 		.4byte	.LVL13
 3949 015b 0200     		.2byte	0x2
 3950 015d 90       		.byte	0x90
 3951 015e 4F       		.uleb128 0x4f
 3952 015f 6E000000 		.4byte	.LVL13
 3953 0163 76000000 		.4byte	.LVL14
 3954 0167 0F00     		.2byte	0xf
 3955 0169 70       		.byte	0x70
 3956 016a 00       		.sleb128 0
 3957 016b F7       		.byte	0xf7
 3958 016c 2C       		.uleb128 0x2c
 3959 016d F7       		.byte	0xf7
 3960 016e 25       		.uleb128 0x25
 3961 016f F4       		.byte	0xf4
 3962 0170 25       		.uleb128 0x25
 3963 0171 04       		.byte	0x4
 3964 0172 3EC3AE37 		.4byte	0x37aec33e
 3965 0176 1E       		.byte	0x1e
 3966 0177 9F       		.byte	0x9f
 3967 0178 00000000 		.4byte	0
 3968 017c 00000000 		.4byte	0
 3969              	.LLST11:
 3970 0180 66000000 		.4byte	.LVL11
 3971 0184 76000000 		.4byte	.LVL14
 3972 0188 0200     		.2byte	0x2
 3973 018a 90       		.byte	0x90
 3974 018b 4D       		.uleb128 0x4d
 3975 018c 00000000 		.4byte	0
 3976 0190 00000000 		.4byte	0
 3977              	.LLST12:
 3978 0194 66000000 		.4byte	.LVL11
 3979 0198 76000000 		.4byte	.LVL14
 3980 019c 0600     		.2byte	0x6
 3981 019e 03       		.byte	0x3
ARM GAS  C:\msys64\tmp\ccMiE5FV.s 			page 71


 3982 019f 14000000 		.4byte	_ZL5s_lfo
 3983 01a3 9F       		.byte	0x9f
 3984 01a4 00000000 		.4byte	0
 3985 01a8 00000000 		.4byte	0
 3986              	.LLST13:
 3987 01ac 8C000000 		.4byte	.LVL15
 3988 01b0 E0000000 		.4byte	.LVL19
 3989 01b4 0100     		.2byte	0x1
 3990 01b6 50       		.byte	0x50
 3991 01b7 E0000000 		.4byte	.LVL19
 3992 01bb 86010000 		.4byte	.LVL25
 3993 01bf 0100     		.2byte	0x1
 3994 01c1 5A       		.byte	0x5a
 3995 01c2 86010000 		.4byte	.LVL25
 3996 01c6 9A010000 		.4byte	.LVL27
 3997 01ca 0100     		.2byte	0x1
 3998 01cc 50       		.byte	0x50
 3999 01cd 9A010000 		.4byte	.LVL27
 4000 01d1 EA010000 		.4byte	.LVL34
 4001 01d5 0100     		.2byte	0x1
 4002 01d7 5A       		.byte	0x5a
 4003 01d8 EA010000 		.4byte	.LVL34
 4004 01dc 0E020000 		.4byte	.LVL36
 4005 01e0 0100     		.2byte	0x1
 4006 01e2 50       		.byte	0x50
 4007 01e3 0E020000 		.4byte	.LVL36
 4008 01e7 0C030000 		.4byte	.LVL47
 4009 01eb 0100     		.2byte	0x1
 4010 01ed 5A       		.byte	0x5a
 4011 01ee 0C030000 		.4byte	.LVL47
 4012 01f2 20030000 		.4byte	.LVL49
 4013 01f6 0300     		.2byte	0x3
 4014 01f8 70       		.byte	0x70
 4015 01f9 04       		.sleb128 4
 4016 01fa 9F       		.byte	0x9f
 4017 01fb 20030000 		.4byte	.LVL49
 4018 01ff 7C030000 		.4byte	.LFE321
 4019 0203 0100     		.2byte	0x1
 4020 0205 50       		.byte	0x50
 4021 0206 00000000 		.4byte	0
 4022 020a 00000000 		.4byte	0
 4023              	.LLST14:
 4024 020e 8C000000 		.4byte	.LVL15
 4025 0212 A8000000 		.4byte	.LVL17
 4026 0216 0100     		.2byte	0x1
 4027 0218 51       		.byte	0x51
 4028 0219 A8000000 		.4byte	.LVL17
 4029 021d DC000000 		.4byte	.LVL18
 4030 0221 0100     		.2byte	0x1
 4031 0223 54       		.byte	0x54
 4032 0224 DC000000 		.4byte	.LVL18
 4033 0228 86010000 		.4byte	.LVL25
 4034 022c 0100     		.2byte	0x1
 4035 022e 5B       		.byte	0x5b
 4036 022f 86010000 		.4byte	.LVL25
 4037 0233 96010000 		.4byte	.LVL26
 4038 0237 0100     		.2byte	0x1
ARM GAS  C:\msys64\tmp\ccMiE5FV.s 			page 72


 4039 0239 54       		.byte	0x54
 4040 023a 96010000 		.4byte	.LVL26
 4041 023e EA010000 		.4byte	.LVL34
 4042 0242 0100     		.2byte	0x1
 4043 0244 5B       		.byte	0x5b
 4044 0245 EA010000 		.4byte	.LVL34
 4045 0249 0A020000 		.4byte	.LVL35
 4046 024d 0100     		.2byte	0x1
 4047 024f 54       		.byte	0x54
 4048 0250 0A020000 		.4byte	.LVL35
 4049 0254 0C030000 		.4byte	.LVL47
 4050 0258 0100     		.2byte	0x1
 4051 025a 5B       		.byte	0x5b
 4052 025b 0C030000 		.4byte	.LVL47
 4053 025f 1E030000 		.4byte	.LVL48
 4054 0263 0100     		.2byte	0x1
 4055 0265 54       		.byte	0x54
 4056 0266 1E030000 		.4byte	.LVL48
 4057 026a 28030000 		.4byte	.LVL50
 4058 026e 0300     		.2byte	0x3
 4059 0270 74       		.byte	0x74
 4060 0271 7C       		.sleb128 -4
 4061 0272 9F       		.byte	0x9f
 4062 0273 44030000 		.4byte	.LVL51
 4063 0277 52030000 		.4byte	.LVL53
 4064 027b 0100     		.2byte	0x1
 4065 027d 54       		.byte	0x54
 4066 027e 00000000 		.4byte	0
 4067 0282 00000000 		.4byte	0
 4068              	.LLST15:
 4069 0286 8C000000 		.4byte	.LVL15
 4070 028a A8000000 		.4byte	.LVL17
 4071 028e 0100     		.2byte	0x1
 4072 0290 52       		.byte	0x52
 4073 0291 A8000000 		.4byte	.LVL17
 4074 0295 7C030000 		.4byte	.LFE321
 4075 0299 0400     		.2byte	0x4
 4076 029b F3       		.byte	0xf3
 4077 029c 01       		.uleb128 0x1
 4078 029d 52       		.byte	0x52
 4079 029e 9F       		.byte	0x9f
 4080 029f 00000000 		.4byte	0
 4081 02a3 00000000 		.4byte	0
 4082              	.LLST16:
 4083 02a7 8C000000 		.4byte	.LVL15
 4084 02ab 9C000000 		.4byte	.LVL16
 4085 02af 0100     		.2byte	0x1
 4086 02b1 53       		.byte	0x53
 4087 02b2 9C000000 		.4byte	.LVL16
 4088 02b6 7C030000 		.4byte	.LFE321
 4089 02ba 0400     		.2byte	0x4
 4090 02bc F3       		.byte	0xf3
 4091 02bd 01       		.uleb128 0x1
 4092 02be 53       		.byte	0x53
 4093 02bf 9F       		.byte	0x9f
 4094 02c0 00000000 		.4byte	0
 4095 02c4 00000000 		.4byte	0
ARM GAS  C:\msys64\tmp\ccMiE5FV.s 			page 73


 4096              	.LLST17:
 4097 02c8 8C000000 		.4byte	.LVL15
 4098 02cc 52030000 		.4byte	.LVL53
 4099 02d0 0200     		.2byte	0x2
 4100 02d2 91       		.byte	0x91
 4101 02d3 00       		.sleb128 0
 4102 02d4 52030000 		.4byte	.LVL53
 4103 02d8 7C030000 		.4byte	.LFE321
 4104 02dc 0200     		.2byte	0x2
 4105 02de 7D       		.byte	0x7d
 4106 02df 00       		.sleb128 0
 4107 02e0 00000000 		.4byte	0
 4108 02e4 00000000 		.4byte	0
 4109              	.LLST18:
 4110 02e8 28030000 		.4byte	.LVL50
 4111 02ec 44030000 		.4byte	.LVL51
 4112 02f0 0200     		.2byte	0x2
 4113 02f2 90       		.byte	0x90
 4114 02f3 4F       		.uleb128 0x4f
 4115 02f4 00000000 		.4byte	0
 4116 02f8 00000000 		.4byte	0
 4117              	.LLST19:
 4118 02fc 8C000000 		.4byte	.LVL15
 4119 0300 A8000000 		.4byte	.LVL17
 4120 0304 0200     		.2byte	0x2
 4121 0306 30       		.byte	0x30
 4122 0307 9F       		.byte	0x9f
 4123 0308 A8000000 		.4byte	.LVL17
 4124 030c 52030000 		.4byte	.LVL53
 4125 0310 0100     		.2byte	0x1
 4126 0312 57       		.byte	0x57
 4127 0313 00000000 		.4byte	0
 4128 0317 00000000 		.4byte	0
 4129              	.LLST20:
 4130 031b 0E020000 		.4byte	.LVL36
 4131 031f 32020000 		.4byte	.LVL38
 4132 0323 0200     		.2byte	0x2
 4133 0325 90       		.byte	0x90
 4134 0326 4B       		.uleb128 0x4b
 4135 0327 DA020000 		.4byte	.LVL45
 4136 032b DE020000 		.4byte	.LVL46
 4137 032f 2C00     		.2byte	0x2c
 4138 0331 92       		.byte	0x92
 4139 0332 4E       		.uleb128 0x4e
 4140 0333 00       		.sleb128 0
 4141 0334 0C       		.byte	0xc
 4142 0335 FFFFFF7F 		.4byte	0x7fffffff
 4143 0339 1A       		.byte	0x1a
 4144 033a F9       		.byte	0xf9
 4145 033b 25       		.uleb128 0x25
 4146 033c F4       		.byte	0xf4
 4147 033d 25       		.uleb128 0x25
 4148 033e 04       		.byte	0x4
 4149 033f 0000803F 		.4byte	0x3f800000
 4150 0343 1C       		.byte	0x1c
 4151 0344 F5       		.byte	0xf5
 4152 0345 4E       		.uleb128 0x4e
ARM GAS  C:\msys64\tmp\ccMiE5FV.s 			page 74


 4153 0346 25       		.uleb128 0x25
 4154 0347 1E       		.byte	0x1e
 4155 0348 F4       		.byte	0xf4
 4156 0349 25       		.uleb128 0x25
 4157 034a 04       		.byte	0x4
 4158 034b 00008040 		.4byte	0x40800000
 4159 034f 1E       		.byte	0x1e
 4160 0350 F4       		.byte	0xf4
 4161 0351 25       		.uleb128 0x25
 4162 0352 04       		.byte	0x4
 4163 0353 0000003F 		.4byte	0x3f000000
 4164 0357 1E       		.byte	0x1e
 4165 0358 F5       		.byte	0xf5
 4166 0359 4C       		.uleb128 0x4c
 4167 035a 25       		.uleb128 0x25
 4168 035b 1E       		.byte	0x1e
 4169 035c 9F       		.byte	0x9f
 4170 035d 00000000 		.4byte	0
 4171 0361 00000000 		.4byte	0
 4172              	.LLST21:
 4173 0365 CE020000 		.4byte	.LVL44
 4174 0369 DA020000 		.4byte	.LVL45
 4175 036d 0600     		.2byte	0x6
 4176 036f 03       		.byte	0x3
 4177 0370 14000000 		.4byte	_ZL5s_lfo
 4178 0374 9F       		.byte	0x9f
 4179 0375 00000000 		.4byte	0
 4180 0379 00000000 		.4byte	0
 4181              	.LLST22:
 4182 037d 16020000 		.4byte	.LVL37
 4183 0381 32020000 		.4byte	.LVL38
 4184 0385 0200     		.2byte	0x2
 4185 0387 90       		.byte	0x90
 4186 0388 4B       		.uleb128 0x4b
 4187 0389 00000000 		.4byte	0
 4188 038d 00000000 		.4byte	0
 4189              	.LLST23:
 4190 0391 DA020000 		.4byte	.LVL45
 4191 0395 DE020000 		.4byte	.LVL46
 4192 0399 0600     		.2byte	0x6
 4193 039b 03       		.byte	0x3
 4194 039c 14000000 		.4byte	_ZL5s_lfo
 4195 03a0 9F       		.byte	0x9f
 4196 03a1 00000000 		.4byte	0
 4197 03a5 00000000 		.4byte	0
 4198              	.LLST24:
 4199 03a9 E0000000 		.4byte	.LVL19
 4200 03ad 47010000 		.4byte	.LVL20-1
 4201 03b1 0200     		.2byte	0x2
 4202 03b3 90       		.byte	0x90
 4203 03b4 4D       		.uleb128 0x4d
 4204 03b5 00000000 		.4byte	0
 4205 03b9 00000000 		.4byte	0
 4206              	.LLST25:
 4207 03bd 9A010000 		.4byte	.LVL27
 4208 03c1 D8010000 		.4byte	.LVL31
 4209 03c5 0200     		.2byte	0x2
ARM GAS  C:\msys64\tmp\ccMiE5FV.s 			page 75


 4210 03c7 90       		.byte	0x90
 4211 03c8 50       		.uleb128 0x50
 4212 03c9 DC010000 		.4byte	.LVL32
 4213 03cd E0010000 		.4byte	.LVL33
 4214 03d1 0200     		.2byte	0x2
 4215 03d3 90       		.byte	0x90
 4216 03d4 50       		.uleb128 0x50
 4217 03d5 00000000 		.4byte	0
 4218 03d9 00000000 		.4byte	0
 4219              	.LLST26:
 4220 03dd 9A010000 		.4byte	.LVL27
 4221 03e1 B2010000 		.4byte	.LVL29
 4222 03e5 0200     		.2byte	0x2
 4223 03e7 90       		.byte	0x90
 4224 03e8 50       		.uleb128 0x50
 4225 03e9 00000000 		.4byte	0
 4226 03ed 00000000 		.4byte	0
 4227              	.LLST27:
 4228 03f1 C0010000 		.4byte	.LVL30
 4229 03f5 E0010000 		.4byte	.LVL33
 4230 03f9 0200     		.2byte	0x2
 4231 03fb 90       		.byte	0x90
 4232 03fc 50       		.uleb128 0x50
 4233 03fd 00000000 		.4byte	0
 4234 0401 00000000 		.4byte	0
 4235              	.LLST28:
 4236 0405 7C030000 		.4byte	.LVL54
 4237 0409 AF030000 		.4byte	.LVL56-1
 4238 040d 0100     		.2byte	0x1
 4239 040f 50       		.byte	0x50
 4240 0410 AF030000 		.4byte	.LVL56-1
 4241 0414 26040000 		.4byte	.LVL59
 4242 0418 0400     		.2byte	0x4
 4243 041a F3       		.byte	0xf3
 4244 041b 01       		.uleb128 0x1
 4245 041c 50       		.byte	0x50
 4246 041d 9F       		.byte	0x9f
 4247 041e 26040000 		.4byte	.LVL59
 4248 0422 62040000 		.4byte	.LVL60
 4249 0426 0100     		.2byte	0x1
 4250 0428 50       		.byte	0x50
 4251 0429 62040000 		.4byte	.LVL60
 4252 042d 78040000 		.4byte	.LFE322
 4253 0431 0400     		.2byte	0x4
 4254 0433 F3       		.byte	0xf3
 4255 0434 01       		.uleb128 0x1
 4256 0435 50       		.byte	0x50
 4257 0436 9F       		.byte	0x9f
 4258 0437 00000000 		.4byte	0
 4259 043b 00000000 		.4byte	0
 4260              	.LLST29:
 4261 043f 7C030000 		.4byte	.LVL54
 4262 0443 AF030000 		.4byte	.LVL56-1
 4263 0447 0100     		.2byte	0x1
 4264 0449 51       		.byte	0x51
 4265 044a AF030000 		.4byte	.LVL56-1
 4266 044e 26040000 		.4byte	.LVL59
ARM GAS  C:\msys64\tmp\ccMiE5FV.s 			page 76


 4267 0452 0400     		.2byte	0x4
 4268 0454 F3       		.byte	0xf3
 4269 0455 01       		.uleb128 0x1
 4270 0456 51       		.byte	0x51
 4271 0457 9F       		.byte	0x9f
 4272 0458 26040000 		.4byte	.LVL59
 4273 045c 62040000 		.4byte	.LVL60
 4274 0460 0100     		.2byte	0x1
 4275 0462 51       		.byte	0x51
 4276 0463 62040000 		.4byte	.LVL60
 4277 0467 78040000 		.4byte	.LFE322
 4278 046b 0400     		.2byte	0x4
 4279 046d F3       		.byte	0xf3
 4280 046e 01       		.uleb128 0x1
 4281 046f 51       		.byte	0x51
 4282 0470 9F       		.byte	0x9f
 4283 0471 00000000 		.4byte	0
 4284 0475 00000000 		.4byte	0
 4285              	.LLST30:
 4286 0479 8A030000 		.4byte	.LVL55
 4287 047d 66040000 		.4byte	.LVL61
 4288 0481 0200     		.2byte	0x2
 4289 0483 90       		.byte	0x90
 4290 0484 50       		.uleb128 0x50
 4291 0485 66040000 		.4byte	.LVL61
 4292 0489 78040000 		.4byte	.LFE322
 4293 048d 1000     		.2byte	0x10
 4294 048f F3       		.byte	0xf3
 4295 0490 01       		.uleb128 0x1
 4296 0491 51       		.byte	0x51
 4297 0492 F7       		.byte	0xf7
 4298 0493 2C       		.uleb128 0x2c
 4299 0494 F7       		.byte	0xf7
 4300 0495 25       		.uleb128 0x25
 4301 0496 F4       		.byte	0xf4
 4302 0497 25       		.uleb128 0x25
 4303 0498 04       		.byte	0x4
 4304 0499 00000030 		.4byte	0x30000000
 4305 049d 1E       		.byte	0x1e
 4306 049e 9F       		.byte	0x9f
 4307 049f 00000000 		.4byte	0
 4308 04a3 00000000 		.4byte	0
 4309              	.LLST31:
 4310 04a7 18040000 		.4byte	.LVL57
 4311 04ab 26040000 		.4byte	.LVL59
 4312 04af 0600     		.2byte	0x6
 4313 04b1 9E       		.byte	0x9e
 4314 04b2 04       		.uleb128 0x4
 4315 04b3 3EC3AE37 		.4byte	0x37aec33e
 4316 04b7 00000000 		.4byte	0
 4317 04bb 00000000 		.4byte	0
 4318              	.LLST32:
 4319 04bf 18040000 		.4byte	.LVL57
 4320 04c3 1C040000 		.4byte	.LVL58
 4321 04c7 0200     		.2byte	0x2
 4322 04c9 90       		.byte	0x90
 4323 04ca 4F       		.uleb128 0x4f
ARM GAS  C:\msys64\tmp\ccMiE5FV.s 			page 77


 4324 04cb 1C040000 		.4byte	.LVL58
 4325 04cf 26040000 		.4byte	.LVL59
 4326 04d3 0500     		.2byte	0x5
 4327 04d5 03       		.byte	0x3
 4328 04d6 00000000 		.4byte	lfo_speed
 4329 04da 00000000 		.4byte	0
 4330 04de 00000000 		.4byte	0
 4331              	.LLST33:
 4332 04e2 18040000 		.4byte	.LVL57
 4333 04e6 26040000 		.4byte	.LVL59
 4334 04ea 0600     		.2byte	0x6
 4335 04ec 03       		.byte	0x3
 4336 04ed 14000000 		.4byte	_ZL5s_lfo
 4337 04f1 9F       		.byte	0x9f
 4338 04f2 00000000 		.4byte	0
 4339 04f6 00000000 		.4byte	0
 4340              	.LLST34:
 4341 04fa 00000000 		.4byte	.LVL62
 4342 04fe 18000000 		.4byte	.LVL64
 4343 0502 0200     		.2byte	0x2
 4344 0504 31       		.byte	0x31
 4345 0505 9F       		.byte	0x9f
 4346 0506 00000000 		.4byte	0
 4347 050a 00000000 		.4byte	0
 4348              	.LLST35:
 4349 050e 00000000 		.4byte	.LVL62
 4350 0512 18000000 		.4byte	.LVL64
 4351 0516 0400     		.2byte	0x4
 4352 0518 0A       		.byte	0xa
 4353 0519 FFFF     		.2byte	0xffff
 4354 051b 9F       		.byte	0x9f
 4355 051c 00000000 		.4byte	0
 4356 0520 00000000 		.4byte	0
 4357              	.LLST36:
 4358 0524 00000000 		.4byte	.LVL62
 4359 0528 14000000 		.4byte	.LVL63
 4360 052c 0600     		.2byte	0x6
 4361 052e 03       		.byte	0x3
 4362 052f 00000000 		.4byte	_ZL7s_delay
 4363 0533 9F       		.byte	0x9f
 4364 0534 00000000 		.4byte	0
 4365 0538 00000000 		.4byte	0
 4366              		.section	.debug_aranges,"",%progbits
 4367 0000 24000000 		.4byte	0x24
 4368 0004 0200     		.2byte	0x2
 4369 0006 00000000 		.4byte	.Ldebug_info0
 4370 000a 04       		.byte	0x4
 4371 000b 00       		.byte	0
 4372 000c 0000     		.2byte	0
 4373 000e 0000     		.2byte	0
 4374 0010 00000000 		.4byte	.Ltext0
 4375 0014 78040000 		.4byte	.Letext0-.Ltext0
 4376 0018 00000000 		.4byte	.LFB324
 4377 001c 20000000 		.4byte	.LFE324-.LFB324
 4378 0020 00000000 		.4byte	0
 4379 0024 00000000 		.4byte	0
 4380              		.section	.debug_ranges,"",%progbits
ARM GAS  C:\msys64\tmp\ccMiE5FV.s 			page 78


 4381              	.Ldebug_ranges0:
 4382 0000 00000000 		.4byte	.LBB89
 4383 0004 08000000 		.4byte	.LBE89
 4384 0008 0A000000 		.4byte	.LBB92
 4385 000c 20000000 		.4byte	.LBE92
 4386 0010 00000000 		.4byte	0
 4387 0014 00000000 		.4byte	0
 4388 0018 5E000000 		.4byte	.LBB98
 4389 001c 62000000 		.4byte	.LBE98
 4390 0020 66000000 		.4byte	.LBB101
 4391 0024 8C000000 		.4byte	.LBE101
 4392 0028 00000000 		.4byte	0
 4393 002c 00000000 		.4byte	0
 4394 0030 96000000 		.4byte	.LBB102
 4395 0034 9E000000 		.4byte	.LBE102
 4396 0038 A4000000 		.4byte	.LBB149
 4397 003c 48030000 		.4byte	.LBE149
 4398 0040 00000000 		.4byte	0
 4399 0044 00000000 		.4byte	0
 4400 0048 9C000000 		.4byte	.LBB103
 4401 004c 9E000000 		.4byte	.LBE103
 4402 0050 EA010000 		.4byte	.LBB147
 4403 0054 06020000 		.4byte	.LBE147
 4404 0058 0E020000 		.4byte	.LBB148
 4405 005c EA020000 		.4byte	.LBE148
 4406 0060 00000000 		.4byte	0
 4407 0064 00000000 		.4byte	0
 4408 0068 9C000000 		.4byte	.LBB105
 4409 006c 9E000000 		.4byte	.LBE105
 4410 0070 CE020000 		.4byte	.LBB121
 4411 0074 D2020000 		.4byte	.LBE121
 4412 0078 D6020000 		.4byte	.LBB125
 4413 007c DA020000 		.4byte	.LBE125
 4414 0080 DE020000 		.4byte	.LBB127
 4415 0084 EA020000 		.4byte	.LBE127
 4416 0088 00000000 		.4byte	0
 4417 008c 00000000 		.4byte	0
 4418 0090 0E020000 		.4byte	.LBB112
 4419 0094 12020000 		.4byte	.LBE112
 4420 0098 16020000 		.4byte	.LBB115
 4421 009c 32020000 		.4byte	.LBE115
 4422 00a0 00000000 		.4byte	0
 4423 00a4 00000000 		.4byte	0
 4424 00a8 D2020000 		.4byte	.LBB122
 4425 00ac D6020000 		.4byte	.LBE122
 4426 00b0 DA020000 		.4byte	.LBB126
 4427 00b4 DE020000 		.4byte	.LBE126
 4428 00b8 00000000 		.4byte	0
 4429 00bc 00000000 		.4byte	0
 4430 00c0 CC000000 		.4byte	.LBB130
 4431 00c4 D8000000 		.4byte	.LBE130
 4432 00c8 E0000000 		.4byte	.LBB136
 4433 00cc 74010000 		.4byte	.LBE136
 4434 00d0 00000000 		.4byte	0
 4435 00d4 00000000 		.4byte	0
 4436 00d8 8A010000 		.4byte	.LBB137
 4437 00dc 92010000 		.4byte	.LBE137
ARM GAS  C:\msys64\tmp\ccMiE5FV.s 			page 79


 4438 00e0 9A010000 		.4byte	.LBB146
 4439 00e4 E0010000 		.4byte	.LBE146
 4440 00e8 00000000 		.4byte	0
 4441 00ec 00000000 		.4byte	0
 4442 00f0 8A010000 		.4byte	.LBB139
 4443 00f4 92010000 		.4byte	.LBE139
 4444 00f8 9A010000 		.4byte	.LBB142
 4445 00fc B2010000 		.4byte	.LBE142
 4446 0100 00000000 		.4byte	0
 4447 0104 00000000 		.4byte	0
 4448 0108 02040000 		.4byte	.LBB150
 4449 010c 04040000 		.4byte	.LBE150
 4450 0110 10040000 		.4byte	.LBB154
 4451 0114 14040000 		.4byte	.LBE154
 4452 0118 18040000 		.4byte	.LBB155
 4453 011c 26040000 		.4byte	.LBE155
 4454 0120 00000000 		.4byte	0
 4455 0124 00000000 		.4byte	0
 4456 0128 00000000 		.4byte	.LBB164
 4457 012c 08000000 		.4byte	.LBE164
 4458 0130 0C000000 		.4byte	.LBB170
 4459 0134 14000000 		.4byte	.LBE170
 4460 0138 00000000 		.4byte	0
 4461 013c 00000000 		.4byte	0
 4462 0140 08000000 		.4byte	.LBB167
 4463 0144 0C000000 		.4byte	.LBE167
 4464 0148 14000000 		.4byte	.LBB171
 4465 014c 20000000 		.4byte	.LBE171
 4466 0150 00000000 		.4byte	0
 4467 0154 00000000 		.4byte	0
 4468 0158 00000000 		.4byte	.Ltext0
 4469 015c 78040000 		.4byte	.Letext0
 4470 0160 00000000 		.4byte	.LFB324
 4471 0164 20000000 		.4byte	.LFE324
 4472 0168 00000000 		.4byte	0
 4473 016c 00000000 		.4byte	0
 4474              		.section	.debug_line,"",%progbits
 4475              	.Ldebug_line0:
 4476 0000 90040000 		.section	.debug_str,"MS",%progbits,1
 4476      02003503 
 4476      00000201 
 4476      FB0E0D00 
 4476      01010101 
 4477              	.LASF21:
 4478 0000 6633325F 		.ascii	"f32_t\000"
 4478      7400
 4479              	.LASF84:
 4480 0006 5F5A4E33 		.ascii	"_ZN3dsp9DelayLine5writeEf\000"
 4480      64737039 
 4480      44656C61 
 4480      794C696E 
 4480      65357772 
 4481              	.LASF51:
 4482 0020 5F5A4E33 		.ascii	"_ZN3dsp9SimpleLFO12triangle_uniEv\000"
 4482      64737039 
 4482      53696D70 
 4482      6C654C46 
ARM GAS  C:\msys64\tmp\ccMiE5FV.s 			page 80


 4482      4F313274 
 4483              	.LASF117:
 4484 0042 5F686F6F 		.ascii	"_hook_param\000"
 4484      6B5F7061 
 4484      72616D00 
 4485              	.LASF136:
 4486 004e 77745F70 		.ascii	"wt_par_lut_f\000"
 4486      61725F6C 
 4486      75745F66 
 4486      00
 4487              	.LASF49:
 4488 005b 5F5A4E33 		.ascii	"_ZN3dsp9SimpleLFO11triangle_biEv\000"
 4488      64737039 
 4488      53696D70 
 4488      6C654C46 
 4488      4F313174 
 4489              	.LASF138:
 4490 007c 735F6465 		.ascii	"s_delay_ram\000"
 4490      6C61795F 
 4490      72616D00 
 4491              	.LASF151:
 4492 0088 474E5520 		.ascii	"GNU C++11 5.4.1 20160919 (release) [ARM/embedded-5-"
 4492      432B2B31 
 4492      3120352E 
 4492      342E3120 
 4492      32303136 
 4493 00bb 6272616E 		.ascii	"branch revision 240496] -mcpu=cortex-m4 -mthumb -mn"
 4493      63682072 
 4493      65766973 
 4493      696F6E20 
 4493      32343034 
 4494 00ee 6F2D7468 		.ascii	"o-thumb-interwork -mlittle-endian -mfloat-abi=hard "
 4494      756D622D 
 4494      696E7465 
 4494      72776F72 
 4494      6B202D6D 
 4495 0121 2D6D6670 		.ascii	"-mfpu=fpv4-sp-d16 -g -Os -std=c++11 -fsingle-precis"
 4495      753D6670 
 4495      76342D73 
 4495      702D6431 
 4495      36202D67 
 4496 0154 696F6E2D 		.ascii	"ion-constant -fcheck-new -fno-rtti -fno-exceptions "
 4496      636F6E73 
 4496      74616E74 
 4496      202D6663 
 4496      6865636B 
 4497 0187 2D666E6F 		.ascii	"-fno-non-call-exceptions\000"
 4497      2D6E6F6E 
 4497      2D63616C 
 4497      6C2D6578 
 4497      63657074 
 4498              	.LASF12:
 4499 01a0 756E7369 		.ascii	"unsigned int\000"
 4499      676E6564 
 4499      20696E74 
 4499      00
 4500              	.LASF87:
ARM GAS  C:\msys64\tmp\ccMiE5FV.s 			page 81


 4501 01ad 72656164 		.ascii	"readFrac\000"
 4501      46726163 
 4501      00
 4502              	.LASF95:
 4503 01b6 616D7064 		.ascii	"ampdbf\000"
 4503      626600
 4504              	.LASF141:
 4505 01bd 74797065 		.ascii	"type\000"
 4505      00
 4506              	.LASF6:
 4507 01c2 5F5F696E 		.ascii	"__int32_t\000"
 4507      7433325F 
 4507      7400
 4508              	.LASF111:
 4509 01cc 706C6174 		.ascii	"platform\000"
 4509      666F726D 
 4509      00
 4510              	.LASF139:
 4511 01d5 735F6C65 		.ascii	"s_len\000"
 4511      6E00
 4512              	.LASF120:
 4513 01db 76616C66 		.ascii	"valf\000"
 4513      00
 4514              	.LASF97:
 4515 01e0 73695F66 		.ascii	"si_fabsf\000"
 4515      61627366 
 4515      00
 4516              	.LASF125:
 4517 01e9 74616E70 		.ascii	"tanpi_lut_f\000"
 4517      695F6C75 
 4517      745F6600 
 4518              	.LASF106:
 4519 01f5 67617465 		.ascii	"gate\000"
 4519      00
 4520              	.LASF56:
 4521 01fa 7361775F 		.ascii	"saw_bi\000"
 4521      626900
 4522              	.LASF15:
 4523 0201 75696E74 		.ascii	"uint32_t\000"
 4523      33325F74 
 4523      00
 4524              	.LASF102:
 4525 020a 77617665 		.ascii	"waveshape\000"
 4525      73686170 
 4525      6500
 4526              	.LASF43:
 4527 0214 5F5A4E33 		.ascii	"_ZN3dsp9SimpleLFO8sine_uniEv\000"
 4527      64737039 
 4527      53696D70 
 4527      6C654C46 
 4527      4F387369 
 4528              	.LASF147:
 4529 0231 735F6C66 		.ascii	"s_lfo\000"
 4529      6F00
 4530              	.LASF133:
 4531 0237 6D696469 		.ascii	"midi_to_hz_lut_f\000"
 4531      5F746F5F 
ARM GAS  C:\msys64\tmp\ccMiE5FV.s 			page 82


 4531      687A5F6C 
 4531      75745F66 
 4531      00
 4532              	.LASF68:
 4533 0248 73717561 		.ascii	"square_bi_off\000"
 4533      72655F62 
 4533      695F6F66 
 4533      6600
 4534              	.LASF0:
 4535 0256 666C6F61 		.ascii	"float\000"
 4535      7400
 4536              	.LASF100:
 4537 025c 62697472 		.ascii	"bitreduc\000"
 4537      65647563 
 4537      00
 4538              	.LASF118:
 4539 0265 696E6465 		.ascii	"index\000"
 4539      7800
 4540              	.LASF25:
 4541 026b 6B5F7573 		.ascii	"k_user_module_delfx\000"
 4541      65725F6D 
 4541      6F64756C 
 4541      655F6465 
 4541      6C667800 
 4542              	.LASF145:
 4543 027f 72656C65 		.ascii	"releaseCount\000"
 4543      61736543 
 4543      6F756E74 
 4543      00
 4544              	.LASF33:
 4545 028c 5F5A4E33 		.ascii	"_ZN3dsp9SimpleLFO5resetEv\000"
 4545      64737039 
 4545      53696D70 
 4545      6C654C46 
 4545      4F357265 
 4546              	.LASF11:
 4547 02a6 6C6F6E67 		.ascii	"long long unsigned int\000"
 4547      206C6F6E 
 4547      6720756E 
 4547      7369676E 
 4547      65642069 
 4548              	.LASF64:
 4549 02bd 73717561 		.ascii	"square_bi\000"
 4549      72655F62 
 4549      6900
 4550              	.LASF41:
 4551 02c7 5F5A4E33 		.ascii	"_ZN3dsp9SimpleLFO7sine_biEv\000"
 4551      64737039 
 4551      53696D70 
 4551      6C654C46 
 4551      4F377369 
 4552              	.LASF150:
 4553 02e3 6C6F6731 		.ascii	"log10f\000"
 4553      306600
 4554              	.LASF79:
 4555 02ea 636C6561 		.ascii	"clear\000"
 4555      7200
ARM GAS  C:\msys64\tmp\ccMiE5FV.s 			page 83


 4556              	.LASF90:
 4557 02f0 5F5A4E33 		.ascii	"_ZN3dsp9DelayLine9readFraczEmf\000"
 4557      64737039 
 4557      44656C61 
 4557      794C696E 
 4557      65397265 
 4558              	.LASF94:
 4559 030f 66617374 		.ascii	"fastpowf\000"
 4559      706F7766 
 4559      00
 4560              	.LASF81:
 4561 0318 7365744D 		.ascii	"setMemory\000"
 4561      656D6F72 
 4561      7900
 4562              	.LASF108:
 4563 0322 5F5F696E 		.ascii	"__initialize_p\000"
 4563      69746961 
 4563      6C697A65 
 4563      5F7000
 4564              	.LASF44:
 4565 0331 73696E65 		.ascii	"sine_bi_off\000"
 4565      5F62695F 
 4565      6F666600 
 4566              	.LASF16:
 4567 033d 73697A65 		.ascii	"size_t\000"
 4567      5F7400
 4568              	.LASF26:
 4569 0344 6B5F7573 		.ascii	"k_user_module_revfx\000"
 4569      65725F6D 
 4569      6F64756C 
 4569      655F7265 
 4569      76667800 
 4570              	.LASF39:
 4571 0358 73696E65 		.ascii	"sine_bi\000"
 4571      5F626900 
 4572              	.LASF107:
 4573 0360 7472656D 		.ascii	"trem\000"
 4573      00
 4574              	.LASF109:
 4575 0365 5F5F7072 		.ascii	"__priority\000"
 4575      696F7269 
 4575      747900
 4576              	.LASF58:
 4577 0370 7361775F 		.ascii	"saw_uni\000"
 4577      756E6900 
 4578              	.LASF40:
 4579 0378 5F5A4E33 		.ascii	"_ZN3dsp9SimpleLFOC4Ev\000"
 4579      64737039 
 4579      53696D70 
 4579      6C654C46 
 4579      4F433445 
 4580              	.LASF29:
 4581 038e 70686930 		.ascii	"phi0\000"
 4581      00
 4582              	.LASF140:
 4583 0393 6678616D 		.ascii	"fxamt\000"
 4583      7400
ARM GAS  C:\msys64\tmp\ccMiE5FV.s 			page 84


 4584              	.LASF62:
 4585 0399 7361775F 		.ascii	"saw_uni_off\000"
 4585      756E695F 
 4585      6F666600 
 4586              	.LASF63:
 4587 03a5 5F5A4E33 		.ascii	"_ZN3dsp9SimpleLFO11saw_uni_offEf\000"
 4587      64737039 
 4587      53696D70 
 4587      6C654C46 
 4587      4F313173 
 4588              	.LASF37:
 4589 03c6 5F5A4E33 		.ascii	"_ZN3dsp9SimpleLFO5setW0Ef\000"
 4589      64737039 
 4589      53696D70 
 4589      6C654C46 
 4589      4F357365 
 4590              	.LASF19:
 4591 03e0 63686172 		.ascii	"char\000"
 4591      00
 4592              	.LASF127:
 4593 03e5 706F7732 		.ascii	"pow2_lut_f\000"
 4593      5F6C7574 
 4593      5F6600
 4594              	.LASF52:
 4595 03f0 74726961 		.ascii	"triangle_bi_off\000"
 4595      6E676C65 
 4595      5F62695F 
 4595      6F666600 
 4596              	.LASF121:
 4597 0400 6B5F6678 		.ascii	"k_fx_api_platform\000"
 4597      5F617069 
 4597      5F706C61 
 4597      74666F72 
 4597      6D00
 4598              	.LASF92:
 4599 0412 66617374 		.ascii	"fastpow2f\000"
 4599      706F7732 
 4599      6600
 4600              	.LASF69:
 4601 041c 5F5A4E33 		.ascii	"_ZN3dsp9SimpleLFO13square_bi_offEf\000"
 4601      64737039 
 4601      53696D70 
 4601      6C654C46 
 4601      4F313373 
 4602              	.LASF157:
 4603 043f 6275665F 		.ascii	"buf_clr_f32\000"
 4603      636C725F 
 4603      66333200 
 4604              	.LASF115:
 4605 044b 6672616D 		.ascii	"frames\000"
 4605      657300
 4606              	.LASF129:
 4607 0452 73636865 		.ascii	"schetzen_lut_f\000"
 4607      747A656E 
 4607      5F6C7574 
 4607      5F6600
 4608              	.LASF13:
ARM GAS  C:\msys64\tmp\ccMiE5FV.s 			page 85


 4609 0461 75696E74 		.ascii	"uint8_t\000"
 4609      385F7400 
 4610              	.LASF130:
 4611 0469 62697472 		.ascii	"bitres_lut_f\000"
 4611      65735F6C 
 4611      75745F66 
 4611      00
 4612              	.LASF35:
 4613 0476 5F5A4E33 		.ascii	"_ZN3dsp9SimpleLFO5setF0Eff\000"
 4613      64737039 
 4613      53696D70 
 4613      6C654C46 
 4613      4F357365 
 4614              	.LASF47:
 4615 0491 5F5A4E33 		.ascii	"_ZN3dsp9SimpleLFO12sine_uni_offEf\000"
 4615      64737039 
 4615      53696D70 
 4615      6C654C46 
 4615      4F313273 
 4616              	.LASF124:
 4617 04b3 6C6F675F 		.ascii	"log_lut_f\000"
 4617      6C75745F 
 4617      6600
 4618              	.LASF93:
 4619 04bd 66617374 		.ascii	"fastlog2f\000"
 4619      6C6F6732 
 4619      6600
 4620              	.LASF101:
 4621 04c7 62697473 		.ascii	"bits\000"
 4621      00
 4622              	.LASF78:
 4623 04cc 5F5A4E33 		.ascii	"_ZN3dsp9DelayLineC4EPfj\000"
 4623      64737039 
 4623      44656C61 
 4623      794C696E 
 4623      65433445 
 4624              	.LASF10:
 4625 04e4 6C6F6E67 		.ascii	"long long int\000"
 4625      206C6F6E 
 4625      6720696E 
 4625      7400
 4626              	.LASF83:
 4627 04f2 77726974 		.ascii	"write\000"
 4627      6500
 4628              	.LASF74:
 4629 04f8 6D4D6173 		.ascii	"mMask\000"
 4629      6B00
 4630              	.LASF75:
 4631 04fe 6D577269 		.ascii	"mWriteIdx\000"
 4631      74654964 
 4631      7800
 4632              	.LASF152:
 4633 0508 2E2F7372 		.ascii	"./src/multifx.cpp\000"
 4633      632F6D75 
 4633      6C746966 
 4633      782E6370 
 4633      7000
ARM GAS  C:\msys64\tmp\ccMiE5FV.s 			page 86


 4634              	.LASF71:
 4635 051a 6D4C696E 		.ascii	"mLine\000"
 4635      6500
 4636              	.LASF67:
 4637 0520 5F5A4E33 		.ascii	"_ZN3dsp9SimpleLFO10square_uniEv\000"
 4637      64737039 
 4637      53696D70 
 4637      6C654C46 
 4637      4F313073 
 4638              	.LASF113:
 4639 0540 7375625F 		.ascii	"sub_xn\000"
 4639      786E00
 4640              	.LASF28:
 4641 0547 6B5F6E75 		.ascii	"k_num_user_modules\000"
 4641      6D5F7573 
 4641      65725F6D 
 4641      6F64756C 
 4641      657300
 4642              	.LASF89:
 4643 055a 72656164 		.ascii	"readFracz\000"
 4643      46726163 
 4643      7A00
 4644              	.LASF57:
 4645 0564 5F5A4E33 		.ascii	"_ZN3dsp9SimpleLFO6saw_biEv\000"
 4645      64737039 
 4645      53696D70 
 4645      6C654C46 
 4645      4F367361 
 4646              	.LASF77:
 4647 057f 5F5A4E33 		.ascii	"_ZN3dsp9DelayLineC4Ev\000"
 4647      64737039 
 4647      44656C61 
 4647      794C696E 
 4647      65433445 
 4648              	.LASF105:
 4649 0595 6C696E65 		.ascii	"line_size\000"
 4649      5F73697A 
 4649      6500
 4650              	.LASF45:
 4651 059f 5F5A4E33 		.ascii	"_ZN3dsp9SimpleLFO11sine_bi_offEf\000"
 4651      64737039 
 4651      53696D70 
 4651      6C654C46 
 4651      4F313173 
 4652              	.LASF155:
 4653 05c0 35663332 		.ascii	"5f32_t\000"
 4653      5F7400
 4654              	.LASF73:
 4655 05c7 6D53697A 		.ascii	"mSize\000"
 4655      6500
 4656              	.LASF134:
 4657 05cd 77745F73 		.ascii	"wt_saw_lut_f\000"
 4657      61775F6C 
 4657      75745F66 
 4657      00
 4658              	.LASF114:
 4659 05da 7375625F 		.ascii	"sub_yn\000"
ARM GAS  C:\msys64\tmp\ccMiE5FV.s 			page 87


 4659      796E00
 4660              	.LASF27:
 4661 05e1 6B5F7573 		.ascii	"k_user_module_osc\000"
 4661      65725F6D 
 4661      6F64756C 
 4661      655F6F73 
 4661      6300
 4662              	.LASF17:
 4663 05f3 6C6F6E67 		.ascii	"long double\000"
 4663      20646F75 
 4663      626C6500 
 4664              	.LASF98:
 4665 05ff 74686973 		.ascii	"this\000"
 4665      00
 4666              	.LASF158:
 4667 0604 5F5F7374 		.ascii	"__static_initialization_and_destruction_0\000"
 4667      61746963 
 4667      5F696E69 
 4667      7469616C 
 4667      697A6174 
 4668              	.LASF48:
 4669 062e 74726961 		.ascii	"triangle_bi\000"
 4669      6E676C65 
 4669      5F626900 
 4670              	.LASF112:
 4671 063a 5F686F6F 		.ascii	"_hook_process\000"
 4671      6B5F7072 
 4671      6F636573 
 4671      7300
 4672              	.LASF55:
 4673 0648 5F5A4E33 		.ascii	"_ZN3dsp9SimpleLFO16triangle_uni_offEf\000"
 4673      64737039 
 4673      53696D70 
 4673      6C654C46 
 4673      4F313674 
 4674              	.LASF110:
 4675 066e 5F686F6F 		.ascii	"_hook_init\000"
 4675      6B5F696E 
 4675      697400
 4676              	.LASF3:
 4677 0679 73686F72 		.ascii	"short int\000"
 4677      7420696E 
 4677      7400
 4678              	.LASF142:
 4679 0683 6269745F 		.ascii	"bit_rate\000"
 4679      72617465 
 4679      00
 4680              	.LASF126:
 4681 068c 73717274 		.ascii	"sqrtm2log_lut_f\000"
 4681      6D326C6F 
 4681      675F6C75 
 4681      745F6600 
 4682              	.LASF128:
 4683 069c 63756269 		.ascii	"cubicsat_lut_f\000"
 4683      63736174 
 4683      5F6C7574 
 4683      5F6600
ARM GAS  C:\msys64\tmp\ccMiE5FV.s 			page 88


 4684              	.LASF135:
 4685 06ab 77745F73 		.ascii	"wt_sqr_lut_f\000"
 4685      71725F6C 
 4685      75745F66 
 4685      00
 4686              	.LASF7:
 4687 06b8 6C6F6E67 		.ascii	"long int\000"
 4687      20696E74 
 4687      00
 4688              	.LASF34:
 4689 06c1 73657446 		.ascii	"setF0\000"
 4689      3000
 4690              	.LASF32:
 4691 06c7 5F5A4E33 		.ascii	"_ZN3dsp9SimpleLFO5cycleEv\000"
 4691      64737039 
 4691      53696D70 
 4691      6C654C46 
 4691      4F356379 
 4692              	.LASF122:
 4693 06e1 6B5F6678 		.ascii	"k_fx_api_version\000"
 4693      5F617069 
 4693      5F766572 
 4693      73696F6E 
 4693      00
 4694              	.LASF82:
 4695 06f2 5F5A4E33 		.ascii	"_ZN3dsp9DelayLine9setMemoryEPfj\000"
 4695      64737039 
 4695      44656C61 
 4695      794C696E 
 4695      65397365 
 4696              	.LASF24:
 4697 0712 6B5F7573 		.ascii	"k_user_module_modfx\000"
 4697      65725F6D 
 4697      6F64756C 
 4697      655F6D6F 
 4697      64667800 
 4698              	.LASF96:
 4699 0726 67617465 		.ascii	"gateHelper\000"
 4699      48656C70 
 4699      657200
 4700              	.LASF30:
 4701 0731 6379636C 		.ascii	"cycle\000"
 4701      6500
 4702              	.LASF42:
 4703 0737 73696E65 		.ascii	"sine_uni\000"
 4703      5F756E69 
 4703      00
 4704              	.LASF53:
 4705 0740 5F5A4E33 		.ascii	"_ZN3dsp9SimpleLFO15triangle_bi_offEf\000"
 4705      64737039 
 4705      53696D70 
 4705      6C654C46 
 4705      4F313574 
 4706              	.LASF99:
 4707 0765 70686966 		.ascii	"phif\000"
 4707      00
 4708              	.LASF31:
ARM GAS  C:\msys64\tmp\ccMiE5FV.s 			page 89


 4709 076a 72657365 		.ascii	"reset\000"
 4709      7400
 4710              	.LASF149:
 4711 0770 6365696C 		.ascii	"ceil\000"
 4711      00
 4712              	.LASF5:
 4713 0775 5F5F7569 		.ascii	"__uint8_t\000"
 4713      6E74385F 
 4713      7400
 4714              	.LASF85:
 4715 077f 72656164 		.ascii	"read\000"
 4715      00
 4716              	.LASF132:
 4717 0784 6B5F6F73 		.ascii	"k_osc_api_version\000"
 4717      635F6170 
 4717      695F7665 
 4717      7273696F 
 4717      6E00
 4718              	.LASF46:
 4719 0796 73696E65 		.ascii	"sine_uni_off\000"
 4719      5F756E69 
 4719      5F6F6666 
 4719      00
 4720              	.LASF76:
 4721 07a3 44656C61 		.ascii	"DelayLine\000"
 4721      794C696E 
 4721      6500
 4722              	.LASF22:
 4723 07ad 7133315F 		.ascii	"q31_t\000"
 4723      7400
 4724              	.LASF18:
 4725 07b3 73697A65 		.ascii	"sizetype\000"
 4725      74797065 
 4725      00
 4726              	.LASF88:
 4727 07bc 5F5A4E33 		.ascii	"_ZN3dsp9DelayLine8readFracEf\000"
 4727      64737039 
 4727      44656C61 
 4727      794C696E 
 4727      65387265 
 4728              	.LASF9:
 4729 07d9 6C6F6E67 		.ascii	"long unsigned int\000"
 4729      20756E73 
 4729      69676E65 
 4729      6420696E 
 4729      7400
 4730              	.LASF123:
 4731 07eb 77745F73 		.ascii	"wt_sine_lut_f\000"
 4731      696E655F 
 4731      6C75745F 
 4731      6600
 4732              	.LASF36:
 4733 07f9 73657457 		.ascii	"setW0\000"
 4733      3000
 4734              	.LASF14:
 4735 07ff 696E7433 		.ascii	"int32_t\000"
 4735      325F7400 
ARM GAS  C:\msys64\tmp\ccMiE5FV.s 			page 90


 4736              	.LASF70:
 4737 0807 73717561 		.ascii	"square_uni_off\000"
 4737      72655F75 
 4737      6E695F6F 
 4737      666600
 4738              	.LASF148:
 4739 0816 5F66785F 		.ascii	"_fx_get_bpm\000"
 4739      6765745F 
 4739      62706D00 
 4740              	.LASF144:
 4741 0822 7472656D 		.ascii	"trem_rate\000"
 4741      5F726174 
 4741      6500
 4742              	.LASF80:
 4743 082c 5F5A4E33 		.ascii	"_ZN3dsp9DelayLine5clearEv\000"
 4743      64737039 
 4743      44656C61 
 4743      794C696E 
 4743      6535636C 
 4744              	.LASF104:
 4745 0846 66737265 		.ascii	"fsrecip\000"
 4745      63697000 
 4746              	.LASF146:
 4747 084e 6C666F5F 		.ascii	"lfo_speed\000"
 4747      73706565 
 4747      6400
 4748              	.LASF2:
 4749 0858 756E7369 		.ascii	"unsigned char\000"
 4749      676E6564 
 4749      20636861 
 4749      7200
 4750              	.LASF8:
 4751 0866 5F5F7569 		.ascii	"__uint32_t\000"
 4751      6E743332 
 4751      5F7400
 4752              	.LASF54:
 4753 0871 74726961 		.ascii	"triangle_uni_off\000"
 4753      6E676C65 
 4753      5F756E69 
 4753      5F6F6666 
 4753      00
 4754              	.LASF103:
 4755 0882 6E657874 		.ascii	"nextpow2_u32\000"
 4755      706F7732 
 4755      5F753332 
 4755      00
 4756              	.LASF23:
 4757 088f 6B5F7573 		.ascii	"k_user_module_global\000"
 4757      65725F6D 
 4757      6F64756C 
 4757      655F676C 
 4757      6F62616C 
 4758              	.LASF137:
 4759 08a4 735F6465 		.ascii	"s_delay\000"
 4759      6C617900 
 4760              	.LASF154:
 4761 08ac 6465636C 		.ascii	"decltype(nullptr)\000"
ARM GAS  C:\msys64\tmp\ccMiE5FV.s 			page 91


 4761      74797065 
 4761      286E756C 
 4761      6C707472 
 4761      2900
 4762              	.LASF65:
 4763 08be 73717561 		.ascii	"square_uni\000"
 4763      72655F75 
 4763      6E6900
 4764              	.LASF156:
 4765 08c9 5F5A4E33 		.ascii	"_ZN3dsp9SimpleLFO14square_uni_offEf\000"
 4765      64737039 
 4765      53696D70 
 4765      6C654C46 
 4765      4F313473 
 4766              	.LASF91:
 4767 08ed 636C6970 		.ascii	"clipp\000"
 4767      7000
 4768              	.LASF116:
 4769 08f3 62617365 		.ascii	"base_main\000"
 4769      5F6D6169 
 4769      6E00
 4770              	.LASF60:
 4771 08fd 7361775F 		.ascii	"saw_bi_off\000"
 4771      62695F6F 
 4771      666600
 4772              	.LASF159:
 4773 0908 5F474C4F 		.ascii	"_GLOBAL__sub_I_s_len\000"
 4773      42414C5F 
 4773      5F737562 
 4773      5F495F73 
 4773      5F6C656E 
 4774              	.LASF1:
 4775 091d 7369676E 		.ascii	"signed char\000"
 4775      65642063 
 4775      68617200 
 4776              	.LASF153:
 4777 0929 433A5C75 		.ascii	"C:\\users\\bradl\\desktop\\Code Projects\\KorgFX\\K"
 4777      73657273 
 4777      5C627261 
 4777      646C5C64 
 4777      65736B74 
 4778 0956 6F726744 		.ascii	"orgDelayFXSet\\Delays\\platform\\minilogue-xd\\Mult"
 4778      656C6179 
 4778      46585365 
 4778      745C4465 
 4778      6C617973 
 4779 0985 69465800 		.ascii	"iFX\000"
 4780              	.LASF4:
 4781 0989 73686F72 		.ascii	"short unsigned int\000"
 4781      7420756E 
 4781      7369676E 
 4781      65642069 
 4781      6E7400
 4782              	.LASF86:
 4783 099c 5F5A4E33 		.ascii	"_ZN3dsp9DelayLine4readEm\000"
 4783      64737039 
 4783      44656C61 
ARM GAS  C:\msys64\tmp\ccMiE5FV.s 			page 92


 4783      794C696E 
 4783      65347265 
 4784              	.LASF66:
 4785 09b5 5F5A4E33 		.ascii	"_ZN3dsp9SimpleLFO9square_biEv\000"
 4785      64737039 
 4785      53696D70 
 4785      6C654C46 
 4785      4F397371 
 4786              	.LASF72:
 4787 09d3 6D467261 		.ascii	"mFracZ\000"
 4787      635A00
 4788              	.LASF20:
 4789 09da 646F7562 		.ascii	"double\000"
 4789      6C6500
 4790              	.LASF61:
 4791 09e1 5F5A4E33 		.ascii	"_ZN3dsp9SimpleLFO10saw_bi_offEf\000"
 4791      64737039 
 4791      53696D70 
 4791      6C654C46 
 4791      4F313073 
 4792              	.LASF50:
 4793 0a01 74726961 		.ascii	"triangle_uni\000"
 4793      6E676C65 
 4793      5F756E69 
 4793      00
 4794              	.LASF119:
 4795 0a0e 76616C75 		.ascii	"value\000"
 4795      6500
 4796              	.LASF59:
 4797 0a14 5F5A4E33 		.ascii	"_ZN3dsp9SimpleLFO7saw_uniEv\000"
 4797      64737039 
 4797      53696D70 
 4797      6C654C46 
 4797      4F377361 
 4798              	.LASF143:
 4799 0a30 74687265 		.ascii	"thresh\000"
 4799      736800
 4800              	.LASF38:
 4801 0a37 53696D70 		.ascii	"SimpleLFO\000"
 4801      6C654C46 
 4801      4F00
 4802              	.LASF131:
 4803 0a41 6B5F6F73 		.ascii	"k_osc_api_platform\000"
 4803      635F6170 
 4803      695F706C 
 4803      6174666F 
 4803      726D00
 4804              		.ident	"GCC: (GNU Tools for ARM Embedded Processors) 5.4.1 20160919 (release) [ARM/embedded-5-bran
ARM GAS  C:\msys64\tmp\ccMiE5FV.s 			page 93


DEFINED SYMBOLS
                            *ABS*:00000000 multifx.cpp
C:\msys64\tmp\ccMiE5FV.s:21     .text:00000000 $t
C:\msys64\tmp\ccMiE5FV.s:26     .text:00000000 _hook_init
C:\msys64\tmp\ccMiE5FV.s:139    .text:00000078 $d
C:\msys64\tmp\ccMiE5FV.s:152    .text:0000008c $t
C:\msys64\tmp\ccMiE5FV.s:157    .text:0000008c _hook_process
C:\msys64\tmp\ccMiE5FV.s:217    .text:000000bc $d
C:\msys64\tmp\ccMiE5FV.s:221    .text:000000c4 $t
C:\msys64\tmp\ccMiE5FV.s:598    .text:00000354 $d
C:\msys64\tmp\ccMiE5FV.s:611    .text:0000037c $t
C:\msys64\tmp\ccMiE5FV.s:616    .text:0000037c _hook_param
C:\msys64\tmp\ccMiE5FV.s:770    .text:00000468 $d
C:\msys64\tmp\ccMiE5FV.s:778    .text.startup:00000000 $t
C:\msys64\tmp\ccMiE5FV.s:782    .text.startup:00000000 _GLOBAL__sub_I_s_len
C:\msys64\tmp\ccMiE5FV.s:826    .text.startup:0000001c $d
C:\msys64\tmp\ccMiE5FV.s:834    .init_array:00000000 $d
C:\msys64\tmp\ccMiE5FV.s:855    .data:00000008 lfo_speed
C:\msys64\tmp\ccMiE5FV.s:847    .data:00000000 bpm
C:\msys64\tmp\ccMiE5FV.s:886    .bss:00000020 releaseCount
C:\msys64\tmp\ccMiE5FV.s:851    .data:00000004 trem_rate
C:\msys64\tmp\ccMiE5FV.s:882    .bss:0000001c thresh
C:\msys64\tmp\ccMiE5FV.s:890    .bss:00000024 s_len
C:\msys64\tmp\ccMiE5FV.s:843    .data:00000000 $d
C:\msys64\tmp\ccMiE5FV.s:859    .data:0000000c _ZL4type
C:\msys64\tmp\ccMiE5FV.s:863    .data:00000010 _ZL8bit_rate
C:\msys64\tmp\ccMiE5FV.s:867    .data:00000014 _ZL5fxamt
C:\msys64\tmp\ccMiE5FV.s:870    .bss:00000000 $d
C:\msys64\tmp\ccMiE5FV.s:874    .bss:00000000 _ZL7s_delay
C:\msys64\tmp\ccMiE5FV.s:878    .bss:00000014 _ZL5s_lfo
C:\msys64\tmp\ccMiE5FV.s:893    .sdram:00000000 $d
C:\msys64\tmp\ccMiE5FV.s:897    .sdram:00000000 _ZL11s_delay_ram
                     .debug_frame:00000010 $d

UNDEFINED SYMBOLS
_fx_get_bpm
__aeabi_f2d
__aeabi_dmul
__aeabi_d2f
ceil
log10f
