ARM GAS  C:\msys64\tmp\ccMiE5FV.s 			page 1


   1              		.syntax unified
   2              		.cpu cortex-m4
   3              		.eabi_attribute 27, 1
   4              		.eabi_attribute 28, 1
   5              		.fpu fpv4-sp-d16
   6              		.eabi_attribute 20, 1
   7              		.eabi_attribute 21, 1
   8              		.eabi_attribute 23, 3
   9              		.eabi_attribute 24, 1
  10              		.eabi_attribute 25, 1
  11              		.eabi_attribute 26, 1
  12              		.eabi_attribute 30, 4
  13              		.eabi_attribute 34, 1
  14              		.eabi_attribute 18, 4
  15              		.thumb
  16              		.syntax unified
  17              		.file	"multifx.cpp"
  18              		.text
  19              	.Ltext0:
  20              		.cfi_sections	.debug_frame
  21              		.align	1
  22              		.global	_hook_init
  23              		.thumb
  24              		.thumb_func
  25              		.type	_hook_init, %function
  26              	_hook_init:
  27              	.LFB320:
  28              		.file 1 "./src/multifx.cpp"
  29              		.loc 1 88 0
  30              		.cfi_startproc
  31              		@ args = 0, pretend = 0, frame = 0
  32              		@ frame_needed = 0, uses_anonymous_args = 0
  33              	.LVL0:
  34              	.LBB89:
  35              	.LBB90:
  36              		.file 2 "../inc/dsp/delayline.hpp"
  37              		.loc 2 114 0
  38 0000 1D4A     		ldr	r2, .L5
  39 0002 1E4B     		ldr	r3, .L5+4
  40              		.loc 2 115 0
  41 0004 4FF48031 		mov	r1, #65536
  42              	.LVL1:
  43              	.LBE90:
  44              	.LBE89:
  45              		.loc 1 88 0
  46 0008 10B5     		push	{r4, lr}
  47              		.cfi_def_cfa_offset 8
  48              		.cfi_offset 4, -8
  49              		.cfi_offset 14, -4
  50              	.LBB92:
  51              	.LBB91:
  52              		.loc 2 115 0
  53 000a 9160     		str	r1, [r2, #8]
  54              		.loc 2 116 0
  55 000c 4FF6FF71 		movw	r1, #65535
  56              		.loc 2 114 0
  57 0010 1360     		str	r3, [r2]
ARM GAS  C:\msys64\tmp\ccMiE5FV.s 			page 2


  58              		.loc 2 116 0
  59 0012 D160     		str	r1, [r2, #12]
  60 0014 1033     		adds	r3, r3, #16
  61              		.loc 2 117 0
  62 0016 0021     		movs	r1, #0
  63 0018 1161     		str	r1, [r2, #16]
  64              	.LVL2:
  65 001a 1446     		mov	r4, r2
  66 001c 03F58021 		add	r1, r3, #262144
  67              	.LBE91:
  68              	.LBE92:
  69              	.LBB93:
  70              	.LBB94:
  71              	.LBB95:
  72              		.file 3 "../inc/utils/buffer_ops.h"
  73              		.loc 3 109 0
  74 0020 0022     		movs	r2, #0
  75              	.LVL3:
  76              	.L2:
  77 0022 43F8102C 		str	r2, [r3, #-16]	@ float
  78              	.LVL4:
  79 0026 43F80C2C 		str	r2, [r3, #-12]	@ float
  80              	.LVL5:
  81 002a 43F8082C 		str	r2, [r3, #-8]	@ float
  82              	.LVL6:
  83 002e 43F8042C 		str	r2, [r3, #-4]	@ float
  84 0032 1033     		adds	r3, r3, #16
  85              	.LVL7:
  86              		.loc 3 108 0
  87 0034 9942     		cmp	r1, r3
  88 0036 F4D1     		bne	.L2
  89              	.LVL8:
  90              	.LBE95:
  91              	.LBE94:
  92              	.LBE93:
  93              	.LBB96:
  94              	.LBB97:
  95              		.file 4 "../inc/dsp/simplelfo.hpp"
  96              		.loc 4 91 0
  97 0038 4FF00043 		mov	r3, #-2147483648
  98 003c 6361     		str	r3, [r4, #20]
  99              	.LVL9:
 100              	.LBE97:
 101              	.LBE96:
 102              		.loc 1 92 0
 103 003e FFF7FEFF 		bl	_fx_get_bpm
 104              	.LVL10:
 105 0042 0F4B     		ldr	r3, .L5+8
 106              		.loc 1 93 0
 107 0044 9FED0F6A 		vldr.32	s12, .L5+12
 108 0048 93ED017A 		vldr.32	s14, [r3, #4]
 109              		.loc 1 92 0
 110 004c 1860     		str	r0, [r3]
 111              		.loc 1 93 0
 112 004e 07EE900A 		vmov	s15, r0	@ int
 113 0052 F8EEE77A 		vcvt.f32.s32	s15, s15
 114 0056 27EE877A 		vmul.f32	s14, s15, s14
ARM GAS  C:\msys64\tmp\ccMiE5FV.s 			page 3


 115 005a C6EE076A 		vdiv.f32	s13, s12, s14
 116              	.LBB98:
 117              	.LBB99:
 118              		.loc 4 103 0
 119 005e 9FED0A7A 		vldr.32	s14, .L5+16
 120              	.LBE99:
 121              	.LBE98:
 122              		.loc 1 93 0
 123 0062 C3ED026A 		vstr.32	s13, [r3, #8]
 124              	.LVL11:
 125              	.LBB101:
 126              	.LBB100:
 127              		.loc 4 103 0
 128 0066 67EE877A 		vmul.f32	s15, s15, s14
 129              	.LVL12:
 130 006a 67EEA67A 		vmul.f32	s15, s15, s13
 131              	.LVL13:
 132 006e FEEEC07A 		vcvt.s32.f32	s15, s15, #32
 133 0072 C4ED067A 		vstr.32	s15, [r4, #24]	@ int
 134              	.LVL14:
 135 0076 10BD     		pop	{r4, pc}
 136              	.L6:
 137              		.align	2
 138              	.L5:
 139 0078 00000000 		.word	.LANCHOR0
 140 007c 00000000 		.word	.LANCHOR1
 141 0080 00000000 		.word	.LANCHOR2
 142 0084 00007042 		.word	1114636288
 143 0088 3EC3AE37 		.word	934200126
 144              	.LBE100:
 145              	.LBE101:
 146              		.cfi_endproc
 147              	.LFE320:
 148              		.size	_hook_init, .-_hook_init
 149              		.global	__aeabi_f2d
 150              		.global	__aeabi_dmul
 151              		.global	__aeabi_d2f
 152              		.align	1
 153              		.global	_hook_process
 154              		.thumb
 155              		.thumb_func
 156              		.type	_hook_process, %function
 157              	_hook_process:
 158              	.LFB321:
 159              		.loc 1 102 0
 160              		.cfi_startproc
 161              		@ args = 4, pretend = 0, frame = 8
 162              		@ frame_needed = 0, uses_anonymous_args = 0
 163              	.LVL15:
 164 008c 2DE9F04F 		push	{r4, r5, r6, r7, r8, r9, r10, fp, lr}
 165              		.cfi_def_cfa_offset 36
 166              		.cfi_offset 4, -36
 167              		.cfi_offset 5, -32
 168              		.cfi_offset 6, -28
 169              		.cfi_offset 7, -24
 170              		.cfi_offset 8, -20
 171              		.cfi_offset 9, -16
ARM GAS  C:\msys64\tmp\ccMiE5FV.s 			page 4


 172              		.cfi_offset 10, -12
 173              		.cfi_offset 11, -8
 174              		.cfi_offset 14, -4
 175 0090 2DED048B 		vpush.64	{d8, d9}
 176              		.cfi_def_cfa_offset 52
 177              		.cfi_offset 80, -52
 178              		.cfi_offset 81, -48
 179              		.cfi_offset 82, -44
 180              		.cfi_offset 83, -40
 181 0094 83B0     		sub	sp, sp, #12
 182              		.cfi_def_cfa_offset 64
 183              	.LBB102:
 184              		.loc 1 109 0
 185 0096 DFF8E092 		ldr	r9, .L27+36
 186 009a 109B     		ldr	r3, [sp, #64]
 187              	.LVL16:
 188              	.LBB103:
 189              	.LBB104:
 190              	.LBB105:
 191              	.LBB106:
 192              		.loc 4 125 0
 193 009c AD4D     		ldr	r5, .L27
 194              	.LBE106:
 195              	.LBE105:
 196              	.LBE104:
 197              	.LBE103:
 198              	.LBE102:
 199              		.loc 1 102 0
 200 009e 0C46     		mov	r4, r1
 201 00a0 4FEA4308 		lsl	r8, r3, #1
 202              	.LBB149:
 203              		.loc 1 107 0
 204 00a4 0027     		movs	r7, #0
 205 00a6 4E46     		mov	r6, r9
 206              	.LVL17:
 207              	.L22:
 208              		.loc 1 107 0 is_stmt 0 discriminator 1
 209 00a8 4745     		cmp	r7, r8
 210 00aa 00F04D81 		beq	.L7
 211              		.loc 1 109 0 is_stmt 1
 212 00ae D9F80C30 		ldr	r3, [r9, #12]
 213 00b2 032B     		cmp	r3, #3
 214 00b4 00F24681 		bhi	.L9
 215 00b8 DFE813F0 		tbh	[pc, r3, lsl #1]
 216              	.L11:
 217 00bc 0400     		.2byte	(.L10-.L11)/2
 218 00be 6500     		.2byte	(.L12-.L11)/2
 219 00c0 9700     		.2byte	(.L13-.L11)/2
 220 00c2 2801     		.2byte	(.L14-.L11)/2
 221              		.p2align 1
 222              	.L10:
 223              		.loc 1 113 0
 224 00c4 D0ED006A 		vldr.32	s13, [r0]
 225 00c8 96ED048A 		vldr.32	s16, [r6, #16]
 226              	.LBB130:
 227              	.LBB131:
 228              		.loc 1 46 0
ARM GAS  C:\msys64\tmp\ccMiE5FV.s 			page 5


 229 00cc FFEE007A 		vmov.f32	s15, #-1.0e+0
 230 00d0 F4EE676A 		vcmp.f32	s13, s15
 231 00d4 F1EE10FA 		vmrs	APSR_nzcv, FPSCR
 232              	.LBE131:
 233              	.LBE130:
 234              		.loc 1 113 0
 235 00d8 04F1040B 		add	fp, r4, #4
 236              	.LVL18:
 237 00dc 00F1040A 		add	r10, r0, #4
 238              	.LVL19:
 239              	.LBB136:
 240              	.LBB135:
 241              		.loc 1 46 0
 242 00e0 48D0     		beq	.L15
 243              	.LBB132:
 244              	.LBB133:
 245              	.LBB134:
 246              		.file 5 "../inc/utils/float_math.h"
 247              		.loc 5 680 0
 248 00e2 F7EE008A 		vmov.f32	s17, #1.0e+0
 249 00e6 DFED9C7A 		vldr.32	s15, .L27+4
 250              		.loc 5 685 0
 251 00ea 9FED9C6A 		vldr.32	s12, .L27+8
 252 00ee DFED9C5A 		vldr.32	s11, .L27+12
 253              		.loc 5 680 0
 254 00f2 38EE688A 		vsub.f32	s16, s16, s17
 255 00f6 B4EEE78A 		vcmpe.f32	s16, s15
 256 00fa F1EE10FA 		vmrs	APSR_nzcv, FPSCR
 257 00fe B8BF     		it	lt
 258 0100 B0EE678A 		vmovlt.f32	s16, s15
 259              		.loc 5 682 0
 260 0104 BDEEC87A 		vcvt.s32.f32	s14, s16
 261 0108 B8EEC77A 		vcvt.f32.s32	s14, s14
 262 010c 38EE477A 		vsub.f32	s14, s16, s14
 263 0110 37EE287A 		vadd.f32	s14, s14, s17
 264              		.loc 5 685 0
 265 0114 36EE476A 		vsub.f32	s12, s12, s14
 266 0118 C5EE867A 		vdiv.f32	s15, s11, s12
 267 011c 37EE888A 		vadd.f32	s16, s15, s16
 268 0120 DFED907A 		vldr.32	s15, .L27+16
 269 0124 A7EE678A 		vfms.f32	s16, s14, s15
 270 0128 DFED8F7A 		vldr.32	s15, .L27+20
 271 012c 38EE278A 		vadd.f32	s16, s16, s15
 272 0130 DFED8E7A 		vldr.32	s15, .L27+24
 273 0134 28EE278A 		vmul.f32	s16, s16, s15
 274 0138 BCEEC88A 		vcvt.u32.f32	s16, s16
 275              	.LBE134:
 276              	.LBE133:
 277              	.LBE132:
 278              		.loc 1 46 0
 279 013c 66EE887A 		vmul.f32	s15, s13, s16
 280 0140 17EE900A 		vmov	r0, s15
 281 0144 FFF7FEFF 		bl	__aeabi_f2d
 282              	.LVL20:
 283 0148 41EC100B 		vmov	d0, r0, r1
 284 014c FFF7FEFF 		bl	ceil
 285              	.LVL21:
ARM GAS  C:\msys64\tmp\ccMiE5FV.s 			page 6


 286 0150 C8EE887A 		vdiv.f32	s15, s17, s16
 287 0154 53EC102B 		vmov	r2, r3, d0
 288 0158 17EE900A 		vmov	r0, s15
 289 015c CDE90023 		strd	r2, [sp]
 290 0160 FFF7FEFF 		bl	__aeabi_f2d
 291              	.LVL22:
 292 0164 DDE90023 		ldrd	r2, [sp]
 293 0168 FFF7FEFF 		bl	__aeabi_dmul
 294              	.LVL23:
 295 016c FFF7FEFF 		bl	__aeabi_d2f
 296              	.LVL24:
 297 0170 06EE900A 		vmov	s13, r0
 298              	.L15:
 299              	.LBE135:
 300              	.LBE136:
 301              		.loc 1 113 0
 302 0174 DFED7E7A 		vldr.32	s15, .L27+28
 303 0178 76EEA76A 		vadd.f32	s13, s13, s15
 304 017c 5046     		mov	r0, r10
 305 017e C4ED006A 		vstr.32	s13, [r4]
 306 0182 5C46     		mov	r4, fp
 307              		.loc 1 114 0
 308 0184 DEE0     		b	.L9
 309              	.LVL25:
 310              	.L12:
 311              		.loc 1 117 0
 312 0186 90ED008A 		vldr.32	s16, [r0]
 313              	.LBB137:
 314              	.LBB138:
 315              	.LBB139:
 316              	.LBB140:
 317              		.loc 5 785 0
 318 018a B5EEC08A 		vcmpe.f32	s16, #0
 319 018e F1EE10FA 		vmrs	APSR_nzcv, FPSCR
 320              	.LBE140:
 321              	.LBE139:
 322              	.LBE138:
 323              	.LBE137:
 324              		.loc 1 117 0
 325 0192 04F1040B 		add	fp, r4, #4
 326              	.LVL26:
 327 0196 00F1040A 		add	r10, r0, #4
 328              	.LVL27:
 329              	.LBB146:
 330              	.LBB145:
 331              	.LBB142:
 332              	.LBB141:
 333              		.loc 5 785 0
 334 019a 08DB     		blt	.L26
 335 019c B0EE480A 		vmov.f32	s0, s16
 336 01a0 FFF7FEFF 		bl	log10f
 337              	.LVL28:
 338 01a4 F3EE047A 		vmov.f32	s15, #2.0e+1
 339 01a8 20EE270A 		vmul.f32	s0, s0, s15
 340 01ac 01E0     		b	.L16
 341              	.L26:
 342 01ae 9FED710A 		vldr.32	s0, .L27+32
ARM GAS  C:\msys64\tmp\ccMiE5FV.s 			page 7


 343              	.L16:
 344              	.LVL29:
 345              	.LBE141:
 346              	.LBE142:
 347              		.loc 1 68 0
 348 01b2 D5ED077A 		vldr.32	s15, [r5, #28]
 349 01b6 F4EEC07A 		vcmpe.f32	s15, s0
 350 01ba F1EE10FA 		vmrs	APSR_nzcv, FPSCR
 351 01be 0FDD     		ble	.L18
 352              	.LVL30:
 353              	.LBB143:
 354              	.LBB144:
 355              		.loc 1 52 0
 356 01c0 2B6A     		ldr	r3, [r5, #32]
 357 01c2 5BB1     		cbz	r3, .L20
 358              		.loc 1 54 0
 359 01c4 0122     		movs	r2, #1
 360 01c6 92FBF3F2 		sdiv	r2, r2, r3
 361 01ca 07EE902A 		vmov	s15, r2	@ int
 362 01ce F8EEE77A 		vcvt.f32.s32	s15, s15
 363              		.loc 1 55 0
 364 01d2 013B     		subs	r3, r3, #1
 365              		.loc 1 54 0
 366 01d4 28EE278A 		vmul.f32	s16, s16, s15
 367              	.LVL31:
 368              		.loc 1 55 0
 369 01d8 2B62     		str	r3, [r5, #32]
 370 01da 01E0     		b	.L18
 371              	.LVL32:
 372              	.L20:
 373              		.loc 1 59 0
 374 01dc 3C23     		movs	r3, #60
 375 01de 2B62     		str	r3, [r5, #32]
 376              	.LVL33:
 377              	.L18:
 378              	.LBE144:
 379              	.LBE143:
 380              	.LBE145:
 381              	.LBE146:
 382              		.loc 1 117 0
 383 01e0 84ED008A 		vstr.32	s16, [r4]
 384 01e4 5046     		mov	r0, r10
 385 01e6 5C46     		mov	r4, fp
 386              		.loc 1 118 0
 387 01e8 ACE0     		b	.L9
 388              	.LVL34:
 389              	.L13:
 390              	.LBB147:
 391              	.LBB128:
 392              		.loc 1 78 0
 393 01ea 96ED057A 		vldr.32	s14, [r6, #20]
 394 01ee D0ED005A 		vldr.32	s11, [r0]
 395              		.loc 1 80 0
 396 01f2 96ED048A 		vldr.32	s16, [r6, #16]
 397              		.loc 1 78 0
 398 01f6 F7EE006A 		vmov.f32	s13, #1.0e+0
 399 01fa F2EE047A 		vmov.f32	s15, #1.0e+1
ARM GAS  C:\msys64\tmp\ccMiE5FV.s 			page 8


 400 01fe B0EE666A 		vmov.f32	s12, s13
 401 0202 A7EE276A 		vfma.f32	s12, s14, s15
 402              	.LBE128:
 403              	.LBE147:
 404              		.loc 1 121 0
 405 0206 04F1040B 		add	fp, r4, #4
 406              	.LVL35:
 407 020a 00F1040A 		add	r10, r0, #4
 408              	.LVL36:
 409              	.LBB148:
 410              	.LBB129:
 411              	.LBB112:
 412              	.LBB113:
 413              		.loc 1 37 0
 414 020e F6EE007A 		vmov.f32	s15, #5.0e-1
 415              	.LBE113:
 416              	.LBE112:
 417              		.loc 1 78 0
 418 0212 66EE255A 		vmul.f32	s11, s12, s11
 419              	.LVL37:
 420              	.LBB115:
 421              	.LBB114:
 422              		.loc 1 37 0
 423 0216 B7EE087A 		vmov.f32	s14, #1.5e+0
 424 021a 25EEA56A 		vmul.f32	s12, s11, s11
 425 021e F0EE668A 		vmov.f32	s17, s13
 426 0222 26EE256A 		vmul.f32	s12, s12, s11
 427 0226 B0EE679A 		vmov.f32	s18, s15
 428 022a 27EEC66A 		vnmul.f32	s12, s15, s12
 429 022e A5EE876A 		vfma.f32	s12, s11, s14
 430              	.LVL38:
 431              	.LBE114:
 432              	.LBE115:
 433              	.LBB116:
 434              	.LBB117:
 435              		.loc 1 46 0
 436 0232 BFEE007A 		vmov.f32	s14, #-1.0e+0
 437 0236 B4EE476A 		vcmp.f32	s12, s14
 438 023a F1EE10FA 		vmrs	APSR_nzcv, FPSCR
 439 023e 46D0     		beq	.L21
 440              	.LBB118:
 441              	.LBB119:
 442              	.LBB120:
 443              		.loc 5 680 0
 444 0240 38EE668A 		vsub.f32	s16, s16, s13
 445 0244 DFED447A 		vldr.32	s15, .L27+4
 446              		.loc 5 685 0
 447 0248 9FED447A 		vldr.32	s14, .L27+8
 448              		.loc 5 680 0
 449 024c B4EEE78A 		vcmpe.f32	s16, s15
 450 0250 F1EE10FA 		vmrs	APSR_nzcv, FPSCR
 451 0254 B8BF     		it	lt
 452 0256 B0EE678A 		vmovlt.f32	s16, s15
 453              		.loc 5 682 0
 454 025a FDEEC85A 		vcvt.s32.f32	s11, s16
 455 025e F8EEE55A 		vcvt.f32.s32	s11, s11
 456 0262 78EE655A 		vsub.f32	s11, s16, s11
ARM GAS  C:\msys64\tmp\ccMiE5FV.s 			page 9


 457 0266 75EEA65A 		vadd.f32	s11, s11, s13
 458              		.loc 5 685 0
 459 026a DFED3D6A 		vldr.32	s13, .L27+12
 460 026e 37EE657A 		vsub.f32	s14, s14, s11
 461 0272 C6EE877A 		vdiv.f32	s15, s13, s14
 462 0276 37EE888A 		vadd.f32	s16, s15, s16
 463 027a DFED3A7A 		vldr.32	s15, .L27+16
 464 027e A5EEE78A 		vfms.f32	s16, s11, s15
 465 0282 DFED397A 		vldr.32	s15, .L27+20
 466 0286 38EE278A 		vadd.f32	s16, s16, s15
 467 028a DFED387A 		vldr.32	s15, .L27+24
 468 028e 28EE278A 		vmul.f32	s16, s16, s15
 469 0292 BCEEC88A 		vcvt.u32.f32	s16, s16
 470              	.LBE120:
 471              	.LBE119:
 472              	.LBE118:
 473              		.loc 1 46 0
 474 0296 66EE087A 		vmul.f32	s15, s12, s16
 475 029a 17EE900A 		vmov	r0, s15
 476 029e FFF7FEFF 		bl	__aeabi_f2d
 477              	.LVL39:
 478 02a2 41EC100B 		vmov	d0, r0, r1
 479 02a6 FFF7FEFF 		bl	ceil
 480              	.LVL40:
 481 02aa C8EE887A 		vdiv.f32	s15, s17, s16
 482 02ae 53EC102B 		vmov	r2, r3, d0
 483 02b2 17EE900A 		vmov	r0, s15
 484 02b6 CDE90023 		strd	r2, [sp]
 485 02ba FFF7FEFF 		bl	__aeabi_f2d
 486              	.LVL41:
 487 02be DDE90023 		ldrd	r2, [sp]
 488 02c2 FFF7FEFF 		bl	__aeabi_dmul
 489              	.LVL42:
 490 02c6 FFF7FEFF 		bl	__aeabi_d2f
 491              	.LVL43:
 492 02ca 06EE100A 		vmov	s12, r0
 493              	.L21:
 494              	.LVL44:
 495              	.LBE117:
 496              	.LBE116:
 497              	.LBB121:
 498              	.LBB109:
 499              		.loc 4 125 0
 500 02ce 95ED057A 		vldr.32	s14, [r5, #20]	@ int
 501              	.LBE109:
 502              	.LBE121:
 503              	.LBB122:
 504              	.LBB123:
 505              		.loc 4 82 0
 506 02d2 6A69     		ldr	r2, [r5, #20]
 507 02d4 AB69     		ldr	r3, [r5, #24]
 508              	.LBE123:
 509              	.LBE122:
 510              	.LBB125:
 511              	.LBB110:
 512              		.loc 4 125 0
 513 02d6 BAEEE07A 		vcvt.f32.s32	s14, s14, #31
ARM GAS  C:\msys64\tmp\ccMiE5FV.s 			page 10


 514              	.LVL45:
 515              	.LBE110:
 516              	.LBE125:
 517              	.LBB126:
 518              	.LBB124:
 519              		.loc 4 82 0
 520 02da 1344     		add	r3, r3, r2
 521 02dc 6B61     		str	r3, [r5, #20]
 522              	.LVL46:
 523              	.LBE124:
 524              	.LBE126:
 525              	.LBB127:
 526              	.LBB111:
 527              	.LBB107:
 528              	.LBB108:
 529              		.loc 5 287 0
 530 02de 17EE103A 		vmov	r3, s14	@ int
 531 02e2 23F00043 		bic	r3, r3, #-2147483648
 532 02e6 06EE903A 		vmov	s13, r3	@ int
 533              	.LBE108:
 534              	.LBE107:
 535              	.LBE111:
 536              	.LBE127:
 537              	.LBE129:
 538              	.LBE148:
 539              		.loc 1 121 0
 540 02ea 76EEE86A 		vsub.f32	s13, s13, s17
 541 02ee 5046     		mov	r0, r10
 542 02f0 66EE876A 		vmul.f32	s13, s13, s14
 543 02f4 B1EE007A 		vmov.f32	s14, #4.0e+0
 544 02f8 66EE876A 		vmul.f32	s13, s13, s14
 545 02fc 26EE897A 		vmul.f32	s14, s13, s18
 546 0300 67EE067A 		vmul.f32	s15, s14, s12
 547 0304 C4ED007A 		vstr.32	s15, [r4]
 548 0308 5C46     		mov	r4, fp
 549              		.loc 1 122 0
 550 030a 1BE0     		b	.L9
 551              	.LVL47:
 552              	.L14:
 553              		.loc 1 125 0
 554 030c D6ED056A 		vldr.32	s13, [r6, #20]
 555 0310 B2EE047A 		vmov.f32	s14, #1.0e+1
 556 0314 F7EE007A 		vmov.f32	s15, #1.0e+0
 557 0318 E6EE877A 		vfma.f32	s15, s13, s14
 558              		.loc 1 126 0
 559 031c 0434     		adds	r4, r4, #4
 560              	.LVL48:
 561              		.loc 1 125 0
 562 031e 0430     		adds	r0, r0, #4
 563              	.LVL49:
 564 0320 10ED017A 		vldr.32	s14, [r0, #-4]
 565 0324 67EE877A 		vmul.f32	s15, s15, s14
 566              	.LVL50:
 567              		.loc 1 126 0
 568 0328 27EEA77A 		vmul.f32	s14, s15, s15
 569 032c 67EE276A 		vmul.f32	s13, s14, s15
 570 0330 B6EE007A 		vmov.f32	s14, #5.0e-1
ARM GAS  C:\msys64\tmp\ccMiE5FV.s 			page 11


 571 0334 27EE667A 		vnmul.f32	s14, s14, s13
 572 0338 F7EE086A 		vmov.f32	s13, #1.5e+0
 573 033c A7EEA67A 		vfma.f32	s14, s15, s13
 574 0340 04ED017A 		vstr.32	s14, [r4, #-4]
 575              	.LVL51:
 576              	.L9:
 577              		.loc 1 107 0 discriminator 2
 578 0344 0137     		adds	r7, r7, #1
 579              	.LVL52:
 580 0346 AFE6     		b	.L22
 581              	.L7:
 582              	.LBE149:
 583              		.loc 1 131 0
 584 0348 03B0     		add	sp, sp, #12
 585              		.cfi_def_cfa_offset 52
 586              		@ sp needed
 587 034a BDEC048B 		vldm	sp!, {d8-d9}
 588              		.cfi_restore 82
 589              		.cfi_restore 83
 590              		.cfi_restore 80
 591              		.cfi_restore 81
 592              		.cfi_def_cfa_offset 36
 593 034e BDE8F08F 		pop	{r4, r5, r6, r7, r8, r9, r10, fp, pc}
 594              	.LVL53:
 595              	.L28:
 596 0352 00BF     		.align	2
 597              	.L27:
 598 0354 00000000 		.word	.LANCHOR0
 599 0358 0000FCC2 		.word	-1023672320
 600 035c F8F59A40 		.word	1083897336
 601 0360 FED2DD41 		.word	1105056510
 602 0364 8DBCBE3F 		.word	1069464717
 603 0368 518CF242 		.word	1123191889
 604 036c 0000004B 		.word	1258291200
 605 0370 00000000 		.word	0
 606 0374 00C079C4 		.word	-998653952
 607 0378 00000000 		.word	.LANCHOR2
 608              		.cfi_endproc
 609              	.LFE321:
 610              		.size	_hook_process, .-_hook_process
 611              		.align	1
 612              		.global	_hook_param
 613              		.thumb
 614              		.thumb_func
 615              		.type	_hook_param, %function
 616              	_hook_param:
 617              	.LFB322:
 618              		.loc 1 135 0
 619              		.cfi_startproc
 620              		@ args = 0, pretend = 0, frame = 0
 621              		@ frame_needed = 0, uses_anonymous_args = 0
 622              	.LVL54:
 623 037c 10B5     		push	{r4, lr}
 624              		.cfi_def_cfa_offset 8
 625              		.cfi_offset 4, -8
 626              		.cfi_offset 14, -4
 627 037e 2DED028B 		vpush.64	{d8}
ARM GAS  C:\msys64\tmp\ccMiE5FV.s 			page 12


 628              		.cfi_def_cfa_offset 16
 629              		.cfi_offset 80, -16
 630              		.cfi_offset 81, -12
 631              		.loc 1 137 0
 632 0382 08EE101A 		vmov	s16, r1	@ int
 633 0386 BAEEE08A 		vcvt.f32.s32	s16, s16, #31
 634              	.LVL55:
 635              		.loc 1 138 0
 636 038a 10B1     		cbz	r0, .L31
 637 038c 0128     		cmp	r0, #1
 638 038e 4AD0     		beq	.L32
 639 0390 67E0     		b	.L29
 640              	.L31:
 641              		.loc 1 141 0
 642 0392 354C     		ldr	r4, .L59
 643              		.loc 1 142 0
 644 0394 E368     		ldr	r3, [r4, #12]
 645              		.loc 1 141 0
 646 0396 84ED058A 		vstr.32	s16, [r4, #20]
 647              		.loc 1 142 0
 648 039a 3BB9     		cbnz	r3, .L33
 649              		.loc 1 144 0
 650 039c F1EE007A 		vmov.f32	s15, #4.0e+0
 651 03a0 B2EE0C7A 		vmov.f32	s14, #1.4e+1
 652 03a4 E8EE077A 		vfma.f32	s15, s16, s14
 653 03a8 C4ED047A 		vstr.32	s15, [r4, #16]
 654              	.L33:
 655              		.loc 1 151 0
 656 03ac FFF7FEFF 		bl	_fx_get_bpm
 657              	.LVL56:
 658              		.loc 1 152 0
 659 03b0 B5EE007A 		vmov.f32	s14, #2.5e-1
 660 03b4 B4EEC78A 		vcmpe.f32	s16, s14
 661 03b8 F1EE10FA 		vmrs	APSR_nzcv, FPSCR
 662              		.loc 1 151 0
 663 03bc 2A4B     		ldr	r3, .L59
 664 03be 2060     		str	r0, [r4]
 665              		.loc 1 152 0
 666 03c0 03D5     		bpl	.L53
 667              		.loc 1 154 0
 668 03c2 4FF07852 		mov	r2, #1040187392
 669 03c6 5A60     		str	r2, [r3, #4]	@ float
 670 03c8 15E0     		b	.L36
 671              	.L53:
 672              		.loc 1 156 0
 673 03ca F6EE007A 		vmov.f32	s15, #5.0e-1
 674 03ce B4EEE78A 		vcmpe.f32	s16, s15
 675 03d2 F1EE10FA 		vmrs	APSR_nzcv, FPSCR
 676 03d6 02D5     		bpl	.L54
 677              		.loc 1 158 0
 678 03d8 83ED017A 		vstr.32	s14, [r3, #4]
 679 03dc 0BE0     		b	.L36
 680              	.L54:
 681              		.loc 1 160 0
 682 03de B6EE087A 		vmov.f32	s14, #7.5e-1
 683 03e2 B4EEC78A 		vcmpe.f32	s16, s14
 684 03e6 F1EE10FA 		vmrs	APSR_nzcv, FPSCR
ARM GAS  C:\msys64\tmp\ccMiE5FV.s 			page 13


 685              		.loc 1 166 0
 686 03ea 56BF     		itet	pl
 687 03ec 4FF07E52 		movpl	r2, #1065353216
 688              		.loc 1 162 0
 689 03f0 C3ED017A 		vstrmi.32	s15, [r3, #4]
 690              		.loc 1 166 0
 691 03f4 5A60     		strpl	r2, [r3, #4]	@ float
 692              	.L36:
 693              		.loc 1 169 0
 694 03f6 07EE900A 		vmov	s15, r0	@ int
 695 03fa 94ED017A 		vldr.32	s14, [r4, #4]
 696 03fe DFED1B6A 		vldr.32	s13, .L59+4
 697              	.LBB150:
 698              	.LBB151:
 699              		.loc 4 103 0
 700 0402 1B4B     		ldr	r3, .L59+8
 701              	.LBE151:
 702              	.LBE150:
 703              		.loc 1 169 0
 704 0404 F8EEE77A 		vcvt.f32.s32	s15, s15
 705 0408 27EE877A 		vmul.f32	s14, s15, s14
 706 040c C6EE877A 		vdiv.f32	s15, s13, s14
 707              	.LBB154:
 708              	.LBB152:
 709              		.loc 4 103 0
 710 0410 9FED187A 		vldr.32	s14, .L59+12
 711              	.LBE152:
 712              	.LBE154:
 713              		.loc 1 169 0
 714 0414 C4ED027A 		vstr.32	s15, [r4, #8]
 715              	.LVL57:
 716              	.LBB155:
 717              	.LBB153:
 718              		.loc 4 103 0
 719 0418 67EE877A 		vmul.f32	s15, s15, s14
 720              	.LVL58:
 721 041c FEEEC07A 		vcvt.s32.f32	s15, s15, #32
 722 0420 C3ED067A 		vstr.32	s15, [r3, #24]	@ int
 723 0424 1DE0     		b	.L29
 724              	.LVL59:
 725              	.L32:
 726              	.LBE153:
 727              	.LBE155:
 728              		.loc 1 174 0
 729 0426 F5EE007A 		vmov.f32	s15, #2.5e-1
 730 042a B4EEE78A 		vcmpe.f32	s16, s15
 731 042e F1EE10FA 		vmrs	APSR_nzcv, FPSCR
 732 0432 0D4B     		ldr	r3, .L59
 733 0434 02D5     		bpl	.L56
 734              		.loc 1 176 0
 735 0436 0022     		movs	r2, #0
 736 0438 DA60     		str	r2, [r3, #12]
 737 043a 12E0     		b	.L29
 738              	.L56:
 739              		.loc 1 178 0
 740 043c F6EE007A 		vmov.f32	s15, #5.0e-1
 741 0440 B4EEE78A 		vcmpe.f32	s16, s15
ARM GAS  C:\msys64\tmp\ccMiE5FV.s 			page 14


 742 0444 F1EE10FA 		vmrs	APSR_nzcv, FPSCR
 743 0448 01D5     		bpl	.L57
 744              		.loc 1 180 0
 745 044a D860     		str	r0, [r3, #12]
 746 044c 09E0     		b	.L29
 747              	.L57:
 748              		.loc 1 182 0
 749 044e F6EE087A 		vmov.f32	s15, #7.5e-1
 750 0452 B4EEE78A 		vcmpe.f32	s16, s15
 751 0456 F1EE10FA 		vmrs	APSR_nzcv, FPSCR
 752              		.loc 1 184 0
 753 045a 4CBF     		ite	mi
 754 045c 0222     		movmi	r2, #2
 755              		.loc 1 188 0
 756 045e 0322     		movpl	r2, #3
 757 0460 DA60     		str	r2, [r3, #12]
 758              	.LVL60:
 759              	.L29:
 760              		.loc 1 194 0
 761 0462 BDEC028B 		vldm	sp!, {d8}
 762              		.cfi_restore 80
 763              		.cfi_restore 81
 764              		.cfi_def_cfa_offset 8
 765              	.LVL61:
 766 0466 10BD     		pop	{r4, pc}
 767              	.L60:
 768              		.align	2
 769              	.L59:
 770 0468 00000000 		.word	.LANCHOR2
 771 046c 00007042 		.word	1114636288
 772 0470 00000000 		.word	.LANCHOR0
 773 0474 3EC3AE37 		.word	934200126
 774              		.cfi_endproc
 775              	.LFE322:
 776              		.size	_hook_param, .-_hook_param
 777              		.section	.text.startup,"ax",%progbits
 778              		.align	1
 779              		.thumb
 780              		.thumb_func
 781              		.type	_GLOBAL__sub_I_s_len, %function
 782              	_GLOBAL__sub_I_s_len:
 783              	.LFB324:
 784              		.loc 1 194 0
 785              		.cfi_startproc
 786              		@ args = 0, pretend = 0, frame = 0
 787              		@ frame_needed = 0, uses_anonymous_args = 0
 788              		@ link register save eliminated.
 789              	.LVL62:
 790              	.LBB163:
 791              	.LBB164:
 792              	.LBB165:
 793              		.loc 2 74 0
 794 0000 064B     		ldr	r3, .L62
 795 0002 0021     		movs	r1, #0
 796 0004 0022     		movs	r2, #0
 797 0006 5960     		str	r1, [r3, #4]	@ float
 798              	.LBE165:
ARM GAS  C:\msys64\tmp\ccMiE5FV.s 			page 15


 799              	.LBE164:
 800              	.LBB167:
 801              	.LBB168:
 802              		.loc 4 69 0
 803 0008 4FF00041 		mov	r1, #-2147483648
 804              	.LBE168:
 805              	.LBE167:
 806              	.LBB170:
 807              	.LBB166:
 808              		.loc 2 74 0
 809 000c 1A60     		str	r2, [r3]
 810 000e 9A60     		str	r2, [r3, #8]
 811 0010 DA60     		str	r2, [r3, #12]
 812 0012 1A61     		str	r2, [r3, #16]
 813              	.LVL63:
 814              	.LBE166:
 815              	.LBE170:
 816              	.LBB171:
 817              	.LBB169:
 818              		.loc 4 69 0
 819 0014 5961     		str	r1, [r3, #20]
 820 0016 9A61     		str	r2, [r3, #24]
 821              	.LVL64:
 822 0018 7047     		bx	lr
 823              	.L63:
 824 001a 00BF     		.align	2
 825              	.L62:
 826 001c 00000000 		.word	.LANCHOR0
 827              	.LBE169:
 828              	.LBE171:
 829              	.LBE163:
 830              		.cfi_endproc
 831              	.LFE324:
 832              		.size	_GLOBAL__sub_I_s_len, .-_GLOBAL__sub_I_s_len
 833              		.section	.init_array,"aw",%init_array
 834              		.align	2
 835 0000 00000000 		.word	_GLOBAL__sub_I_s_len(target1)
 836              		.global	lfo_speed
 837              		.global	bpm
 838              		.global	releaseCount
 839              		.global	trem_rate
 840              		.global	thresh
 841              		.global	s_len
 842              		.data
 843              		.align	2
 844              		.set	.LANCHOR2,. + 0
 845              		.type	bpm, %object
 846              		.size	bpm, 4
 847              	bpm:
 848 0000 5A000000 		.word	90
 849              		.type	trem_rate, %object
 850              		.size	trem_rate, 4
 851              	trem_rate:
 852 0004 0000003F 		.word	1056964608
 853              		.type	lfo_speed, %object
 854              		.size	lfo_speed, 4
 855              	lfo_speed:
ARM GAS  C:\msys64\tmp\ccMiE5FV.s 			page 16


 856 0008 0000003F 		.word	1056964608
 857              		.type	_ZL4type, %object
 858              		.size	_ZL4type, 4
 859              	_ZL4type:
 860 000c 01000000 		.word	1
 861              		.type	_ZL8bit_rate, %object
 862              		.size	_ZL8bit_rate, 4
 863              	_ZL8bit_rate:
 864 0010 00008041 		.word	1098907648
 865              		.type	_ZL5fxamt, %object
 866              		.size	_ZL5fxamt, 4
 867              	_ZL5fxamt:
 868 0014 0000003F 		.word	1056964608
 869              		.bss
 870              		.align	2
 871              		.set	.LANCHOR0,. + 0
 872              		.type	_ZL7s_delay, %object
 873              		.size	_ZL7s_delay, 20
 874              	_ZL7s_delay:
 875 0000 00000000 		.space	20
 875      00000000 
 875      00000000 
 875      00000000 
 875      00000000 
 876              		.type	_ZL5s_lfo, %object
 877              		.size	_ZL5s_lfo, 8
 878              	_ZL5s_lfo:
 879 0014 00000000 		.space	8
 879      00000000 
 880              		.type	thresh, %object
 881              		.size	thresh, 4
 882              	thresh:
 883 001c 00000000 		.space	4
 884              		.type	releaseCount, %object
 885              		.size	releaseCount, 4
 886              	releaseCount:
 887 0020 00000000 		.space	4
 888              		.type	s_len, %object
 889              		.size	s_len, 4
 890              	s_len:
 891 0024 00000000 		.space	4
 892              		.section	.sdram,"aw",%progbits
 893              		.align	2
 894              		.set	.LANCHOR1,. + 0
 895              		.type	_ZL11s_delay_ram, %object
 896              		.size	_ZL11s_delay_ram, 192000
 897              	_ZL11s_delay_ram:
 898 0000 00000000 		.space	192000
 898      00000000 
 898      00000000 
 898      00000000 
 898      00000000 
 899              		.text
 900              	.Letext0:
 901              		.file 6 "c:\\users\\bradl\\desktop\\code projects\\korgfx\\korgdelayfxset\\delays\\tools\\gcc\\gcc
 902              		.file 7 "c:\\users\\bradl\\desktop\\code projects\\korgfx\\korgdelayfxset\\delays\\tools\\gcc\\gcc
 903              		.file 8 "c:\\users\\bradl\\desktop\\code projects\\korgfx\\korgdelayfxset\\delays\\tools\\gcc\\gcc
ARM GAS  C:\msys64\tmp\ccMiE5FV.s 			page 17


 904              		.file 9 "../../ext/CMSIS/CMSIS/Include/arm_math.h"
 905              		.file 10 "../inc/utils/int_math.h"
 906              		.file 11 "./inc/fx_api.h"
 907              		.file 12 "./inc/osc_api.h"
 908              		.file 13 "c:\\users\\bradl\\desktop\\code projects\\korgfx\\korgdelayfxset\\delays\\tools\\gcc\\gc
 909              		.file 14 "./inc/userprg.h"