ARM GAS  C:\msys64\tmp\ccYRci0V.s 			page 1


   1              		.syntax unified
   2              		.cpu cortex-m4
   3              		.eabi_attribute 27, 1
   4              		.eabi_attribute 28, 1
   5              		.fpu fpv4-sp-d16
   6              		.eabi_attribute 20, 1
   7              		.eabi_attribute 21, 1
   8              		.eabi_attribute 23, 3
   9              		.eabi_attribute 24, 1
  10              		.eabi_attribute 25, 1
  11              		.eabi_attribute 26, 1
  12              		.eabi_attribute 30, 4
  13              		.eabi_attribute 34, 1
  14              		.eabi_attribute 18, 4
  15              		.thumb
  16              		.syntax unified
  17              		.file	"chorus.cpp"
  18              		.text
  19              	.Ltext0:
  20              		.cfi_sections	.debug_frame
  21              		.align	1
  22              		.global	_hook_init
  23              		.thumb
  24              		.thumb_func
  25              		.type	_hook_init, %function
  26              	_hook_init:
  27              	.LFB315:
  28              		.file 1 "./src/chorus.cpp"
  29              		.loc 1 31 0
  30              		.cfi_startproc
  31              		@ args = 0, pretend = 0, frame = 0
  32              		@ frame_needed = 0, uses_anonymous_args = 0
  33              	.LVL0:
  34 0000 10B5     		push	{r4, lr}
  35              		.cfi_def_cfa_offset 8
  36              		.cfi_offset 4, -8
  37              		.cfi_offset 14, -4
  38              	.LBB48:
  39              	.LBB49:
  40              		.file 2 "../inc/dsp/delayline.hpp"
  41              		.loc 2 243 0
  42 0002 1B4C     		ldr	r4, .L5
  43 0004 1B4B     		ldr	r3, .L5+4
  44 0006 2360     		str	r3, [r4]
  45              		.loc 2 244 0
  46 0008 4FF48022 		mov	r2, #262144
  47 000c E260     		str	r2, [r4, #12]
  48              		.loc 2 245 0
  49 000e 013A     		subs	r2, r2, #1
  50 0010 2261     		str	r2, [r4, #16]
  51 0012 1033     		adds	r3, r3, #16
  52              		.loc 2 246 0
  53 0014 0022     		movs	r2, #0
  54 0016 6261     		str	r2, [r4, #20]
  55              	.LVL1:
  56 0018 03F50011 		add	r1, r3, #2097152
  57              	.LVL2:
ARM GAS  C:\msys64\tmp\ccYRci0V.s 			page 2


  58              	.LBE49:
  59              	.LBE48:
  60              	.LBB50:
  61              	.LBB51:
  62              	.LBB52:
  63              		.file 3 "../inc/utils/buffer_ops.h"
  64              		.loc 3 109 0
  65 001c 0022     		movs	r2, #0
  66              	.LVL3:
  67              	.L2:
  68 001e 43F8102C 		str	r2, [r3, #-16]	@ float
  69              	.LVL4:
  70 0022 43F80C2C 		str	r2, [r3, #-12]	@ float
  71              	.LVL5:
  72 0026 43F8082C 		str	r2, [r3, #-8]	@ float
  73              	.LVL6:
  74 002a 43F8042C 		str	r2, [r3, #-4]	@ float
  75 002e 1033     		adds	r3, r3, #16
  76              	.LVL7:
  77              		.loc 3 108 0
  78 0030 9942     		cmp	r1, r3
  79 0032 F4D1     		bne	.L2
  80              	.LVL8:
  81              	.LBE52:
  82              	.LBE51:
  83              	.LBE50:
  84              	.LBB53:
  85              	.LBB54:
  86              		.file 4 "../inc/dsp/simplelfo.hpp"
  87              		.loc 4 91 0
  88 0034 4FF00043 		mov	r3, #-2147483648
  89 0038 A361     		str	r3, [r4, #24]
  90              	.LVL9:
  91              	.LBE54:
  92              	.LBE53:
  93              		.loc 1 35 0
  94 003a FFF7FEFF 		bl	_fx_get_bpm
  95              	.LVL10:
  96              		.loc 1 36 0
  97 003e 0A23     		movs	r3, #10
  98              		.loc 1 35 0
  99 0040 2062     		str	r0, [r4, #32]
 100              		.loc 1 36 0
 101 0042 90FBF3F0 		sdiv	r0, r0, r3
 102 0046 3C23     		movs	r3, #60
 103 0048 93FBF0F0 		sdiv	r0, r3, r0
 104 004c 0A4B     		ldr	r3, .L5+8
 105              	.LBB55:
 106              	.LBB56:
 107              		.loc 4 103 0
 108 004e 9FED0B7A 		vldr.32	s14, .L5+12
 109              	.LBE56:
 110              	.LBE55:
 111              		.loc 1 36 0
 112 0052 5843     		muls	r0, r3, r0
 113              		.loc 1 37 0
 114 0054 4FF07C53 		mov	r3, #1056964608
ARM GAS  C:\msys64\tmp\ccYRci0V.s 			page 3


 115 0058 A362     		str	r3, [r4, #40]	@ float
 116              	.LVL11:
 117              		.loc 1 38 0
 118 005a 094B     		ldr	r3, .L5+16
 119              		.loc 1 36 0
 120 005c 6062     		str	r0, [r4, #36]
 121              	.LBB58:
 122              	.LBB57:
 123              		.loc 4 103 0
 124 005e D3ED007A 		vldr.32	s15, [r3]
 125 0062 67EE877A 		vmul.f32	s15, s15, s14
 126 0066 FEEEC07A 		vcvt.s32.f32	s15, s15, #32
 127 006a C4ED077A 		vstr.32	s15, [r4, #28]	@ int
 128              	.LVL12:
 129 006e 10BD     		pop	{r4, pc}
 130              	.L6:
 131              		.align	2
 132              	.L5:
 133 0070 00000000 		.word	.LANCHOR0
 134 0074 00000000 		.word	.LANCHOR1
 135 0078 008A6600 		.word	6720000
 136 007c 3EC3AE37 		.word	934200126
 137 0080 00000000 		.word	.LANCHOR2
 138              	.LBE57:
 139              	.LBE58:
 140              		.cfi_endproc
 141              	.LFE315:
 142              		.size	_hook_init, .-_hook_init
 143              		.align	1
 144              		.global	_hook_process
 145              		.thumb
 146              		.thumb_func
 147              		.type	_hook_process, %function
 148              	_hook_process:
 149              	.LFB317:
 150              		.loc 1 47 0
 151              		.cfi_startproc
 152              		@ args = 0, pretend = 0, frame = 0
 153              		@ frame_needed = 0, uses_anonymous_args = 0
 154              	.LVL13:
 155              		.loc 1 51 0
 156 0084 384B     		ldr	r3, .L11
 157              	.LBB59:
 158              	.LBB60:
 159              	.LBB61:
 160              	.LBB62:
 161              		.loc 4 125 0
 162 0086 9FED394A 		vldr.32	s8, .L11+4
 163              	.LBE62:
 164              	.LBE61:
 165              	.LBE60:
 166              	.LBE59:
 167              		.loc 1 51 0
 168 008a D3ED0A5A 		vldr.32	s11, [r3, #40]
 169              	.LBB97:
 170              	.LBB93:
 171              		.loc 1 56 0
ARM GAS  C:\msys64\tmp\ccYRci0V.s 			page 4


 172 008e 93ED0B5A 		vldr.32	s10, [r3, #44]
 173              	.LBB70:
 174              	.LBB71:
 175              		.loc 4 82 0
 176 0092 D3F81CC0 		ldr	ip, [r3, #28]
 177              	.LBE71:
 178              	.LBE70:
 179              	.LBE93:
 180              	.LBE97:
 181              		.loc 1 47 0
 182 0096 2DE9F043 		push	{r4, r5, r6, r7, r8, r9, lr}
 183              		.cfi_def_cfa_offset 28
 184              		.cfi_offset 4, -28
 185              		.cfi_offset 5, -24
 186              		.cfi_offset 6, -20
 187              		.cfi_offset 7, -16
 188              		.cfi_offset 8, -12
 189              		.cfi_offset 9, -8
 190              		.cfi_offset 14, -4
 191 009a 5D69     		ldr	r5, [r3, #20]
 192 009c D3F818E0 		ldr	lr, [r3, #24]
 193              	.LBB98:
 194              	.LBB94:
 195              	.LBB73:
 196              	.LBB74:
 197              		.loc 2 309 0
 198 00a0 1E68     		ldr	r6, [r3]
 199 00a2 1F69     		ldr	r7, [r3, #16]
 200              	.LBE74:
 201              	.LBE73:
 202              	.LBE94:
 203              	.LBE98:
 204              		.loc 1 49 0
 205 00a4 C900     		lsls	r1, r1, #3
 206              	.LVL14:
 207 00a6 00EB0108 		add	r8, r0, r1
 208              	.LVL15:
 209 00aa F146     		mov	r9, lr
 210              	.LBB99:
 211              	.LBB95:
 212              	.LBB77:
 213              	.LBB72:
 214              		.loc 4 82 0
 215 00ac 2A46     		mov	r2, r5
 216              	.LBE72:
 217              	.LBE77:
 218              	.LBB78:
 219              	.LBB65:
 220              		.loc 4 126 0
 221 00ae B7EE006A 		vmov.f32	s12, #1.0e+0
 222 00b2 F1EE004A 		vmov.f32	s9, #4.0e+0
 223              	.LVL16:
 224              	.L9:
 225              	.LBE65:
 226              	.LBE78:
 227              	.LBE95:
 228              		.loc 1 54 0 discriminator 2
ARM GAS  C:\msys64\tmp\ccYRci0V.s 			page 5


 229 00b6 8045     		cmp	r8, r0
 230 00b8 07EE109A 		vmov	s14, r9	@ int
 231 00bc 00F10804 		add	r4, r0, #8
 232 00c0 E144     		add	r9, r9, ip
 233 00c2 48D0     		beq	.L8
 234              	.LVL17:
 235              	.LBB96:
 236              	.LBB79:
 237              	.LBB66:
 238              		.loc 4 125 0
 239 00c4 B8EEC77A 		vcvt.f32.s32	s14, s14
 240 00c8 27EE047A 		vmul.f32	s14, s14, s8
 241              	.LVL18:
 242              	.LBB63:
 243              	.LBB64:
 244              		.file 5 "../inc/utils/float_math.h"
 245              		.loc 5 287 0
 246 00cc 17EE100A 		vmov	r0, s14	@ int
 247              	.LVL19:
 248 00d0 20F00040 		bic	r0, r0, #-2147483648
 249 00d4 07EE900A 		vmov	s15, r0	@ int
 250              	.LBE64:
 251              	.LBE63:
 252              	.LBE66:
 253              	.LBE79:
 254              	.LBB80:
 255              	.LBB81:
 256              		.loc 2 320 0
 257 00d8 02F5D260 		add	r0, r2, #1680
 258 00dc 3840     		ands	r0, r0, r7
 259 00de 06EBC000 		add	r0, r6, r0, lsl #3
 260              	.LBE81:
 261              	.LBE80:
 262              	.LBB82:
 263              	.LBB67:
 264              		.loc 4 126 0
 265 00e2 77EEC67A 		vsub.f32	s15, s15, s12
 266              	.LBE67:
 267              	.LBE82:
 268              		.loc 1 57 0
 269 00e6 D0ED016A 		vldr.32	s13, [r0, #4]
 270              	.LBB83:
 271              	.LBB75:
 272              		.loc 2 309 0
 273 00ea 02F59660 		add	r0, r2, #1200
 274              	.LBE75:
 275              	.LBE83:
 276              	.LBB84:
 277              	.LBB68:
 278              		.loc 4 126 0
 279 00ee 67EE877A 		vmul.f32	s15, s15, s14
 280              	.LBE68:
 281              	.LBE84:
 282              	.LBB85:
 283              	.LBB76:
 284              		.loc 2 309 0
 285 00f2 3840     		ands	r0, r0, r7
ARM GAS  C:\msys64\tmp\ccYRci0V.s 			page 6


 286 00f4 06EBC000 		add	r0, r6, r0, lsl #3
 287              	.LBE76:
 288              	.LBE85:
 289              	.LBB86:
 290              	.LBB69:
 291              		.loc 4 126 0
 292 00f8 27EEA47A 		vmul.f32	s14, s15, s9
 293              	.LVL20:
 294              	.LBE69:
 295              	.LBE86:
 296              		.loc 1 58 0
 297 00fc D0ED007A 		vldr.32	s15, [r0]
 298              		.loc 1 57 0
 299 0100 65EE266A 		vmul.f32	s13, s10, s13
 300              		.loc 1 58 0
 301 0104 65EE277A 		vmul.f32	s15, s10, s15
 302              		.loc 1 57 0
 303 0108 66EE876A 		vmul.f32	s13, s13, s14
 304              	.LVL21:
 305              		.loc 1 58 0
 306 010c 67EE877A 		vmul.f32	s15, s15, s14
 307              		.loc 1 59 0
 308 0110 25EEA67A 		vmul.f32	s14, s11, s13
 309              	.LVL22:
 310              		.loc 1 58 0
 311 0114 67EEA57A 		vmul.f32	s15, s15, s11
 312              		.loc 1 59 0
 313 0118 83ED0D7A 		vstr.32	s14, [r3, #52]
 314              		.loc 1 58 0
 315 011c C3ED0C7A 		vstr.32	s15, [r3, #48]
 316              		.loc 1 60 0
 317 0120 14ED027A 		vldr.32	s14, [r4, #-8]
 318 0124 77EE877A 		vadd.f32	s15, s15, s14
 319              		.loc 1 61 0
 320 0128 14ED017A 		vldr.32	s14, [r4, #-4]
 321              		.loc 1 60 0
 322 012c 44ED027A 		vstr.32	s15, [r4, #-8]
 323              		.loc 1 61 0
 324 0130 D3ED0D6A 		vldr.32	s13, [r3, #52]
 325              	.LVL23:
 326              	.LBB87:
 327              	.LBB88:
 328              		.loc 2 256 0
 329 0134 07EA0200 		and	r0, r7, r2
 330              	.LBE88:
 331              	.LBE87:
 332              		.loc 1 61 0
 333 0138 37EE267A 		vadd.f32	s14, s14, s13
 334              	.LBB91:
 335              	.LBB89:
 336              		.loc 2 256 0
 337 013c 06EBC000 		add	r0, r6, r0, lsl #3
 338              	.LBE89:
 339              	.LBE91:
 340              		.loc 1 61 0
 341 0140 04ED017A 		vstr.32	s14, [r4, #-4]
 342              	.LVL24:
ARM GAS  C:\msys64\tmp\ccYRci0V.s 			page 7


 343              	.LBB92:
 344              	.LBB90:
 345              		.loc 2 256 0
 346 0144 C0ED007A 		vstr.32	s15, [r0]
 347 0148 77EE867A 		vadd.f32	s15, s15, s12
 348              	.LVL25:
 349 014c 013A     		subs	r2, r2, #1
 350 014e C0ED017A 		vstr.32	s15, [r0, #4]
 351              	.LVL26:
 352              	.LBE90:
 353              	.LBE92:
 354              	.LBE96:
 355              		.loc 1 54 0
 356 0152 2046     		mov	r0, r4
 357              	.LVL27:
 358 0154 AFE7     		b	.L9
 359              	.LVL28:
 360              	.L8:
 361 0156 C908     		lsrs	r1, r1, #3
 362 0158 6D1A     		subs	r5, r5, r1
 363 015a 0CFB01E1 		mla	r1, ip, r1, lr
 364 015e 5D61     		str	r5, [r3, #20]
 365 0160 9961     		str	r1, [r3, #24]
 366 0162 BDE8F083 		pop	{r4, r5, r6, r7, r8, r9, pc}
 367              	.LVL29:
 368              	.L12:
 369 0166 00BF     		.align	2
 370              	.L11:
 371 0168 00000000 		.word	.LANCHOR0
 372 016c 00000030 		.word	805306368
 373              	.LBE99:
 374              		.cfi_endproc
 375              	.LFE317:
 376              		.size	_hook_process, .-_hook_process
 377              		.align	1
 378              		.global	_hook_param
 379              		.thumb
 380              		.thumb_func
 381              		.type	_hook_param, %function
 382              	_hook_param:
 383              	.LFB318:
 384              		.loc 1 70 0
 385              		.cfi_startproc
 386              		@ args = 0, pretend = 0, frame = 0
 387              		@ frame_needed = 0, uses_anonymous_args = 0
 388              	.LVL30:
 389 0170 08B5     		push	{r3, lr}
 390              		.cfi_def_cfa_offset 8
 391              		.cfi_offset 3, -8
 392              		.cfi_offset 14, -4
 393 0172 2DED028B 		vpush.64	{d8}
 394              		.cfi_def_cfa_offset 16
 395              		.cfi_offset 80, -16
 396              		.cfi_offset 81, -12
 397              		.loc 1 71 0
 398 0176 08EE101A 		vmov	s16, r1	@ int
 399              		.loc 1 72 0
ARM GAS  C:\msys64\tmp\ccYRci0V.s 			page 8


 400 017a 0128     		cmp	r0, #1
 401              		.loc 1 71 0
 402 017c BAEEE08A 		vcvt.f32.s32	s16, s16, #31
 403              	.LVL31:
 404              		.loc 1 72 0
 405 0180 2CD0     		beq	.L15
 406 0182 05D3     		bcc	.L16
 407 0184 0328     		cmp	r0, #3
 408 0186 57D1     		bne	.L13
 409              		.loc 1 120 0
 410 0188 2D4B     		ldr	r3, .L42
 411 018a 83ED0A8A 		vstr.32	s16, [r3, #40]
 412              		.loc 1 125 0
 413 018e 53E0     		b	.L13
 414              	.L16:
 415              		.loc 1 77 0
 416 0190 B5EE007A 		vmov.f32	s14, #2.5e-1
 417              		.loc 1 76 0
 418 0194 2A4B     		ldr	r3, .L42
 419              		.loc 1 77 0
 420 0196 B4EEC78A 		vcmpe.f32	s16, s14
 421 019a F1EE10FA 		vmrs	APSR_nzcv, FPSCR
 422              		.loc 1 76 0
 423 019e 83ED0B8A 		vstr.32	s16, [r3, #44]
 424 01a2 284B     		ldr	r3, .L42+4
 425              		.loc 1 77 0
 426 01a4 03D5     		bpl	.L36
 427              		.loc 1 79 0
 428 01a6 4FF07852 		mov	r2, #1040187392
 429 01aa 5A60     		str	r2, [r3, #4]	@ float
 430 01ac 44E0     		b	.L13
 431              	.L36:
 432              		.loc 1 81 0
 433 01ae F6EE007A 		vmov.f32	s15, #5.0e-1
 434 01b2 B4EEE78A 		vcmpe.f32	s16, s15
 435 01b6 F1EE10FA 		vmrs	APSR_nzcv, FPSCR
 436 01ba 02D5     		bpl	.L37
 437              		.loc 1 83 0
 438 01bc 83ED017A 		vstr.32	s14, [r3, #4]
 439 01c0 3AE0     		b	.L13
 440              	.L37:
 441              		.loc 1 85 0
 442 01c2 B6EE087A 		vmov.f32	s14, #7.5e-1
 443 01c6 B4EEC78A 		vcmpe.f32	s16, s14
 444 01ca F1EE10FA 		vmrs	APSR_nzcv, FPSCR
 445              		.loc 1 91 0
 446 01ce 56BF     		itet	pl
 447 01d0 4FF07E52 		movpl	r2, #1065353216
 448              		.loc 1 87 0
 449 01d4 C3ED017A 		vstrmi.32	s15, [r3, #4]
 450              		.loc 1 91 0
 451 01d8 5A60     		strpl	r2, [r3, #4]	@ float
 452 01da 2DE0     		b	.L13
 453              	.L15:
 454              		.loc 1 95 0
 455 01dc FFF7FEFF 		bl	_fx_get_bpm
 456              	.LVL32:
ARM GAS  C:\msys64\tmp\ccYRci0V.s 			page 9


 457              		.loc 1 97 0
 458 01e0 F5EE007A 		vmov.f32	s15, #2.5e-1
 459              		.loc 1 95 0
 460 01e4 0A23     		movs	r3, #10
 461              		.loc 1 97 0
 462 01e6 B4EEE78A 		vcmpe.f32	s16, s15
 463              		.loc 1 95 0
 464 01ea B0FBF3F0 		udiv	r0, r0, r3
 465 01ee 144B     		ldr	r3, .L42
 466 01f0 80B2     		uxth	r0, r0
 467              		.loc 1 97 0
 468 01f2 F1EE10FA 		vmrs	APSR_nzcv, FPSCR
 469              		.loc 1 95 0
 470 01f6 1862     		str	r0, [r3, #32]
 471              		.loc 1 97 0
 472 01f8 05D5     		bpl	.L39
 473              		.loc 1 100 0
 474 01fa 134A     		ldr	r2, .L42+8
 475 01fc 92FBF0F0 		sdiv	r0, r2, r0
 476 0200 8000     		lsls	r0, r0, #2
 477 0202 5862     		str	r0, [r3, #36]
 478 0204 18E0     		b	.L13
 479              	.L39:
 480              		.loc 1 102 0
 481 0206 F6EE007A 		vmov.f32	s15, #5.0e-1
 482 020a B4EEE78A 		vcmpe.f32	s16, s15
 483 020e F1EE10FA 		vmrs	APSR_nzcv, FPSCR
 484 0212 05D5     		bpl	.L40
 485              		.loc 1 105 0
 486 0214 0C4A     		ldr	r2, .L42+8
 487 0216 92FBF0F0 		sdiv	r0, r2, r0
 488 021a 4000     		lsls	r0, r0, #1
 489 021c 5862     		str	r0, [r3, #36]
 490 021e 0BE0     		b	.L13
 491              	.L40:
 492              		.loc 1 107 0
 493 0220 F6EE087A 		vmov.f32	s15, #7.5e-1
 494 0224 B4EEE78A 		vcmpe.f32	s16, s15
 495 0228 F1EE10FA 		vmrs	APSR_nzcv, FPSCR
 496              		.loc 1 110 0
 497 022c 4CBF     		ite	mi
 498 022e 064A     		ldrmi	r2, .L42+8
 499              		.loc 1 115 0
 500 0230 064A     		ldrpl	r2, .L42+12
 501 0232 92FBF0F0 		sdiv	r0, r2, r0
 502 0236 5862     		str	r0, [r3, #36]
 503              	.L13:
 504              		.loc 1 125 0
 505 0238 BDEC028B 		vldm	sp!, {d8}
 506              		.cfi_restore 80
 507              		.cfi_restore 81
 508              		.cfi_def_cfa_offset 8
 509              	.LVL33:
 510 023c 08BD     		pop	{r3, pc}
 511              	.L43:
 512 023e 00BF     		.align	2
 513              	.L42:
ARM GAS  C:\msys64\tmp\ccYRci0V.s 			page 10


 514 0240 00000000 		.word	.LANCHOR0
 515 0244 00000000 		.word	.LANCHOR2
 516 0248 00F22B00 		.word	2880000
 517 024c 00F91500 		.word	1440000
 518              		.cfi_endproc
 519              	.LFE318:
 520              		.size	_hook_param, .-_hook_param
 521              		.section	.text.startup,"ax",%progbits
 522              		.align	1
 523              		.thumb
 524              		.thumb_func
 525              		.type	_GLOBAL__sub_I_lfo_speed, %function
 526              	_GLOBAL__sub_I_lfo_speed:
 527              	.LFB320:
 528              		.loc 1 125 0
 529              		.cfi_startproc
 530              		@ args = 0, pretend = 0, frame = 0
 531              		@ frame_needed = 0, uses_anonymous_args = 0
 532              		@ link register save eliminated.
 533              	.LVL34:
 534              	.LBB106:
 535              	.LBB107:
 536              	.LBB108:
 537              		.loc 2 204 0
 538 0000 054B     		ldr	r3, .L45
 539 0002 0022     		movs	r2, #0
 540              	.LBE108:
 541              	.LBE107:
 542              	.LBB110:
 543              	.LBB111:
 544              		.loc 4 69 0
 545 0004 4FF00041 		mov	r1, #-2147483648
 546              	.LBE111:
 547              	.LBE110:
 548              	.LBB113:
 549              	.LBB109:
 550              		.loc 2 204 0
 551 0008 1A60     		str	r2, [r3]
 552 000a DA60     		str	r2, [r3, #12]
 553 000c 1A61     		str	r2, [r3, #16]
 554 000e 5A61     		str	r2, [r3, #20]
 555              	.LVL35:
 556              	.LBE109:
 557              	.LBE113:
 558              	.LBB114:
 559              	.LBB112:
 560              		.loc 4 69 0
 561 0010 9961     		str	r1, [r3, #24]
 562 0012 DA61     		str	r2, [r3, #28]
 563              	.LVL36:
 564 0014 7047     		bx	lr
 565              	.L46:
 566 0016 00BF     		.align	2
 567              	.L45:
 568 0018 00000000 		.word	.LANCHOR0
 569              	.LBE112:
 570              	.LBE114:
ARM GAS  C:\msys64\tmp\ccYRci0V.s 			page 11


 571              	.LBE106:
 572              		.cfi_endproc
 573              	.LFE320:
 574              		.size	_GLOBAL__sub_I_lfo_speed, .-_GLOBAL__sub_I_lfo_speed
 575              		.section	.init_array,"aw",%init_array
 576              		.align	2
 577 0000 00000000 		.word	_GLOBAL__sub_I_lfo_speed(target1)
 578              		.global	bpm
 579              		.global	wetXNR
 580              		.global	wetXNL
 581              		.global	trem_rate
 582              		.global	s_len
 583              		.global	lfo_speed
 584              		.data
 585              		.align	2
 586              		.set	.LANCHOR2,. + 0
 587              		.type	lfo_speed, %object
 588              		.size	lfo_speed, 4
 589              	lfo_speed:
 590 0000 0000A040 		.word	1084227584
 591              		.type	trem_rate, %object
 592              		.size	trem_rate, 4
 593              	trem_rate:
 594 0004 0000003F 		.word	1056964608
 595              		.bss
 596              		.align	2
 597              		.set	.LANCHOR0,. + 0
 598              		.type	_ZL7s_delay, %object
 599              		.size	_ZL7s_delay, 24
 600              	_ZL7s_delay:
 601 0000 00000000 		.space	24
 601      00000000 
 601      00000000 
 601      00000000 
 601      00000000 
 602              		.type	_ZL5s_lfo, %object
 603              		.size	_ZL5s_lfo, 8
 604              	_ZL5s_lfo:
 605 0018 00000000 		.space	8
 605      00000000 
 606              		.type	bpm, %object
 607              		.size	bpm, 4
 608              	bpm:
 609 0020 00000000 		.space	4
 610              		.type	s_len, %object
 611              		.size	s_len, 4
 612              	s_len:
 613 0024 00000000 		.space	4
 614              		.type	_ZL5s_mix, %object
 615              		.size	_ZL5s_mix, 4
 616              	_ZL5s_mix:
 617 0028 00000000 		.space	4
 618              		.type	_ZL4gain, %object
 619              		.size	_ZL4gain, 4
 620              	_ZL4gain:
 621 002c 00000000 		.space	4
 622              		.type	wetXNL, %object
ARM GAS  C:\msys64\tmp\ccYRci0V.s 			page 12


 623              		.size	wetXNL, 4
 624              	wetXNL:
 625 0030 00000000 		.space	4
 626              		.type	wetXNR, %object
 627              		.size	wetXNR, 4
 628              	wetXNR:
 629 0034 00000000 		.space	4
 630              		.section	.sdram,"aw",%progbits
 631              		.align	2
 632              		.set	.LANCHOR1,. + 0
 633              		.type	_ZL11s_delay_ram, %object
 634              		.size	_ZL11s_delay_ram, 1680000
 635              	_ZL11s_delay_ram:
 636 0000 00000000 		.space	1680000
 636      00000000 
 636      00000000 
 636      00000000 
 636      00000000 
 637              		.text
 638              	.Letext0:
 639              		.file 6 "c:\\users\\bradl\\desktop\\code projects\\korgfx\\korgdelayfxset\\delays\\tools\\gcc\\gcc
 640              		.file 7 "c:\\users\\bradl\\desktop\\code projects\\korgfx\\korgdelayfxset\\delays\\tools\\gcc\\gcc
 641              		.file 8 "c:\\users\\bradl\\desktop\\code projects\\korgfx\\korgdelayfxset\\delays\\tools\\gcc\\gcc
 642              		.file 9 "../../ext/CMSIS/CMSIS/Include/arm_math.h"
 643              		.file 10 "../inc/utils/int_math.h"
 644              		.file 11 "../inc/fx_api.h"
 645              		.file 12 "../inc/osc_api.h"
 646              		.file 13 "../inc/userprg.h"
 647              		.section	.debug_info,"",%progbits
 648              	.Ldebug_info0:
 649 0000 BA0D0000 		.4byte	0xdba
 650 0004 0400     		.2byte	0x4
 651 0006 00000000 		.4byte	.Ldebug_abbrev0
 652 000a 04       		.byte	0x4
 653 000b 01       		.uleb128 0x1
 654 000c 78000000 		.4byte	.LASF149
 655 0010 04       		.byte	0x4
 656 0011 E90A0000 		.4byte	.LASF150
 657 0015 3E0A0000 		.4byte	.LASF151
 658 0019 08010000 		.4byte	.Ldebug_ranges0+0x108
 659 001d 00000000 		.4byte	0
 660 0021 00000000 		.4byte	.Ldebug_line0
 661 0025 02       		.uleb128 0x2
 662 0026 04       		.byte	0x4
 663 0027 04       		.byte	0x4
 664 0028 85020000 		.4byte	.LASF0
 665 002c 03       		.uleb128 0x3
 666 002d 04       		.byte	0x4
 667 002e 05       		.byte	0x5
 668 002f 696E7400 		.ascii	"int\000"
 669 0033 02       		.uleb128 0x2
 670 0034 01       		.byte	0x1
 671 0035 06       		.byte	0x6
 672 0036 DA090000 		.4byte	.LASF1
 673 003a 04       		.uleb128 0x4
 674 003b 4E080000 		.4byte	.LASF5
 675 003f 06       		.byte	0x6
ARM GAS  C:\msys64\tmp\ccYRci0V.s 			page 13


 676 0040 1D       		.byte	0x1d
 677 0041 45000000 		.4byte	0x45
 678 0045 02       		.uleb128 0x2
 679 0046 01       		.byte	0x1
 680 0047 08       		.byte	0x8
 681 0048 30090000 		.4byte	.LASF2
 682 004c 02       		.uleb128 0x2
 683 004d 02       		.byte	0x2
 684 004e 05       		.byte	0x5
 685 004f 6A070000 		.4byte	.LASF3
 686 0053 02       		.uleb128 0x2
 687 0054 02       		.byte	0x2
 688 0055 07       		.byte	0x7
 689 0056 2B0A0000 		.4byte	.LASF4
 690 005a 04       		.uleb128 0x4
 691 005b BF010000 		.4byte	.LASF6
 692 005f 06       		.byte	0x6
 693 0060 3F       		.byte	0x3f
 694 0061 65000000 		.4byte	0x65
 695 0065 02       		.uleb128 0x2
 696 0066 04       		.byte	0x4
 697 0067 05       		.byte	0x5
 698 0068 A0070000 		.4byte	.LASF7
 699 006c 04       		.uleb128 0x4
 700 006d 3E090000 		.4byte	.LASF8
 701 0071 06       		.byte	0x6
 702 0072 41       		.byte	0x41
 703 0073 77000000 		.4byte	0x77
 704 0077 02       		.uleb128 0x2
 705 0078 04       		.byte	0x4
 706 0079 07       		.byte	0x7
 707 007a 94080000 		.4byte	.LASF9
 708 007e 02       		.uleb128 0x2
 709 007f 08       		.byte	0x8
 710 0080 05       		.byte	0x5
 711 0081 69050000 		.4byte	.LASF10
 712 0085 02       		.uleb128 0x2
 713 0086 08       		.byte	0x8
 714 0087 07       		.byte	0x7
 715 0088 BF020000 		.4byte	.LASF11
 716 008c 02       		.uleb128 0x2
 717 008d 04       		.byte	0x4
 718 008e 07       		.byte	0x7
 719 008f 90010000 		.4byte	.LASF12
 720 0093 04       		.uleb128 0x4
 721 0094 E3040000 		.4byte	.LASF13
 722 0098 07       		.byte	0x7
 723 0099 18       		.byte	0x18
 724 009a 3A000000 		.4byte	0x3a
 725 009e 04       		.uleb128 0x4
 726 009f C5080000 		.4byte	.LASF14
 727 00a3 07       		.byte	0x7
 728 00a4 2C       		.byte	0x2c
 729 00a5 5A000000 		.4byte	0x5a
 730 00a9 04       		.uleb128 0x4
 731 00aa 17020000 		.4byte	.LASF15
 732 00ae 07       		.byte	0x7
ARM GAS  C:\msys64\tmp\ccYRci0V.s 			page 14


 733 00af 30       		.byte	0x30
 734 00b0 6C000000 		.4byte	0x6c
 735 00b4 04       		.uleb128 0x4
 736 00b5 3D030000 		.4byte	.LASF16
 737 00b9 08       		.byte	0x8
 738 00ba D8       		.byte	0xd8
 739 00bb 8C000000 		.4byte	0x8c
 740 00bf 02       		.uleb128 0x2
 741 00c0 08       		.byte	0x8
 742 00c1 04       		.byte	0x4
 743 00c2 C1060000 		.4byte	.LASF17
 744 00c6 05       		.uleb128 0x5
 745 00c7 84090000 		.4byte	.LASF152
 746 00cb 02       		.uleb128 0x2
 747 00cc 04       		.byte	0x4
 748 00cd 07       		.byte	0x7
 749 00ce 8B080000 		.4byte	.LASF18
 750 00d2 02       		.uleb128 0x2
 751 00d3 01       		.byte	0x1
 752 00d4 08       		.byte	0x8
 753 00d5 61040000 		.4byte	.LASF19
 754 00d9 02       		.uleb128 0x2
 755 00da 08       		.byte	0x8
 756 00db 04       		.byte	0x4
 757 00dc C20A0000 		.4byte	.LASF20
 758 00e0 06       		.uleb128 0x6
 759 00e1 04       		.byte	0x4
 760 00e2 05       		.byte	0x5
 761 00e3 A1       		.byte	0xa1
 762 00e4 8A060000 		.4byte	.LASF153
 763 00e8 FF000000 		.4byte	0xff
 764 00ec 07       		.uleb128 0x7
 765 00ed 6600     		.ascii	"f\000"
 766 00ef 05       		.byte	0x5
 767 00f0 A2       		.byte	0xa2
 768 00f1 25000000 		.4byte	0x25
 769 00f5 07       		.uleb128 0x7
 770 00f6 6900     		.ascii	"i\000"
 771 00f8 05       		.byte	0x5
 772 00f9 A3       		.byte	0xa3
 773 00fa A9000000 		.4byte	0xa9
 774 00fe 00       		.byte	0
 775 00ff 04       		.uleb128 0x4
 776 0100 00000000 		.4byte	.LASF21
 777 0104 05       		.byte	0x5
 778 0105 A4       		.byte	0xa4
 779 0106 E0000000 		.4byte	0xe0
 780 010a 08       		.uleb128 0x8
 781 010b 08       		.byte	0x8
 782 010c 05       		.byte	0x5
 783 010d A6       		.byte	0xa6
 784 010e 97060000 		.4byte	.LASF154
 785 0112 2B010000 		.4byte	0x12b
 786 0116 09       		.uleb128 0x9
 787 0117 6100     		.ascii	"a\000"
 788 0119 05       		.byte	0x5
 789 011a A7       		.byte	0xa7
ARM GAS  C:\msys64\tmp\ccYRci0V.s 			page 15


 790 011b 25000000 		.4byte	0x25
 791 011f 00       		.byte	0
 792 0120 09       		.uleb128 0x9
 793 0121 6200     		.ascii	"b\000"
 794 0123 05       		.byte	0x5
 795 0124 A8       		.byte	0xa8
 796 0125 25000000 		.4byte	0x25
 797 0129 04       		.byte	0x4
 798 012a 00       		.byte	0
 799 012b 04       		.uleb128 0x4
 800 012c C5090000 		.4byte	.LASF22
 801 0130 05       		.byte	0x5
 802 0131 A9       		.byte	0xa9
 803 0132 0A010000 		.4byte	0x10a
 804 0136 0A       		.uleb128 0xa
 805 0137 85080000 		.4byte	.LASF23
 806 013b 09       		.byte	0x9
 807 013c 8D01     		.2byte	0x18d
 808 013e 9E000000 		.4byte	0x9e
 809 0142 0B       		.uleb128 0xb
 810 0143 01       		.byte	0x1
 811 0144 45000000 		.4byte	0x45
 812 0148 0D       		.byte	0xd
 813 0149 35       		.byte	0x35
 814 014a 73010000 		.4byte	0x173
 815 014e 0C       		.uleb128 0xc
 816 014f 67090000 		.4byte	.LASF24
 817 0153 00       		.byte	0
 818 0154 0C       		.uleb128 0xc
 819 0155 FB070000 		.4byte	.LASF25
 820 0159 01       		.byte	0x1
 821 015a 0C       		.uleb128 0xc
 822 015b 91020000 		.4byte	.LASF26
 823 015f 02       		.byte	0x2
 824 0160 0C       		.uleb128 0xc
 825 0161 44030000 		.4byte	.LASF27
 826 0165 03       		.byte	0x3
 827 0166 0C       		.uleb128 0xc
 828 0167 AF060000 		.4byte	.LASF28
 829 016b 04       		.byte	0x4
 830 016c 0C       		.uleb128 0xc
 831 016d 21060000 		.4byte	.LASF29
 832 0171 05       		.byte	0x5
 833 0172 00       		.byte	0
 834 0173 0D       		.uleb128 0xd
 835 0174 04       		.byte	0x4
 836 0175 25000000 		.4byte	0x25
 837 0179 0E       		.uleb128 0xe
 838 017a 64737000 		.ascii	"dsp\000"
 839 017e 04       		.byte	0x4
 840 017f 32       		.byte	0x32
 841 0180 61060000 		.4byte	0x661
 842 0184 0F       		.uleb128 0xf
 843 0185 290B0000 		.4byte	.LASF39
 844 0189 08       		.byte	0x8
 845 018a 04       		.byte	0x4
 846 018b 37       		.byte	0x37
ARM GAS  C:\msys64\tmp\ccYRci0V.s 			page 16


 847 018c 32040000 		.4byte	0x432
 848 0190 10       		.uleb128 0x10
 849 0191 E1030000 		.4byte	.LASF30
 850 0195 04       		.byte	0x4
 851 0196 2A01     		.2byte	0x12a
 852 0198 36010000 		.4byte	0x136
 853 019c 00       		.byte	0
 854 019d 11       		.uleb128 0x11
 855 019e 773000   		.ascii	"w0\000"
 856 01a1 04       		.byte	0x4
 857 01a2 2B01     		.2byte	0x12b
 858 01a4 36010000 		.4byte	0x136
 859 01a8 04       		.byte	0x4
 860 01a9 12       		.uleb128 0x12
 861 01aa 290B0000 		.4byte	.LASF39
 862 01ae 04       		.byte	0x4
 863 01af 44       		.byte	0x44
 864 01b0 CB030000 		.4byte	.LASF41
 865 01b4 61060000 		.4byte	0x661
 866 01b8 C0010000 		.4byte	0x1c0
 867 01bc C6010000 		.4byte	0x1c6
 868 01c0 13       		.uleb128 0x13
 869 01c1 61060000 		.4byte	0x661
 870 01c5 00       		.byte	0
 871 01c6 14       		.uleb128 0x14
 872 01c7 0F080000 		.4byte	.LASF31
 873 01cb 04       		.byte	0x4
 874 01cc 50       		.byte	0x50
 875 01cd D3070000 		.4byte	.LASF33
 876 01d1 D9010000 		.4byte	0x1d9
 877 01d5 DF010000 		.4byte	0x1df
 878 01d9 13       		.uleb128 0x13
 879 01da 61060000 		.4byte	0x661
 880 01de 00       		.byte	0
 881 01df 14       		.uleb128 0x14
 882 01e0 48080000 		.4byte	.LASF32
 883 01e4 04       		.byte	0x4
 884 01e5 59       		.byte	0x59
 885 01e6 A5020000 		.4byte	.LASF34
 886 01ea F2010000 		.4byte	0x1f2
 887 01ee F8010000 		.4byte	0x1f8
 888 01f2 13       		.uleb128 0x13
 889 01f3 61060000 		.4byte	0x661
 890 01f7 00       		.byte	0
 891 01f8 14       		.uleb128 0x14
 892 01f9 A9070000 		.4byte	.LASF35
 893 01fd 04       		.byte	0x4
 894 01fe 65       		.byte	0x65
 895 01ff FD040000 		.4byte	.LASF36
 896 0203 0B020000 		.4byte	0x20b
 897 0207 1B020000 		.4byte	0x21b
 898 020b 13       		.uleb128 0x13
 899 020c 61060000 		.4byte	0x661
 900 0210 15       		.uleb128 0x15
 901 0211 25000000 		.4byte	0x25
 902 0215 15       		.uleb128 0x15
 903 0216 25000000 		.4byte	0x25
ARM GAS  C:\msys64\tmp\ccYRci0V.s 			page 17


 904 021a 00       		.byte	0
 905 021b 14       		.uleb128 0x14
 906 021c BF080000 		.4byte	.LASF37
 907 0220 04       		.byte	0x4
 908 0221 70       		.byte	0x70
 909 0222 1D040000 		.4byte	.LASF38
 910 0226 2E020000 		.4byte	0x22e
 911 022a 39020000 		.4byte	0x239
 912 022e 13       		.uleb128 0x13
 913 022f 61060000 		.4byte	0x661
 914 0233 15       		.uleb128 0x15
 915 0234 25000000 		.4byte	0x25
 916 0238 00       		.byte	0
 917 0239 12       		.uleb128 0x12
 918 023a 58030000 		.4byte	.LASF40
 919 023e 04       		.byte	0x4
 920 023f 7B       		.byte	0x7b
 921 0240 E0020000 		.4byte	.LASF42
 922 0244 25000000 		.4byte	0x25
 923 0248 50020000 		.4byte	0x250
 924 024c 56020000 		.4byte	0x256
 925 0250 13       		.uleb128 0x13
 926 0251 61060000 		.4byte	0x661
 927 0255 00       		.byte	0
 928 0256 12       		.uleb128 0x12
 929 0257 15080000 		.4byte	.LASF43
 930 025b 04       		.byte	0x4
 931 025c 85       		.byte	0x85
 932 025d 43020000 		.4byte	.LASF44
 933 0261 25000000 		.4byte	0x25
 934 0265 6D020000 		.4byte	0x26d
 935 0269 73020000 		.4byte	0x273
 936 026d 13       		.uleb128 0x13
 937 026e 61060000 		.4byte	0x661
 938 0272 00       		.byte	0
 939 0273 12       		.uleb128 0x12
 940 0274 31030000 		.4byte	.LASF45
 941 0278 04       		.byte	0x4
 942 0279 91       		.byte	0x91
 943 027a 63060000 		.4byte	.LASF46
 944 027e 25000000 		.4byte	0x25
 945 0282 8A020000 		.4byte	0x28a
 946 0286 95020000 		.4byte	0x295
 947 028a 13       		.uleb128 0x13
 948 028b 61060000 		.4byte	0x661
 949 028f 15       		.uleb128 0x15
 950 0290 25000000 		.4byte	0x25
 951 0294 00       		.byte	0
 952 0295 12       		.uleb128 0x12
 953 0296 78080000 		.4byte	.LASF47
 954 029a 04       		.byte	0x4
 955 029b 9D       		.byte	0x9d
 956 029c 18050000 		.4byte	.LASF48
 957 02a0 25000000 		.4byte	0x25
 958 02a4 AC020000 		.4byte	0x2ac
 959 02a8 B7020000 		.4byte	0x2b7
 960 02ac 13       		.uleb128 0x13
ARM GAS  C:\msys64\tmp\ccYRci0V.s 			page 18


 961 02ad 61060000 		.4byte	0x661
 962 02b1 15       		.uleb128 0x15
 963 02b2 25000000 		.4byte	0x25
 964 02b6 00       		.byte	0
 965 02b7 12       		.uleb128 0x12
 966 02b8 1F070000 		.4byte	.LASF49
 967 02bc 04       		.byte	0x4
 968 02bd A8       		.byte	0xa8
 969 02be 4B000000 		.4byte	.LASF50
 970 02c2 25000000 		.4byte	0x25
 971 02c6 CE020000 		.4byte	0x2ce
 972 02ca D4020000 		.4byte	0x2d4
 973 02ce 13       		.uleb128 0x13
 974 02cf 61060000 		.4byte	0x661
 975 02d3 00       		.byte	0
 976 02d4 12       		.uleb128 0x12
 977 02d5 FA0A0000 		.4byte	.LASF51
 978 02d9 04       		.byte	0x4
 979 02da B1       		.byte	0xb1
 980 02db 06000000 		.4byte	.LASF52
 981 02df 25000000 		.4byte	0x25
 982 02e3 EB020000 		.4byte	0x2eb
 983 02e7 F1020000 		.4byte	0x2f1
 984 02eb 13       		.uleb128 0x13
 985 02ec 61060000 		.4byte	0x661
 986 02f0 00       		.byte	0
 987 02f1 12       		.uleb128 0x12
 988 02f2 71040000 		.4byte	.LASF53
 989 02f6 04       		.byte	0x4
 990 02f7 BC       		.byte	0xbc
 991 02f8 1E080000 		.4byte	.LASF54
 992 02fc 25000000 		.4byte	0x25
 993 0300 08030000 		.4byte	0x308
 994 0304 13030000 		.4byte	0x313
 995 0308 13       		.uleb128 0x13
 996 0309 61060000 		.4byte	0x661
 997 030d 15       		.uleb128 0x15
 998 030e 25000000 		.4byte	0x25
 999 0312 00       		.byte	0
 1000 0313 12       		.uleb128 0x12
 1001 0314 49090000 		.4byte	.LASF55
 1002 0318 04       		.byte	0x4
 1003 0319 C8       		.byte	0xc8
 1004 031a 39070000 		.4byte	.LASF56
 1005 031e 25000000 		.4byte	0x25
 1006 0322 2A030000 		.4byte	0x32a
 1007 0326 35030000 		.4byte	0x335
 1008 032a 13       		.uleb128 0x13
 1009 032b 61060000 		.4byte	0x661
 1010 032f 15       		.uleb128 0x15
 1011 0330 25000000 		.4byte	0x25
 1012 0334 00       		.byte	0
 1013 0335 12       		.uleb128 0x12
 1014 0336 FF010000 		.4byte	.LASF57
 1015 033a 04       		.byte	0x4
 1016 033b D3       		.byte	0xd3
 1017 033c 3E060000 		.4byte	.LASF58
ARM GAS  C:\msys64\tmp\ccYRci0V.s 			page 19


 1018 0340 25000000 		.4byte	0x25
 1019 0344 4C030000 		.4byte	0x34c
 1020 0348 52030000 		.4byte	0x352
 1021 034c 13       		.uleb128 0x13
 1022 034d 61060000 		.4byte	0x661
 1023 0351 00       		.byte	0
 1024 0352 12       		.uleb128 0x12
 1025 0353 95030000 		.4byte	.LASF59
 1026 0357 04       		.byte	0x4
 1027 0358 DC       		.byte	0xdc
 1028 0359 0D0B0000 		.4byte	.LASF60
 1029 035d 25000000 		.4byte	0x25
 1030 0361 69030000 		.4byte	0x369
 1031 0365 6F030000 		.4byte	0x36f
 1032 0369 13       		.uleb128 0x13
 1033 036a 61060000 		.4byte	0x661
 1034 036e 00       		.byte	0
 1035 036f 12       		.uleb128 0x12
 1036 0370 CF090000 		.4byte	.LASF61
 1037 0374 04       		.byte	0x4
 1038 0375 E7       		.byte	0xe7
 1039 0376 C90A0000 		.4byte	.LASF62
 1040 037a 25000000 		.4byte	0x25
 1041 037e 86030000 		.4byte	0x386
 1042 0382 91030000 		.4byte	0x391
 1043 0386 13       		.uleb128 0x13
 1044 0387 61060000 		.4byte	0x661
 1045 038b 15       		.uleb128 0x15
 1046 038c 25000000 		.4byte	0x25
 1047 0390 00       		.byte	0
 1048 0391 12       		.uleb128 0x12
 1049 0392 E6030000 		.4byte	.LASF63
 1050 0396 04       		.byte	0x4
 1051 0397 F3       		.byte	0xf3
 1052 0398 FC030000 		.4byte	.LASF64
 1053 039c 25000000 		.4byte	0x25
 1054 03a0 A8030000 		.4byte	0x3a8
 1055 03a4 B3030000 		.4byte	0x3b3
 1056 03a8 13       		.uleb128 0x13
 1057 03a9 61060000 		.4byte	0x661
 1058 03ad 15       		.uleb128 0x15
 1059 03ae 25000000 		.4byte	0x25
 1060 03b2 00       		.byte	0
 1061 03b3 16       		.uleb128 0x16
 1062 03b4 D6020000 		.4byte	.LASF65
 1063 03b8 04       		.byte	0x4
 1064 03b9 0001     		.2byte	0x100
 1065 03bb 9D0A0000 		.4byte	.LASF67
 1066 03bf 25000000 		.4byte	0x25
 1067 03c3 CB030000 		.4byte	0x3cb
 1068 03c7 D1030000 		.4byte	0x3d1
 1069 03cb 13       		.uleb128 0x13
 1070 03cc 61060000 		.4byte	0x661
 1071 03d0 00       		.byte	0
 1072 03d1 16       		.uleb128 0x16
 1073 03d2 96090000 		.4byte	.LASF66
 1074 03d6 04       		.byte	0x4
ARM GAS  C:\msys64\tmp\ccYRci0V.s 			page 20


 1075 03d7 0901     		.2byte	0x109
 1076 03d9 01060000 		.4byte	.LASF68
 1077 03dd 25000000 		.4byte	0x25
 1078 03e1 E9030000 		.4byte	0x3e9
 1079 03e5 EF030000 		.4byte	0x3ef
 1080 03e9 13       		.uleb128 0x13
 1081 03ea 61060000 		.4byte	0x661
 1082 03ee 00       		.byte	0
 1083 03ef 16       		.uleb128 0x16
 1084 03f0 77020000 		.4byte	.LASF69
 1085 03f4 04       		.byte	0x4
 1086 03f5 1401     		.2byte	0x114
 1087 03f7 93040000 		.4byte	.LASF70
 1088 03fb 25000000 		.4byte	0x25
 1089 03ff 07040000 		.4byte	0x407
 1090 0403 12040000 		.4byte	0x412
 1091 0407 13       		.uleb128 0x13
 1092 0408 61060000 		.4byte	0x661
 1093 040c 15       		.uleb128 0x15
 1094 040d 25000000 		.4byte	0x25
 1095 0411 00       		.byte	0
 1096 0412 17       		.uleb128 0x17
 1097 0413 CD080000 		.4byte	.LASF71
 1098 0417 04       		.byte	0x4
 1099 0418 2001     		.2byte	0x120
 1100 041a A1090000 		.4byte	.LASF103
 1101 041e 25000000 		.4byte	0x25
 1102 0422 26040000 		.4byte	0x426
 1103 0426 13       		.uleb128 0x13
 1104 0427 61060000 		.4byte	0x661
 1105 042b 15       		.uleb128 0x15
 1106 042c 25000000 		.4byte	0x25
 1107 0430 00       		.byte	0
 1108 0431 00       		.byte	0
 1109 0432 18       		.uleb128 0x18
 1110 0433 ED070000 		.4byte	.LASF77
 1111 0437 18       		.byte	0x18
 1112 0438 02       		.byte	0x2
 1113 0439 BB       		.byte	0xbb
 1114 043a 10       		.uleb128 0x10
 1115 043b CE050000 		.4byte	.LASF72
 1116 043f 02       		.byte	0x2
 1117 0440 8301     		.2byte	0x183
 1118 0442 67060000 		.4byte	0x667
 1119 0446 00       		.byte	0
 1120 0447 10       		.uleb128 0x10
 1121 0448 BB0A0000 		.4byte	.LASF73
 1122 044c 02       		.byte	0x2
 1123 044d 8401     		.2byte	0x184
 1124 044f 2B010000 		.4byte	0x12b
 1125 0453 04       		.byte	0x4
 1126 0454 10       		.uleb128 0x10
 1127 0455 91060000 		.4byte	.LASF74
 1128 0459 02       		.byte	0x2
 1129 045a 8501     		.2byte	0x185
 1130 045c B4000000 		.4byte	0xb4
 1131 0460 0C       		.byte	0xc
ARM GAS  C:\msys64\tmp\ccYRci0V.s 			page 21


 1132 0461 10       		.uleb128 0x10
 1133 0462 87050000 		.4byte	.LASF75
 1134 0466 02       		.byte	0x2
 1135 0467 8601     		.2byte	0x186
 1136 0469 B4000000 		.4byte	0xb4
 1137 046d 10       		.byte	0x10
 1138 046e 10       		.uleb128 0x10
 1139 046f 7D050000 		.4byte	.LASF76
 1140 0473 02       		.byte	0x2
 1141 0474 8701     		.2byte	0x187
 1142 0476 A9000000 		.4byte	0xa9
 1143 047a 14       		.byte	0x14
 1144 047b 12       		.uleb128 0x12
 1145 047c ED070000 		.4byte	.LASF77
 1146 0480 02       		.byte	0x2
 1147 0481 C8       		.byte	0xc8
 1148 0482 5D080000 		.4byte	.LASF78
 1149 0486 6D060000 		.4byte	0x66d
 1150 048a 92040000 		.4byte	0x492
 1151 048e 98040000 		.4byte	0x498
 1152 0492 13       		.uleb128 0x13
 1153 0493 6D060000 		.4byte	0x66d
 1154 0497 00       		.byte	0
 1155 0498 12       		.uleb128 0x12
 1156 0499 ED070000 		.4byte	.LASF77
 1157 049d 02       		.byte	0x2
 1158 049e D7       		.byte	0xd7
 1159 049f 050A0000 		.4byte	.LASF79
 1160 04a3 6D060000 		.4byte	0x66d
 1161 04a7 AF040000 		.4byte	0x4af
 1162 04ab BF040000 		.4byte	0x4bf
 1163 04af 13       		.uleb128 0x13
 1164 04b0 6D060000 		.4byte	0x66d
 1165 04b4 15       		.uleb128 0x15
 1166 04b5 67060000 		.4byte	0x667
 1167 04b9 15       		.uleb128 0x15
 1168 04ba B4000000 		.4byte	0xb4
 1169 04be 00       		.byte	0
 1170 04bf 14       		.uleb128 0x14
 1171 04c0 FC020000 		.4byte	.LASF80
 1172 04c4 02       		.byte	0x2
 1173 04c5 E5       		.byte	0xe5
 1174 04c6 4A050000 		.4byte	.LASF81
 1175 04ca D2040000 		.4byte	0x4d2
 1176 04ce D8040000 		.4byte	0x4d8
 1177 04d2 13       		.uleb128 0x13
 1178 04d3 6D060000 		.4byte	0x66d
 1179 04d7 00       		.byte	0
 1180 04d8 14       		.uleb128 0x14
 1181 04d9 02030000 		.4byte	.LASF82
 1182 04dd 02       		.byte	0x2
 1183 04de F2       		.byte	0xf2
 1184 04df 9D030000 		.4byte	.LASF83
 1185 04e3 EB040000 		.4byte	0x4eb
 1186 04e7 FB040000 		.4byte	0x4fb
 1187 04eb 13       		.uleb128 0x13
 1188 04ec 6D060000 		.4byte	0x66d
ARM GAS  C:\msys64\tmp\ccYRci0V.s 			page 22


 1189 04f0 15       		.uleb128 0x15
 1190 04f1 67060000 		.4byte	0x667
 1191 04f5 15       		.uleb128 0x15
 1192 04f6 B4000000 		.4byte	0xb4
 1193 04fa 00       		.byte	0
 1194 04fb 14       		.uleb128 0x14
 1195 04fc 77050000 		.4byte	.LASF84
 1196 0500 02       		.byte	0x2
 1197 0501 FF       		.byte	0xff
 1198 0502 6B030000 		.4byte	.LASF85
 1199 0506 0E050000 		.4byte	0x50e
 1200 050a 19050000 		.4byte	0x519
 1201 050e 13       		.uleb128 0x13
 1202 050f 6D060000 		.4byte	0x66d
 1203 0513 15       		.uleb128 0x15
 1204 0514 73060000 		.4byte	0x673
 1205 0518 00       		.byte	0
 1206 0519 16       		.uleb128 0x16
 1207 051a 58080000 		.4byte	.LASF86
 1208 051e 02       		.byte	0x2
 1209 051f 0A01     		.2byte	0x10a
 1210 0521 25020000 		.4byte	.LASF87
 1211 0525 2B010000 		.4byte	0x12b
 1212 0529 31050000 		.4byte	0x531
 1213 052d 3C050000 		.4byte	0x53c
 1214 0531 13       		.uleb128 0x13
 1215 0532 6D060000 		.4byte	0x66d
 1216 0536 15       		.uleb128 0x15
 1217 0537 A9000000 		.4byte	0xa9
 1218 053b 00       		.byte	0
 1219 053c 16       		.uleb128 0x16
 1220 053d 9D010000 		.4byte	.LASF88
 1221 0541 02       		.byte	0x2
 1222 0542 1501     		.2byte	0x115
 1223 0544 AC050000 		.4byte	.LASF89
 1224 0548 2B010000 		.4byte	0x12b
 1225 054c 54050000 		.4byte	0x554
 1226 0550 5F050000 		.4byte	0x55f
 1227 0554 13       		.uleb128 0x13
 1228 0555 6D060000 		.4byte	0x66d
 1229 0559 15       		.uleb128 0x15
 1230 055a 25000000 		.4byte	0x25
 1231 055e 00       		.byte	0
 1232 055f 16       		.uleb128 0x16
 1233 0560 34060000 		.4byte	.LASF90
 1234 0564 02       		.byte	0x2
 1235 0565 2601     		.2byte	0x126
 1236 0567 AF070000 		.4byte	.LASF91
 1237 056b 2B010000 		.4byte	0x12b
 1238 056f 77050000 		.4byte	0x577
 1239 0573 87050000 		.4byte	0x587
 1240 0577 13       		.uleb128 0x13
 1241 0578 6D060000 		.4byte	0x66d
 1242 057c 15       		.uleb128 0x15
 1243 057d A9000000 		.4byte	0xa9
 1244 0581 15       		.uleb128 0x15
 1245 0582 25000000 		.4byte	0x25
ARM GAS  C:\msys64\tmp\ccYRci0V.s 			page 23


 1246 0586 00       		.byte	0
 1247 0587 16       		.uleb128 0x16
 1248 0588 84060000 		.4byte	.LASF92
 1249 058c 02       		.byte	0x2
 1250 058d 3401     		.2byte	0x134
 1251 058f 8D050000 		.4byte	.LASF93
 1252 0593 25000000 		.4byte	0x25
 1253 0597 9F050000 		.4byte	0x59f
 1254 059b AA050000 		.4byte	0x5aa
 1255 059f 13       		.uleb128 0x13
 1256 05a0 6D060000 		.4byte	0x66d
 1257 05a4 15       		.uleb128 0x15
 1258 05a5 A9000000 		.4byte	0xa9
 1259 05a9 00       		.byte	0
 1260 05aa 16       		.uleb128 0x16
 1261 05ab 3A050000 		.4byte	.LASF94
 1262 05af 02       		.byte	0x2
 1263 05b0 3F01     		.2byte	0x13f
 1264 05b2 E6090000 		.4byte	.LASF95
 1265 05b6 25000000 		.4byte	0x25
 1266 05ba C2050000 		.4byte	0x5c2
 1267 05be CD050000 		.4byte	0x5cd
 1268 05c2 13       		.uleb128 0x13
 1269 05c3 6D060000 		.4byte	0x66d
 1270 05c7 15       		.uleb128 0x15
 1271 05c8 A9000000 		.4byte	0xa9
 1272 05cc 00       		.byte	0
 1273 05cd 16       		.uleb128 0x16
 1274 05ce F2030000 		.4byte	.LASF96
 1275 05d2 02       		.byte	0x2
 1276 05d3 4A01     		.2byte	0x14a
 1277 05d5 D2060000 		.4byte	.LASF97
 1278 05d9 25000000 		.4byte	0x25
 1279 05dd E5050000 		.4byte	0x5e5
 1280 05e1 F0050000 		.4byte	0x5f0
 1281 05e5 13       		.uleb128 0x13
 1282 05e6 6D060000 		.4byte	0x66d
 1283 05ea 15       		.uleb128 0x15
 1284 05eb 25000000 		.4byte	0x25
 1285 05ef 00       		.byte	0
 1286 05f0 16       		.uleb128 0x16
 1287 05f1 A6080000 		.4byte	.LASF98
 1288 05f5 02       		.byte	0x2
 1289 05f6 5A01     		.2byte	0x15a
 1290 05f8 DB050000 		.4byte	.LASF99
 1291 05fc 25000000 		.4byte	0x25
 1292 0600 08060000 		.4byte	0x608
 1293 0604 18060000 		.4byte	0x618
 1294 0608 13       		.uleb128 0x13
 1295 0609 6D060000 		.4byte	0x66d
 1296 060d 15       		.uleb128 0x15
 1297 060e A9000000 		.4byte	0xa9
 1298 0612 15       		.uleb128 0x15
 1299 0613 25000000 		.4byte	0x25
 1300 0617 00       		.byte	0
 1301 0618 16       		.uleb128 0x16
 1302 0619 41000000 		.4byte	.LASF100
ARM GAS  C:\msys64\tmp\ccYRci0V.s 			page 24


 1303 061d 02       		.byte	0x2
 1304 061e 6801     		.2byte	0x168
 1305 0620 3E040000 		.4byte	.LASF101
 1306 0624 25000000 		.4byte	0x25
 1307 0628 30060000 		.4byte	0x630
 1308 062c 3B060000 		.4byte	0x63b
 1309 0630 13       		.uleb128 0x13
 1310 0631 6D060000 		.4byte	0x66d
 1311 0635 15       		.uleb128 0x15
 1312 0636 25000000 		.4byte	0x25
 1313 063a 00       		.byte	0
 1314 063b 17       		.uleb128 0x17
 1315 063c C2040000 		.4byte	.LASF102
 1316 0640 02       		.byte	0x2
 1317 0641 7801     		.2byte	0x178
 1318 0643 F8080000 		.4byte	.LASF104
 1319 0647 25000000 		.4byte	0x25
 1320 064b 4F060000 		.4byte	0x64f
 1321 064f 13       		.uleb128 0x13
 1322 0650 6D060000 		.4byte	0x66d
 1323 0654 15       		.uleb128 0x15
 1324 0655 A9000000 		.4byte	0xa9
 1325 0659 15       		.uleb128 0x15
 1326 065a 25000000 		.4byte	0x25
 1327 065e 00       		.byte	0
 1328 065f 00       		.byte	0
 1329 0660 00       		.byte	0
 1330 0661 0D       		.uleb128 0xd
 1331 0662 04       		.byte	0x4
 1332 0663 84010000 		.4byte	0x184
 1333 0667 0D       		.uleb128 0xd
 1334 0668 04       		.byte	0x4
 1335 0669 2B010000 		.4byte	0x12b
 1336 066d 0D       		.uleb128 0xd
 1337 066e 04       		.byte	0x4
 1338 066f 32040000 		.4byte	0x432
 1339 0673 19       		.uleb128 0x19
 1340 0674 04       		.byte	0x4
 1341 0675 79060000 		.4byte	0x679
 1342 0679 1A       		.uleb128 0x1a
 1343 067a 2B010000 		.4byte	0x12b
 1344 067e 1B       		.uleb128 0x1b
 1345 067f EA010000 		.4byte	.LASF106
 1346 0683 05       		.byte	0x5
 1347 0684 1C01     		.2byte	0x11c
 1348 0686 25000000 		.4byte	0x25
 1349 068a 03       		.byte	0x3
 1350 068b A5060000 		.4byte	0x6a5
 1351 068f 1C       		.uleb128 0x1c
 1352 0690 7800     		.ascii	"x\000"
 1353 0692 05       		.byte	0x5
 1354 0693 1C01     		.2byte	0x11c
 1355 0695 25000000 		.4byte	0x25
 1356 0699 1D       		.uleb128 0x1d
 1357 069a 787300   		.ascii	"xs\000"
 1358 069d 05       		.byte	0x5
 1359 069e 1E01     		.2byte	0x11e
ARM GAS  C:\msys64\tmp\ccYRci0V.s 			page 25


 1360 06a0 FF000000 		.4byte	0xff
 1361 06a4 00       		.byte	0
 1362 06a5 1E       		.uleb128 0x1e
 1363 06a6 A9010000 		.4byte	0x1a9
 1364 06aa 03       		.byte	0x3
 1365 06ab B3060000 		.4byte	0x6b3
 1366 06af BD060000 		.4byte	0x6bd
 1367 06b3 1F       		.uleb128 0x1f
 1368 06b4 CD060000 		.4byte	.LASF105
 1369 06b8 BD060000 		.4byte	0x6bd
 1370 06bc 00       		.byte	0
 1371 06bd 1A       		.uleb128 0x1a
 1372 06be 61060000 		.4byte	0x661
 1373 06c2 1E       		.uleb128 0x1e
 1374 06c3 7B040000 		.4byte	0x47b
 1375 06c7 03       		.byte	0x3
 1376 06c8 D0060000 		.4byte	0x6d0
 1377 06cc DA060000 		.4byte	0x6da
 1378 06d0 1F       		.uleb128 0x1f
 1379 06d1 CD060000 		.4byte	.LASF105
 1380 06d5 DA060000 		.4byte	0x6da
 1381 06d9 00       		.byte	0
 1382 06da 1A       		.uleb128 0x1a
 1383 06db 6D060000 		.4byte	0x66d
 1384 06df 20       		.uleb128 0x20
 1385 06e0 B6040000 		.4byte	.LASF155
 1386 06e4 03       		.byte	0x3
 1387 06e5 68       		.byte	0x68
 1388 06e6 03       		.byte	0x3
 1389 06e7 0D070000 		.4byte	0x70d
 1390 06eb 21       		.uleb128 0x21
 1391 06ec 70747200 		.ascii	"ptr\000"
 1392 06f0 03       		.byte	0x3
 1393 06f1 68       		.byte	0x68
 1394 06f2 0D070000 		.4byte	0x70d
 1395 06f6 21       		.uleb128 0x21
 1396 06f7 6C656E00 		.ascii	"len\000"
 1397 06fb 03       		.byte	0x3
 1398 06fc 69       		.byte	0x69
 1399 06fd 12070000 		.4byte	0x712
 1400 0701 22       		.uleb128 0x22
 1401 0702 656E6400 		.ascii	"end\000"
 1402 0706 03       		.byte	0x3
 1403 0707 6B       		.byte	0x6b
 1404 0708 17070000 		.4byte	0x717
 1405 070c 00       		.byte	0
 1406 070d 23       		.uleb128 0x23
 1407 070e 73010000 		.4byte	0x173
 1408 0712 1A       		.uleb128 0x1a
 1409 0713 A9000000 		.4byte	0xa9
 1410 0717 0D       		.uleb128 0xd
 1411 0718 04       		.byte	0x4
 1412 0719 1D070000 		.4byte	0x71d
 1413 071d 1A       		.uleb128 0x1a
 1414 071e 25000000 		.4byte	0x25
 1415 0722 24       		.uleb128 0x24
 1416 0723 5A090000 		.4byte	.LASF107
ARM GAS  C:\msys64\tmp\ccYRci0V.s 			page 26


 1417 0727 0A       		.byte	0xa
 1418 0728 75       		.byte	0x75
 1419 0729 A9000000 		.4byte	0xa9
 1420 072d 03       		.byte	0x3
 1421 072e 3C070000 		.4byte	0x73c
 1422 0732 21       		.uleb128 0x21
 1423 0733 7800     		.ascii	"x\000"
 1424 0735 0A       		.byte	0xa
 1425 0736 75       		.byte	0x75
 1426 0737 A9000000 		.4byte	0xa9
 1427 073b 00       		.byte	0
 1428 073c 1E       		.uleb128 0x1e
 1429 073d F8010000 		.4byte	0x1f8
 1430 0741 03       		.byte	0x3
 1431 0742 4A070000 		.4byte	0x74a
 1432 0746 69070000 		.4byte	0x769
 1433 074a 1F       		.uleb128 0x1f
 1434 074b CD060000 		.4byte	.LASF105
 1435 074f BD060000 		.4byte	0x6bd
 1436 0753 21       		.uleb128 0x21
 1437 0754 663000   		.ascii	"f0\000"
 1438 0757 04       		.byte	0x4
 1439 0758 65       		.byte	0x65
 1440 0759 1D070000 		.4byte	0x71d
 1441 075d 25       		.uleb128 0x25
 1442 075e 1E090000 		.4byte	.LASF108
 1443 0762 04       		.byte	0x4
 1444 0763 65       		.byte	0x65
 1445 0764 1D070000 		.4byte	0x71d
 1446 0768 00       		.byte	0
 1447 0769 1E       		.uleb128 0x1e
 1448 076a DF010000 		.4byte	0x1df
 1449 076e 03       		.byte	0x3
 1450 076f 77070000 		.4byte	0x777
 1451 0773 81070000 		.4byte	0x781
 1452 0777 1F       		.uleb128 0x1f
 1453 0778 CD060000 		.4byte	.LASF105
 1454 077c BD060000 		.4byte	0x6bd
 1455 0780 00       		.byte	0
 1456 0781 1E       		.uleb128 0x1e
 1457 0782 BF040000 		.4byte	0x4bf
 1458 0786 03       		.byte	0x3
 1459 0787 8F070000 		.4byte	0x78f
 1460 078b 99070000 		.4byte	0x799
 1461 078f 1F       		.uleb128 0x1f
 1462 0790 CD060000 		.4byte	.LASF105
 1463 0794 DA060000 		.4byte	0x6da
 1464 0798 00       		.byte	0
 1465 0799 1E       		.uleb128 0x1e
 1466 079a D8040000 		.4byte	0x4d8
 1467 079e 03       		.byte	0x3
 1468 079f A7070000 		.4byte	0x7a7
 1469 07a3 C7070000 		.4byte	0x7c7
 1470 07a7 1F       		.uleb128 0x1f
 1471 07a8 CD060000 		.4byte	.LASF105
 1472 07ac DA060000 		.4byte	0x6da
 1473 07b0 21       		.uleb128 0x21
ARM GAS  C:\msys64\tmp\ccYRci0V.s 			page 27


 1474 07b1 72616D00 		.ascii	"ram\000"
 1475 07b5 02       		.byte	0x2
 1476 07b6 F2       		.byte	0xf2
 1477 07b7 67060000 		.4byte	0x667
 1478 07bb 25       		.uleb128 0x25
 1479 07bc 59060000 		.4byte	.LASF109
 1480 07c0 02       		.byte	0x2
 1481 07c1 F2       		.byte	0xf2
 1482 07c2 B4000000 		.4byte	0xb4
 1483 07c6 00       		.byte	0
 1484 07c7 1E       		.uleb128 0x1e
 1485 07c8 C6010000 		.4byte	0x1c6
 1486 07cc 03       		.byte	0x3
 1487 07cd D5070000 		.4byte	0x7d5
 1488 07d1 DF070000 		.4byte	0x7df
 1489 07d5 1F       		.uleb128 0x1f
 1490 07d6 CD060000 		.4byte	.LASF105
 1491 07da BD060000 		.4byte	0x6bd
 1492 07de 00       		.byte	0
 1493 07df 1E       		.uleb128 0x1e
 1494 07e0 FB040000 		.4byte	0x4fb
 1495 07e4 03       		.byte	0x3
 1496 07e5 ED070000 		.4byte	0x7ed
 1497 07e9 00080000 		.4byte	0x800
 1498 07ed 1F       		.uleb128 0x1f
 1499 07ee CD060000 		.4byte	.LASF105
 1500 07f2 DA060000 		.4byte	0x6da
 1501 07f6 21       		.uleb128 0x21
 1502 07f7 7000     		.ascii	"p\000"
 1503 07f9 02       		.byte	0x2
 1504 07fa FF       		.byte	0xff
 1505 07fb 00080000 		.4byte	0x800
 1506 07ff 00       		.byte	0
 1507 0800 1A       		.uleb128 0x1a
 1508 0801 73060000 		.4byte	0x673
 1509 0805 1E       		.uleb128 0x1e
 1510 0806 39020000 		.4byte	0x239
 1511 080a 03       		.byte	0x3
 1512 080b 13080000 		.4byte	0x813
 1513 080f 28080000 		.4byte	0x828
 1514 0813 1F       		.uleb128 0x1f
 1515 0814 CD060000 		.4byte	.LASF105
 1516 0818 BD060000 		.4byte	0x6bd
 1517 081c 26       		.uleb128 0x26
 1518 081d 43080000 		.4byte	.LASF110
 1519 0821 04       		.byte	0x4
 1520 0822 7D       		.byte	0x7d
 1521 0823 1D070000 		.4byte	0x71d
 1522 0827 00       		.byte	0
 1523 0828 1E       		.uleb128 0x1e
 1524 0829 AA050000 		.4byte	0x5aa
 1525 082d 03       		.byte	0x3
 1526 082e 36080000 		.4byte	0x836
 1527 0832 4C080000 		.4byte	0x84c
 1528 0836 1F       		.uleb128 0x1f
 1529 0837 CD060000 		.4byte	.LASF105
 1530 083b DA060000 		.4byte	0x6da
ARM GAS  C:\msys64\tmp\ccYRci0V.s 			page 28


 1531 083f 1C       		.uleb128 0x1c
 1532 0840 706F7300 		.ascii	"pos\000"
 1533 0844 02       		.byte	0x2
 1534 0845 3F01     		.2byte	0x13f
 1535 0847 12070000 		.4byte	0x712
 1536 084b 00       		.byte	0
 1537 084c 1E       		.uleb128 0x1e
 1538 084d 87050000 		.4byte	0x587
 1539 0851 03       		.byte	0x3
 1540 0852 5A080000 		.4byte	0x85a
 1541 0856 70080000 		.4byte	0x870
 1542 085a 1F       		.uleb128 0x1f
 1543 085b CD060000 		.4byte	.LASF105
 1544 085f DA060000 		.4byte	0x6da
 1545 0863 1C       		.uleb128 0x1c
 1546 0864 706F7300 		.ascii	"pos\000"
 1547 0868 02       		.byte	0x2
 1548 0869 3401     		.2byte	0x134
 1549 086b 12070000 		.4byte	0x712
 1550 086f 00       		.byte	0
 1551 0870 27       		.uleb128 0x27
 1552 0871 F5060000 		.4byte	.LASF156
 1553 0875 01       		.byte	0x1
 1554 0876 91080000 		.4byte	0x891
 1555 087a 25       		.uleb128 0x25
 1556 087b 22030000 		.4byte	.LASF111
 1557 087f 01       		.byte	0x1
 1558 0880 7D       		.byte	0x7d
 1559 0881 2C000000 		.4byte	0x2c
 1560 0885 25       		.uleb128 0x25
 1561 0886 60030000 		.4byte	.LASF112
 1562 088a 01       		.byte	0x1
 1563 088b 7D       		.byte	0x7d
 1564 088c 2C000000 		.4byte	0x2c
 1565 0890 00       		.byte	0
 1566 0891 28       		.uleb128 0x28
 1567 0892 5F070000 		.4byte	.LASF113
 1568 0896 01       		.byte	0x1
 1569 0897 1E       		.byte	0x1e
 1570 0898 00000000 		.4byte	.LFB315
 1571 089c 84000000 		.4byte	.LFE315-.LFB315
 1572 08a0 01       		.uleb128 0x1
 1573 08a1 9C       		.byte	0x9c
 1574 08a2 9B090000 		.4byte	0x99b
 1575 08a6 29       		.uleb128 0x29
 1576 08a7 DB010000 		.4byte	.LASF114
 1577 08ab 01       		.byte	0x1
 1578 08ac 1E       		.byte	0x1e
 1579 08ad A9000000 		.4byte	0xa9
 1580 08b1 00000000 		.4byte	.LLST0
 1581 08b5 2A       		.uleb128 0x2a
 1582 08b6 61706900 		.ascii	"api\000"
 1583 08ba 01       		.byte	0x1
 1584 08bb 1E       		.byte	0x1e
 1585 08bc A9000000 		.4byte	0xa9
 1586 08c0 21000000 		.4byte	.LLST1
 1587 08c4 2B       		.uleb128 0x2b
ARM GAS  C:\msys64\tmp\ccYRci0V.s 			page 29


 1588 08c5 99070000 		.4byte	0x799
 1589 08c9 02000000 		.4byte	.LBB48
 1590 08cd 1A000000 		.4byte	.LBE48-.LBB48
 1591 08d1 01       		.byte	0x1
 1592 08d2 20       		.byte	0x20
 1593 08d3 F3080000 		.4byte	0x8f3
 1594 08d7 2C       		.uleb128 0x2c
 1595 08d8 BB070000 		.4byte	0x7bb
 1596 08dc 42000000 		.4byte	.LLST2
 1597 08e0 2C       		.uleb128 0x2c
 1598 08e1 B0070000 		.4byte	0x7b0
 1599 08e5 5A000000 		.4byte	.LLST3
 1600 08e9 2C       		.uleb128 0x2c
 1601 08ea A7070000 		.4byte	0x7a7
 1602 08ee 72000000 		.4byte	.LLST4
 1603 08f2 00       		.byte	0
 1604 08f3 2B       		.uleb128 0x2b
 1605 08f4 81070000 		.4byte	0x781
 1606 08f8 1C000000 		.4byte	.LBB50
 1607 08fc 18000000 		.4byte	.LBE50-.LBB50
 1608 0900 01       		.byte	0x1
 1609 0901 21       		.byte	0x21
 1610 0902 45090000 		.4byte	0x945
 1611 0906 2C       		.uleb128 0x2c
 1612 0907 8F070000 		.4byte	0x78f
 1613 090b 8A000000 		.4byte	.LLST5
 1614 090f 2D       		.uleb128 0x2d
 1615 0910 DF060000 		.4byte	0x6df
 1616 0914 1C000000 		.4byte	.LBB51
 1617 0918 18000000 		.4byte	.LBE51-.LBB51
 1618 091c 02       		.byte	0x2
 1619 091d E6       		.byte	0xe6
 1620 091e 2C       		.uleb128 0x2c
 1621 091f F6060000 		.4byte	0x6f6
 1622 0923 A2000000 		.4byte	.LLST6
 1623 0927 2C       		.uleb128 0x2c
 1624 0928 EB060000 		.4byte	0x6eb
 1625 092c B8000000 		.4byte	.LLST7
 1626 0930 2E       		.uleb128 0x2e
 1627 0931 1C000000 		.4byte	.LBB52
 1628 0935 18000000 		.4byte	.LBE52-.LBB52
 1629 0939 2F       		.uleb128 0x2f
 1630 093a 01070000 		.4byte	0x701
 1631 093e 0F010000 		.4byte	.LLST8
 1632 0942 00       		.byte	0
 1633 0943 00       		.byte	0
 1634 0944 00       		.byte	0
 1635 0945 2B       		.uleb128 0x2b
 1636 0946 69070000 		.4byte	0x769
 1637 094a 34000000 		.4byte	.LBB53
 1638 094e 06000000 		.4byte	.LBE53-.LBB53
 1639 0952 01       		.byte	0x1
 1640 0953 22       		.byte	0x22
 1641 0954 62090000 		.4byte	0x962
 1642 0958 2C       		.uleb128 0x2c
 1643 0959 77070000 		.4byte	0x777
 1644 095d 27010000 		.4byte	.LLST9
ARM GAS  C:\msys64\tmp\ccYRci0V.s 			page 30


 1645 0961 00       		.byte	0
 1646 0962 30       		.uleb128 0x30
 1647 0963 3C070000 		.4byte	0x73c
 1648 0967 4E000000 		.4byte	.LBB55
 1649 096b 00000000 		.4byte	.Ldebug_ranges0+0
 1650 096f 01       		.byte	0x1
 1651 0970 26       		.byte	0x26
 1652 0971 91090000 		.4byte	0x991
 1653 0975 2C       		.uleb128 0x2c
 1654 0976 5D070000 		.4byte	0x75d
 1655 097a 3F010000 		.4byte	.LLST10
 1656 097e 2C       		.uleb128 0x2c
 1657 097f 53070000 		.4byte	0x753
 1658 0983 57010000 		.4byte	.LLST11
 1659 0987 2C       		.uleb128 0x2c
 1660 0988 4A070000 		.4byte	0x74a
 1661 098c 6E010000 		.4byte	.LLST12
 1662 0990 00       		.byte	0
 1663 0991 31       		.uleb128 0x31
 1664 0992 3E000000 		.4byte	.LVL10
 1665 0996 B20D0000 		.4byte	0xdb2
 1666 099a 00       		.byte	0
 1667 099b 28       		.uleb128 0x28
 1668 099c 2B070000 		.4byte	.LASF115
 1669 09a0 01       		.byte	0x1
 1670 09a1 2E       		.byte	0x2e
 1671 09a2 84000000 		.4byte	.LFB317
 1672 09a6 EC000000 		.4byte	.LFE317-.LFB317
 1673 09aa 01       		.uleb128 0x1
 1674 09ab 9C       		.byte	0x9c
 1675 09ac F20A0000 		.4byte	0xaf2
 1676 09b0 2A       		.uleb128 0x2a
 1677 09b1 786E00   		.ascii	"xn\000"
 1678 09b4 01       		.byte	0x1
 1679 09b5 2E       		.byte	0x2e
 1680 09b6 73010000 		.4byte	0x173
 1681 09ba 86010000 		.4byte	.LLST13
 1682 09be 29       		.uleb128 0x29
 1683 09bf CD040000 		.4byte	.LASF116
 1684 09c3 01       		.byte	0x1
 1685 09c4 2E       		.byte	0x2e
 1686 09c5 A9000000 		.4byte	0xa9
 1687 09c9 A7010000 		.4byte	.LLST14
 1688 09cd 32       		.uleb128 0x32
 1689 09ce 7800     		.ascii	"x\000"
 1690 09d0 01       		.byte	0x1
 1691 09d1 30       		.byte	0x30
 1692 09d2 73010000 		.4byte	0x173
 1693 09d6 C8010000 		.4byte	.LLST15
 1694 09da 32       		.uleb128 0x32
 1695 09db 785F6500 		.ascii	"x_e\000"
 1696 09df 01       		.byte	0x1
 1697 09e0 31       		.byte	0x31
 1698 09e1 17070000 		.4byte	0x717
 1699 09e5 FE010000 		.4byte	.LLST16
 1700 09e9 33       		.uleb128 0x33
 1701 09ea 77657400 		.ascii	"wet\000"
ARM GAS  C:\msys64\tmp\ccYRci0V.s 			page 31


 1702 09ee 01       		.byte	0x1
 1703 09ef 33       		.byte	0x33
 1704 09f0 1D070000 		.4byte	0x71d
 1705 09f4 02       		.uleb128 0x2
 1706 09f5 90       		.byte	0x90
 1707 09f6 4B       		.uleb128 0x4b
 1708 09f7 34       		.uleb128 0x34
 1709 09f8 20020000 		.4byte	.LASF117
 1710 09fc 01       		.byte	0x1
 1711 09fd 34       		.byte	0x34
 1712 09fe 2B010000 		.4byte	0x12b
 1713 0a02 25020000 		.4byte	.LLST17
 1714 0a06 35       		.uleb128 0x35
 1715 0a07 18000000 		.4byte	.Ldebug_ranges0+0x18
 1716 0a0b 34       		.uleb128 0x34
 1717 0a0c 0C030000 		.4byte	.LASF118
 1718 0a10 01       		.byte	0x1
 1719 0a11 38       		.byte	0x38
 1720 0a12 1D070000 		.4byte	0x71d
 1721 0a16 95020000 		.4byte	.LLST18
 1722 0a1a 34       		.uleb128 0x34
 1723 0a1b 17030000 		.4byte	.LASF119
 1724 0a1f 01       		.byte	0x1
 1725 0a20 39       		.byte	0x39
 1726 0a21 1D070000 		.4byte	0x71d
 1727 0a25 BE020000 		.4byte	.LLST19
 1728 0a29 30       		.uleb128 0x30
 1729 0a2a 05080000 		.4byte	0x805
 1730 0a2e 86000000 		.4byte	.LBB61
 1731 0a32 48000000 		.4byte	.Ldebug_ranges0+0x48
 1732 0a36 01       		.byte	0x1
 1733 0a37 38       		.byte	0x38
 1734 0a38 790A0000 		.4byte	0xa79
 1735 0a3c 2C       		.uleb128 0x2c
 1736 0a3d 13080000 		.4byte	0x813
 1737 0a41 D2020000 		.4byte	.LLST20
 1738 0a45 35       		.uleb128 0x35
 1739 0a46 48000000 		.4byte	.Ldebug_ranges0+0x48
 1740 0a4a 2F       		.uleb128 0x2f
 1741 0a4b 1C080000 		.4byte	0x81c
 1742 0a4f EA020000 		.4byte	.LLST21
 1743 0a53 2D       		.uleb128 0x2d
 1744 0a54 7E060000 		.4byte	0x67e
 1745 0a58 CC000000 		.4byte	.LBB63
 1746 0a5c 0C000000 		.4byte	.LBE63-.LBB63
 1747 0a60 04       		.byte	0x4
 1748 0a61 7E       		.byte	0x7e
 1749 0a62 36       		.uleb128 0x36
 1750 0a63 8F060000 		.4byte	0x68f
 1751 0a67 2E       		.uleb128 0x2e
 1752 0a68 CC000000 		.4byte	.LBB64
 1753 0a6c 0C000000 		.4byte	.LBE64-.LBB64
 1754 0a70 37       		.uleb128 0x37
 1755 0a71 99060000 		.4byte	0x699
 1756 0a75 00       		.byte	0
 1757 0a76 00       		.byte	0
 1758 0a77 00       		.byte	0
ARM GAS  C:\msys64\tmp\ccYRci0V.s 			page 32


 1759 0a78 00       		.byte	0
 1760 0a79 30       		.uleb128 0x30
 1761 0a7a C7070000 		.4byte	0x7c7
 1762 0a7e 92000000 		.4byte	.LBB70
 1763 0a82 80000000 		.4byte	.Ldebug_ranges0+0x80
 1764 0a86 01       		.byte	0x1
 1765 0a87 41       		.byte	0x41
 1766 0a88 920A0000 		.4byte	0xa92
 1767 0a8c 36       		.uleb128 0x36
 1768 0a8d D5070000 		.4byte	0x7d5
 1769 0a91 00       		.byte	0
 1770 0a92 30       		.uleb128 0x30
 1771 0a93 4C080000 		.4byte	0x84c
 1772 0a97 A0000000 		.4byte	.LBB73
 1773 0a9b 98000000 		.4byte	.Ldebug_ranges0+0x98
 1774 0a9f 01       		.byte	0x1
 1775 0aa0 38       		.byte	0x38
 1776 0aa1 B00A0000 		.4byte	0xab0
 1777 0aa5 36       		.uleb128 0x36
 1778 0aa6 63080000 		.4byte	0x863
 1779 0aaa 36       		.uleb128 0x36
 1780 0aab 5A080000 		.4byte	0x85a
 1781 0aaf 00       		.byte	0
 1782 0ab0 2B       		.uleb128 0x2b
 1783 0ab1 28080000 		.4byte	0x828
 1784 0ab5 D8000000 		.4byte	.LBB80
 1785 0ab9 0A000000 		.4byte	.LBE80-.LBB80
 1786 0abd 01       		.byte	0x1
 1787 0abe 39       		.byte	0x39
 1788 0abf CE0A0000 		.4byte	0xace
 1789 0ac3 36       		.uleb128 0x36
 1790 0ac4 3F080000 		.4byte	0x83f
 1791 0ac8 36       		.uleb128 0x36
 1792 0ac9 36080000 		.4byte	0x836
 1793 0acd 00       		.byte	0
 1794 0ace 38       		.uleb128 0x38
 1795 0acf DF070000 		.4byte	0x7df
 1796 0ad3 34010000 		.4byte	.LBB87
 1797 0ad7 B8000000 		.4byte	.Ldebug_ranges0+0xb8
 1798 0adb 01       		.byte	0x1
 1799 0adc 40       		.byte	0x40
 1800 0add 2C       		.uleb128 0x2c
 1801 0ade F6070000 		.4byte	0x7f6
 1802 0ae2 FE020000 		.4byte	.LLST22
 1803 0ae6 2C       		.uleb128 0x2c
 1804 0ae7 ED070000 		.4byte	0x7ed
 1805 0aeb 16030000 		.4byte	.LLST23
 1806 0aef 00       		.byte	0
 1807 0af0 00       		.byte	0
 1808 0af1 00       		.byte	0
 1809 0af2 28       		.uleb128 0x28
 1810 0af3 28000000 		.4byte	.LASF120
 1811 0af7 01       		.byte	0x1
 1812 0af8 45       		.byte	0x45
 1813 0af9 70010000 		.4byte	.LFB318
 1814 0afd E0000000 		.4byte	.LFE318-.LFB318
 1815 0b01 01       		.uleb128 0x1
ARM GAS  C:\msys64\tmp\ccYRci0V.s 			page 33


 1816 0b02 9C       		.byte	0x9c
 1817 0b03 3E0B0000 		.4byte	0xb3e
 1818 0b07 29       		.uleb128 0x29
 1819 0b08 8B020000 		.4byte	.LASF121
 1820 0b0c 01       		.byte	0x1
 1821 0b0d 45       		.byte	0x45
 1822 0b0e 93000000 		.4byte	0x93
 1823 0b12 2E030000 		.4byte	.LLST24
 1824 0b16 29       		.uleb128 0x29
 1825 0b17 070B0000 		.4byte	.LASF122
 1826 0b1b 01       		.byte	0x1
 1827 0b1c 45       		.byte	0x45
 1828 0b1d 9E000000 		.4byte	0x9e
 1829 0b21 4F030000 		.4byte	.LLST25
 1830 0b25 34       		.uleb128 0x34
 1831 0b26 20020000 		.4byte	.LASF117
 1832 0b2a 01       		.byte	0x1
 1833 0b2b 47       		.byte	0x47
 1834 0b2c 1D070000 		.4byte	0x71d
 1835 0b30 70030000 		.4byte	.LLST26
 1836 0b34 31       		.uleb128 0x31
 1837 0b35 E0010000 		.4byte	.LVL32
 1838 0b39 B20D0000 		.4byte	0xdb2
 1839 0b3d 00       		.byte	0
 1840 0b3e 39       		.uleb128 0x39
 1841 0b3f A6010000 		.4byte	.LASF157
 1842 0b43 00000000 		.4byte	.LFB320
 1843 0b47 1C000000 		.4byte	.LFE320-.LFB320
 1844 0b4b 01       		.uleb128 0x1
 1845 0b4c 9C       		.byte	0x9c
 1846 0b4d AD0B0000 		.4byte	0xbad
 1847 0b51 2D       		.uleb128 0x2d
 1848 0b52 70080000 		.4byte	0x870
 1849 0b56 00000000 		.4byte	.LBB106
 1850 0b5a 1C000000 		.4byte	.LBE106-.LBB106
 1851 0b5e 01       		.byte	0x1
 1852 0b5f 7D       		.byte	0x7d
 1853 0b60 2C       		.uleb128 0x2c
 1854 0b61 7A080000 		.4byte	0x87a
 1855 0b65 9E030000 		.4byte	.LLST27
 1856 0b69 2C       		.uleb128 0x2c
 1857 0b6a 85080000 		.4byte	0x885
 1858 0b6e B2030000 		.4byte	.LLST28
 1859 0b72 30       		.uleb128 0x30
 1860 0b73 C2060000 		.4byte	0x6c2
 1861 0b77 00000000 		.4byte	.LBB107
 1862 0b7b D8000000 		.4byte	.Ldebug_ranges0+0xd8
 1863 0b7f 01       		.byte	0x1
 1864 0b80 0D       		.byte	0xd
 1865 0b81 8F0B0000 		.4byte	0xb8f
 1866 0b85 2C       		.uleb128 0x2c
 1867 0b86 D0060000 		.4byte	0x6d0
 1868 0b8a C8030000 		.4byte	.LLST29
 1869 0b8e 00       		.byte	0
 1870 0b8f 38       		.uleb128 0x38
 1871 0b90 A5060000 		.4byte	0x6a5
 1872 0b94 04000000 		.4byte	.LBB110
ARM GAS  C:\msys64\tmp\ccYRci0V.s 			page 34


 1873 0b98 F0000000 		.4byte	.Ldebug_ranges0+0xf0
 1874 0b9c 01       		.byte	0x1
 1875 0b9d 10       		.byte	0x10
 1876 0b9e 3A       		.uleb128 0x3a
 1877 0b9f B3060000 		.4byte	0x6b3
 1878 0ba3 06       		.uleb128 0x6
 1879 0ba4 03       		.byte	0x3
 1880 0ba5 18000000 		.4byte	_ZL5s_lfo
 1881 0ba9 9F       		.byte	0x9f
 1882 0baa 00       		.byte	0
 1883 0bab 00       		.byte	0
 1884 0bac 00       		.byte	0
 1885 0bad 3B       		.uleb128 0x3b
 1886 0bae 81040000 		.4byte	.LASF123
 1887 0bb2 0B       		.byte	0xb
 1888 0bb3 46       		.byte	0x46
 1889 0bb4 12070000 		.4byte	0x712
 1890 0bb8 3B       		.uleb128 0x3b
 1891 0bb9 06020000 		.4byte	.LASF124
 1892 0bbd 0B       		.byte	0xb
 1893 0bbe 4B       		.byte	0x4b
 1894 0bbf 12070000 		.4byte	0x712
 1895 0bc3 3C       		.uleb128 0x3c
 1896 0bc4 1D070000 		.4byte	0x71d
 1897 0bc8 D30B0000 		.4byte	0xbd3
 1898 0bcc 3D       		.uleb128 0x3d
 1899 0bcd CB000000 		.4byte	0xcb
 1900 0bd1 80       		.byte	0x80
 1901 0bd2 00       		.byte	0
 1902 0bd3 3B       		.uleb128 0x3b
 1903 0bd4 B1080000 		.4byte	.LASF125
 1904 0bd8 0C       		.byte	0xc
 1905 0bd9 94       		.byte	0x94
 1906 0bda DE0B0000 		.4byte	0xbde
 1907 0bde 1A       		.uleb128 0x1a
 1908 0bdf C30B0000 		.4byte	0xbc3
 1909 0be3 3C       		.uleb128 0x3c
 1910 0be4 1D070000 		.4byte	0x71d
 1911 0be8 F40B0000 		.4byte	0xbf4
 1912 0bec 3E       		.uleb128 0x3e
 1913 0bed CB000000 		.4byte	0xcb
 1914 0bf1 0001     		.2byte	0x100
 1915 0bf3 00       		.byte	0
 1916 0bf4 3F       		.uleb128 0x3f
 1917 0bf5 40050000 		.4byte	.LASF126
 1918 0bf9 0C       		.byte	0xc
 1919 0bfa 4D02     		.2byte	0x24d
 1920 0bfc 000C0000 		.4byte	0xc00
 1921 0c00 1A       		.uleb128 0x1a
 1922 0c01 E30B0000 		.4byte	0xbe3
 1923 0c05 3F       		.uleb128 0x3f
 1924 0c06 F3010000 		.4byte	.LASF127
 1925 0c0a 0C       		.byte	0xc
 1926 0c0b 6402     		.2byte	0x264
 1927 0c0d 110C0000 		.4byte	0xc11
 1928 0c11 1A       		.uleb128 0x1a
 1929 0c12 E30B0000 		.4byte	0xbe3
ARM GAS  C:\msys64\tmp\ccYRci0V.s 			page 35


 1930 0c16 3F       		.uleb128 0x3f
 1931 0c17 74070000 		.4byte	.LASF128
 1932 0c1b 0C       		.byte	0xc
 1933 0c1c 7C02     		.2byte	0x27c
 1934 0c1e 220C0000 		.4byte	0xc22
 1935 0c22 1A       		.uleb128 0x1a
 1936 0c23 E30B0000 		.4byte	0xbe3
 1937 0c27 3F       		.uleb128 0x3f
 1938 0c28 66040000 		.4byte	.LASF129
 1939 0c2c 0B       		.byte	0xb
 1940 0c2d 0F01     		.2byte	0x10f
 1941 0c2f 330C0000 		.4byte	0xc33
 1942 0c33 1A       		.uleb128 0x1a
 1943 0c34 E30B0000 		.4byte	0xbe3
 1944 0c38 3F       		.uleb128 0x3f
 1945 0c39 84070000 		.4byte	.LASF130
 1946 0c3d 0C       		.byte	0xc
 1947 0c3e AB02     		.2byte	0x2ab
 1948 0c40 440C0000 		.4byte	0xc44
 1949 0c44 1A       		.uleb128 0x1a
 1950 0c45 C30B0000 		.4byte	0xbc3
 1951 0c49 3F       		.uleb128 0x3f
 1952 0c4a D4040000 		.4byte	.LASF131
 1953 0c4e 0C       		.byte	0xc
 1954 0c4f C002     		.2byte	0x2c0
 1955 0c51 550C0000 		.4byte	0xc55
 1956 0c55 1A       		.uleb128 0x1a
 1957 0c56 C30B0000 		.4byte	0xbc3
 1958 0c5a 3F       		.uleb128 0x3f
 1959 0c5b EB040000 		.4byte	.LASF132
 1960 0c5f 0C       		.byte	0xc
 1961 0c60 DD02     		.2byte	0x2dd
 1962 0c62 660C0000 		.4byte	0xc66
 1963 0c66 1A       		.uleb128 0x1a
 1964 0c67 C30B0000 		.4byte	0xbc3
 1965 0c6b 3B       		.uleb128 0x3b
 1966 0c6c 330B0000 		.4byte	.LASF133
 1967 0c70 0C       		.byte	0xc
 1968 0c71 45       		.byte	0x45
 1969 0c72 12070000 		.4byte	0x712
 1970 0c76 3B       		.uleb128 0x3b
 1971 0c77 C9010000 		.4byte	.LASF134
 1972 0c7b 0C       		.byte	0xc
 1973 0c7c 4A       		.byte	0x4a
 1974 0c7d 12070000 		.4byte	0x712
 1975 0c81 3C       		.uleb128 0x3c
 1976 0c82 1D070000 		.4byte	0x71d
 1977 0c86 910C0000 		.4byte	0xc91
 1978 0c8a 3D       		.uleb128 0x3d
 1979 0c8b CB000000 		.4byte	0xcb
 1980 0c8f 97       		.byte	0x97
 1981 0c90 00       		.byte	0
 1982 0c91 3B       		.uleb128 0x3b
 1983 0c92 66020000 		.4byte	.LASF135
 1984 0c96 0C       		.byte	0xc
 1985 0c97 67       		.byte	0x67
 1986 0c98 9C0C0000 		.4byte	0xc9c
ARM GAS  C:\msys64\tmp\ccYRci0V.s 			page 36


 1987 0c9c 1A       		.uleb128 0x1a
 1988 0c9d 810C0000 		.4byte	0xc81
 1989 0ca1 3C       		.uleb128 0x3c
 1990 0ca2 1D070000 		.4byte	0x71d
 1991 0ca6 B20C0000 		.4byte	0xcb2
 1992 0caa 3E       		.uleb128 0x3e
 1993 0cab CB000000 		.4byte	0xcb
 1994 0caf 8603     		.2byte	0x386
 1995 0cb1 00       		.byte	0
 1996 0cb2 3B       		.uleb128 0x3b
 1997 0cb3 A2060000 		.4byte	.LASF136
 1998 0cb7 0C       		.byte	0xc
 1999 0cb8 C6       		.byte	0xc6
 2000 0cb9 BD0C0000 		.4byte	0xcbd
 2001 0cbd 1A       		.uleb128 0x1a
 2002 0cbe A10C0000 		.4byte	0xca1
 2003 0cc2 3F       		.uleb128 0x3f
 2004 0cc3 93070000 		.4byte	.LASF137
 2005 0cc7 0C       		.byte	0xc
 2006 0cc8 3801     		.2byte	0x138
 2007 0cca CE0C0000 		.4byte	0xcce
 2008 0cce 1A       		.uleb128 0x1a
 2009 0ccf A10C0000 		.4byte	0xca1
 2010 0cd3 3F       		.uleb128 0x3f
 2011 0cd4 34000000 		.4byte	.LASF138
 2012 0cd8 0C       		.byte	0xc
 2013 0cd9 AB01     		.2byte	0x1ab
 2014 0cdb DF0C0000 		.4byte	0xcdf
 2015 0cdf 1A       		.uleb128 0x1a
 2016 0ce0 A10C0000 		.4byte	0xca1
 2017 0ce4 40       		.uleb128 0x40
 2018 0ce5 7C090000 		.4byte	.LASF139
 2019 0ce9 01       		.byte	0x1
 2020 0cea 0D       		.byte	0xd
 2021 0ceb 32040000 		.4byte	0x432
 2022 0cef 05       		.uleb128 0x5
 2023 0cf0 03       		.byte	0x3
 2024 0cf1 00000000 		.4byte	_ZL7s_delay
 2025 0cf5 3C       		.uleb128 0x3c
 2026 0cf6 2B010000 		.4byte	0x12b
 2027 0cfa 080D0000 		.4byte	0xd08
 2028 0cfe 41       		.uleb128 0x41
 2029 0cff CB000000 		.4byte	0xcb
 2030 0d03 4F340300 		.4byte	0x3344f
 2031 0d07 00       		.byte	0
 2032 0d08 40       		.uleb128 0x40
 2033 0d09 6C000000 		.4byte	.LASF140
 2034 0d0d 01       		.byte	0x1
 2035 0d0e 0E       		.byte	0xe
 2036 0d0f F50C0000 		.4byte	0xcf5
 2037 0d13 05       		.uleb128 0x5
 2038 0d14 03       		.byte	0x3
 2039 0d15 00000000 		.4byte	_ZL11s_delay_ram
 2040 0d19 40       		.uleb128 0x40
 2041 0d1a 60020000 		.4byte	.LASF141
 2042 0d1e 01       		.byte	0x1
 2043 0d1f 10       		.byte	0x10
ARM GAS  C:\msys64\tmp\ccYRci0V.s 			page 37


 2044 0d20 84010000 		.4byte	0x184
 2045 0d24 05       		.uleb128 0x5
 2046 0d25 03       		.byte	0x3
 2047 0d26 18000000 		.4byte	_ZL5s_lfo
 2048 0d2a 42       		.uleb128 0x42
 2049 0d2b 26090000 		.4byte	.LASF142
 2050 0d2f 01       		.byte	0x1
 2051 0d30 11       		.byte	0x11
 2052 0d31 25000000 		.4byte	0x25
 2053 0d35 05       		.uleb128 0x5
 2054 0d36 03       		.byte	0x3
 2055 0d37 00000000 		.4byte	lfo_speed
 2056 0d3b 42       		.uleb128 0x42
 2057 0d3c E4010000 		.4byte	.LASF143
 2058 0d40 01       		.byte	0x1
 2059 0d41 13       		.byte	0x13
 2060 0d42 A9000000 		.4byte	0xa9
 2061 0d46 05       		.uleb128 0x5
 2062 0d47 03       		.byte	0x3
 2063 0d48 00000000 		.4byte	s_len
 2064 0d4c 42       		.uleb128 0x42
 2065 0d4d EE080000 		.4byte	.LASF144
 2066 0d51 01       		.byte	0x1
 2067 0d52 14       		.byte	0x14
 2068 0d53 25000000 		.4byte	0x25
 2069 0d57 05       		.uleb128 0x5
 2070 0d58 03       		.byte	0x3
 2071 0d59 00000000 		.4byte	trem_rate
 2072 0d5d 40       		.uleb128 0x40
 2073 0d5e E8080000 		.4byte	.LASF145
 2074 0d62 01       		.byte	0x1
 2075 0d63 15       		.byte	0x15
 2076 0d64 25000000 		.4byte	0x25
 2077 0d68 05       		.uleb128 0x5
 2078 0d69 03       		.byte	0x3
 2079 0d6a 28000000 		.4byte	_ZL5s_mix
 2080 0d6e 40       		.uleb128 0x40
 2081 0d6f F8040000 		.4byte	.LASF146
 2082 0d73 01       		.byte	0x1
 2083 0d74 16       		.byte	0x16
 2084 0d75 25000000 		.4byte	0x25
 2085 0d79 05       		.uleb128 0x5
 2086 0d7a 03       		.byte	0x3
 2087 0d7b 2C000000 		.4byte	_ZL4gain
 2088 0d7f 42       		.uleb128 0x42
 2089 0d80 D4050000 		.4byte	.LASF147
 2090 0d84 01       		.byte	0x1
 2091 0d85 17       		.byte	0x17
 2092 0d86 25000000 		.4byte	0x25
 2093 0d8a 05       		.uleb128 0x5
 2094 0d8b 03       		.byte	0x3
 2095 0d8c 00000000 		.4byte	wetXNL
 2096 0d90 42       		.uleb128 0x42
 2097 0d91 37040000 		.4byte	.LASF148
 2098 0d95 01       		.byte	0x1
 2099 0d96 18       		.byte	0x18
 2100 0d97 25000000 		.4byte	0x25
ARM GAS  C:\msys64\tmp\ccYRci0V.s 			page 38


 2101 0d9b 05       		.uleb128 0x5
 2102 0d9c 03       		.byte	0x3
 2103 0d9d 00000000 		.4byte	wetXNR
 2104 0da1 43       		.uleb128 0x43
 2105 0da2 62706D00 		.ascii	"bpm\000"
 2106 0da6 01       		.byte	0x1
 2107 0da7 19       		.byte	0x19
 2108 0da8 2C000000 		.4byte	0x2c
 2109 0dac 05       		.uleb128 0x5
 2110 0dad 03       		.byte	0x3
 2111 0dae 00000000 		.4byte	bpm
 2112 0db2 44       		.uleb128 0x44
 2113 0db3 DC080000 		.4byte	.LASF158
 2114 0db7 DC080000 		.4byte	.LASF158
 2115 0dbb 0B       		.byte	0xb
 2116 0dbc 5D       		.byte	0x5d
 2117 0dbd 00       		.byte	0
 2118              		.section	.debug_abbrev,"",%progbits
 2119              	.Ldebug_abbrev0:
 2120 0000 01       		.uleb128 0x1
 2121 0001 11       		.uleb128 0x11
 2122 0002 01       		.byte	0x1
 2123 0003 25       		.uleb128 0x25
 2124 0004 0E       		.uleb128 0xe
 2125 0005 13       		.uleb128 0x13
 2126 0006 0B       		.uleb128 0xb
 2127 0007 03       		.uleb128 0x3
 2128 0008 0E       		.uleb128 0xe
 2129 0009 1B       		.uleb128 0x1b
 2130 000a 0E       		.uleb128 0xe
 2131 000b 55       		.uleb128 0x55
 2132 000c 17       		.uleb128 0x17
 2133 000d 11       		.uleb128 0x11
 2134 000e 01       		.uleb128 0x1
 2135 000f 10       		.uleb128 0x10
 2136 0010 17       		.uleb128 0x17
 2137 0011 00       		.byte	0
 2138 0012 00       		.byte	0
 2139 0013 02       		.uleb128 0x2
 2140 0014 24       		.uleb128 0x24
 2141 0015 00       		.byte	0
 2142 0016 0B       		.uleb128 0xb
 2143 0017 0B       		.uleb128 0xb
 2144 0018 3E       		.uleb128 0x3e
 2145 0019 0B       		.uleb128 0xb
 2146 001a 03       		.uleb128 0x3
 2147 001b 0E       		.uleb128 0xe
 2148 001c 00       		.byte	0
 2149 001d 00       		.byte	0
 2150 001e 03       		.uleb128 0x3
 2151 001f 24       		.uleb128 0x24
 2152 0020 00       		.byte	0
 2153 0021 0B       		.uleb128 0xb
 2154 0022 0B       		.uleb128 0xb
 2155 0023 3E       		.uleb128 0x3e
 2156 0024 0B       		.uleb128 0xb
 2157 0025 03       		.uleb128 0x3
ARM GAS  C:\msys64\tmp\ccYRci0V.s 			page 39


 2158 0026 08       		.uleb128 0x8
 2159 0027 00       		.byte	0
 2160 0028 00       		.byte	0
 2161 0029 04       		.uleb128 0x4
 2162 002a 16       		.uleb128 0x16
 2163 002b 00       		.byte	0
 2164 002c 03       		.uleb128 0x3
 2165 002d 0E       		.uleb128 0xe
 2166 002e 3A       		.uleb128 0x3a
 2167 002f 0B       		.uleb128 0xb
 2168 0030 3B       		.uleb128 0x3b
 2169 0031 0B       		.uleb128 0xb
 2170 0032 49       		.uleb128 0x49
 2171 0033 13       		.uleb128 0x13
 2172 0034 00       		.byte	0
 2173 0035 00       		.byte	0
 2174 0036 05       		.uleb128 0x5
 2175 0037 3B       		.uleb128 0x3b
 2176 0038 00       		.byte	0
 2177 0039 03       		.uleb128 0x3
 2178 003a 0E       		.uleb128 0xe
 2179 003b 00       		.byte	0
 2180 003c 00       		.byte	0
 2181 003d 06       		.uleb128 0x6
 2182 003e 17       		.uleb128 0x17
 2183 003f 01       		.byte	0x1
 2184 0040 0B       		.uleb128 0xb
 2185 0041 0B       		.uleb128 0xb
 2186 0042 3A       		.uleb128 0x3a
 2187 0043 0B       		.uleb128 0xb
 2188 0044 3B       		.uleb128 0x3b
 2189 0045 0B       		.uleb128 0xb
 2190 0046 6E       		.uleb128 0x6e
 2191 0047 0E       		.uleb128 0xe
 2192 0048 01       		.uleb128 0x1
 2193 0049 13       		.uleb128 0x13
 2194 004a 00       		.byte	0
 2195 004b 00       		.byte	0
 2196 004c 07       		.uleb128 0x7
 2197 004d 0D       		.uleb128 0xd
 2198 004e 00       		.byte	0
 2199 004f 03       		.uleb128 0x3
 2200 0050 08       		.uleb128 0x8
 2201 0051 3A       		.uleb128 0x3a
 2202 0052 0B       		.uleb128 0xb
 2203 0053 3B       		.uleb128 0x3b
 2204 0054 0B       		.uleb128 0xb
 2205 0055 49       		.uleb128 0x49
 2206 0056 13       		.uleb128 0x13
 2207 0057 00       		.byte	0
 2208 0058 00       		.byte	0
 2209 0059 08       		.uleb128 0x8
 2210 005a 13       		.uleb128 0x13
 2211 005b 01       		.byte	0x1
 2212 005c 0B       		.uleb128 0xb
 2213 005d 0B       		.uleb128 0xb
 2214 005e 3A       		.uleb128 0x3a
ARM GAS  C:\msys64\tmp\ccYRci0V.s 			page 40


 2215 005f 0B       		.uleb128 0xb
 2216 0060 3B       		.uleb128 0x3b
 2217 0061 0B       		.uleb128 0xb
 2218 0062 6E       		.uleb128 0x6e
 2219 0063 0E       		.uleb128 0xe
 2220 0064 01       		.uleb128 0x1
 2221 0065 13       		.uleb128 0x13
 2222 0066 00       		.byte	0
 2223 0067 00       		.byte	0
 2224 0068 09       		.uleb128 0x9
 2225 0069 0D       		.uleb128 0xd
 2226 006a 00       		.byte	0
 2227 006b 03       		.uleb128 0x3
 2228 006c 08       		.uleb128 0x8
 2229 006d 3A       		.uleb128 0x3a
 2230 006e 0B       		.uleb128 0xb
 2231 006f 3B       		.uleb128 0x3b
 2232 0070 0B       		.uleb128 0xb
 2233 0071 49       		.uleb128 0x49
 2234 0072 13       		.uleb128 0x13
 2235 0073 38       		.uleb128 0x38
 2236 0074 0B       		.uleb128 0xb
 2237 0075 00       		.byte	0
 2238 0076 00       		.byte	0
 2239 0077 0A       		.uleb128 0xa
 2240 0078 16       		.uleb128 0x16
 2241 0079 00       		.byte	0
 2242 007a 03       		.uleb128 0x3
 2243 007b 0E       		.uleb128 0xe
 2244 007c 3A       		.uleb128 0x3a
 2245 007d 0B       		.uleb128 0xb
 2246 007e 3B       		.uleb128 0x3b
 2247 007f 05       		.uleb128 0x5
 2248 0080 49       		.uleb128 0x49
 2249 0081 13       		.uleb128 0x13
 2250 0082 00       		.byte	0
 2251 0083 00       		.byte	0
 2252 0084 0B       		.uleb128 0xb
 2253 0085 04       		.uleb128 0x4
 2254 0086 01       		.byte	0x1
 2255 0087 0B       		.uleb128 0xb
 2256 0088 0B       		.uleb128 0xb
 2257 0089 49       		.uleb128 0x49
 2258 008a 13       		.uleb128 0x13
 2259 008b 3A       		.uleb128 0x3a
 2260 008c 0B       		.uleb128 0xb
 2261 008d 3B       		.uleb128 0x3b
 2262 008e 0B       		.uleb128 0xb
 2263 008f 01       		.uleb128 0x1
 2264 0090 13       		.uleb128 0x13
 2265 0091 00       		.byte	0
 2266 0092 00       		.byte	0
 2267 0093 0C       		.uleb128 0xc
 2268 0094 28       		.uleb128 0x28
 2269 0095 00       		.byte	0
 2270 0096 03       		.uleb128 0x3
 2271 0097 0E       		.uleb128 0xe
ARM GAS  C:\msys64\tmp\ccYRci0V.s 			page 41


 2272 0098 1C       		.uleb128 0x1c
 2273 0099 0B       		.uleb128 0xb
 2274 009a 00       		.byte	0
 2275 009b 00       		.byte	0
 2276 009c 0D       		.uleb128 0xd
 2277 009d 0F       		.uleb128 0xf
 2278 009e 00       		.byte	0
 2279 009f 0B       		.uleb128 0xb
 2280 00a0 0B       		.uleb128 0xb
 2281 00a1 49       		.uleb128 0x49
 2282 00a2 13       		.uleb128 0x13
 2283 00a3 00       		.byte	0
 2284 00a4 00       		.byte	0
 2285 00a5 0E       		.uleb128 0xe
 2286 00a6 39       		.uleb128 0x39
 2287 00a7 01       		.byte	0x1
 2288 00a8 03       		.uleb128 0x3
 2289 00a9 08       		.uleb128 0x8
 2290 00aa 3A       		.uleb128 0x3a
 2291 00ab 0B       		.uleb128 0xb
 2292 00ac 3B       		.uleb128 0x3b
 2293 00ad 0B       		.uleb128 0xb
 2294 00ae 01       		.uleb128 0x1
 2295 00af 13       		.uleb128 0x13
 2296 00b0 00       		.byte	0
 2297 00b1 00       		.byte	0
 2298 00b2 0F       		.uleb128 0xf
 2299 00b3 13       		.uleb128 0x13
 2300 00b4 01       		.byte	0x1
 2301 00b5 03       		.uleb128 0x3
 2302 00b6 0E       		.uleb128 0xe
 2303 00b7 0B       		.uleb128 0xb
 2304 00b8 0B       		.uleb128 0xb
 2305 00b9 3A       		.uleb128 0x3a
 2306 00ba 0B       		.uleb128 0xb
 2307 00bb 3B       		.uleb128 0x3b
 2308 00bc 0B       		.uleb128 0xb
 2309 00bd 01       		.uleb128 0x1
 2310 00be 13       		.uleb128 0x13
 2311 00bf 00       		.byte	0
 2312 00c0 00       		.byte	0
 2313 00c1 10       		.uleb128 0x10
 2314 00c2 0D       		.uleb128 0xd
 2315 00c3 00       		.byte	0
 2316 00c4 03       		.uleb128 0x3
 2317 00c5 0E       		.uleb128 0xe
 2318 00c6 3A       		.uleb128 0x3a
 2319 00c7 0B       		.uleb128 0xb
 2320 00c8 3B       		.uleb128 0x3b
 2321 00c9 05       		.uleb128 0x5
 2322 00ca 49       		.uleb128 0x49
 2323 00cb 13       		.uleb128 0x13
 2324 00cc 38       		.uleb128 0x38
 2325 00cd 0B       		.uleb128 0xb
 2326 00ce 00       		.byte	0
 2327 00cf 00       		.byte	0
 2328 00d0 11       		.uleb128 0x11
ARM GAS  C:\msys64\tmp\ccYRci0V.s 			page 42


 2329 00d1 0D       		.uleb128 0xd
 2330 00d2 00       		.byte	0
 2331 00d3 03       		.uleb128 0x3
 2332 00d4 08       		.uleb128 0x8
 2333 00d5 3A       		.uleb128 0x3a
 2334 00d6 0B       		.uleb128 0xb
 2335 00d7 3B       		.uleb128 0x3b
 2336 00d8 05       		.uleb128 0x5
 2337 00d9 49       		.uleb128 0x49
 2338 00da 13       		.uleb128 0x13
 2339 00db 38       		.uleb128 0x38
 2340 00dc 0B       		.uleb128 0xb
 2341 00dd 00       		.byte	0
 2342 00de 00       		.byte	0
 2343 00df 12       		.uleb128 0x12
 2344 00e0 2E       		.uleb128 0x2e
 2345 00e1 01       		.byte	0x1
 2346 00e2 3F       		.uleb128 0x3f
 2347 00e3 19       		.uleb128 0x19
 2348 00e4 03       		.uleb128 0x3
 2349 00e5 0E       		.uleb128 0xe
 2350 00e6 3A       		.uleb128 0x3a
 2351 00e7 0B       		.uleb128 0xb
 2352 00e8 3B       		.uleb128 0x3b
 2353 00e9 0B       		.uleb128 0xb
 2354 00ea 6E       		.uleb128 0x6e
 2355 00eb 0E       		.uleb128 0xe
 2356 00ec 49       		.uleb128 0x49
 2357 00ed 13       		.uleb128 0x13
 2358 00ee 3C       		.uleb128 0x3c
 2359 00ef 19       		.uleb128 0x19
 2360 00f0 64       		.uleb128 0x64
 2361 00f1 13       		.uleb128 0x13
 2362 00f2 01       		.uleb128 0x1
 2363 00f3 13       		.uleb128 0x13
 2364 00f4 00       		.byte	0
 2365 00f5 00       		.byte	0
 2366 00f6 13       		.uleb128 0x13
 2367 00f7 05       		.uleb128 0x5
 2368 00f8 00       		.byte	0
 2369 00f9 49       		.uleb128 0x49
 2370 00fa 13       		.uleb128 0x13
 2371 00fb 34       		.uleb128 0x34
 2372 00fc 19       		.uleb128 0x19
 2373 00fd 00       		.byte	0
 2374 00fe 00       		.byte	0
 2375 00ff 14       		.uleb128 0x14
 2376 0100 2E       		.uleb128 0x2e
 2377 0101 01       		.byte	0x1
 2378 0102 3F       		.uleb128 0x3f
 2379 0103 19       		.uleb128 0x19
 2380 0104 03       		.uleb128 0x3
 2381 0105 0E       		.uleb128 0xe
 2382 0106 3A       		.uleb128 0x3a
 2383 0107 0B       		.uleb128 0xb
 2384 0108 3B       		.uleb128 0x3b
 2385 0109 0B       		.uleb128 0xb
ARM GAS  C:\msys64\tmp\ccYRci0V.s 			page 43


 2386 010a 6E       		.uleb128 0x6e
 2387 010b 0E       		.uleb128 0xe
 2388 010c 3C       		.uleb128 0x3c
 2389 010d 19       		.uleb128 0x19
 2390 010e 64       		.uleb128 0x64
 2391 010f 13       		.uleb128 0x13
 2392 0110 01       		.uleb128 0x1
 2393 0111 13       		.uleb128 0x13
 2394 0112 00       		.byte	0
 2395 0113 00       		.byte	0
 2396 0114 15       		.uleb128 0x15
 2397 0115 05       		.uleb128 0x5
 2398 0116 00       		.byte	0
 2399 0117 49       		.uleb128 0x49
 2400 0118 13       		.uleb128 0x13
 2401 0119 00       		.byte	0
 2402 011a 00       		.byte	0
 2403 011b 16       		.uleb128 0x16
 2404 011c 2E       		.uleb128 0x2e
 2405 011d 01       		.byte	0x1
 2406 011e 3F       		.uleb128 0x3f
 2407 011f 19       		.uleb128 0x19
 2408 0120 03       		.uleb128 0x3
 2409 0121 0E       		.uleb128 0xe
 2410 0122 3A       		.uleb128 0x3a
 2411 0123 0B       		.uleb128 0xb
 2412 0124 3B       		.uleb128 0x3b
 2413 0125 05       		.uleb128 0x5
 2414 0126 6E       		.uleb128 0x6e
 2415 0127 0E       		.uleb128 0xe
 2416 0128 49       		.uleb128 0x49
 2417 0129 13       		.uleb128 0x13
 2418 012a 3C       		.uleb128 0x3c
 2419 012b 19       		.uleb128 0x19
 2420 012c 64       		.uleb128 0x64
 2421 012d 13       		.uleb128 0x13
 2422 012e 01       		.uleb128 0x1
 2423 012f 13       		.uleb128 0x13
 2424 0130 00       		.byte	0
 2425 0131 00       		.byte	0
 2426 0132 17       		.uleb128 0x17
 2427 0133 2E       		.uleb128 0x2e
 2428 0134 01       		.byte	0x1
 2429 0135 3F       		.uleb128 0x3f
 2430 0136 19       		.uleb128 0x19
 2431 0137 03       		.uleb128 0x3
 2432 0138 0E       		.uleb128 0xe
 2433 0139 3A       		.uleb128 0x3a
 2434 013a 0B       		.uleb128 0xb
 2435 013b 3B       		.uleb128 0x3b
 2436 013c 05       		.uleb128 0x5
 2437 013d 6E       		.uleb128 0x6e
 2438 013e 0E       		.uleb128 0xe
 2439 013f 49       		.uleb128 0x49
 2440 0140 13       		.uleb128 0x13
 2441 0141 3C       		.uleb128 0x3c
 2442 0142 19       		.uleb128 0x19
ARM GAS  C:\msys64\tmp\ccYRci0V.s 			page 44


 2443 0143 64       		.uleb128 0x64
 2444 0144 13       		.uleb128 0x13
 2445 0145 00       		.byte	0
 2446 0146 00       		.byte	0
 2447 0147 18       		.uleb128 0x18
 2448 0148 13       		.uleb128 0x13
 2449 0149 01       		.byte	0x1
 2450 014a 03       		.uleb128 0x3
 2451 014b 0E       		.uleb128 0xe
 2452 014c 0B       		.uleb128 0xb
 2453 014d 0B       		.uleb128 0xb
 2454 014e 3A       		.uleb128 0x3a
 2455 014f 0B       		.uleb128 0xb
 2456 0150 3B       		.uleb128 0x3b
 2457 0151 0B       		.uleb128 0xb
 2458 0152 00       		.byte	0
 2459 0153 00       		.byte	0
 2460 0154 19       		.uleb128 0x19
 2461 0155 10       		.uleb128 0x10
 2462 0156 00       		.byte	0
 2463 0157 0B       		.uleb128 0xb
 2464 0158 0B       		.uleb128 0xb
 2465 0159 49       		.uleb128 0x49
 2466 015a 13       		.uleb128 0x13
 2467 015b 00       		.byte	0
 2468 015c 00       		.byte	0
 2469 015d 1A       		.uleb128 0x1a
 2470 015e 26       		.uleb128 0x26
 2471 015f 00       		.byte	0
 2472 0160 49       		.uleb128 0x49
 2473 0161 13       		.uleb128 0x13
 2474 0162 00       		.byte	0
 2475 0163 00       		.byte	0
 2476 0164 1B       		.uleb128 0x1b
 2477 0165 2E       		.uleb128 0x2e
 2478 0166 01       		.byte	0x1
 2479 0167 03       		.uleb128 0x3
 2480 0168 0E       		.uleb128 0xe
 2481 0169 3A       		.uleb128 0x3a
 2482 016a 0B       		.uleb128 0xb
 2483 016b 3B       		.uleb128 0x3b
 2484 016c 05       		.uleb128 0x5
 2485 016d 49       		.uleb128 0x49
 2486 016e 13       		.uleb128 0x13
 2487 016f 20       		.uleb128 0x20
 2488 0170 0B       		.uleb128 0xb
 2489 0171 01       		.uleb128 0x1
 2490 0172 13       		.uleb128 0x13
 2491 0173 00       		.byte	0
 2492 0174 00       		.byte	0
 2493 0175 1C       		.uleb128 0x1c
 2494 0176 05       		.uleb128 0x5
 2495 0177 00       		.byte	0
 2496 0178 03       		.uleb128 0x3
 2497 0179 08       		.uleb128 0x8
 2498 017a 3A       		.uleb128 0x3a
 2499 017b 0B       		.uleb128 0xb
ARM GAS  C:\msys64\tmp\ccYRci0V.s 			page 45


 2500 017c 3B       		.uleb128 0x3b
 2501 017d 05       		.uleb128 0x5
 2502 017e 49       		.uleb128 0x49
 2503 017f 13       		.uleb128 0x13
 2504 0180 00       		.byte	0
 2505 0181 00       		.byte	0
 2506 0182 1D       		.uleb128 0x1d
 2507 0183 34       		.uleb128 0x34
 2508 0184 00       		.byte	0
 2509 0185 03       		.uleb128 0x3
 2510 0186 08       		.uleb128 0x8
 2511 0187 3A       		.uleb128 0x3a
 2512 0188 0B       		.uleb128 0xb
 2513 0189 3B       		.uleb128 0x3b
 2514 018a 05       		.uleb128 0x5
 2515 018b 49       		.uleb128 0x49
 2516 018c 13       		.uleb128 0x13
 2517 018d 00       		.byte	0
 2518 018e 00       		.byte	0
 2519 018f 1E       		.uleb128 0x1e
 2520 0190 2E       		.uleb128 0x2e
 2521 0191 01       		.byte	0x1
 2522 0192 47       		.uleb128 0x47
 2523 0193 13       		.uleb128 0x13
 2524 0194 20       		.uleb128 0x20
 2525 0195 0B       		.uleb128 0xb
 2526 0196 64       		.uleb128 0x64
 2527 0197 13       		.uleb128 0x13
 2528 0198 01       		.uleb128 0x1
 2529 0199 13       		.uleb128 0x13
 2530 019a 00       		.byte	0
 2531 019b 00       		.byte	0
 2532 019c 1F       		.uleb128 0x1f
 2533 019d 05       		.uleb128 0x5
 2534 019e 00       		.byte	0
 2535 019f 03       		.uleb128 0x3
 2536 01a0 0E       		.uleb128 0xe
 2537 01a1 49       		.uleb128 0x49
 2538 01a2 13       		.uleb128 0x13
 2539 01a3 34       		.uleb128 0x34
 2540 01a4 19       		.uleb128 0x19
 2541 01a5 00       		.byte	0
 2542 01a6 00       		.byte	0
 2543 01a7 20       		.uleb128 0x20
 2544 01a8 2E       		.uleb128 0x2e
 2545 01a9 01       		.byte	0x1
 2546 01aa 03       		.uleb128 0x3
 2547 01ab 0E       		.uleb128 0xe
 2548 01ac 3A       		.uleb128 0x3a
 2549 01ad 0B       		.uleb128 0xb
 2550 01ae 3B       		.uleb128 0x3b
 2551 01af 0B       		.uleb128 0xb
 2552 01b0 20       		.uleb128 0x20
 2553 01b1 0B       		.uleb128 0xb
 2554 01b2 01       		.uleb128 0x1
 2555 01b3 13       		.uleb128 0x13
 2556 01b4 00       		.byte	0
ARM GAS  C:\msys64\tmp\ccYRci0V.s 			page 46


 2557 01b5 00       		.byte	0
 2558 01b6 21       		.uleb128 0x21
 2559 01b7 05       		.uleb128 0x5
 2560 01b8 00       		.byte	0
 2561 01b9 03       		.uleb128 0x3
 2562 01ba 08       		.uleb128 0x8
 2563 01bb 3A       		.uleb128 0x3a
 2564 01bc 0B       		.uleb128 0xb
 2565 01bd 3B       		.uleb128 0x3b
 2566 01be 0B       		.uleb128 0xb
 2567 01bf 49       		.uleb128 0x49
 2568 01c0 13       		.uleb128 0x13
 2569 01c1 00       		.byte	0
 2570 01c2 00       		.byte	0
 2571 01c3 22       		.uleb128 0x22
 2572 01c4 34       		.uleb128 0x34
 2573 01c5 00       		.byte	0
 2574 01c6 03       		.uleb128 0x3
 2575 01c7 08       		.uleb128 0x8
 2576 01c8 3A       		.uleb128 0x3a
 2577 01c9 0B       		.uleb128 0xb
 2578 01ca 3B       		.uleb128 0x3b
 2579 01cb 0B       		.uleb128 0xb
 2580 01cc 49       		.uleb128 0x49
 2581 01cd 13       		.uleb128 0x13
 2582 01ce 00       		.byte	0
 2583 01cf 00       		.byte	0
 2584 01d0 23       		.uleb128 0x23
 2585 01d1 37       		.uleb128 0x37
 2586 01d2 00       		.byte	0
 2587 01d3 49       		.uleb128 0x49
 2588 01d4 13       		.uleb128 0x13
 2589 01d5 00       		.byte	0
 2590 01d6 00       		.byte	0
 2591 01d7 24       		.uleb128 0x24
 2592 01d8 2E       		.uleb128 0x2e
 2593 01d9 01       		.byte	0x1
 2594 01da 03       		.uleb128 0x3
 2595 01db 0E       		.uleb128 0xe
 2596 01dc 3A       		.uleb128 0x3a
 2597 01dd 0B       		.uleb128 0xb
 2598 01de 3B       		.uleb128 0x3b
 2599 01df 0B       		.uleb128 0xb
 2600 01e0 49       		.uleb128 0x49
 2601 01e1 13       		.uleb128 0x13
 2602 01e2 20       		.uleb128 0x20
 2603 01e3 0B       		.uleb128 0xb
 2604 01e4 01       		.uleb128 0x1
 2605 01e5 13       		.uleb128 0x13
 2606 01e6 00       		.byte	0
 2607 01e7 00       		.byte	0
 2608 01e8 25       		.uleb128 0x25
 2609 01e9 05       		.uleb128 0x5
 2610 01ea 00       		.byte	0
 2611 01eb 03       		.uleb128 0x3
 2612 01ec 0E       		.uleb128 0xe
 2613 01ed 3A       		.uleb128 0x3a
ARM GAS  C:\msys64\tmp\ccYRci0V.s 			page 47


 2614 01ee 0B       		.uleb128 0xb
 2615 01ef 3B       		.uleb128 0x3b
 2616 01f0 0B       		.uleb128 0xb
 2617 01f1 49       		.uleb128 0x49
 2618 01f2 13       		.uleb128 0x13
 2619 01f3 00       		.byte	0
 2620 01f4 00       		.byte	0
 2621 01f5 26       		.uleb128 0x26
 2622 01f6 34       		.uleb128 0x34
 2623 01f7 00       		.byte	0
 2624 01f8 03       		.uleb128 0x3
 2625 01f9 0E       		.uleb128 0xe
 2626 01fa 3A       		.uleb128 0x3a
 2627 01fb 0B       		.uleb128 0xb
 2628 01fc 3B       		.uleb128 0x3b
 2629 01fd 0B       		.uleb128 0xb
 2630 01fe 49       		.uleb128 0x49
 2631 01ff 13       		.uleb128 0x13
 2632 0200 00       		.byte	0
 2633 0201 00       		.byte	0
 2634 0202 27       		.uleb128 0x27
 2635 0203 2E       		.uleb128 0x2e
 2636 0204 01       		.byte	0x1
 2637 0205 03       		.uleb128 0x3
 2638 0206 0E       		.uleb128 0xe
 2639 0207 34       		.uleb128 0x34
 2640 0208 19       		.uleb128 0x19
 2641 0209 20       		.uleb128 0x20
 2642 020a 0B       		.uleb128 0xb
 2643 020b 01       		.uleb128 0x1
 2644 020c 13       		.uleb128 0x13
 2645 020d 00       		.byte	0
 2646 020e 00       		.byte	0
 2647 020f 28       		.uleb128 0x28
 2648 0210 2E       		.uleb128 0x2e
 2649 0211 01       		.byte	0x1
 2650 0212 3F       		.uleb128 0x3f
 2651 0213 19       		.uleb128 0x19
 2652 0214 03       		.uleb128 0x3
 2653 0215 0E       		.uleb128 0xe
 2654 0216 3A       		.uleb128 0x3a
 2655 0217 0B       		.uleb128 0xb
 2656 0218 3B       		.uleb128 0x3b
 2657 0219 0B       		.uleb128 0xb
 2658 021a 11       		.uleb128 0x11
 2659 021b 01       		.uleb128 0x1
 2660 021c 12       		.uleb128 0x12
 2661 021d 06       		.uleb128 0x6
 2662 021e 40       		.uleb128 0x40
 2663 021f 18       		.uleb128 0x18
 2664 0220 9742     		.uleb128 0x2117
 2665 0222 19       		.uleb128 0x19
 2666 0223 01       		.uleb128 0x1
 2667 0224 13       		.uleb128 0x13
 2668 0225 00       		.byte	0
 2669 0226 00       		.byte	0
 2670 0227 29       		.uleb128 0x29
ARM GAS  C:\msys64\tmp\ccYRci0V.s 			page 48


 2671 0228 05       		.uleb128 0x5
 2672 0229 00       		.byte	0
 2673 022a 03       		.uleb128 0x3
 2674 022b 0E       		.uleb128 0xe
 2675 022c 3A       		.uleb128 0x3a
 2676 022d 0B       		.uleb128 0xb
 2677 022e 3B       		.uleb128 0x3b
 2678 022f 0B       		.uleb128 0xb
 2679 0230 49       		.uleb128 0x49
 2680 0231 13       		.uleb128 0x13
 2681 0232 02       		.uleb128 0x2
 2682 0233 17       		.uleb128 0x17
 2683 0234 00       		.byte	0
 2684 0235 00       		.byte	0
 2685 0236 2A       		.uleb128 0x2a
 2686 0237 05       		.uleb128 0x5
 2687 0238 00       		.byte	0
 2688 0239 03       		.uleb128 0x3
 2689 023a 08       		.uleb128 0x8
 2690 023b 3A       		.uleb128 0x3a
 2691 023c 0B       		.uleb128 0xb
 2692 023d 3B       		.uleb128 0x3b
 2693 023e 0B       		.uleb128 0xb
 2694 023f 49       		.uleb128 0x49
 2695 0240 13       		.uleb128 0x13
 2696 0241 02       		.uleb128 0x2
 2697 0242 17       		.uleb128 0x17
 2698 0243 00       		.byte	0
 2699 0244 00       		.byte	0
 2700 0245 2B       		.uleb128 0x2b
 2701 0246 1D       		.uleb128 0x1d
 2702 0247 01       		.byte	0x1
 2703 0248 31       		.uleb128 0x31
 2704 0249 13       		.uleb128 0x13
 2705 024a 11       		.uleb128 0x11
 2706 024b 01       		.uleb128 0x1
 2707 024c 12       		.uleb128 0x12
 2708 024d 06       		.uleb128 0x6
 2709 024e 58       		.uleb128 0x58
 2710 024f 0B       		.uleb128 0xb
 2711 0250 59       		.uleb128 0x59
 2712 0251 0B       		.uleb128 0xb
 2713 0252 01       		.uleb128 0x1
 2714 0253 13       		.uleb128 0x13
 2715 0254 00       		.byte	0
 2716 0255 00       		.byte	0
 2717 0256 2C       		.uleb128 0x2c
 2718 0257 05       		.uleb128 0x5
 2719 0258 00       		.byte	0
 2720 0259 31       		.uleb128 0x31
 2721 025a 13       		.uleb128 0x13
 2722 025b 02       		.uleb128 0x2
 2723 025c 17       		.uleb128 0x17
 2724 025d 00       		.byte	0
 2725 025e 00       		.byte	0
 2726 025f 2D       		.uleb128 0x2d
 2727 0260 1D       		.uleb128 0x1d
ARM GAS  C:\msys64\tmp\ccYRci0V.s 			page 49


 2728 0261 01       		.byte	0x1
 2729 0262 31       		.uleb128 0x31
 2730 0263 13       		.uleb128 0x13
 2731 0264 11       		.uleb128 0x11
 2732 0265 01       		.uleb128 0x1
 2733 0266 12       		.uleb128 0x12
 2734 0267 06       		.uleb128 0x6
 2735 0268 58       		.uleb128 0x58
 2736 0269 0B       		.uleb128 0xb
 2737 026a 59       		.uleb128 0x59
 2738 026b 0B       		.uleb128 0xb
 2739 026c 00       		.byte	0
 2740 026d 00       		.byte	0
 2741 026e 2E       		.uleb128 0x2e
 2742 026f 0B       		.uleb128 0xb
 2743 0270 01       		.byte	0x1
 2744 0271 11       		.uleb128 0x11
 2745 0272 01       		.uleb128 0x1
 2746 0273 12       		.uleb128 0x12
 2747 0274 06       		.uleb128 0x6
 2748 0275 00       		.byte	0
 2749 0276 00       		.byte	0
 2750 0277 2F       		.uleb128 0x2f
 2751 0278 34       		.uleb128 0x34
 2752 0279 00       		.byte	0
 2753 027a 31       		.uleb128 0x31
 2754 027b 13       		.uleb128 0x13
 2755 027c 02       		.uleb128 0x2
 2756 027d 17       		.uleb128 0x17
 2757 027e 00       		.byte	0
 2758 027f 00       		.byte	0
 2759 0280 30       		.uleb128 0x30
 2760 0281 1D       		.uleb128 0x1d
 2761 0282 01       		.byte	0x1
 2762 0283 31       		.uleb128 0x31
 2763 0284 13       		.uleb128 0x13
 2764 0285 52       		.uleb128 0x52
 2765 0286 01       		.uleb128 0x1
 2766 0287 55       		.uleb128 0x55
 2767 0288 17       		.uleb128 0x17
 2768 0289 58       		.uleb128 0x58
 2769 028a 0B       		.uleb128 0xb
 2770 028b 59       		.uleb128 0x59
 2771 028c 0B       		.uleb128 0xb
 2772 028d 01       		.uleb128 0x1
 2773 028e 13       		.uleb128 0x13
 2774 028f 00       		.byte	0
 2775 0290 00       		.byte	0
 2776 0291 31       		.uleb128 0x31
 2777 0292 898201   		.uleb128 0x4109
 2778 0295 00       		.byte	0
 2779 0296 11       		.uleb128 0x11
 2780 0297 01       		.uleb128 0x1
 2781 0298 31       		.uleb128 0x31
 2782 0299 13       		.uleb128 0x13
 2783 029a 00       		.byte	0
 2784 029b 00       		.byte	0
ARM GAS  C:\msys64\tmp\ccYRci0V.s 			page 50


 2785 029c 32       		.uleb128 0x32
 2786 029d 34       		.uleb128 0x34
 2787 029e 00       		.byte	0
 2788 029f 03       		.uleb128 0x3
 2789 02a0 08       		.uleb128 0x8
 2790 02a1 3A       		.uleb128 0x3a
 2791 02a2 0B       		.uleb128 0xb
 2792 02a3 3B       		.uleb128 0x3b
 2793 02a4 0B       		.uleb128 0xb
 2794 02a5 49       		.uleb128 0x49
 2795 02a6 13       		.uleb128 0x13
 2796 02a7 02       		.uleb128 0x2
 2797 02a8 17       		.uleb128 0x17
 2798 02a9 00       		.byte	0
 2799 02aa 00       		.byte	0
 2800 02ab 33       		.uleb128 0x33
 2801 02ac 34       		.uleb128 0x34
 2802 02ad 00       		.byte	0
 2803 02ae 03       		.uleb128 0x3
 2804 02af 08       		.uleb128 0x8
 2805 02b0 3A       		.uleb128 0x3a
 2806 02b1 0B       		.uleb128 0xb
 2807 02b2 3B       		.uleb128 0x3b
 2808 02b3 0B       		.uleb128 0xb
 2809 02b4 49       		.uleb128 0x49
 2810 02b5 13       		.uleb128 0x13
 2811 02b6 02       		.uleb128 0x2
 2812 02b7 18       		.uleb128 0x18
 2813 02b8 00       		.byte	0
 2814 02b9 00       		.byte	0
 2815 02ba 34       		.uleb128 0x34
 2816 02bb 34       		.uleb128 0x34
 2817 02bc 00       		.byte	0
 2818 02bd 03       		.uleb128 0x3
 2819 02be 0E       		.uleb128 0xe
 2820 02bf 3A       		.uleb128 0x3a
 2821 02c0 0B       		.uleb128 0xb
 2822 02c1 3B       		.uleb128 0x3b
 2823 02c2 0B       		.uleb128 0xb
 2824 02c3 49       		.uleb128 0x49
 2825 02c4 13       		.uleb128 0x13
 2826 02c5 02       		.uleb128 0x2
 2827 02c6 17       		.uleb128 0x17
 2828 02c7 00       		.byte	0
 2829 02c8 00       		.byte	0
 2830 02c9 35       		.uleb128 0x35
 2831 02ca 0B       		.uleb128 0xb
 2832 02cb 01       		.byte	0x1
 2833 02cc 55       		.uleb128 0x55
 2834 02cd 17       		.uleb128 0x17
 2835 02ce 00       		.byte	0
 2836 02cf 00       		.byte	0
 2837 02d0 36       		.uleb128 0x36
 2838 02d1 05       		.uleb128 0x5
 2839 02d2 00       		.byte	0
 2840 02d3 31       		.uleb128 0x31
 2841 02d4 13       		.uleb128 0x13
ARM GAS  C:\msys64\tmp\ccYRci0V.s 			page 51


 2842 02d5 00       		.byte	0
 2843 02d6 00       		.byte	0
 2844 02d7 37       		.uleb128 0x37
 2845 02d8 34       		.uleb128 0x34
 2846 02d9 00       		.byte	0
 2847 02da 31       		.uleb128 0x31
 2848 02db 13       		.uleb128 0x13
 2849 02dc 00       		.byte	0
 2850 02dd 00       		.byte	0
 2851 02de 38       		.uleb128 0x38
 2852 02df 1D       		.uleb128 0x1d
 2853 02e0 01       		.byte	0x1
 2854 02e1 31       		.uleb128 0x31
 2855 02e2 13       		.uleb128 0x13
 2856 02e3 52       		.uleb128 0x52
 2857 02e4 01       		.uleb128 0x1
 2858 02e5 55       		.uleb128 0x55
 2859 02e6 17       		.uleb128 0x17
 2860 02e7 58       		.uleb128 0x58
 2861 02e8 0B       		.uleb128 0xb
 2862 02e9 59       		.uleb128 0x59
 2863 02ea 0B       		.uleb128 0xb
 2864 02eb 00       		.byte	0
 2865 02ec 00       		.byte	0
 2866 02ed 39       		.uleb128 0x39
 2867 02ee 2E       		.uleb128 0x2e
 2868 02ef 01       		.byte	0x1
 2869 02f0 03       		.uleb128 0x3
 2870 02f1 0E       		.uleb128 0xe
 2871 02f2 34       		.uleb128 0x34
 2872 02f3 19       		.uleb128 0x19
 2873 02f4 11       		.uleb128 0x11
 2874 02f5 01       		.uleb128 0x1
 2875 02f6 12       		.uleb128 0x12
 2876 02f7 06       		.uleb128 0x6
 2877 02f8 40       		.uleb128 0x40
 2878 02f9 18       		.uleb128 0x18
 2879 02fa 9742     		.uleb128 0x2117
 2880 02fc 19       		.uleb128 0x19
 2881 02fd 01       		.uleb128 0x1
 2882 02fe 13       		.uleb128 0x13
 2883 02ff 00       		.byte	0
 2884 0300 00       		.byte	0
 2885 0301 3A       		.uleb128 0x3a
 2886 0302 05       		.uleb128 0x5
 2887 0303 00       		.byte	0
 2888 0304 31       		.uleb128 0x31
 2889 0305 13       		.uleb128 0x13
 2890 0306 02       		.uleb128 0x2
 2891 0307 18       		.uleb128 0x18
 2892 0308 00       		.byte	0
 2893 0309 00       		.byte	0
 2894 030a 3B       		.uleb128 0x3b
 2895 030b 34       		.uleb128 0x34
 2896 030c 00       		.byte	0
 2897 030d 03       		.uleb128 0x3
 2898 030e 0E       		.uleb128 0xe
ARM GAS  C:\msys64\tmp\ccYRci0V.s 			page 52


 2899 030f 3A       		.uleb128 0x3a
 2900 0310 0B       		.uleb128 0xb
 2901 0311 3B       		.uleb128 0x3b
 2902 0312 0B       		.uleb128 0xb
 2903 0313 49       		.uleb128 0x49
 2904 0314 13       		.uleb128 0x13
 2905 0315 3F       		.uleb128 0x3f
 2906 0316 19       		.uleb128 0x19
 2907 0317 3C       		.uleb128 0x3c
 2908 0318 19       		.uleb128 0x19
 2909 0319 00       		.byte	0
 2910 031a 00       		.byte	0
 2911 031b 3C       		.uleb128 0x3c
 2912 031c 01       		.uleb128 0x1
 2913 031d 01       		.byte	0x1
 2914 031e 49       		.uleb128 0x49
 2915 031f 13       		.uleb128 0x13
 2916 0320 01       		.uleb128 0x1
 2917 0321 13       		.uleb128 0x13
 2918 0322 00       		.byte	0
 2919 0323 00       		.byte	0
 2920 0324 3D       		.uleb128 0x3d
 2921 0325 21       		.uleb128 0x21
 2922 0326 00       		.byte	0
 2923 0327 49       		.uleb128 0x49
 2924 0328 13       		.uleb128 0x13
 2925 0329 2F       		.uleb128 0x2f
 2926 032a 0B       		.uleb128 0xb
 2927 032b 00       		.byte	0
 2928 032c 00       		.byte	0
 2929 032d 3E       		.uleb128 0x3e
 2930 032e 21       		.uleb128 0x21
 2931 032f 00       		.byte	0
 2932 0330 49       		.uleb128 0x49
 2933 0331 13       		.uleb128 0x13
 2934 0332 2F       		.uleb128 0x2f
 2935 0333 05       		.uleb128 0x5
 2936 0334 00       		.byte	0
 2937 0335 00       		.byte	0
 2938 0336 3F       		.uleb128 0x3f
 2939 0337 34       		.uleb128 0x34
 2940 0338 00       		.byte	0
 2941 0339 03       		.uleb128 0x3
 2942 033a 0E       		.uleb128 0xe
 2943 033b 3A       		.uleb128 0x3a
 2944 033c 0B       		.uleb128 0xb
 2945 033d 3B       		.uleb128 0x3b
 2946 033e 05       		.uleb128 0x5
 2947 033f 49       		.uleb128 0x49
 2948 0340 13       		.uleb128 0x13
 2949 0341 3F       		.uleb128 0x3f
 2950 0342 19       		.uleb128 0x19
 2951 0343 3C       		.uleb128 0x3c
 2952 0344 19       		.uleb128 0x19
 2953 0345 00       		.byte	0
 2954 0346 00       		.byte	0
 2955 0347 40       		.uleb128 0x40
ARM GAS  C:\msys64\tmp\ccYRci0V.s 			page 53


 2956 0348 34       		.uleb128 0x34
 2957 0349 00       		.byte	0
 2958 034a 03       		.uleb128 0x3
 2959 034b 0E       		.uleb128 0xe
 2960 034c 3A       		.uleb128 0x3a
 2961 034d 0B       		.uleb128 0xb
 2962 034e 3B       		.uleb128 0x3b
 2963 034f 0B       		.uleb128 0xb
 2964 0350 49       		.uleb128 0x49
 2965 0351 13       		.uleb128 0x13
 2966 0352 02       		.uleb128 0x2
 2967 0353 18       		.uleb128 0x18
 2968 0354 00       		.byte	0
 2969 0355 00       		.byte	0
 2970 0356 41       		.uleb128 0x41
 2971 0357 21       		.uleb128 0x21
 2972 0358 00       		.byte	0
 2973 0359 49       		.uleb128 0x49
 2974 035a 13       		.uleb128 0x13
 2975 035b 2F       		.uleb128 0x2f
 2976 035c 06       		.uleb128 0x6
 2977 035d 00       		.byte	0
 2978 035e 00       		.byte	0
 2979 035f 42       		.uleb128 0x42
 2980 0360 34       		.uleb128 0x34
 2981 0361 00       		.byte	0
 2982 0362 03       		.uleb128 0x3
 2983 0363 0E       		.uleb128 0xe
 2984 0364 3A       		.uleb128 0x3a
 2985 0365 0B       		.uleb128 0xb
 2986 0366 3B       		.uleb128 0x3b
 2987 0367 0B       		.uleb128 0xb
 2988 0368 49       		.uleb128 0x49
 2989 0369 13       		.uleb128 0x13
 2990 036a 3F       		.uleb128 0x3f
 2991 036b 19       		.uleb128 0x19
 2992 036c 02       		.uleb128 0x2
 2993 036d 18       		.uleb128 0x18
 2994 036e 00       		.byte	0
 2995 036f 00       		.byte	0
 2996 0370 43       		.uleb128 0x43
 2997 0371 34       		.uleb128 0x34
 2998 0372 00       		.byte	0
 2999 0373 03       		.uleb128 0x3
 3000 0374 08       		.uleb128 0x8
 3001 0375 3A       		.uleb128 0x3a
 3002 0376 0B       		.uleb128 0xb
 3003 0377 3B       		.uleb128 0x3b
 3004 0378 0B       		.uleb128 0xb
 3005 0379 49       		.uleb128 0x49
 3006 037a 13       		.uleb128 0x13
 3007 037b 3F       		.uleb128 0x3f
 3008 037c 19       		.uleb128 0x19
 3009 037d 02       		.uleb128 0x2
 3010 037e 18       		.uleb128 0x18
 3011 037f 00       		.byte	0
 3012 0380 00       		.byte	0
ARM GAS  C:\msys64\tmp\ccYRci0V.s 			page 54


 3013 0381 44       		.uleb128 0x44
 3014 0382 2E       		.uleb128 0x2e
 3015 0383 00       		.byte	0
 3016 0384 3F       		.uleb128 0x3f
 3017 0385 19       		.uleb128 0x19
 3018 0386 3C       		.uleb128 0x3c
 3019 0387 19       		.uleb128 0x19
 3020 0388 6E       		.uleb128 0x6e
 3021 0389 0E       		.uleb128 0xe
 3022 038a 03       		.uleb128 0x3
 3023 038b 0E       		.uleb128 0xe
 3024 038c 3A       		.uleb128 0x3a
 3025 038d 0B       		.uleb128 0xb
 3026 038e 3B       		.uleb128 0x3b
 3027 038f 0B       		.uleb128 0xb
 3028 0390 00       		.byte	0
 3029 0391 00       		.byte	0
 3030 0392 00       		.byte	0
 3031              		.section	.debug_loc,"",%progbits
 3032              	.Ldebug_loc0:
 3033              	.LLST0:
 3034 0000 00000000 		.4byte	.LVL0
 3035 0004 3D000000 		.4byte	.LVL10-1
 3036 0008 0100     		.2byte	0x1
 3037 000a 50       		.byte	0x50
 3038 000b 3D000000 		.4byte	.LVL10-1
 3039 000f 84000000 		.4byte	.LFE315
 3040 0013 0400     		.2byte	0x4
 3041 0015 F3       		.byte	0xf3
 3042 0016 01       		.uleb128 0x1
 3043 0017 50       		.byte	0x50
 3044 0018 9F       		.byte	0x9f
 3045 0019 00000000 		.4byte	0
 3046 001d 00000000 		.4byte	0
 3047              	.LLST1:
 3048 0021 00000000 		.4byte	.LVL0
 3049 0025 1C000000 		.4byte	.LVL2
 3050 0029 0100     		.2byte	0x1
 3051 002b 51       		.byte	0x51
 3052 002c 1C000000 		.4byte	.LVL2
 3053 0030 84000000 		.4byte	.LFE315
 3054 0034 0400     		.2byte	0x4
 3055 0036 F3       		.byte	0xf3
 3056 0037 01       		.uleb128 0x1
 3057 0038 51       		.byte	0x51
 3058 0039 9F       		.byte	0x9f
 3059 003a 00000000 		.4byte	0
 3060 003e 00000000 		.4byte	0
 3061              	.LLST2:
 3062 0042 00000000 		.4byte	.LVL0
 3063 0046 18000000 		.4byte	.LVL1
 3064 004a 0600     		.2byte	0x6
 3065 004c 0C       		.byte	0xc
 3066 004d 50340300 		.4byte	0x33450
 3067 0051 9F       		.byte	0x9f
 3068 0052 00000000 		.4byte	0
 3069 0056 00000000 		.4byte	0
ARM GAS  C:\msys64\tmp\ccYRci0V.s 			page 55


 3070              	.LLST3:
 3071 005a 00000000 		.4byte	.LVL0
 3072 005e 18000000 		.4byte	.LVL1
 3073 0062 0600     		.2byte	0x6
 3074 0064 03       		.byte	0x3
 3075 0065 00000000 		.4byte	_ZL11s_delay_ram
 3076 0069 9F       		.byte	0x9f
 3077 006a 00000000 		.4byte	0
 3078 006e 00000000 		.4byte	0
 3079              	.LLST4:
 3080 0072 00000000 		.4byte	.LVL0
 3081 0076 18000000 		.4byte	.LVL1
 3082 007a 0600     		.2byte	0x6
 3083 007c 03       		.byte	0x3
 3084 007d 00000000 		.4byte	_ZL7s_delay
 3085 0081 9F       		.byte	0x9f
 3086 0082 00000000 		.4byte	0
 3087 0086 00000000 		.4byte	0
 3088              	.LLST5:
 3089 008a 18000000 		.4byte	.LVL1
 3090 008e 34000000 		.4byte	.LVL8
 3091 0092 0600     		.2byte	0x6
 3092 0094 03       		.byte	0x3
 3093 0095 00000000 		.4byte	_ZL7s_delay
 3094 0099 9F       		.byte	0x9f
 3095 009a 00000000 		.4byte	0
 3096 009e 00000000 		.4byte	0
 3097              	.LLST6:
 3098 00a2 18000000 		.4byte	.LVL1
 3099 00a6 34000000 		.4byte	.LVL8
 3100 00aa 0400     		.2byte	0x4
 3101 00ac 40       		.byte	0x40
 3102 00ad 3F       		.byte	0x3f
 3103 00ae 24       		.byte	0x24
 3104 00af 9F       		.byte	0x9f
 3105 00b0 00000000 		.4byte	0
 3106 00b4 00000000 		.4byte	0
 3107              	.LLST7:
 3108 00b8 18000000 		.4byte	.LVL1
 3109 00bc 1E000000 		.4byte	.LVL3
 3110 00c0 0600     		.2byte	0x6
 3111 00c2 03       		.byte	0x3
 3112 00c3 00000000 		.4byte	_ZL11s_delay_ram
 3113 00c7 9F       		.byte	0x9f
 3114 00c8 1E000000 		.4byte	.LVL3
 3115 00cc 22000000 		.4byte	.LVL4
 3116 00d0 0300     		.2byte	0x3
 3117 00d2 73       		.byte	0x73
 3118 00d3 74       		.sleb128 -12
 3119 00d4 9F       		.byte	0x9f
 3120 00d5 22000000 		.4byte	.LVL4
 3121 00d9 26000000 		.4byte	.LVL5
 3122 00dd 0300     		.2byte	0x3
 3123 00df 73       		.byte	0x73
 3124 00e0 78       		.sleb128 -8
 3125 00e1 9F       		.byte	0x9f
 3126 00e2 26000000 		.4byte	.LVL5
ARM GAS  C:\msys64\tmp\ccYRci0V.s 			page 56


 3127 00e6 2A000000 		.4byte	.LVL6
 3128 00ea 0300     		.2byte	0x3
 3129 00ec 73       		.byte	0x73
 3130 00ed 7C       		.sleb128 -4
 3131 00ee 9F       		.byte	0x9f
 3132 00ef 2A000000 		.4byte	.LVL6
 3133 00f3 30000000 		.4byte	.LVL7
 3134 00f7 0100     		.2byte	0x1
 3135 00f9 53       		.byte	0x53
 3136 00fa 30000000 		.4byte	.LVL7
 3137 00fe 34000000 		.4byte	.LVL8
 3138 0102 0300     		.2byte	0x3
 3139 0104 73       		.byte	0x73
 3140 0105 70       		.sleb128 -16
 3141 0106 9F       		.byte	0x9f
 3142 0107 00000000 		.4byte	0
 3143 010b 00000000 		.4byte	0
 3144              	.LLST8:
 3145 010f 18000000 		.4byte	.LVL1
 3146 0113 34000000 		.4byte	.LVL8
 3147 0117 0600     		.2byte	0x6
 3148 0119 03       		.byte	0x3
 3149 011a 00002000 		.4byte	_ZL11s_delay_ram+2097152
 3150 011e 9F       		.byte	0x9f
 3151 011f 00000000 		.4byte	0
 3152 0123 00000000 		.4byte	0
 3153              	.LLST9:
 3154 0127 34000000 		.4byte	.LVL8
 3155 012b 3A000000 		.4byte	.LVL9
 3156 012f 0600     		.2byte	0x6
 3157 0131 03       		.byte	0x3
 3158 0132 18000000 		.4byte	_ZL5s_lfo
 3159 0136 9F       		.byte	0x9f
 3160 0137 00000000 		.4byte	0
 3161 013b 00000000 		.4byte	0
 3162              	.LLST10:
 3163 013f 5A000000 		.4byte	.LVL11
 3164 0143 6E000000 		.4byte	.LVL12
 3165 0147 0600     		.2byte	0x6
 3166 0149 9E       		.byte	0x9e
 3167 014a 04       		.uleb128 0x4
 3168 014b 3EC3AE37 		.4byte	0x37aec33e
 3169 014f 00000000 		.4byte	0
 3170 0153 00000000 		.4byte	0
 3171              	.LLST11:
 3172 0157 5A000000 		.4byte	.LVL11
 3173 015b 6E000000 		.4byte	.LVL12
 3174 015f 0500     		.2byte	0x5
 3175 0161 03       		.byte	0x3
 3176 0162 00000000 		.4byte	lfo_speed
 3177 0166 00000000 		.4byte	0
 3178 016a 00000000 		.4byte	0
 3179              	.LLST12:
 3180 016e 5A000000 		.4byte	.LVL11
 3181 0172 6E000000 		.4byte	.LVL12
 3182 0176 0600     		.2byte	0x6
 3183 0178 03       		.byte	0x3
ARM GAS  C:\msys64\tmp\ccYRci0V.s 			page 57


 3184 0179 18000000 		.4byte	_ZL5s_lfo
 3185 017d 9F       		.byte	0x9f
 3186 017e 00000000 		.4byte	0
 3187 0182 00000000 		.4byte	0
 3188              	.LLST13:
 3189 0186 84000000 		.4byte	.LVL13
 3190 018a B6000000 		.4byte	.LVL16
 3191 018e 0100     		.2byte	0x1
 3192 0190 50       		.byte	0x50
 3193 0191 B6000000 		.4byte	.LVL16
 3194 0195 70010000 		.4byte	.LFE317
 3195 0199 0400     		.2byte	0x4
 3196 019b F3       		.byte	0xf3
 3197 019c 01       		.uleb128 0x1
 3198 019d 50       		.byte	0x50
 3199 019e 9F       		.byte	0x9f
 3200 019f 00000000 		.4byte	0
 3201 01a3 00000000 		.4byte	0
 3202              	.LLST14:
 3203 01a7 84000000 		.4byte	.LVL13
 3204 01ab A6000000 		.4byte	.LVL14
 3205 01af 0100     		.2byte	0x1
 3206 01b1 51       		.byte	0x51
 3207 01b2 A6000000 		.4byte	.LVL14
 3208 01b6 70010000 		.4byte	.LFE317
 3209 01ba 0400     		.2byte	0x4
 3210 01bc F3       		.byte	0xf3
 3211 01bd 01       		.uleb128 0x1
 3212 01be 51       		.byte	0x51
 3213 01bf 9F       		.byte	0x9f
 3214 01c0 00000000 		.4byte	0
 3215 01c4 00000000 		.4byte	0
 3216              	.LLST15:
 3217 01c8 84000000 		.4byte	.LVL13
 3218 01cc D0000000 		.4byte	.LVL19
 3219 01d0 0100     		.2byte	0x1
 3220 01d2 50       		.byte	0x50
 3221 01d3 D0000000 		.4byte	.LVL19
 3222 01d7 52010000 		.4byte	.LVL26
 3223 01db 0300     		.2byte	0x3
 3224 01dd 74       		.byte	0x74
 3225 01de 78       		.sleb128 -8
 3226 01df 9F       		.byte	0x9f
 3227 01e0 52010000 		.4byte	.LVL26
 3228 01e4 56010000 		.4byte	.LVL28
 3229 01e8 0100     		.2byte	0x1
 3230 01ea 54       		.byte	0x54
 3231 01eb 56010000 		.4byte	.LVL28
 3232 01ef 70010000 		.4byte	.LFE317
 3233 01f3 0100     		.2byte	0x1
 3234 01f5 50       		.byte	0x50
 3235 01f6 00000000 		.4byte	0
 3236 01fa 00000000 		.4byte	0
 3237              	.LLST16:
 3238 01fe AA000000 		.4byte	.LVL15
 3239 0202 66010000 		.4byte	.LVL29
 3240 0206 0100     		.2byte	0x1
ARM GAS  C:\msys64\tmp\ccYRci0V.s 			page 58


 3241 0208 58       		.byte	0x58
 3242 0209 66010000 		.4byte	.LVL29
 3243 020d 70010000 		.4byte	.LFE317
 3244 0211 0A00     		.2byte	0xa
 3245 0213 F3       		.byte	0xf3
 3246 0214 01       		.uleb128 0x1
 3247 0215 51       		.byte	0x51
 3248 0216 33       		.byte	0x33
 3249 0217 24       		.byte	0x24
 3250 0218 F3       		.byte	0xf3
 3251 0219 01       		.uleb128 0x1
 3252 021a 50       		.byte	0x50
 3253 021b 22       		.byte	0x22
 3254 021c 9F       		.byte	0x9f
 3255 021d 00000000 		.4byte	0
 3256 0221 00000000 		.4byte	0
 3257              	.LLST17:
 3258 0225 44010000 		.4byte	.LVL24
 3259 0229 4C010000 		.4byte	.LVL25
 3260 022d 1200     		.2byte	0x12
 3261 022f 90       		.byte	0x90
 3262 0230 4F       		.uleb128 0x4f
 3263 0231 93       		.byte	0x93
 3264 0232 04       		.uleb128 0x4
 3265 0233 F5       		.byte	0xf5
 3266 0234 4F       		.uleb128 0x4f
 3267 0235 25       		.uleb128 0x25
 3268 0236 F4       		.byte	0xf4
 3269 0237 25       		.uleb128 0x25
 3270 0238 04       		.byte	0x4
 3271 0239 0000803F 		.4byte	0x3f800000
 3272 023d 22       		.byte	0x22
 3273 023e 9F       		.byte	0x9f
 3274 023f 93       		.byte	0x93
 3275 0240 04       		.uleb128 0x4
 3276 0241 4C010000 		.4byte	.LVL25
 3277 0245 54010000 		.4byte	.LVL27
 3278 0249 1400     		.2byte	0x14
 3279 024b 70       		.byte	0x70
 3280 024c 00       		.sleb128 0
 3281 024d 93       		.byte	0x93
 3282 024e 04       		.uleb128 0x4
 3283 024f 70       		.byte	0x70
 3284 0250 00       		.sleb128 0
 3285 0251 F6       		.byte	0xf6
 3286 0252 04       		.byte	0x4
 3287 0253 25       		.uleb128 0x25
 3288 0254 F4       		.byte	0xf4
 3289 0255 25       		.uleb128 0x25
 3290 0256 04       		.byte	0x4
 3291 0257 0000803F 		.4byte	0x3f800000
 3292 025b 22       		.byte	0x22
 3293 025c 9F       		.byte	0x9f
 3294 025d 93       		.byte	0x93
 3295 025e 04       		.uleb128 0x4
 3296 025f 54010000 		.4byte	.LVL27
 3297 0263 56010000 		.4byte	.LVL28
ARM GAS  C:\msys64\tmp\ccYRci0V.s 			page 59


 3298 0267 2400     		.2byte	0x24
 3299 0269 72       		.byte	0x72
 3300 026a 01       		.sleb128 1
 3301 026b 77       		.byte	0x77
 3302 026c 00       		.sleb128 0
 3303 026d 1A       		.byte	0x1a
 3304 026e 33       		.byte	0x33
 3305 026f 24       		.byte	0x24
 3306 0270 76       		.byte	0x76
 3307 0271 00       		.sleb128 0
 3308 0272 22       		.byte	0x22
 3309 0273 93       		.byte	0x93
 3310 0274 04       		.uleb128 0x4
 3311 0275 72       		.byte	0x72
 3312 0276 01       		.sleb128 1
 3313 0277 77       		.byte	0x77
 3314 0278 00       		.sleb128 0
 3315 0279 1A       		.byte	0x1a
 3316 027a 33       		.byte	0x33
 3317 027b 24       		.byte	0x24
 3318 027c 76       		.byte	0x76
 3319 027d 00       		.sleb128 0
 3320 027e 22       		.byte	0x22
 3321 027f F6       		.byte	0xf6
 3322 0280 04       		.byte	0x4
 3323 0281 25       		.uleb128 0x25
 3324 0282 F4       		.byte	0xf4
 3325 0283 25       		.uleb128 0x25
 3326 0284 04       		.byte	0x4
 3327 0285 0000803F 		.4byte	0x3f800000
 3328 0289 22       		.byte	0x22
 3329 028a 9F       		.byte	0x9f
 3330 028b 93       		.byte	0x93
 3331 028c 04       		.uleb128 0x4
 3332 028d 00000000 		.4byte	0
 3333 0291 00000000 		.4byte	0
 3334              	.LLST18:
 3335 0295 FC000000 		.4byte	.LVL20
 3336 0299 14010000 		.4byte	.LVL22
 3337 029d 1700     		.2byte	0x17
 3338 029f 72       		.byte	0x72
 3339 02a0 B009     		.sleb128 1200
 3340 02a2 77       		.byte	0x77
 3341 02a3 00       		.sleb128 0
 3342 02a4 1A       		.byte	0x1a
 3343 02a5 33       		.byte	0x33
 3344 02a6 24       		.byte	0x24
 3345 02a7 76       		.byte	0x76
 3346 02a8 00       		.sleb128 0
 3347 02a9 22       		.byte	0x22
 3348 02aa F6       		.byte	0xf6
 3349 02ab 04       		.byte	0x4
 3350 02ac 25       		.uleb128 0x25
 3351 02ad F5       		.byte	0xf5
 3352 02ae 4A       		.uleb128 0x4a
 3353 02af 25       		.uleb128 0x25
 3354 02b0 1E       		.byte	0x1e
ARM GAS  C:\msys64\tmp\ccYRci0V.s 			page 60


 3355 02b1 F5       		.byte	0xf5
 3356 02b2 4E       		.uleb128 0x4e
 3357 02b3 25       		.uleb128 0x25
 3358 02b4 1E       		.byte	0x1e
 3359 02b5 9F       		.byte	0x9f
 3360 02b6 00000000 		.4byte	0
 3361 02ba 00000000 		.4byte	0
 3362              	.LLST19:
 3363 02be 0C010000 		.4byte	.LVL21
 3364 02c2 34010000 		.4byte	.LVL23
 3365 02c6 0200     		.2byte	0x2
 3366 02c8 90       		.byte	0x90
 3367 02c9 4D       		.uleb128 0x4d
 3368 02ca 00000000 		.4byte	0
 3369 02ce 00000000 		.4byte	0
 3370              	.LLST20:
 3371 02d2 C4000000 		.4byte	.LVL17
 3372 02d6 FC000000 		.4byte	.LVL20
 3373 02da 0600     		.2byte	0x6
 3374 02dc 03       		.byte	0x3
 3375 02dd 18000000 		.4byte	_ZL5s_lfo
 3376 02e1 9F       		.byte	0x9f
 3377 02e2 00000000 		.4byte	0
 3378 02e6 00000000 		.4byte	0
 3379              	.LLST21:
 3380 02ea CC000000 		.4byte	.LVL18
 3381 02ee FC000000 		.4byte	.LVL20
 3382 02f2 0200     		.2byte	0x2
 3383 02f4 90       		.byte	0x90
 3384 02f5 4E       		.uleb128 0x4e
 3385 02f6 00000000 		.4byte	0
 3386 02fa 00000000 		.4byte	0
 3387              	.LLST22:
 3388 02fe 44010000 		.4byte	.LVL24
 3389 0302 52010000 		.4byte	.LVL26
 3390 0306 0600     		.2byte	0x6
 3391 0308 F2       		.byte	0xf2
 3392 0309 F7090000 		.4byte	.Ldebug_info0+2551
 3393 030d 00       		.sleb128 0
 3394 030e 00000000 		.4byte	0
 3395 0312 00000000 		.4byte	0
 3396              	.LLST23:
 3397 0316 44010000 		.4byte	.LVL24
 3398 031a 52010000 		.4byte	.LVL26
 3399 031e 0600     		.2byte	0x6
 3400 0320 03       		.byte	0x3
 3401 0321 00000000 		.4byte	_ZL7s_delay
 3402 0325 9F       		.byte	0x9f
 3403 0326 00000000 		.4byte	0
 3404 032a 00000000 		.4byte	0
 3405              	.LLST24:
 3406 032e 70010000 		.4byte	.LVL30
 3407 0332 DF010000 		.4byte	.LVL32-1
 3408 0336 0100     		.2byte	0x1
 3409 0338 50       		.byte	0x50
 3410 0339 DF010000 		.4byte	.LVL32-1
 3411 033d 50020000 		.4byte	.LFE318
ARM GAS  C:\msys64\tmp\ccYRci0V.s 			page 61


 3412 0341 0400     		.2byte	0x4
 3413 0343 F3       		.byte	0xf3
 3414 0344 01       		.uleb128 0x1
 3415 0345 50       		.byte	0x50
 3416 0346 9F       		.byte	0x9f
 3417 0347 00000000 		.4byte	0
 3418 034b 00000000 		.4byte	0
 3419              	.LLST25:
 3420 034f 70010000 		.4byte	.LVL30
 3421 0353 DF010000 		.4byte	.LVL32-1
 3422 0357 0100     		.2byte	0x1
 3423 0359 51       		.byte	0x51
 3424 035a DF010000 		.4byte	.LVL32-1
 3425 035e 50020000 		.4byte	.LFE318
 3426 0362 0400     		.2byte	0x4
 3427 0364 F3       		.byte	0xf3
 3428 0365 01       		.uleb128 0x1
 3429 0366 51       		.byte	0x51
 3430 0367 9F       		.byte	0x9f
 3431 0368 00000000 		.4byte	0
 3432 036c 00000000 		.4byte	0
 3433              	.LLST26:
 3434 0370 80010000 		.4byte	.LVL31
 3435 0374 3C020000 		.4byte	.LVL33
 3436 0378 0200     		.2byte	0x2
 3437 037a 90       		.byte	0x90
 3438 037b 50       		.uleb128 0x50
 3439 037c 3C020000 		.4byte	.LVL33
 3440 0380 50020000 		.4byte	.LFE318
 3441 0384 1000     		.2byte	0x10
 3442 0386 F3       		.byte	0xf3
 3443 0387 01       		.uleb128 0x1
 3444 0388 51       		.byte	0x51
 3445 0389 F7       		.byte	0xf7
 3446 038a 2C       		.uleb128 0x2c
 3447 038b F7       		.byte	0xf7
 3448 038c 25       		.uleb128 0x25
 3449 038d F4       		.byte	0xf4
 3450 038e 25       		.uleb128 0x25
 3451 038f 04       		.byte	0x4
 3452 0390 00000030 		.4byte	0x30000000
 3453 0394 1E       		.byte	0x1e
 3454 0395 9F       		.byte	0x9f
 3455 0396 00000000 		.4byte	0
 3456 039a 00000000 		.4byte	0
 3457              	.LLST27:
 3458 039e 00000000 		.4byte	.LVL34
 3459 03a2 14000000 		.4byte	.LVL36
 3460 03a6 0200     		.2byte	0x2
 3461 03a8 31       		.byte	0x31
 3462 03a9 9F       		.byte	0x9f
 3463 03aa 00000000 		.4byte	0
 3464 03ae 00000000 		.4byte	0
 3465              	.LLST28:
 3466 03b2 00000000 		.4byte	.LVL34
 3467 03b6 14000000 		.4byte	.LVL36
 3468 03ba 0400     		.2byte	0x4
ARM GAS  C:\msys64\tmp\ccYRci0V.s 			page 62


 3469 03bc 0A       		.byte	0xa
 3470 03bd FFFF     		.2byte	0xffff
 3471 03bf 9F       		.byte	0x9f
 3472 03c0 00000000 		.4byte	0
 3473 03c4 00000000 		.4byte	0
 3474              	.LLST29:
 3475 03c8 00000000 		.4byte	.LVL34
 3476 03cc 10000000 		.4byte	.LVL35
 3477 03d0 0600     		.2byte	0x6
 3478 03d2 03       		.byte	0x3
 3479 03d3 00000000 		.4byte	_ZL7s_delay
 3480 03d7 9F       		.byte	0x9f
 3481 03d8 00000000 		.4byte	0
 3482 03dc 00000000 		.4byte	0
 3483              		.section	.debug_aranges,"",%progbits
 3484 0000 24000000 		.4byte	0x24
 3485 0004 0200     		.2byte	0x2
 3486 0006 00000000 		.4byte	.Ldebug_info0
 3487 000a 04       		.byte	0x4
 3488 000b 00       		.byte	0
 3489 000c 0000     		.2byte	0
 3490 000e 0000     		.2byte	0
 3491 0010 00000000 		.4byte	.Ltext0
 3492 0014 50020000 		.4byte	.Letext0-.Ltext0
 3493 0018 00000000 		.4byte	.LFB320
 3494 001c 1C000000 		.4byte	.LFE320-.LFB320
 3495 0020 00000000 		.4byte	0
 3496 0024 00000000 		.4byte	0
 3497              		.section	.debug_ranges,"",%progbits
 3498              	.Ldebug_ranges0:
 3499 0000 4E000000 		.4byte	.LBB55
 3500 0004 52000000 		.4byte	.LBE55
 3501 0008 5E000000 		.4byte	.LBB58
 3502 000c 84000000 		.4byte	.LBE58
 3503 0010 00000000 		.4byte	0
 3504 0014 00000000 		.4byte	0
 3505 0018 86000000 		.4byte	.LBB60
 3506 001c 8A000000 		.4byte	.LBE60
 3507 0020 8E000000 		.4byte	.LBB93
 3508 0024 96000000 		.4byte	.LBE93
 3509 0028 A0000000 		.4byte	.LBB94
 3510 002c A4000000 		.4byte	.LBE94
 3511 0030 AC000000 		.4byte	.LBB95
 3512 0034 B6000000 		.4byte	.LBE95
 3513 0038 C4000000 		.4byte	.LBB96
 3514 003c 52010000 		.4byte	.LBE96
 3515 0040 00000000 		.4byte	0
 3516 0044 00000000 		.4byte	0
 3517 0048 86000000 		.4byte	.LBB61
 3518 004c 8A000000 		.4byte	.LBE61
 3519 0050 AE000000 		.4byte	.LBB78
 3520 0054 B6000000 		.4byte	.LBE78
 3521 0058 C4000000 		.4byte	.LBB79
 3522 005c D8000000 		.4byte	.LBE79
 3523 0060 E2000000 		.4byte	.LBB82
 3524 0064 E6000000 		.4byte	.LBE82
 3525 0068 EE000000 		.4byte	.LBB84
ARM GAS  C:\msys64\tmp\ccYRci0V.s 			page 63


 3526 006c F2000000 		.4byte	.LBE84
 3527 0070 F8000000 		.4byte	.LBB86
 3528 0074 FC000000 		.4byte	.LBE86
 3529 0078 00000000 		.4byte	0
 3530 007c 00000000 		.4byte	0
 3531 0080 92000000 		.4byte	.LBB70
 3532 0084 96000000 		.4byte	.LBE70
 3533 0088 AC000000 		.4byte	.LBB77
 3534 008c AE000000 		.4byte	.LBE77
 3535 0090 00000000 		.4byte	0
 3536 0094 00000000 		.4byte	0
 3537 0098 A0000000 		.4byte	.LBB73
 3538 009c A4000000 		.4byte	.LBE73
 3539 00a0 EA000000 		.4byte	.LBB83
 3540 00a4 EE000000 		.4byte	.LBE83
 3541 00a8 F2000000 		.4byte	.LBB85
 3542 00ac F8000000 		.4byte	.LBE85
 3543 00b0 00000000 		.4byte	0
 3544 00b4 00000000 		.4byte	0
 3545 00b8 34010000 		.4byte	.LBB87
 3546 00bc 38010000 		.4byte	.LBE87
 3547 00c0 3C010000 		.4byte	.LBB91
 3548 00c4 40010000 		.4byte	.LBE91
 3549 00c8 44010000 		.4byte	.LBB92
 3550 00cc 52010000 		.4byte	.LBE92
 3551 00d0 00000000 		.4byte	0
 3552 00d4 00000000 		.4byte	0
 3553 00d8 00000000 		.4byte	.LBB107
 3554 00dc 04000000 		.4byte	.LBE107
 3555 00e0 08000000 		.4byte	.LBB113
 3556 00e4 10000000 		.4byte	.LBE113
 3557 00e8 00000000 		.4byte	0
 3558 00ec 00000000 		.4byte	0
 3559 00f0 04000000 		.4byte	.LBB110
 3560 00f4 08000000 		.4byte	.LBE110
 3561 00f8 10000000 		.4byte	.LBB114
 3562 00fc 1C000000 		.4byte	.LBE114
 3563 0100 00000000 		.4byte	0
 3564 0104 00000000 		.4byte	0
 3565 0108 00000000 		.4byte	.Ltext0
 3566 010c 50020000 		.4byte	.Letext0
 3567 0110 00000000 		.4byte	.LFB320
 3568 0114 1C000000 		.4byte	.LFE320
 3569 0118 00000000 		.4byte	0
 3570 011c 00000000 		.4byte	0
 3571              		.section	.debug_line,"",%progbits
 3572              	.Ldebug_line0:
 3573 0000 EC030000 		.section	.debug_str,"MS",%progbits,1
 3573      0200AC02 
 3573      00000201 
 3573      FB0E0D00 
 3573      01010101 
 3574              	.LASF21:
 3575 0000 6633325F 		.ascii	"f32_t\000"
 3575      7400
 3576              	.LASF52:
 3577 0006 5F5A4E33 		.ascii	"_ZN3dsp9SimpleLFO12triangle_uniEv\000"
ARM GAS  C:\msys64\tmp\ccYRci0V.s 			page 64


 3577      64737039 
 3577      53696D70 
 3577      6C654C46 
 3577      4F313274 
 3578              	.LASF120:
 3579 0028 5F686F6F 		.ascii	"_hook_param\000"
 3579      6B5F7061 
 3579      72616D00 
 3580              	.LASF138:
 3581 0034 77745F70 		.ascii	"wt_par_lut_f\000"
 3581      61725F6C 
 3581      75745F66 
 3581      00
 3582              	.LASF100:
 3583 0041 72656164 		.ascii	"read1Frac\000"
 3583      31467261 
 3583      6300
 3584              	.LASF50:
 3585 004b 5F5A4E33 		.ascii	"_ZN3dsp9SimpleLFO11triangle_biEv\000"
 3585      64737039 
 3585      53696D70 
 3585      6C654C46 
 3585      4F313174 
 3586              	.LASF140:
 3587 006c 735F6465 		.ascii	"s_delay_ram\000"
 3587      6C61795F 
 3587      72616D00 
 3588              	.LASF149:
 3589 0078 474E5520 		.ascii	"GNU C++11 5.4.1 20160919 (release) [ARM/embedded-5-"
 3589      432B2B31 
 3589      3120352E 
 3589      342E3120 
 3589      32303136 
 3590 00ab 6272616E 		.ascii	"branch revision 240496] -mcpu=cortex-m4 -mthumb -mn"
 3590      63682072 
 3590      65766973 
 3590      696F6E20 
 3590      32343034 
 3591 00de 6F2D7468 		.ascii	"o-thumb-interwork -mlittle-endian -mfloat-abi=hard "
 3591      756D622D 
 3591      696E7465 
 3591      72776F72 
 3591      6B202D6D 
 3592 0111 2D6D6670 		.ascii	"-mfpu=fpv4-sp-d16 -g -Os -std=c++11 -fsingle-precis"
 3592      753D6670 
 3592      76342D73 
 3592      702D6431 
 3592      36202D67 
 3593 0144 696F6E2D 		.ascii	"ion-constant -fcheck-new -fno-rtti -fno-exceptions "
 3593      636F6E73 
 3593      74616E74 
 3593      202D6663 
 3593      6865636B 
 3594 0177 2D666E6F 		.ascii	"-fno-non-call-exceptions\000"
 3594      2D6E6F6E 
 3594      2D63616C 
 3594      6C2D6578 
ARM GAS  C:\msys64\tmp\ccYRci0V.s 			page 65


 3594      63657074 
 3595              	.LASF12:
 3596 0190 756E7369 		.ascii	"unsigned int\000"
 3596      676E6564 
 3596      20696E74 
 3596      00
 3597              	.LASF88:
 3598 019d 72656164 		.ascii	"readFrac\000"
 3598      46726163 
 3598      00
 3599              	.LASF157:
 3600 01a6 5F474C4F 		.ascii	"_GLOBAL__sub_I_lfo_speed\000"
 3600      42414C5F 
 3600      5F737562 
 3600      5F495F6C 
 3600      666F5F73 
 3601              	.LASF6:
 3602 01bf 5F5F696E 		.ascii	"__int32_t\000"
 3602      7433325F 
 3602      7400
 3603              	.LASF134:
 3604 01c9 6B5F6F73 		.ascii	"k_osc_api_version\000"
 3604      635F6170 
 3604      695F7665 
 3604      7273696F 
 3604      6E00
 3605              	.LASF114:
 3606 01db 706C6174 		.ascii	"platform\000"
 3606      666F726D 
 3606      00
 3607              	.LASF143:
 3608 01e4 735F6C65 		.ascii	"s_len\000"
 3608      6E00
 3609              	.LASF106:
 3610 01ea 73695F66 		.ascii	"si_fabsf\000"
 3610      61627366 
 3610      00
 3611              	.LASF127:
 3612 01f3 74616E70 		.ascii	"tanpi_lut_f\000"
 3612      695F6C75 
 3612      745F6600 
 3613              	.LASF57:
 3614 01ff 7361775F 		.ascii	"saw_bi\000"
 3614      626900
 3615              	.LASF124:
 3616 0206 6B5F6678 		.ascii	"k_fx_api_version\000"
 3616      5F617069 
 3616      5F766572 
 3616      73696F6E 
 3616      00
 3617              	.LASF15:
 3618 0217 75696E74 		.ascii	"uint32_t\000"
 3618      33325F74 
 3618      00
 3619              	.LASF117:
 3620 0220 76616C66 		.ascii	"valf\000"
 3620      00
ARM GAS  C:\msys64\tmp\ccYRci0V.s 			page 66


 3621              	.LASF87:
 3622 0225 5F5A4E33 		.ascii	"_ZN3dsp13DualDelayLine4readEm\000"
 3622      64737031 
 3622      33447561 
 3622      6C44656C 
 3622      61794C69 
 3623              	.LASF44:
 3624 0243 5F5A4E33 		.ascii	"_ZN3dsp9SimpleLFO8sine_uniEv\000"
 3624      64737039 
 3624      53696D70 
 3624      6C654C46 
 3624      4F387369 
 3625              	.LASF141:
 3626 0260 735F6C66 		.ascii	"s_lfo\000"
 3626      6F00
 3627              	.LASF135:
 3628 0266 6D696469 		.ascii	"midi_to_hz_lut_f\000"
 3628      5F746F5F 
 3628      687A5F6C 
 3628      75745F66 
 3628      00
 3629              	.LASF69:
 3630 0277 73717561 		.ascii	"square_bi_off\000"
 3630      72655F62 
 3630      695F6F66 
 3630      6600
 3631              	.LASF0:
 3632 0285 666C6F61 		.ascii	"float\000"
 3632      7400
 3633              	.LASF121:
 3634 028b 696E6465 		.ascii	"index\000"
 3634      7800
 3635              	.LASF26:
 3636 0291 6B5F7573 		.ascii	"k_user_module_delfx\000"
 3636      65725F6D 
 3636      6F64756C 
 3636      655F6465 
 3636      6C667800 
 3637              	.LASF34:
 3638 02a5 5F5A4E33 		.ascii	"_ZN3dsp9SimpleLFO5resetEv\000"
 3638      64737039 
 3638      53696D70 
 3638      6C654C46 
 3638      4F357265 
 3639              	.LASF11:
 3640 02bf 6C6F6E67 		.ascii	"long long unsigned int\000"
 3640      206C6F6E 
 3640      6720756E 
 3640      7369676E 
 3640      65642069 
 3641              	.LASF65:
 3642 02d6 73717561 		.ascii	"square_bi\000"
 3642      72655F62 
 3642      6900
 3643              	.LASF42:
 3644 02e0 5F5A4E33 		.ascii	"_ZN3dsp9SimpleLFO7sine_biEv\000"
 3644      64737039 
ARM GAS  C:\msys64\tmp\ccYRci0V.s 			page 67


 3644      53696D70 
 3644      6C654C46 
 3644      4F377369 
 3645              	.LASF80:
 3646 02fc 636C6561 		.ascii	"clear\000"
 3646      7200
 3647              	.LASF82:
 3648 0302 7365744D 		.ascii	"setMemory\000"
 3648      656D6F72 
 3648      7900
 3649              	.LASF118:
 3650 030c 64656C53 		.ascii	"delSample1\000"
 3650      616D706C 
 3650      653100
 3651              	.LASF119:
 3652 0317 64656C53 		.ascii	"delSample2\000"
 3652      616D706C 
 3652      653200
 3653              	.LASF111:
 3654 0322 5F5F696E 		.ascii	"__initialize_p\000"
 3654      69746961 
 3654      6C697A65 
 3654      5F7000
 3655              	.LASF45:
 3656 0331 73696E65 		.ascii	"sine_bi_off\000"
 3656      5F62695F 
 3656      6F666600 
 3657              	.LASF16:
 3658 033d 73697A65 		.ascii	"size_t\000"
 3658      5F7400
 3659              	.LASF27:
 3660 0344 6B5F7573 		.ascii	"k_user_module_revfx\000"
 3660      65725F6D 
 3660      6F64756C 
 3660      655F7265 
 3660      76667800 
 3661              	.LASF40:
 3662 0358 73696E65 		.ascii	"sine_bi\000"
 3662      5F626900 
 3663              	.LASF112:
 3664 0360 5F5F7072 		.ascii	"__priority\000"
 3664      696F7269 
 3664      747900
 3665              	.LASF85:
 3666 036b 5F5A4E33 		.ascii	"_ZN3dsp13DualDelayLine5writeERK9f32pair_t\000"
 3666      64737031 
 3666      33447561 
 3666      6C44656C 
 3666      61794C69 
 3667              	.LASF59:
 3668 0395 7361775F 		.ascii	"saw_uni\000"
 3668      756E6900 
 3669              	.LASF83:
 3670 039d 5F5A4E33 		.ascii	"_ZN3dsp13DualDelayLine9setMemoryEP9f32pair_tj\000"
 3670      64737031 
 3670      33447561 
 3670      6C44656C 
ARM GAS  C:\msys64\tmp\ccYRci0V.s 			page 68


 3670      61794C69 
 3671              	.LASF41:
 3672 03cb 5F5A4E33 		.ascii	"_ZN3dsp9SimpleLFOC4Ev\000"
 3672      64737039 
 3672      53696D70 
 3672      6C654C46 
 3672      4F433445 
 3673              	.LASF30:
 3674 03e1 70686930 		.ascii	"phi0\000"
 3674      00
 3675              	.LASF63:
 3676 03e6 7361775F 		.ascii	"saw_uni_off\000"
 3676      756E695F 
 3676      6F666600 
 3677              	.LASF96:
 3678 03f2 72656164 		.ascii	"read0Frac\000"
 3678      30467261 
 3678      6300
 3679              	.LASF64:
 3680 03fc 5F5A4E33 		.ascii	"_ZN3dsp9SimpleLFO11saw_uni_offEf\000"
 3680      64737039 
 3680      53696D70 
 3680      6C654C46 
 3680      4F313173 
 3681              	.LASF38:
 3682 041d 5F5A4E33 		.ascii	"_ZN3dsp9SimpleLFO5setW0Ef\000"
 3682      64737039 
 3682      53696D70 
 3682      6C654C46 
 3682      4F357365 
 3683              	.LASF148:
 3684 0437 77657458 		.ascii	"wetXNR\000"
 3684      4E5200
 3685              	.LASF101:
 3686 043e 5F5A4E33 		.ascii	"_ZN3dsp13DualDelayLine9read1FracEf\000"
 3686      64737031 
 3686      33447561 
 3686      6C44656C 
 3686      61794C69 
 3687              	.LASF19:
 3688 0461 63686172 		.ascii	"char\000"
 3688      00
 3689              	.LASF129:
 3690 0466 706F7732 		.ascii	"pow2_lut_f\000"
 3690      5F6C7574 
 3690      5F6600
 3691              	.LASF53:
 3692 0471 74726961 		.ascii	"triangle_bi_off\000"
 3692      6E676C65 
 3692      5F62695F 
 3692      6F666600 
 3693              	.LASF123:
 3694 0481 6B5F6678 		.ascii	"k_fx_api_platform\000"
 3694      5F617069 
 3694      5F706C61 
 3694      74666F72 
 3694      6D00
ARM GAS  C:\msys64\tmp\ccYRci0V.s 			page 69


 3695              	.LASF70:
 3696 0493 5F5A4E33 		.ascii	"_ZN3dsp9SimpleLFO13square_bi_offEf\000"
 3696      64737039 
 3696      53696D70 
 3696      6C654C46 
 3696      4F313373 
 3697              	.LASF155:
 3698 04b6 6275665F 		.ascii	"buf_clr_f32\000"
 3698      636C725F 
 3698      66333200 
 3699              	.LASF102:
 3700 04c2 72656164 		.ascii	"read1Fracz\000"
 3700      31467261 
 3700      637A00
 3701              	.LASF116:
 3702 04cd 6672616D 		.ascii	"frames\000"
 3702      657300
 3703              	.LASF131:
 3704 04d4 73636865 		.ascii	"schetzen_lut_f\000"
 3704      747A656E 
 3704      5F6C7574 
 3704      5F6600
 3705              	.LASF13:
 3706 04e3 75696E74 		.ascii	"uint8_t\000"
 3706      385F7400 
 3707              	.LASF132:
 3708 04eb 62697472 		.ascii	"bitres_lut_f\000"
 3708      65735F6C 
 3708      75745F66 
 3708      00
 3709              	.LASF146:
 3710 04f8 6761696E 		.ascii	"gain\000"
 3710      00
 3711              	.LASF36:
 3712 04fd 5F5A4E33 		.ascii	"_ZN3dsp9SimpleLFO5setF0Eff\000"
 3712      64737039 
 3712      53696D70 
 3712      6C654C46 
 3712      4F357365 
 3713              	.LASF48:
 3714 0518 5F5A4E33 		.ascii	"_ZN3dsp9SimpleLFO12sine_uni_offEf\000"
 3714      64737039 
 3714      53696D70 
 3714      6C654C46 
 3714      4F313273 
 3715              	.LASF94:
 3716 053a 72656164 		.ascii	"read1\000"
 3716      3100
 3717              	.LASF126:
 3718 0540 6C6F675F 		.ascii	"log_lut_f\000"
 3718      6C75745F 
 3718      6600
 3719              	.LASF81:
 3720 054a 5F5A4E33 		.ascii	"_ZN3dsp13DualDelayLine5clearEv\000"
 3720      64737031 
 3720      33447561 
 3720      6C44656C 
ARM GAS  C:\msys64\tmp\ccYRci0V.s 			page 70


 3720      61794C69 
 3721              	.LASF10:
 3722 0569 6C6F6E67 		.ascii	"long long int\000"
 3722      206C6F6E 
 3722      6720696E 
 3722      7400
 3723              	.LASF84:
 3724 0577 77726974 		.ascii	"write\000"
 3724      6500
 3725              	.LASF76:
 3726 057d 6D577269 		.ascii	"mWriteIdx\000"
 3726      74654964 
 3726      7800
 3727              	.LASF75:
 3728 0587 6D4D6173 		.ascii	"mMask\000"
 3728      6B00
 3729              	.LASF93:
 3730 058d 5F5A4E33 		.ascii	"_ZN3dsp13DualDelayLine5read0Em\000"
 3730      64737031 
 3730      33447561 
 3730      6C44656C 
 3730      61794C69 
 3731              	.LASF89:
 3732 05ac 5F5A4E33 		.ascii	"_ZN3dsp13DualDelayLine8readFracEf\000"
 3732      64737031 
 3732      33447561 
 3732      6C44656C 
 3732      61794C69 
 3733              	.LASF72:
 3734 05ce 6D4C696E 		.ascii	"mLine\000"
 3734      6500
 3735              	.LASF147:
 3736 05d4 77657458 		.ascii	"wetXNL\000"
 3736      4E4C00
 3737              	.LASF99:
 3738 05db 5F5A4E33 		.ascii	"_ZN3dsp13DualDelayLine10read0FraczEmf\000"
 3738      64737031 
 3738      33447561 
 3738      6C44656C 
 3738      61794C69 
 3739              	.LASF68:
 3740 0601 5F5A4E33 		.ascii	"_ZN3dsp9SimpleLFO10square_uniEv\000"
 3740      64737039 
 3740      53696D70 
 3740      6C654C46 
 3740      4F313073 
 3741              	.LASF29:
 3742 0621 6B5F6E75 		.ascii	"k_num_user_modules\000"
 3742      6D5F7573 
 3742      65725F6D 
 3742      6F64756C 
 3742      657300
 3743              	.LASF90:
 3744 0634 72656164 		.ascii	"readFracz\000"
 3744      46726163 
 3744      7A00
 3745              	.LASF58:
ARM GAS  C:\msys64\tmp\ccYRci0V.s 			page 71


 3746 063e 5F5A4E33 		.ascii	"_ZN3dsp9SimpleLFO6saw_biEv\000"
 3746      64737039 
 3746      53696D70 
 3746      6C654C46 
 3746      4F367361 
 3747              	.LASF109:
 3748 0659 6C696E65 		.ascii	"line_size\000"
 3748      5F73697A 
 3748      6500
 3749              	.LASF46:
 3750 0663 5F5A4E33 		.ascii	"_ZN3dsp9SimpleLFO11sine_bi_offEf\000"
 3750      64737039 
 3750      53696D70 
 3750      6C654C46 
 3750      4F313173 
 3751              	.LASF92:
 3752 0684 72656164 		.ascii	"read0\000"
 3752      3000
 3753              	.LASF153:
 3754 068a 35663332 		.ascii	"5f32_t\000"
 3754      5F7400
 3755              	.LASF74:
 3756 0691 6D53697A 		.ascii	"mSize\000"
 3756      6500
 3757              	.LASF154:
 3758 0697 39663332 		.ascii	"9f32pair_t\000"
 3758      70616972 
 3758      5F7400
 3759              	.LASF136:
 3760 06a2 77745F73 		.ascii	"wt_saw_lut_f\000"
 3760      61775F6C 
 3760      75745F66 
 3760      00
 3761              	.LASF28:
 3762 06af 6B5F7573 		.ascii	"k_user_module_osc\000"
 3762      65725F6D 
 3762      6F64756C 
 3762      655F6F73 
 3762      6300
 3763              	.LASF17:
 3764 06c1 6C6F6E67 		.ascii	"long double\000"
 3764      20646F75 
 3764      626C6500 
 3765              	.LASF105:
 3766 06cd 74686973 		.ascii	"this\000"
 3766      00
 3767              	.LASF97:
 3768 06d2 5F5A4E33 		.ascii	"_ZN3dsp13DualDelayLine9read0FracEf\000"
 3768      64737031 
 3768      33447561 
 3768      6C44656C 
 3768      61794C69 
 3769              	.LASF156:
 3770 06f5 5F5F7374 		.ascii	"__static_initialization_and_destruction_0\000"
 3770      61746963 
 3770      5F696E69 
 3770      7469616C 
ARM GAS  C:\msys64\tmp\ccYRci0V.s 			page 72


 3770      697A6174 
 3771              	.LASF49:
 3772 071f 74726961 		.ascii	"triangle_bi\000"
 3772      6E676C65 
 3772      5F626900 
 3773              	.LASF115:
 3774 072b 5F686F6F 		.ascii	"_hook_process\000"
 3774      6B5F7072 
 3774      6F636573 
 3774      7300
 3775              	.LASF56:
 3776 0739 5F5A4E33 		.ascii	"_ZN3dsp9SimpleLFO16triangle_uni_offEf\000"
 3776      64737039 
 3776      53696D70 
 3776      6C654C46 
 3776      4F313674 
 3777              	.LASF113:
 3778 075f 5F686F6F 		.ascii	"_hook_init\000"
 3778      6B5F696E 
 3778      697400
 3779              	.LASF3:
 3780 076a 73686F72 		.ascii	"short int\000"
 3780      7420696E 
 3780      7400
 3781              	.LASF128:
 3782 0774 73717274 		.ascii	"sqrtm2log_lut_f\000"
 3782      6D326C6F 
 3782      675F6C75 
 3782      745F6600 
 3783              	.LASF130:
 3784 0784 63756269 		.ascii	"cubicsat_lut_f\000"
 3784      63736174 
 3784      5F6C7574 
 3784      5F6600
 3785              	.LASF137:
 3786 0793 77745F73 		.ascii	"wt_sqr_lut_f\000"
 3786      71725F6C 
 3786      75745F66 
 3786      00
 3787              	.LASF7:
 3788 07a0 6C6F6E67 		.ascii	"long int\000"
 3788      20696E74 
 3788      00
 3789              	.LASF35:
 3790 07a9 73657446 		.ascii	"setF0\000"
 3790      3000
 3791              	.LASF91:
 3792 07af 5F5A4E33 		.ascii	"_ZN3dsp13DualDelayLine9readFraczEmf\000"
 3792      64737031 
 3792      33447561 
 3792      6C44656C 
 3792      61794C69 
 3793              	.LASF33:
 3794 07d3 5F5A4E33 		.ascii	"_ZN3dsp9SimpleLFO5cycleEv\000"
 3794      64737039 
 3794      53696D70 
 3794      6C654C46 
ARM GAS  C:\msys64\tmp\ccYRci0V.s 			page 73


 3794      4F356379 
 3795              	.LASF77:
 3796 07ed 4475616C 		.ascii	"DualDelayLine\000"
 3796      44656C61 
 3796      794C696E 
 3796      6500
 3797              	.LASF25:
 3798 07fb 6B5F7573 		.ascii	"k_user_module_modfx\000"
 3798      65725F6D 
 3798      6F64756C 
 3798      655F6D6F 
 3798      64667800 
 3799              	.LASF31:
 3800 080f 6379636C 		.ascii	"cycle\000"
 3800      6500
 3801              	.LASF43:
 3802 0815 73696E65 		.ascii	"sine_uni\000"
 3802      5F756E69 
 3802      00
 3803              	.LASF54:
 3804 081e 5F5A4E33 		.ascii	"_ZN3dsp9SimpleLFO15triangle_bi_offEf\000"
 3804      64737039 
 3804      53696D70 
 3804      6C654C46 
 3804      4F313574 
 3805              	.LASF110:
 3806 0843 70686966 		.ascii	"phif\000"
 3806      00
 3807              	.LASF32:
 3808 0848 72657365 		.ascii	"reset\000"
 3808      7400
 3809              	.LASF5:
 3810 084e 5F5F7569 		.ascii	"__uint8_t\000"
 3810      6E74385F 
 3810      7400
 3811              	.LASF86:
 3812 0858 72656164 		.ascii	"read\000"
 3812      00
 3813              	.LASF78:
 3814 085d 5F5A4E33 		.ascii	"_ZN3dsp13DualDelayLineC4Ev\000"
 3814      64737031 
 3814      33447561 
 3814      6C44656C 
 3814      61794C69 
 3815              	.LASF47:
 3816 0878 73696E65 		.ascii	"sine_uni_off\000"
 3816      5F756E69 
 3816      5F6F6666 
 3816      00
 3817              	.LASF23:
 3818 0885 7133315F 		.ascii	"q31_t\000"
 3818      7400
 3819              	.LASF18:
 3820 088b 73697A65 		.ascii	"sizetype\000"
 3820      74797065 
 3820      00
 3821              	.LASF9:
ARM GAS  C:\msys64\tmp\ccYRci0V.s 			page 74


 3822 0894 6C6F6E67 		.ascii	"long unsigned int\000"
 3822      20756E73 
 3822      69676E65 
 3822      6420696E 
 3822      7400
 3823              	.LASF98:
 3824 08a6 72656164 		.ascii	"read0Fracz\000"
 3824      30467261 
 3824      637A00
 3825              	.LASF125:
 3826 08b1 77745F73 		.ascii	"wt_sine_lut_f\000"
 3826      696E655F 
 3826      6C75745F 
 3826      6600
 3827              	.LASF37:
 3828 08bf 73657457 		.ascii	"setW0\000"
 3828      3000
 3829              	.LASF14:
 3830 08c5 696E7433 		.ascii	"int32_t\000"
 3830      325F7400 
 3831              	.LASF71:
 3832 08cd 73717561 		.ascii	"square_uni_off\000"
 3832      72655F75 
 3832      6E695F6F 
 3832      666600
 3833              	.LASF158:
 3834 08dc 5F66785F 		.ascii	"_fx_get_bpm\000"
 3834      6765745F 
 3834      62706D00 
 3835              	.LASF145:
 3836 08e8 735F6D69 		.ascii	"s_mix\000"
 3836      7800
 3837              	.LASF144:
 3838 08ee 7472656D 		.ascii	"trem_rate\000"
 3838      5F726174 
 3838      6500
 3839              	.LASF104:
 3840 08f8 5F5A4E33 		.ascii	"_ZN3dsp13DualDelayLine10read1FraczEmf\000"
 3840      64737031 
 3840      33447561 
 3840      6C44656C 
 3840      61794C69 
 3841              	.LASF108:
 3842 091e 66737265 		.ascii	"fsrecip\000"
 3842      63697000 
 3843              	.LASF142:
 3844 0926 6C666F5F 		.ascii	"lfo_speed\000"
 3844      73706565 
 3844      6400
 3845              	.LASF2:
 3846 0930 756E7369 		.ascii	"unsigned char\000"
 3846      676E6564 
 3846      20636861 
 3846      7200
 3847              	.LASF8:
 3848 093e 5F5F7569 		.ascii	"__uint32_t\000"
 3848      6E743332 
ARM GAS  C:\msys64\tmp\ccYRci0V.s 			page 75


 3848      5F7400
 3849              	.LASF55:
 3850 0949 74726961 		.ascii	"triangle_uni_off\000"
 3850      6E676C65 
 3850      5F756E69 
 3850      5F6F6666 
 3850      00
 3851              	.LASF107:
 3852 095a 6E657874 		.ascii	"nextpow2_u32\000"
 3852      706F7732 
 3852      5F753332 
 3852      00
 3853              	.LASF24:
 3854 0967 6B5F7573 		.ascii	"k_user_module_global\000"
 3854      65725F6D 
 3854      6F64756C 
 3854      655F676C 
 3854      6F62616C 
 3855              	.LASF139:
 3856 097c 735F6465 		.ascii	"s_delay\000"
 3856      6C617900 
 3857              	.LASF152:
 3858 0984 6465636C 		.ascii	"decltype(nullptr)\000"
 3858      74797065 
 3858      286E756C 
 3858      6C707472 
 3858      2900
 3859              	.LASF66:
 3860 0996 73717561 		.ascii	"square_uni\000"
 3860      72655F75 
 3860      6E6900
 3861              	.LASF103:
 3862 09a1 5F5A4E33 		.ascii	"_ZN3dsp9SimpleLFO14square_uni_offEf\000"
 3862      64737039 
 3862      53696D70 
 3862      6C654C46 
 3862      4F313473 
 3863              	.LASF22:
 3864 09c5 66333270 		.ascii	"f32pair_t\000"
 3864      6169725F 
 3864      7400
 3865              	.LASF61:
 3866 09cf 7361775F 		.ascii	"saw_bi_off\000"
 3866      62695F6F 
 3866      666600
 3867              	.LASF1:
 3868 09da 7369676E 		.ascii	"signed char\000"
 3868      65642063 
 3868      68617200 
 3869              	.LASF95:
 3870 09e6 5F5A4E33 		.ascii	"_ZN3dsp13DualDelayLine5read1Em\000"
 3870      64737031 
 3870      33447561 
 3870      6C44656C 
 3870      61794C69 
 3871              	.LASF79:
 3872 0a05 5F5A4E33 		.ascii	"_ZN3dsp13DualDelayLineC4EP9f32pair_tj\000"
ARM GAS  C:\msys64\tmp\ccYRci0V.s 			page 76


 3872      64737031 
 3872      33447561 
 3872      6C44656C 
 3872      61794C69 
 3873              	.LASF4:
 3874 0a2b 73686F72 		.ascii	"short unsigned int\000"
 3874      7420756E 
 3874      7369676E 
 3874      65642069 
 3874      6E7400
 3875              	.LASF151:
 3876 0a3e 433A5C75 		.ascii	"C:\\users\\bradl\\desktop\\Code Projects\\KorgFX\\K"
 3876      73657273 
 3876      5C627261 
 3876      646C5C64 
 3876      65736B74 
 3877 0a6b 6F726744 		.ascii	"orgDelayFXSet\\Delays\\platform\\minilogue-xd\\Chor"
 3877      656C6179 
 3877      46585365 
 3877      745C4465 
 3877      6C617973 
 3878 0a9a 757300   		.ascii	"us\000"
 3879              	.LASF67:
 3880 0a9d 5F5A4E33 		.ascii	"_ZN3dsp9SimpleLFO9square_biEv\000"
 3880      64737039 
 3880      53696D70 
 3880      6C654C46 
 3880      4F397371 
 3881              	.LASF73:
 3882 0abb 6D467261 		.ascii	"mFracZ\000"
 3882      635A00
 3883              	.LASF20:
 3884 0ac2 646F7562 		.ascii	"double\000"
 3884      6C6500
 3885              	.LASF62:
 3886 0ac9 5F5A4E33 		.ascii	"_ZN3dsp9SimpleLFO10saw_bi_offEf\000"
 3886      64737039 
 3886      53696D70 
 3886      6C654C46 
 3886      4F313073 
 3887              	.LASF150:
 3888 0ae9 2E2F7372 		.ascii	"./src/chorus.cpp\000"
 3888      632F6368 
 3888      6F727573 
 3888      2E637070 
 3888      00
 3889              	.LASF51:
 3890 0afa 74726961 		.ascii	"triangle_uni\000"
 3890      6E676C65 
 3890      5F756E69 
 3890      00
 3891              	.LASF122:
 3892 0b07 76616C75 		.ascii	"value\000"
 3892      6500
 3893              	.LASF60:
 3894 0b0d 5F5A4E33 		.ascii	"_ZN3dsp9SimpleLFO7saw_uniEv\000"
 3894      64737039 
ARM GAS  C:\msys64\tmp\ccYRci0V.s 			page 77


 3894      53696D70 
 3894      6C654C46 
 3894      4F377361 
 3895              	.LASF39:
 3896 0b29 53696D70 		.ascii	"SimpleLFO\000"
 3896      6C654C46 
 3896      4F00
 3897              	.LASF133:
 3898 0b33 6B5F6F73 		.ascii	"k_osc_api_platform\000"
 3898      635F6170 
 3898      695F706C 
 3898      6174666F 
 3898      726D00
 3899              		.ident	"GCC: (GNU Tools for ARM Embedded Processors) 5.4.1 20160919 (release) [ARM/embedded-5-bran
ARM GAS  C:\msys64\tmp\ccYRci0V.s 			page 78


DEFINED SYMBOLS
                            *ABS*:00000000 chorus.cpp
C:\msys64\tmp\ccYRci0V.s:21     .text:00000000 $t
C:\msys64\tmp\ccYRci0V.s:26     .text:00000000 _hook_init
C:\msys64\tmp\ccYRci0V.s:133    .text:00000070 $d
C:\msys64\tmp\ccYRci0V.s:143    .text:00000084 $t
C:\msys64\tmp\ccYRci0V.s:148    .text:00000084 _hook_process
C:\msys64\tmp\ccYRci0V.s:371    .text:00000168 $d
C:\msys64\tmp\ccYRci0V.s:377    .text:00000170 $t
C:\msys64\tmp\ccYRci0V.s:382    .text:00000170 _hook_param
C:\msys64\tmp\ccYRci0V.s:514    .text:00000240 $d
C:\msys64\tmp\ccYRci0V.s:522    .text.startup:00000000 $t
C:\msys64\tmp\ccYRci0V.s:526    .text.startup:00000000 _GLOBAL__sub_I_lfo_speed
C:\msys64\tmp\ccYRci0V.s:568    .text.startup:00000018 $d
C:\msys64\tmp\ccYRci0V.s:576    .init_array:00000000 $d
C:\msys64\tmp\ccYRci0V.s:608    .bss:00000020 bpm
C:\msys64\tmp\ccYRci0V.s:628    .bss:00000034 wetXNR
C:\msys64\tmp\ccYRci0V.s:624    .bss:00000030 wetXNL
C:\msys64\tmp\ccYRci0V.s:593    .data:00000004 trem_rate
C:\msys64\tmp\ccYRci0V.s:612    .bss:00000024 s_len
C:\msys64\tmp\ccYRci0V.s:589    .data:00000000 lfo_speed
C:\msys64\tmp\ccYRci0V.s:585    .data:00000000 $d
C:\msys64\tmp\ccYRci0V.s:596    .bss:00000000 $d
C:\msys64\tmp\ccYRci0V.s:600    .bss:00000000 _ZL7s_delay
C:\msys64\tmp\ccYRci0V.s:604    .bss:00000018 _ZL5s_lfo
C:\msys64\tmp\ccYRci0V.s:616    .bss:00000028 _ZL5s_mix
C:\msys64\tmp\ccYRci0V.s:620    .bss:0000002c _ZL4gain
C:\msys64\tmp\ccYRci0V.s:631    .sdram:00000000 $d
C:\msys64\tmp\ccYRci0V.s:635    .sdram:00000000 _ZL11s_delay_ram
                     .debug_frame:00000010 $d

UNDEFINED SYMBOLS
_fx_get_bpm
