ARM GAS  C:\msys64\tmp\ccLgZ92a.s 			page 1


   1              		.syntax unified
   2              		.cpu cortex-m4
   3              		.eabi_attribute 27, 1
   4              		.eabi_attribute 28, 1
   5              		.fpu fpv4-sp-d16
   6              		.eabi_attribute 20, 1
   7              		.eabi_attribute 21, 1
   8              		.eabi_attribute 23, 3
   9              		.eabi_attribute 24, 1
  10              		.eabi_attribute 25, 1
  11              		.eabi_attribute 26, 1
  12              		.eabi_attribute 30, 4
  13              		.eabi_attribute 34, 1
  14              		.eabi_attribute 18, 4
  15              		.thumb
  16              		.syntax unified
  17              		.file	"chorus.cpp"
  18              		.text
  19              	.Ltext0:
  20              		.cfi_sections	.debug_frame
  21              		.align	1
  22              		.global	_hook_init
  23              		.thumb
  24              		.thumb_func
  25              		.type	_hook_init, %function
  26              	_hook_init:
  27              	.LFB316:
  28              		.file 1 "./src/chorus.cpp"
  29              		.loc 1 33 0
  30              		.cfi_startproc
  31              		@ args = 0, pretend = 0, frame = 0
  32              		@ frame_needed = 0, uses_anonymous_args = 0
  33              		@ link register save eliminated.
  34              	.LVL0:
  35              	.LBB78:
  36              	.LBB79:
  37              		.file 2 "../inc/dsp/delayline.hpp"
  38              		.loc 2 243 0
  39 0000 154A     		ldr	r2, .L5
  40 0002 164B     		ldr	r3, .L5+4
  41 0004 1360     		str	r3, [r2]
  42              		.loc 2 244 0
  43 0006 4FF48021 		mov	r1, #262144
  44              	.LVL1:
  45 000a D160     		str	r1, [r2, #12]
  46              		.loc 2 245 0
  47 000c 0139     		subs	r1, r1, #1
  48 000e 1161     		str	r1, [r2, #16]
  49 0010 1033     		adds	r3, r3, #16
  50              		.loc 2 246 0
  51 0012 0021     		movs	r1, #0
  52 0014 5161     		str	r1, [r2, #20]
  53              	.LVL2:
  54 0016 03F50010 		add	r0, r3, #2097152
  55              	.LVL3:
  56              	.LBE79:
  57              	.LBE78:
ARM GAS  C:\msys64\tmp\ccLgZ92a.s 			page 2


  58              	.LBB80:
  59              	.LBB81:
  60              	.LBB82:
  61              		.file 3 "../inc/utils/buffer_ops.h"
  62              		.loc 3 109 0
  63 001a 0021     		movs	r1, #0
  64              	.LVL4:
  65              	.L2:
  66 001c 43F8101C 		str	r1, [r3, #-16]	@ float
  67              	.LVL5:
  68 0020 43F80C1C 		str	r1, [r3, #-12]	@ float
  69              	.LVL6:
  70 0024 43F8081C 		str	r1, [r3, #-8]	@ float
  71              	.LVL7:
  72 0028 43F8041C 		str	r1, [r3, #-4]	@ float
  73 002c 1033     		adds	r3, r3, #16
  74              	.LVL8:
  75              		.loc 3 108 0
  76 002e 9842     		cmp	r0, r3
  77 0030 F4D1     		bne	.L2
  78              	.LVL9:
  79              	.LBE82:
  80              	.LBE81:
  81              	.LBE80:
  82              	.LBB83:
  83              	.LBB84:
  84              		.file 4 "../inc/dsp/simplelfo.hpp"
  85              		.loc 4 91 0
  86 0032 4FF00043 		mov	r3, #-2147483648
  87 0036 9361     		str	r3, [r2, #24]
  88              	.LVL10:
  89              	.LBE84:
  90              	.LBE83:
  91              		.loc 1 37 0
  92 0038 4FF07C53 		mov	r3, #1056964608
  93 003c 1362     		str	r3, [r2, #32]	@ float
  94              	.LVL11:
  95              		.loc 1 38 0
  96 003e 084B     		ldr	r3, .L5+8
  97              	.LBB85:
  98              	.LBB86:
  99              		.loc 4 103 0
 100 0040 9FED087A 		vldr.32	s14, .L5+12
 101 0044 D3ED007A 		vldr.32	s15, [r3]
 102 0048 67EE877A 		vmul.f32	s15, s15, s14
 103 004c FEEEC07A 		vcvt.s32.f32	s15, s15, #32
 104 0050 C2ED077A 		vstr.32	s15, [r2, #28]	@ int
 105              	.LVL12:
 106 0054 7047     		bx	lr
 107              	.L6:
 108 0056 00BF     		.align	2
 109              	.L5:
 110 0058 00000000 		.word	.LANCHOR0
 111 005c 00000000 		.word	.LANCHOR1
 112 0060 00000000 		.word	.LANCHOR2
 113 0064 3EC3AE37 		.word	934200126
 114              	.LBE86:
ARM GAS  C:\msys64\tmp\ccLgZ92a.s 			page 3


 115              	.LBE85:
 116              		.cfi_endproc
 117              	.LFE316:
 118              		.size	_hook_init, .-_hook_init
 119              		.align	1
 120              		.global	_hook_process
 121              		.thumb
 122              		.thumb_func
 123              		.type	_hook_process, %function
 124              	_hook_process:
 125              	.LFB317:
 126              		.loc 1 42 0
 127              		.cfi_startproc
 128              		@ args = 0, pretend = 0, frame = 0
 129              		@ frame_needed = 0, uses_anonymous_args = 0
 130              	.LVL13:
 131 0068 2DE9F04F 		push	{r4, r5, r6, r7, r8, r9, r10, fp, lr}
 132              		.cfi_def_cfa_offset 36
 133              		.cfi_offset 4, -36
 134              		.cfi_offset 5, -32
 135              		.cfi_offset 6, -28
 136              		.cfi_offset 7, -24
 137              		.cfi_offset 8, -20
 138              		.cfi_offset 9, -16
 139              		.cfi_offset 10, -12
 140              		.cfi_offset 11, -8
 141              		.cfi_offset 14, -4
 142              		.loc 1 46 0
 143 006c 804B     		ldr	r3, .L11
 144              	.LBB87:
 145              	.LBB88:
 146              	.LBB89:
 147              	.LBB90:
 148              		.loc 4 125 0
 149 006e 9FED812A 		vldr.32	s4, .L11+4
 150 0072 D3F81890 		ldr	r9, [r3, #24]
 151 0076 D3F814E0 		ldr	lr, [r3, #20]
 152              	.LBE90:
 153              	.LBE89:
 154              	.LBE88:
 155              	.LBE87:
 156              		.loc 1 46 0
 157 007a 93ED084A 		vldr.32	s8, [r3, #32]
 158              	.LBB167:
 159              	.LBB163:
 160              	.LBB96:
 161              	.LBB97:
 162              	.LBB98:
 163              	.LBB99:
 164              		.loc 2 309 0
 165 007e 1E68     		ldr	r6, [r3]
 166 0080 1F69     		ldr	r7, [r3, #16]
 167              	.LBE99:
 168              	.LBE98:
 169              	.LBE97:
 170              	.LBE96:
 171              	.LBB110:
ARM GAS  C:\msys64\tmp\ccLgZ92a.s 			page 4


 172              	.LBB111:
 173              		.loc 4 82 0
 174 0082 D3F81CC0 		ldr	ip, [r3, #28]
 175              	.LBE111:
 176              	.LBE110:
 177              		.loc 1 53 0
 178 0086 DFED7C3A 		vldr.32	s7, .L11+8
 179 008a DFED7C2A 		vldr.32	s5, .L11+12
 180              		.loc 1 54 0
 181 008e 9FED7C3A 		vldr.32	s6, .L11+16
 182              		.loc 1 65 0
 183 0092 DFED7C4A 		vldr.32	s9, .L11+20
 184 0096 9FED7C5A 		vldr.32	s10, .L11+24
 185 009a DFED7C5A 		vldr.32	s11, .L11+28
 186 009e 9FED7C6A 		vldr.32	s12, .L11+32
 187              	.LBE163:
 188              	.LBE167:
 189              		.loc 1 42 0
 190 00a2 2DED048B 		vpush.64	{d8, d9}
 191              		.cfi_def_cfa_offset 52
 192              		.cfi_offset 80, -52
 193              		.cfi_offset 81, -48
 194              		.cfi_offset 82, -44
 195              		.cfi_offset 83, -40
 196              		.loc 1 44 0
 197 00a6 C900     		lsls	r1, r1, #3
 198              	.LVL14:
 199 00a8 00EB010A 		add	r10, r0, r1
 200              	.LVL15:
 201 00ac C846     		mov	r8, r9
 202              	.LBB168:
 203              	.LBB164:
 204              	.LBB113:
 205              	.LBB112:
 206              		.loc 4 82 0
 207 00ae 7446     		mov	r4, lr
 208              	.LVL16:
 209              	.L9:
 210              	.LBE112:
 211              	.LBE113:
 212              	.LBE164:
 213              		.loc 1 49 0 discriminator 2
 214 00b0 8245     		cmp	r10, r0
 215 00b2 07EE908A 		vmov	s15, r8	@ int
 216 00b6 00F10805 		add	r5, r0, #8
 217 00ba E044     		add	r8, r8, ip
 218 00bc 00F0CB80 		beq	.L8
 219              	.LVL17:
 220              	.LBB165:
 221              	.LBB114:
 222              	.LBB93:
 223              		.loc 4 125 0
 224 00c0 F8EEE77A 		vcvt.f32.s32	s15, s15
 225              		.loc 4 126 0
 226 00c4 B7EE001A 		vmov.f32	s2, #1.0e+0
 227              		.loc 4 125 0
 228 00c8 27EE827A 		vmul.f32	s14, s15, s4
ARM GAS  C:\msys64\tmp\ccLgZ92a.s 			page 5


 229              	.LVL18:
 230              	.LBE93:
 231              	.LBE114:
 232              		.loc 1 53 0
 233 00cc F0EE626A 		vmov.f32	s13, s5
 234              	.LBB115:
 235              	.LBB94:
 236              	.LBB91:
 237              	.LBB92:
 238              		.file 5 "../inc/utils/float_math.h"
 239              		.loc 5 287 0
 240 00d0 17EE102A 		vmov	r2, s14	@ int
 241 00d4 22F00042 		bic	r2, r2, #-2147483648
 242 00d8 07EE902A 		vmov	s15, r2	@ int
 243              	.LBE92:
 244              	.LBE91:
 245              		.loc 4 126 0
 246 00dc 77EEC17A 		vsub.f32	s15, s15, s2
 247              	.LBE94:
 248              	.LBE115:
 249              		.loc 1 54 0
 250 00e0 F0EE431A 		vmov.f32	s3, s6
 251              	.LBB116:
 252              	.LBB95:
 253              		.loc 4 126 0
 254 00e4 67EE877A 		vmul.f32	s15, s15, s14
 255 00e8 B1EE007A 		vmov.f32	s14, #4.0e+0
 256              	.LVL19:
 257 00ec 67EE877A 		vmul.f32	s15, s15, s14
 258              	.LVL20:
 259              	.LBE95:
 260              	.LBE116:
 261              		.loc 1 53 0
 262 00f0 93ED090A 		vldr.32	s0, [r3, #36]
 263 00f4 E7EEA36A 		vfma.f32	s13, s15, s7
 264              	.LVL21:
 265              		.loc 1 54 0
 266 00f8 E7EEA31A 		vfma.f32	s3, s15, s7
 267              	.LBB117:
 268              	.LBB106:
 269              		.loc 2 331 0
 270 00fc BCEEE67A 		vcvt.u32.f32	s14, s13
 271              	.LBE106:
 272              	.LBE117:
 273              	.LBB118:
 274              	.LBB119:
 275              		.loc 2 361 0
 276 0100 FCEEE17A 		vcvt.u32.f32	s15, s3
 277              	.LBE119:
 278              	.LBE118:
 279              	.LBB133:
 280              	.LBB107:
 281              		.loc 2 331 0
 282 0104 17EE102A 		vmov	r2, s14	@ int
 283              	.LVL22:
 284              	.LBB101:
 285              	.LBB100:
ARM GAS  C:\msys64\tmp\ccLgZ92a.s 			page 6


 286              		.loc 2 309 0
 287 0108 1019     		adds	r0, r2, r4
 288              	.LVL23:
 289 010a 3840     		ands	r0, r0, r7
 290 010c 06EBC000 		add	r0, r6, r0, lsl #3
 291 0110 90ED007A 		vldr.32	s14, [r0]
 292              	.LVL24:
 293              	.LBE100:
 294              	.LBE101:
 295              	.LBE107:
 296              	.LBE133:
 297              	.LBB134:
 298              	.LBB130:
 299              		.loc 2 361 0
 300 0114 17EE900A 		vmov	r0, s15	@ int
 301              	.LVL25:
 302              	.LBB120:
 303              	.LBB121:
 304              		.loc 2 320 0
 305 0118 00EB040B 		add	fp, r0, r4
 306              	.LBE121:
 307              	.LBE120:
 308              	.LBE130:
 309              	.LBE134:
 310              		.loc 1 54 0
 311 011c 00EE900A 		vmov	s1, r0	@ int
 312              	.LBB135:
 313              	.LBB131:
 314              	.LBB124:
 315              	.LBB125:
 316              		.loc 2 320 0
 317 0120 0130     		adds	r0, r0, #1
 318              	.LVL26:
 319 0122 2044     		add	r0, r0, r4
 320              	.LBE125:
 321              	.LBE124:
 322              	.LBE131:
 323              	.LBE135:
 324              		.loc 1 54 0
 325 0124 F8EEE00A 		vcvt.f32.s32	s1, s1
 326              	.LVL27:
 327              	.LBB136:
 328              	.LBB132:
 329              	.LBB127:
 330              	.LBB122:
 331              		.loc 2 320 0
 332 0128 0BEA070B 		and	fp, fp, r7
 333              	.LBE122:
 334              	.LBE127:
 335              	.LBB128:
 336              	.LBB126:
 337 012c 3840     		ands	r0, r0, r7
 338 012e 06EBC000 		add	r0, r6, r0, lsl #3
 339              	.LBE126:
 340              	.LBE128:
 341              	.LBB129:
 342              	.LBB123:
ARM GAS  C:\msys64\tmp\ccLgZ92a.s 			page 7


 343 0132 06EBCB0B 		add	fp, r6, fp, lsl #3
 344 0136 DBED017A 		vldr.32	s15, [fp, #4]
 345              	.LVL28:
 346              	.LBE123:
 347              	.LBE129:
 348              	.LBE132:
 349              	.LBE136:
 350              		.loc 1 54 0
 351 013a 71EEE01A 		vsub.f32	s3, s3, s1
 352 013e D0ED010A 		vldr.32	s1, [r0, #4]
 353 0142 70EEE70A 		vsub.f32	s1, s1, s15
 354              	.LBB137:
 355              	.LBB138:
 356              		.loc 1 26 0
 357 0146 B7EE088A 		vmov.f32	s16, #1.5e+0
 358              	.LBE138:
 359              	.LBE137:
 360              		.loc 1 54 0
 361 014a E1EEA07A 		vfma.f32	s15, s3, s1
 362              	.LBE165:
 363              		.loc 1 49 0
 364 014e 2846     		mov	r0, r5
 365              	.LBB166:
 366              		.loc 1 58 0
 367 0150 01EE902A 		vmov	s3, r2	@ int
 368              	.LBB144:
 369              	.LBB108:
 370              	.LBB102:
 371              	.LBB103:
 372              		.loc 2 309 0
 373 0154 0132     		adds	r2, r2, #1
 374              	.LVL29:
 375 0156 2244     		add	r2, r2, r4
 376              	.LBE103:
 377              	.LBE102:
 378              	.LBE108:
 379              	.LBE144:
 380              		.loc 1 58 0
 381 0158 F8EEE11A 		vcvt.f32.s32	s3, s3
 382              	.LVL30:
 383              	.LBB145:
 384              	.LBB109:
 385              	.LBB105:
 386              	.LBB104:
 387              		.loc 2 309 0
 388 015c 3A40     		ands	r2, r2, r7
 389 015e 06EBC202 		add	r2, r6, r2, lsl #3
 390              	.LBE104:
 391              	.LBE105:
 392              	.LBE109:
 393              	.LBE145:
 394              		.loc 1 58 0
 395 0162 76EEE16A 		vsub.f32	s13, s13, s3
 396              	.LVL31:
 397 0166 D2ED001A 		vldr.32	s3, [r2]
 398 016a 71EEC71A 		vsub.f32	s3, s3, s14
 399              		.loc 1 54 0
ARM GAS  C:\msys64\tmp\ccLgZ92a.s 			page 8


 400 016e 67EE807A 		vmul.f32	s15, s15, s0
 401              	.LVL32:
 402              		.loc 1 58 0
 403 0172 A6EEA17A 		vfma.f32	s14, s13, s3
 404              	.LBB146:
 405              	.LBB147:
 406              		.loc 2 256 0
 407 0176 07EA0402 		and	r2, r7, r4
 408 017a 06EBC202 		add	r2, r6, r2, lsl #3
 409              	.LBE147:
 410              	.LBE146:
 411              		.loc 1 59 0
 412 017e 64EE277A 		vmul.f32	s15, s8, s15
 413              	.LVL33:
 414              		.loc 1 58 0
 415 0182 27EE007A 		vmul.f32	s14, s14, s0
 416              		.loc 1 59 0
 417 0186 C3ED0B7A 		vstr.32	s15, [r3, #44]
 418              		.loc 1 58 0
 419 018a 27EE047A 		vmul.f32	s14, s14, s8
 420              	.LBB151:
 421              	.LBB139:
 422              		.loc 1 26 0
 423 018e F6EE006A 		vmov.f32	s13, #5.0e-1
 424              	.LBE139:
 425              	.LBE151:
 426              		.loc 1 58 0
 427 0192 83ED0A7A 		vstr.32	s14, [r3, #40]
 428              		.loc 1 61 0
 429 0196 55ED027A 		vldr.32	s15, [r5, #-8]
 430              	.LVL34:
 431              		.loc 1 65 0
 432 019a 9FED3E0A 		vldr.32	s0, .L11+36
 433              	.LBB152:
 434              	.LBB148:
 435              		.loc 2 256 0
 436 019e C2ED007A 		vstr.32	s15, [r2]
 437 01a2 77EE817A 		vadd.f32	s15, s15, s2
 438              	.LVL35:
 439              	.LBE148:
 440              	.LBE152:
 441              		.loc 1 65 0
 442 01a6 F0EE651A 		vmov.f32	s3, s11
 443              	.LBB153:
 444              	.LBB149:
 445              		.loc 2 256 0
 446 01aa C2ED017A 		vstr.32	s15, [r2, #4]
 447              	.LVL36:
 448              	.LBE149:
 449              	.LBE153:
 450              	.LBB154:
 451              	.LBB140:
 452              		.loc 1 26 0
 453 01ae 67EE077A 		vmul.f32	s15, s14, s14
 454              	.LVL37:
 455              	.LBE140:
 456              	.LBE154:
ARM GAS  C:\msys64\tmp\ccLgZ92a.s 			page 9


 457              		.loc 1 65 0
 458 01b2 9FED391A 		vldr.32	s2, .L11+40
 459              	.LBB155:
 460              	.LBB141:
 461              		.loc 1 26 0
 462 01b6 67EE877A 		vmul.f32	s15, s15, s14
 463              	.LBE141:
 464              	.LBE155:
 465              		.loc 1 65 0
 466 01ba F0EE468A 		vmov.f32	s17, s12
 467              	.LBB156:
 468              	.LBB142:
 469              		.loc 1 26 0
 470 01be 66EEE77A 		vnmul.f32	s15, s13, s15
 471              	.LBE142:
 472              	.LBE156:
 473              	.LBB157:
 474              	.LBB150:
 475              		.loc 2 256 0
 476 01c2 013C     		subs	r4, r4, #1
 477              	.LBE150:
 478              	.LBE157:
 479              	.LBB158:
 480              	.LBB143:
 481              		.loc 1 26 0
 482 01c4 E7EE087A 		vfma.f32	s15, s14, s16
 483              	.LVL38:
 484              	.LBE143:
 485              	.LBE158:
 486              		.loc 1 65 0
 487 01c8 B0EE457A 		vmov.f32	s14, s10
 488 01cc A7EEA47A 		vfma.f32	s14, s15, s9
 489 01d0 E7EE271A 		vfma.f32	s3, s14, s15
 490 01d4 B0EE417A 		vmov.f32	s14, s2
 491 01d8 A7EE807A 		vfma.f32	s14, s15, s0
 492 01dc E1EEA78A 		vfma.f32	s17, s3, s15
 493 01e0 DFED2E1A 		vldr.32	s3, .L11+44
 494 01e4 F0EE610A 		vmov.f32	s1, s3
 495 01e8 E7EE270A 		vfma.f32	s1, s14, s15
 496 01ec 9FED2C7A 		vldr.32	s14, .L11+48
 497 01f0 B0EE479A 		vmov.f32	s18, s14
 498 01f4 A0EEA79A 		vfma.f32	s18, s1, s15
 499 01f8 55ED027A 		vldr.32	s15, [r5, #-8]
 500 01fc C8EE890A 		vdiv.f32	s1, s17, s18
 501 0200 77EEA07A 		vadd.f32	s15, s15, s1
 502 0204 45ED027A 		vstr.32	s15, [r5, #-8]
 503              	.LVL39:
 504              		.loc 1 66 0
 505 0208 D3ED0B0A 		vldr.32	s1, [r3, #44]
 506              	.LVL40:
 507              	.LBB159:
 508              	.LBB160:
 509              		.loc 1 26 0
 510 020c 60EEA07A 		vmul.f32	s15, s1, s1
 511 0210 67EEA07A 		vmul.f32	s15, s15, s1
 512 0214 66EEE77A 		vnmul.f32	s15, s13, s15
 513              	.LBE160:
ARM GAS  C:\msys64\tmp\ccLgZ92a.s 			page 10


 514              	.LBE159:
 515              		.loc 1 66 0
 516 0218 F0EE456A 		vmov.f32	s13, s10
 517              	.LBB162:
 518              	.LBB161:
 519              		.loc 1 26 0
 520 021c E0EE887A 		vfma.f32	s15, s1, s16
 521              	.LVL41:
 522              	.LBE161:
 523              	.LBE162:
 524              		.loc 1 66 0
 525 0220 F0EE650A 		vmov.f32	s1, s11
 526 0224 E7EEA46A 		vfma.f32	s13, s15, s9
 527 0228 A7EE801A 		vfma.f32	s2, s15, s0
 528 022c E6EEA70A 		vfma.f32	s1, s13, s15
 529 0230 E1EE271A 		vfma.f32	s3, s2, s15
 530 0234 F0EE606A 		vmov.f32	s13, s1
 531 0238 F0EE460A 		vmov.f32	s1, s12
 532 023c E6EEA70A 		vfma.f32	s1, s13, s15
 533 0240 A1EEA77A 		vfma.f32	s14, s3, s15
 534 0244 55ED017A 		vldr.32	s15, [r5, #-4]
 535 0248 C0EE876A 		vdiv.f32	s13, s1, s14
 536 024c 77EEA67A 		vadd.f32	s15, s15, s13
 537 0250 45ED017A 		vstr.32	s15, [r5, #-4]
 538              	.LVL42:
 539              	.LBE166:
 540              		.loc 1 49 0
 541 0254 2CE7     		b	.L9
 542              	.LVL43:
 543              	.L8:
 544              	.LBE168:
 545              		.loc 1 68 0
 546 0256 BDEC048B 		vldm	sp!, {d8-d9}
 547              		.cfi_restore 82
 548              		.cfi_restore 83
 549              		.cfi_restore 80
 550              		.cfi_restore 81
 551              		.cfi_def_cfa_offset 36
 552 025a C908     		lsrs	r1, r1, #3
 553 025c 044A     		ldr	r2, .L11
 554 025e 0CFB0193 		mla	r3, ip, r1, r9
 555 0262 C1EB0E01 		rsb	r1, r1, lr
 556 0266 9361     		str	r3, [r2, #24]
 557 0268 5161     		str	r1, [r2, #20]
 558 026a BDE8F08F 		pop	{r4, r5, r6, r7, r8, r9, r10, fp, pc}
 559              	.LVL44:
 560              	.L12:
 561 026e 00BF     		.align	2
 562              	.L11:
 563 0270 00000000 		.word	.LANCHOR0
 564 0274 00000030 		.word	805306368
 565 0278 00007043 		.word	1131413504
 566 027c 0000F043 		.word	1139802112
 567 0280 00006444 		.word	1147404288
 568 0284 3684093D 		.word	1024033846
 569 0288 72146F3D 		.word	1030689906
 570 028c 0CBD7C3E 		.word	1048362252
ARM GAS  C:\msys64\tmp\ccLgZ92a.s 			page 11


 571 0290 C847E2B6 		.word	-1226684472
 572 0294 FF7EEB3C 		.word	1022066431
 573 0298 4D74DE3D 		.word	1037988941
 574 029c AF96793D 		.word	1031378607
 575 02a0 75667C3E 		.word	1048340085
 576              		.cfi_endproc
 577              	.LFE317:
 578              		.size	_hook_process, .-_hook_process
 579              		.align	1
 580              		.global	_hook_param
 581              		.thumb
 582              		.thumb_func
 583              		.type	_hook_param, %function
 584              	_hook_param:
 585              	.LFB318:
 586              		.loc 1 71 0
 587              		.cfi_startproc
 588              		@ args = 0, pretend = 0, frame = 0
 589              		@ frame_needed = 0, uses_anonymous_args = 0
 590              		@ link register save eliminated.
 591              	.LVL45:
 592              		.loc 1 72 0
 593 02a4 07EE901A 		vmov	s15, r1	@ int
 594              		.loc 1 73 0
 595 02a8 0128     		cmp	r0, #1
 596              		.loc 1 72 0
 597 02aa FAEEE07A 		vcvt.f32.s32	s15, s15, #31
 598              	.LVL46:
 599              		.loc 1 73 0
 600 02ae 07D0     		beq	.L15
 601 02b0 02D3     		bcc	.L16
 602 02b2 0328     		cmp	r0, #3
 603 02b4 13D0     		beq	.L17
 604 02b6 7047     		bx	lr
 605              	.L16:
 606              		.loc 1 76 0
 607 02b8 0B4B     		ldr	r3, .L18
 608 02ba C3ED097A 		vstr.32	s15, [r3, #36]
 609              		.loc 1 77 0
 610 02be 7047     		bx	lr
 611              	.L15:
 612              		.loc 1 79 0
 613 02c0 77EEA77A 		vadd.f32	s15, s15, s15
 614              	.LVL47:
 615 02c4 094B     		ldr	r3, .L18+4
 616              	.LBB169:
 617              	.LBB170:
 618              		.loc 4 103 0
 619 02c6 9FED0A7A 		vldr.32	s14, .L18+8
 620              	.LBE170:
 621              	.LBE169:
 622              		.loc 1 79 0
 623 02ca C3ED007A 		vstr.32	s15, [r3]
 624              	.LVL48:
 625              	.LBB172:
 626              	.LBB171:
 627              		.loc 4 103 0
ARM GAS  C:\msys64\tmp\ccLgZ92a.s 			page 12


 628 02ce 67EE877A 		vmul.f32	s15, s15, s14
 629              	.LVL49:
 630 02d2 054B     		ldr	r3, .L18
 631 02d4 FEEEC07A 		vcvt.s32.f32	s15, s15, #32
 632 02d8 C3ED077A 		vstr.32	s15, [r3, #28]	@ int
 633 02dc 7047     		bx	lr
 634              	.LVL50:
 635              	.L17:
 636              	.LBE171:
 637              	.LBE172:
 638              		.loc 1 83 0
 639 02de 024B     		ldr	r3, .L18
 640 02e0 C3ED087A 		vstr.32	s15, [r3, #32]
 641 02e4 7047     		bx	lr
 642              	.L19:
 643 02e6 00BF     		.align	2
 644              	.L18:
 645 02e8 00000000 		.word	.LANCHOR0
 646 02ec 00000000 		.word	.LANCHOR2
 647 02f0 3EC3AE37 		.word	934200126
 648              		.cfi_endproc
 649              	.LFE318:
 650              		.size	_hook_param, .-_hook_param
 651              		.section	.text.startup,"ax",%progbits
 652              		.align	1
 653              		.thumb
 654              		.thumb_func
 655              		.type	_GLOBAL__sub_I_lfo_speed, %function
 656              	_GLOBAL__sub_I_lfo_speed:
 657              	.LFB320:
 658              		.loc 1 88 0
 659              		.cfi_startproc
 660              		@ args = 0, pretend = 0, frame = 0
 661              		@ frame_needed = 0, uses_anonymous_args = 0
 662              		@ link register save eliminated.
 663              	.LVL51:
 664              	.LBB179:
 665              	.LBB180:
 666              	.LBB181:
 667              		.loc 2 204 0
 668 0000 054B     		ldr	r3, .L21
 669 0002 0022     		movs	r2, #0
 670              	.LBE181:
 671              	.LBE180:
 672              	.LBB183:
 673              	.LBB184:
 674              		.loc 4 69 0
 675 0004 4FF00041 		mov	r1, #-2147483648
 676              	.LBE184:
 677              	.LBE183:
 678              	.LBB186:
 679              	.LBB182:
 680              		.loc 2 204 0
 681 0008 1A60     		str	r2, [r3]
 682 000a DA60     		str	r2, [r3, #12]
 683 000c 1A61     		str	r2, [r3, #16]
 684 000e 5A61     		str	r2, [r3, #20]
ARM GAS  C:\msys64\tmp\ccLgZ92a.s 			page 13


 685              	.LVL52:
 686              	.LBE182:
 687              	.LBE186:
 688              	.LBB187:
 689              	.LBB185:
 690              		.loc 4 69 0
 691 0010 9961     		str	r1, [r3, #24]
 692 0012 DA61     		str	r2, [r3, #28]
 693              	.LVL53:
 694 0014 7047     		bx	lr
 695              	.L22:
 696 0016 00BF     		.align	2
 697              	.L21:
 698 0018 00000000 		.word	.LANCHOR0
 699              	.LBE185:
 700              	.LBE187:
 701              	.LBE179:
 702              		.cfi_endproc
 703              	.LFE320:
 704              		.size	_GLOBAL__sub_I_lfo_speed, .-_GLOBAL__sub_I_lfo_speed
 705              		.section	.init_array,"aw",%init_array
 706              		.align	2
 707 0000 00000000 		.word	_GLOBAL__sub_I_lfo_speed(target1)
 708              		.global	bpm_valf
 709              		.global	wetXNR
 710              		.global	wetXNL
 711              		.global	gain
 712              		.global	s_mix
 713              		.global	lfo_speed
 714              		.data
 715              		.align	2
 716              		.set	.LANCHOR2,. + 0
 717              		.type	lfo_speed, %object
 718              		.size	lfo_speed, 4
 719              	lfo_speed:
 720 0000 0000A040 		.word	1084227584
 721              		.bss
 722              		.align	2
 723              		.set	.LANCHOR0,. + 0
 724              		.type	_ZL7s_delay, %object
 725              		.size	_ZL7s_delay, 24
 726              	_ZL7s_delay:
 727 0000 00000000 		.space	24
 727      00000000 
 727      00000000 
 727      00000000 
 727      00000000 
 728              		.type	_ZL5s_lfo, %object
 729              		.size	_ZL5s_lfo, 8
 730              	_ZL5s_lfo:
 731 0018 00000000 		.space	8
 731      00000000 
 732              		.type	s_mix, %object
 733              		.size	s_mix, 4
 734              	s_mix:
 735 0020 00000000 		.space	4
 736              		.type	gain, %object
ARM GAS  C:\msys64\tmp\ccLgZ92a.s 			page 14


 737              		.size	gain, 4
 738              	gain:
 739 0024 00000000 		.space	4
 740              		.type	wetXNL, %object
 741              		.size	wetXNL, 4
 742              	wetXNL:
 743 0028 00000000 		.space	4
 744              		.type	wetXNR, %object
 745              		.size	wetXNR, 4
 746              	wetXNR:
 747 002c 00000000 		.space	4
 748              		.type	bpm_valf, %object
 749              		.size	bpm_valf, 4
 750              	bpm_valf:
 751 0030 00000000 		.space	4
 752              		.section	.sdram,"aw",%progbits
 753              		.align	2
 754              		.set	.LANCHOR1,. + 0
 755              		.type	_ZL11s_delay_ram, %object
 756              		.size	_ZL11s_delay_ram, 1536000
 757              	_ZL11s_delay_ram:
 758 0000 00000000 		.space	1536000
 758      00000000 
 758      00000000 
 758      00000000 
 758      00000000 
 759              		.text
 760              	.Letext0:
 761              		.file 6 "c:\\users\\bradl\\desktop\\code projects\\korgfx\\korgdelayfxset\\delays\\tools\\gcc\\gcc
 762              		.file 7 "c:\\users\\bradl\\desktop\\code projects\\korgfx\\korgdelayfxset\\delays\\tools\\gcc\\gcc
 763              		.file 8 "c:\\users\\bradl\\desktop\\code projects\\korgfx\\korgdelayfxset\\delays\\tools\\gcc\\gcc
 764              		.file 9 "../../ext/CMSIS/CMSIS/Include/arm_math.h"
 765              		.file 10 "../inc/userdelfx.h"
 766              		.file 11 "../inc/utils/int_math.h"
 767              		.file 12 "../inc/fx_api.h"
 768              		.file 13 "../inc/osc_api.h"
 769              		.file 14 "../inc/userprg.h"