ARM GAS  C:\msys64\tmp\ccSyJrMh.s 			page 1


   1              		.syntax unified
   2              		.cpu cortex-m4
   3              		.eabi_attribute 27, 1
   4              		.eabi_attribute 28, 1
   5              		.fpu fpv4-sp-d16
   6              		.eabi_attribute 20, 1
   7              		.eabi_attribute 21, 1
   8              		.eabi_attribute 23, 3
   9              		.eabi_attribute 24, 1
  10              		.eabi_attribute 25, 1
  11              		.eabi_attribute 26, 1
  12              		.eabi_attribute 30, 4
  13              		.eabi_attribute 34, 1
  14              		.eabi_attribute 18, 4
  15              		.thumb
  16              		.syntax unified
  17              		.file	"chorus.cpp"
  18              		.text
  19              	.Ltext0:
  20              		.cfi_sections	.debug_frame
  21              		.align	1
  22              		.global	_hook_init
  23              		.thumb
  24              		.thumb_func
  25              		.type	_hook_init, %function
  26              	_hook_init:
  27              	.LFB315:
  28              		.file 1 "./src/chorus.cpp"
  29              		.loc 1 30 0
  30              		.cfi_startproc
  31              		@ args = 0, pretend = 0, frame = 0
  32              		@ frame_needed = 0, uses_anonymous_args = 0
  33              	.LVL0:
  34 0000 10B5     		push	{r4, lr}
  35              		.cfi_def_cfa_offset 8
  36              		.cfi_offset 4, -8
  37              		.cfi_offset 14, -4
  38              	.LBB48:
  39              	.LBB49:
  40              		.file 2 "../inc/dsp/delayline.hpp"
  41              		.loc 2 243 0
  42 0002 1B4C     		ldr	r4, .L5
  43 0004 1B4B     		ldr	r3, .L5+4
  44 0006 2360     		str	r3, [r4]
  45              		.loc 2 244 0
  46 0008 4FF48022 		mov	r2, #262144
  47 000c E260     		str	r2, [r4, #12]
  48              		.loc 2 245 0
  49 000e 013A     		subs	r2, r2, #1
  50 0010 2261     		str	r2, [r4, #16]
  51 0012 1033     		adds	r3, r3, #16
  52              		.loc 2 246 0
  53 0014 0022     		movs	r2, #0
  54 0016 6261     		str	r2, [r4, #20]
  55              	.LVL1:
  56 0018 03F50011 		add	r1, r3, #2097152
  57              	.LVL2:
ARM GAS  C:\msys64\tmp\ccSyJrMh.s 			page 2


  58              	.LBE49:
  59              	.LBE48:
  60              	.LBB50:
  61              	.LBB51:
  62              	.LBB52:
  63              		.file 3 "../inc/utils/buffer_ops.h"
  64              		.loc 3 109 0
  65 001c 0022     		movs	r2, #0
  66              	.LVL3:
  67              	.L2:
  68 001e 43F8102C 		str	r2, [r3, #-16]	@ float
  69              	.LVL4:
  70 0022 43F80C2C 		str	r2, [r3, #-12]	@ float
  71              	.LVL5:
  72 0026 43F8082C 		str	r2, [r3, #-8]	@ float
  73              	.LVL6:
  74 002a 43F8042C 		str	r2, [r3, #-4]	@ float
  75 002e 1033     		adds	r3, r3, #16
  76              	.LVL7:
  77              		.loc 3 108 0
  78 0030 9942     		cmp	r1, r3
  79 0032 F4D1     		bne	.L2
  80              	.LVL8:
  81              	.LBE52:
  82              	.LBE51:
  83              	.LBE50:
  84              	.LBB53:
  85              	.LBB54:
  86              		.file 4 "../inc/dsp/simplelfo.hpp"
  87              		.loc 4 91 0
  88 0034 4FF00043 		mov	r3, #-2147483648
  89 0038 A361     		str	r3, [r4, #24]
  90              	.LVL9:
  91              	.LBE54:
  92              	.LBE53:
  93              		.loc 1 34 0
  94 003a FFF7FEFF 		bl	_fx_get_bpm
  95              	.LVL10:
  96              		.loc 1 35 0
  97 003e 0A23     		movs	r3, #10
  98              		.loc 1 34 0
  99 0040 2062     		str	r0, [r4, #32]
 100              		.loc 1 35 0
 101 0042 90FBF3F0 		sdiv	r0, r0, r3
 102 0046 3C23     		movs	r3, #60
 103 0048 93FBF0F0 		sdiv	r0, r3, r0
 104 004c 0A4B     		ldr	r3, .L5+8
 105              	.LBB55:
 106              	.LBB56:
 107              		.loc 4 103 0
 108 004e 9FED0B7A 		vldr.32	s14, .L5+12
 109              	.LBE56:
 110              	.LBE55:
 111              		.loc 1 35 0
 112 0052 5843     		muls	r0, r3, r0
 113              		.loc 1 36 0
 114 0054 4FF07C53 		mov	r3, #1056964608
ARM GAS  C:\msys64\tmp\ccSyJrMh.s 			page 3


 115 0058 A362     		str	r3, [r4, #40]	@ float
 116              	.LVL11:
 117              		.loc 1 37 0
 118 005a 094B     		ldr	r3, .L5+16
 119              		.loc 1 35 0
 120 005c 6062     		str	r0, [r4, #36]
 121              	.LBB58:
 122              	.LBB57:
 123              		.loc 4 103 0
 124 005e D3ED007A 		vldr.32	s15, [r3]
 125 0062 67EE877A 		vmul.f32	s15, s15, s14
 126 0066 FEEEC07A 		vcvt.s32.f32	s15, s15, #32
 127 006a C4ED077A 		vstr.32	s15, [r4, #28]	@ int
 128              	.LVL12:
 129 006e 10BD     		pop	{r4, pc}
 130              	.L6:
 131              		.align	2
 132              	.L5:
 133 0070 00000000 		.word	.LANCHOR0
 134 0074 00000000 		.word	.LANCHOR1
 135 0078 008A6600 		.word	6720000
 136 007c 3EC3AE37 		.word	934200126
 137 0080 00000000 		.word	.LANCHOR2
 138              	.LBE57:
 139              	.LBE58:
 140              		.cfi_endproc
 141              	.LFE315:
 142              		.size	_hook_init, .-_hook_init
 143              		.align	1
 144              		.global	_hook_process
 145              		.thumb
 146              		.thumb_func
 147              		.type	_hook_process, %function
 148              	_hook_process:
 149              	.LFB317:
 150              		.loc 1 46 0
 151              		.cfi_startproc
 152              		@ args = 0, pretend = 0, frame = 0
 153              		@ frame_needed = 0, uses_anonymous_args = 0
 154              	.LVL13:
 155              		.loc 1 50 0
 156 0084 394B     		ldr	r3, .L11
 157              	.LBB59:
 158              	.LBB60:
 159              	.LBB61:
 160              	.LBB62:
 161              		.loc 4 125 0
 162 0086 9FED3A4A 		vldr.32	s8, .L11+4
 163              	.LBE62:
 164              	.LBE61:
 165              	.LBE60:
 166              	.LBE59:
 167              		.loc 1 50 0
 168 008a D3ED0A5A 		vldr.32	s11, [r3, #40]
 169              	.LBB99:
 170              	.LBB95:
 171              		.loc 1 55 0
ARM GAS  C:\msys64\tmp\ccSyJrMh.s 			page 4


 172 008e 93ED0B5A 		vldr.32	s10, [r3, #44]
 173              	.LBB70:
 174              	.LBB71:
 175              		.loc 4 82 0
 176 0092 D3F81CC0 		ldr	ip, [r3, #28]
 177              	.LBE71:
 178              	.LBE70:
 179              	.LBE95:
 180              	.LBE99:
 181              		.loc 1 46 0
 182 0096 2DE9F043 		push	{r4, r5, r6, r7, r8, r9, lr}
 183              		.cfi_def_cfa_offset 28
 184              		.cfi_offset 4, -28
 185              		.cfi_offset 5, -24
 186              		.cfi_offset 6, -20
 187              		.cfi_offset 7, -16
 188              		.cfi_offset 8, -12
 189              		.cfi_offset 9, -8
 190              		.cfi_offset 14, -4
 191 009a 5D69     		ldr	r5, [r3, #20]
 192 009c D3F818E0 		ldr	lr, [r3, #24]
 193              	.LBB100:
 194              	.LBB96:
 195              	.LBB73:
 196              	.LBB74:
 197              		.loc 2 309 0
 198 00a0 1E68     		ldr	r6, [r3]
 199 00a2 1F69     		ldr	r7, [r3, #16]
 200              	.LBE74:
 201              	.LBE73:
 202              	.LBE96:
 203              	.LBE100:
 204              		.loc 1 48 0
 205 00a4 C900     		lsls	r1, r1, #3
 206              	.LVL14:
 207 00a6 00EB0108 		add	r8, r0, r1
 208              	.LVL15:
 209 00aa F146     		mov	r9, lr
 210              	.LBB101:
 211              	.LBB97:
 212              	.LBB77:
 213              	.LBB72:
 214              		.loc 4 82 0
 215 00ac 2A46     		mov	r2, r5
 216              	.LBE72:
 217              	.LBE77:
 218              	.LBB78:
 219              	.LBB65:
 220              		.loc 4 126 0
 221 00ae B7EE006A 		vmov.f32	s12, #1.0e+0
 222 00b2 F1EE004A 		vmov.f32	s9, #4.0e+0
 223              	.LVL16:
 224              	.L9:
 225              	.LBE65:
 226              	.LBE78:
 227              	.LBE97:
 228              		.loc 1 53 0 discriminator 2
ARM GAS  C:\msys64\tmp\ccSyJrMh.s 			page 5


 229 00b6 8045     		cmp	r8, r0
 230 00b8 07EE909A 		vmov	s15, r9	@ int
 231 00bc 00F10804 		add	r4, r0, #8
 232 00c0 E144     		add	r9, r9, ip
 233 00c2 4AD0     		beq	.L8
 234              	.LVL17:
 235              	.LBB98:
 236              	.LBB79:
 237              	.LBB66:
 238              		.loc 4 125 0
 239 00c4 F8EEE77A 		vcvt.f32.s32	s15, s15
 240 00c8 27EE847A 		vmul.f32	s14, s15, s8
 241              	.LVL18:
 242              	.LBB63:
 243              	.LBB64:
 244              		.file 5 "../inc/utils/float_math.h"
 245              		.loc 5 287 0
 246 00cc 17EE100A 		vmov	r0, s14	@ int
 247              	.LVL19:
 248 00d0 20F00040 		bic	r0, r0, #-2147483648
 249 00d4 07EE900A 		vmov	s15, r0	@ int
 250              	.LBE64:
 251              	.LBE63:
 252              	.LBE66:
 253              	.LBE79:
 254              	.LBB80:
 255              	.LBB81:
 256              		.loc 2 320 0
 257 00d8 02F53460 		add	r0, r2, #2880
 258              	.LBE81:
 259              	.LBE80:
 260              	.LBB83:
 261              	.LBB67:
 262              		.loc 4 126 0
 263 00dc 77EEC67A 		vsub.f32	s15, s15, s12
 264              	.LBE67:
 265              	.LBE83:
 266              	.LBB84:
 267              	.LBB82:
 268              		.loc 2 320 0
 269 00e0 3840     		ands	r0, r0, r7
 270 00e2 06EBC000 		add	r0, r6, r0, lsl #3
 271              	.LBE82:
 272              	.LBE84:
 273              	.LBB85:
 274              	.LBB68:
 275              		.loc 4 126 0
 276 00e6 67EE877A 		vmul.f32	s15, s15, s14
 277              	.LBE68:
 278              	.LBE85:
 279              		.loc 1 56 0
 280 00ea 90ED017A 		vldr.32	s14, [r0, #4]
 281              	.LVL20:
 282              	.LBB86:
 283              	.LBB75:
 284              		.loc 2 309 0
 285 00ee 02F5D260 		add	r0, r2, #1680
ARM GAS  C:\msys64\tmp\ccSyJrMh.s 			page 6


 286              	.LBE75:
 287              	.LBE86:
 288              	.LBB87:
 289              	.LBB69:
 290              		.loc 4 126 0
 291 00f2 67EEA47A 		vmul.f32	s15, s15, s9
 292              	.LVL21:
 293              	.LBE69:
 294              	.LBE87:
 295              		.loc 1 56 0
 296 00f6 25EE077A 		vmul.f32	s14, s10, s14
 297              	.LBB88:
 298              	.LBB76:
 299              		.loc 2 309 0
 300 00fa 3840     		ands	r0, r0, r7
 301 00fc 06EBC000 		add	r0, r6, r0, lsl #3
 302              	.LBE76:
 303              	.LBE88:
 304              		.loc 1 56 0
 305 0100 67EE276A 		vmul.f32	s13, s14, s15
 306              	.LVL22:
 307              		.loc 1 57 0
 308 0104 90ED007A 		vldr.32	s14, [r0]
 309 0108 77EEA77A 		vadd.f32	s15, s15, s15
 310              	.LVL23:
 311 010c 25EE077A 		vmul.f32	s14, s10, s14
 312              	.LBB89:
 313              	.LBB90:
 314              		.loc 2 256 0
 315 0110 07EA0200 		and	r0, r7, r2
 316              	.LBE90:
 317              	.LBE89:
 318              		.loc 1 57 0
 319 0114 67EE277A 		vmul.f32	s15, s14, s15
 320              		.loc 1 58 0
 321 0118 25EEA67A 		vmul.f32	s14, s11, s13
 322              		.loc 1 57 0
 323 011c 67EEA57A 		vmul.f32	s15, s15, s11
 324              		.loc 1 58 0
 325 0120 83ED0D7A 		vstr.32	s14, [r3, #52]
 326              		.loc 1 57 0
 327 0124 C3ED0C7A 		vstr.32	s15, [r3, #48]
 328              		.loc 1 59 0
 329 0128 14ED027A 		vldr.32	s14, [r4, #-8]
 330 012c 77EE877A 		vadd.f32	s15, s15, s14
 331              		.loc 1 60 0
 332 0130 14ED017A 		vldr.32	s14, [r4, #-4]
 333              		.loc 1 59 0
 334 0134 44ED027A 		vstr.32	s15, [r4, #-8]
 335              		.loc 1 60 0
 336 0138 D3ED0D6A 		vldr.32	s13, [r3, #52]
 337              	.LVL24:
 338 013c 37EE267A 		vadd.f32	s14, s14, s13
 339              	.LBB93:
 340              	.LBB91:
 341              		.loc 2 256 0
 342 0140 06EBC000 		add	r0, r6, r0, lsl #3
ARM GAS  C:\msys64\tmp\ccSyJrMh.s 			page 7


 343              	.LBE91:
 344              	.LBE93:
 345              		.loc 1 60 0
 346 0144 04ED017A 		vstr.32	s14, [r4, #-4]
 347              	.LVL25:
 348              	.LBB94:
 349              	.LBB92:
 350              		.loc 2 256 0
 351 0148 C0ED007A 		vstr.32	s15, [r0]
 352 014c 77EE867A 		vadd.f32	s15, s15, s12
 353              	.LVL26:
 354 0150 013A     		subs	r2, r2, #1
 355 0152 C0ED017A 		vstr.32	s15, [r0, #4]
 356              	.LVL27:
 357              	.LBE92:
 358              	.LBE94:
 359              	.LBE98:
 360              		.loc 1 53 0
 361 0156 2046     		mov	r0, r4
 362              	.LVL28:
 363 0158 ADE7     		b	.L9
 364              	.LVL29:
 365              	.L8:
 366 015a C908     		lsrs	r1, r1, #3
 367 015c 6D1A     		subs	r5, r5, r1
 368 015e 0CFB01E1 		mla	r1, ip, r1, lr
 369 0162 5D61     		str	r5, [r3, #20]
 370 0164 9961     		str	r1, [r3, #24]
 371 0166 BDE8F083 		pop	{r4, r5, r6, r7, r8, r9, pc}
 372              	.LVL30:
 373              	.L12:
 374 016a 00BF     		.align	2
 375              	.L11:
 376 016c 00000000 		.word	.LANCHOR0
 377 0170 00000030 		.word	805306368
 378              	.LBE101:
 379              		.cfi_endproc
 380              	.LFE317:
 381              		.size	_hook_process, .-_hook_process
 382              		.align	1
 383              		.global	_hook_param
 384              		.thumb
 385              		.thumb_func
 386              		.type	_hook_param, %function
 387              	_hook_param:
 388              	.LFB318:
 389              		.loc 1 69 0
 390              		.cfi_startproc
 391              		@ args = 0, pretend = 0, frame = 0
 392              		@ frame_needed = 0, uses_anonymous_args = 0
 393              	.LVL31:
 394 0174 08B5     		push	{r3, lr}
 395              		.cfi_def_cfa_offset 8
 396              		.cfi_offset 3, -8
 397              		.cfi_offset 14, -4
 398 0176 2DED028B 		vpush.64	{d8}
 399              		.cfi_def_cfa_offset 16
ARM GAS  C:\msys64\tmp\ccSyJrMh.s 			page 8


 400              		.cfi_offset 80, -16
 401              		.cfi_offset 81, -12
 402              		.loc 1 70 0
 403 017a 08EE101A 		vmov	s16, r1	@ int
 404              		.loc 1 71 0
 405 017e 0128     		cmp	r0, #1
 406              		.loc 1 70 0
 407 0180 BAEEE08A 		vcvt.f32.s32	s16, s16, #31
 408              	.LVL32:
 409              		.loc 1 71 0
 410 0184 0AD0     		beq	.L15
 411 0186 05D3     		bcc	.L16
 412 0188 0328     		cmp	r0, #3
 413 018a 35D1     		bne	.L13
 414              		.loc 1 103 0
 415 018c 1C4B     		ldr	r3, .L30
 416 018e 83ED0A8A 		vstr.32	s16, [r3, #40]
 417              		.loc 1 108 0
 418 0192 31E0     		b	.L13
 419              	.L16:
 420              		.loc 1 75 0
 421 0194 1A4B     		ldr	r3, .L30
 422 0196 83ED0B8A 		vstr.32	s16, [r3, #44]
 423              		.loc 1 76 0
 424 019a 2DE0     		b	.L13
 425              	.L15:
 426              		.loc 1 78 0
 427 019c FFF7FEFF 		bl	_fx_get_bpm
 428              	.LVL33:
 429              		.loc 1 80 0
 430 01a0 F5EE007A 		vmov.f32	s15, #2.5e-1
 431              		.loc 1 78 0
 432 01a4 0A23     		movs	r3, #10
 433              		.loc 1 80 0
 434 01a6 B4EEE78A 		vcmpe.f32	s16, s15
 435              		.loc 1 78 0
 436 01aa B0FBF3F0 		udiv	r0, r0, r3
 437 01ae 144B     		ldr	r3, .L30
 438 01b0 80B2     		uxth	r0, r0
 439              		.loc 1 80 0
 440 01b2 F1EE10FA 		vmrs	APSR_nzcv, FPSCR
 441              		.loc 1 78 0
 442 01b6 1862     		str	r0, [r3, #32]
 443              		.loc 1 80 0
 444 01b8 05D5     		bpl	.L27
 445              		.loc 1 83 0
 446 01ba 124A     		ldr	r2, .L30+4
 447 01bc 92FBF0F0 		sdiv	r0, r2, r0
 448 01c0 8000     		lsls	r0, r0, #2
 449 01c2 5862     		str	r0, [r3, #36]
 450 01c4 18E0     		b	.L13
 451              	.L27:
 452              		.loc 1 85 0
 453 01c6 F6EE007A 		vmov.f32	s15, #5.0e-1
 454 01ca B4EEE78A 		vcmpe.f32	s16, s15
 455 01ce F1EE10FA 		vmrs	APSR_nzcv, FPSCR
 456 01d2 05D5     		bpl	.L28
ARM GAS  C:\msys64\tmp\ccSyJrMh.s 			page 9


 457              		.loc 1 88 0
 458 01d4 0B4A     		ldr	r2, .L30+4
 459 01d6 92FBF0F0 		sdiv	r0, r2, r0
 460 01da 4000     		lsls	r0, r0, #1
 461 01dc 5862     		str	r0, [r3, #36]
 462 01de 0BE0     		b	.L13
 463              	.L28:
 464              		.loc 1 90 0
 465 01e0 F6EE087A 		vmov.f32	s15, #7.5e-1
 466 01e4 B4EEE78A 		vcmpe.f32	s16, s15
 467 01e8 F1EE10FA 		vmrs	APSR_nzcv, FPSCR
 468              		.loc 1 93 0
 469 01ec 4CBF     		ite	mi
 470 01ee 054A     		ldrmi	r2, .L30+4
 471              		.loc 1 98 0
 472 01f0 054A     		ldrpl	r2, .L30+8
 473 01f2 92FBF0F0 		sdiv	r0, r2, r0
 474 01f6 5862     		str	r0, [r3, #36]
 475              	.L13:
 476              		.loc 1 108 0
 477 01f8 BDEC028B 		vldm	sp!, {d8}
 478              		.cfi_restore 80
 479              		.cfi_restore 81
 480              		.cfi_def_cfa_offset 8
 481              	.LVL34:
 482 01fc 08BD     		pop	{r3, pc}
 483              	.L31:
 484 01fe 00BF     		.align	2
 485              	.L30:
 486 0200 00000000 		.word	.LANCHOR0
 487 0204 00F22B00 		.word	2880000
 488 0208 00F91500 		.word	1440000
 489              		.cfi_endproc
 490              	.LFE318:
 491              		.size	_hook_param, .-_hook_param
 492              		.section	.text.startup,"ax",%progbits
 493              		.align	1
 494              		.thumb
 495              		.thumb_func
 496              		.type	_GLOBAL__sub_I_lfo_speed, %function
 497              	_GLOBAL__sub_I_lfo_speed:
 498              	.LFB320:
 499              		.loc 1 108 0
 500              		.cfi_startproc
 501              		@ args = 0, pretend = 0, frame = 0
 502              		@ frame_needed = 0, uses_anonymous_args = 0
 503              		@ link register save eliminated.
 504              	.LVL35:
 505              	.LBB108:
 506              	.LBB109:
 507              	.LBB110:
 508              		.loc 2 204 0
 509 0000 054B     		ldr	r3, .L33
 510 0002 0022     		movs	r2, #0
 511              	.LBE110:
 512              	.LBE109:
 513              	.LBB112:
ARM GAS  C:\msys64\tmp\ccSyJrMh.s 			page 10


 514              	.LBB113:
 515              		.loc 4 69 0
 516 0004 4FF00041 		mov	r1, #-2147483648
 517              	.LBE113:
 518              	.LBE112:
 519              	.LBB115:
 520              	.LBB111:
 521              		.loc 2 204 0
 522 0008 1A60     		str	r2, [r3]
 523 000a DA60     		str	r2, [r3, #12]
 524 000c 1A61     		str	r2, [r3, #16]
 525 000e 5A61     		str	r2, [r3, #20]
 526              	.LVL36:
 527              	.LBE111:
 528              	.LBE115:
 529              	.LBB116:
 530              	.LBB114:
 531              		.loc 4 69 0
 532 0010 9961     		str	r1, [r3, #24]
 533 0012 DA61     		str	r2, [r3, #28]
 534              	.LVL37:
 535 0014 7047     		bx	lr
 536              	.L34:
 537 0016 00BF     		.align	2
 538              	.L33:
 539 0018 00000000 		.word	.LANCHOR0
 540              	.LBE114:
 541              	.LBE116:
 542              	.LBE108:
 543              		.cfi_endproc
 544              	.LFE320:
 545              		.size	_GLOBAL__sub_I_lfo_speed, .-_GLOBAL__sub_I_lfo_speed
 546              		.section	.init_array,"aw",%init_array
 547              		.align	2
 548 0000 00000000 		.word	_GLOBAL__sub_I_lfo_speed(target1)
 549              		.global	bpm
 550              		.global	wetXNR
 551              		.global	wetXNL
 552              		.global	s_len
 553              		.global	lfo_speed
 554              		.data
 555              		.align	2
 556              		.set	.LANCHOR2,. + 0
 557              		.type	lfo_speed, %object
 558              		.size	lfo_speed, 4
 559              	lfo_speed:
 560 0000 0000A040 		.word	1084227584
 561              		.bss
 562              		.align	2
 563              		.set	.LANCHOR0,. + 0
 564              		.type	_ZL7s_delay, %object
 565              		.size	_ZL7s_delay, 24
 566              	_ZL7s_delay:
 567 0000 00000000 		.space	24
 567      00000000 
 567      00000000 
 567      00000000 
ARM GAS  C:\msys64\tmp\ccSyJrMh.s 			page 11


 567      00000000 
 568              		.type	_ZL5s_lfo, %object
 569              		.size	_ZL5s_lfo, 8
 570              	_ZL5s_lfo:
 571 0018 00000000 		.space	8
 571      00000000 
 572              		.type	bpm, %object
 573              		.size	bpm, 4
 574              	bpm:
 575 0020 00000000 		.space	4
 576              		.type	s_len, %object
 577              		.size	s_len, 4
 578              	s_len:
 579 0024 00000000 		.space	4
 580              		.type	_ZL5s_mix, %object
 581              		.size	_ZL5s_mix, 4
 582              	_ZL5s_mix:
 583 0028 00000000 		.space	4
 584              		.type	_ZL4gain, %object
 585              		.size	_ZL4gain, 4
 586              	_ZL4gain:
 587 002c 00000000 		.space	4
 588              		.type	wetXNL, %object
 589              		.size	wetXNL, 4
 590              	wetXNL:
 591 0030 00000000 		.space	4
 592              		.type	wetXNR, %object
 593              		.size	wetXNR, 4
 594              	wetXNR:
 595 0034 00000000 		.space	4
 596              		.section	.sdram,"aw",%progbits
 597              		.align	2
 598              		.set	.LANCHOR1,. + 0
 599              		.type	_ZL11s_delay_ram, %object
 600              		.size	_ZL11s_delay_ram, 1680000
 601              	_ZL11s_delay_ram:
 602 0000 00000000 		.space	1680000
 602      00000000 
 602      00000000 
 602      00000000 
 602      00000000 
 603              		.text
 604              	.Letext0:
 605              		.file 6 "c:\\users\\bradl\\desktop\\code projects\\korgfx\\korgdelayfxset\\delays\\tools\\gcc\\gcc
 606              		.file 7 "c:\\users\\bradl\\desktop\\code projects\\korgfx\\korgdelayfxset\\delays\\tools\\gcc\\gcc
 607              		.file 8 "c:\\users\\bradl\\desktop\\code projects\\korgfx\\korgdelayfxset\\delays\\tools\\gcc\\gcc
 608              		.file 9 "../../ext/CMSIS/CMSIS/Include/arm_math.h"
 609              		.file 10 "../inc/utils/int_math.h"
 610              		.file 11 "../inc/fx_api.h"
 611              		.file 12 "../inc/osc_api.h"
 612              		.file 13 "../inc/userprg.h"
 613              		.section	.debug_info,"",%progbits
 614              	.Ldebug_info0:
 615 0000 A90D0000 		.4byte	0xda9
 616 0004 0400     		.2byte	0x4
 617 0006 00000000 		.4byte	.Ldebug_abbrev0
 618 000a 04       		.byte	0x4
ARM GAS  C:\msys64\tmp\ccSyJrMh.s 			page 12


 619 000b 01       		.uleb128 0x1
 620 000c 78000000 		.4byte	.LASF148
 621 0010 04       		.byte	0x4
 622 0011 DF0A0000 		.4byte	.LASF149
 623 0015 800A0000 		.4byte	.LASF150
 624 0019 20010000 		.4byte	.Ldebug_ranges0+0x120
 625 001d 00000000 		.4byte	0
 626 0021 00000000 		.4byte	.Ldebug_line0
 627 0025 02       		.uleb128 0x2
 628 0026 04       		.byte	0x4
 629 0027 04       		.byte	0x4
 630 0028 85020000 		.4byte	.LASF0
 631 002c 03       		.uleb128 0x3
 632 002d 04       		.byte	0x4
 633 002e 05       		.byte	0x5
 634 002f 696E7400 		.ascii	"int\000"
 635 0033 02       		.uleb128 0x2
 636 0034 01       		.byte	0x1
 637 0035 06       		.byte	0x6
 638 0036 D0090000 		.4byte	.LASF1
 639 003a 04       		.uleb128 0x4
 640 003b 4E080000 		.4byte	.LASF5
 641 003f 06       		.byte	0x6
 642 0040 1D       		.byte	0x1d
 643 0041 45000000 		.4byte	0x45
 644 0045 02       		.uleb128 0x2
 645 0046 01       		.byte	0x1
 646 0047 08       		.byte	0x8
 647 0048 26090000 		.4byte	.LASF2
 648 004c 02       		.uleb128 0x2
 649 004d 02       		.byte	0x2
 650 004e 05       		.byte	0x5
 651 004f 6A070000 		.4byte	.LASF3
 652 0053 02       		.uleb128 0x2
 653 0054 02       		.byte	0x2
 654 0055 07       		.byte	0x7
 655 0056 210A0000 		.4byte	.LASF4
 656 005a 04       		.uleb128 0x4
 657 005b BF010000 		.4byte	.LASF6
 658 005f 06       		.byte	0x6
 659 0060 3F       		.byte	0x3f
 660 0061 65000000 		.4byte	0x65
 661 0065 02       		.uleb128 0x2
 662 0066 04       		.byte	0x4
 663 0067 05       		.byte	0x5
 664 0068 A0070000 		.4byte	.LASF7
 665 006c 04       		.uleb128 0x4
 666 006d 34090000 		.4byte	.LASF8
 667 0071 06       		.byte	0x6
 668 0072 41       		.byte	0x41
 669 0073 77000000 		.4byte	0x77
 670 0077 02       		.uleb128 0x2
 671 0078 04       		.byte	0x4
 672 0079 07       		.byte	0x7
 673 007a 94080000 		.4byte	.LASF9
 674 007e 02       		.uleb128 0x2
 675 007f 08       		.byte	0x8
ARM GAS  C:\msys64\tmp\ccSyJrMh.s 			page 13


 676 0080 05       		.byte	0x5
 677 0081 69050000 		.4byte	.LASF10
 678 0085 02       		.uleb128 0x2
 679 0086 08       		.byte	0x8
 680 0087 07       		.byte	0x7
 681 0088 BF020000 		.4byte	.LASF11
 682 008c 02       		.uleb128 0x2
 683 008d 04       		.byte	0x4
 684 008e 07       		.byte	0x7
 685 008f 90010000 		.4byte	.LASF12
 686 0093 04       		.uleb128 0x4
 687 0094 E3040000 		.4byte	.LASF13
 688 0098 07       		.byte	0x7
 689 0099 18       		.byte	0x18
 690 009a 3A000000 		.4byte	0x3a
 691 009e 04       		.uleb128 0x4
 692 009f C5080000 		.4byte	.LASF14
 693 00a3 07       		.byte	0x7
 694 00a4 2C       		.byte	0x2c
 695 00a5 5A000000 		.4byte	0x5a
 696 00a9 04       		.uleb128 0x4
 697 00aa 17020000 		.4byte	.LASF15
 698 00ae 07       		.byte	0x7
 699 00af 30       		.byte	0x30
 700 00b0 6C000000 		.4byte	0x6c
 701 00b4 04       		.uleb128 0x4
 702 00b5 3D030000 		.4byte	.LASF16
 703 00b9 08       		.byte	0x8
 704 00ba D8       		.byte	0xd8
 705 00bb 8C000000 		.4byte	0x8c
 706 00bf 02       		.uleb128 0x2
 707 00c0 08       		.byte	0x8
 708 00c1 04       		.byte	0x4
 709 00c2 C1060000 		.4byte	.LASF17
 710 00c6 05       		.uleb128 0x5
 711 00c7 7A090000 		.4byte	.LASF151
 712 00cb 02       		.uleb128 0x2
 713 00cc 04       		.byte	0x4
 714 00cd 07       		.byte	0x7
 715 00ce 8B080000 		.4byte	.LASF18
 716 00d2 02       		.uleb128 0x2
 717 00d3 01       		.byte	0x1
 718 00d4 08       		.byte	0x8
 719 00d5 61040000 		.4byte	.LASF19
 720 00d9 02       		.uleb128 0x2
 721 00da 08       		.byte	0x8
 722 00db 04       		.byte	0x4
 723 00dc 590A0000 		.4byte	.LASF20
 724 00e0 06       		.uleb128 0x6
 725 00e1 04       		.byte	0x4
 726 00e2 05       		.byte	0x5
 727 00e3 A1       		.byte	0xa1
 728 00e4 8A060000 		.4byte	.LASF152
 729 00e8 FF000000 		.4byte	0xff
 730 00ec 07       		.uleb128 0x7
 731 00ed 6600     		.ascii	"f\000"
 732 00ef 05       		.byte	0x5
ARM GAS  C:\msys64\tmp\ccSyJrMh.s 			page 14


 733 00f0 A2       		.byte	0xa2
 734 00f1 25000000 		.4byte	0x25
 735 00f5 07       		.uleb128 0x7
 736 00f6 6900     		.ascii	"i\000"
 737 00f8 05       		.byte	0x5
 738 00f9 A3       		.byte	0xa3
 739 00fa A9000000 		.4byte	0xa9
 740 00fe 00       		.byte	0
 741 00ff 04       		.uleb128 0x4
 742 0100 00000000 		.4byte	.LASF21
 743 0104 05       		.byte	0x5
 744 0105 A4       		.byte	0xa4
 745 0106 E0000000 		.4byte	0xe0
 746 010a 08       		.uleb128 0x8
 747 010b 08       		.byte	0x8
 748 010c 05       		.byte	0x5
 749 010d A6       		.byte	0xa6
 750 010e 97060000 		.4byte	.LASF153
 751 0112 2B010000 		.4byte	0x12b
 752 0116 09       		.uleb128 0x9
 753 0117 6100     		.ascii	"a\000"
 754 0119 05       		.byte	0x5
 755 011a A7       		.byte	0xa7
 756 011b 25000000 		.4byte	0x25
 757 011f 00       		.byte	0
 758 0120 09       		.uleb128 0x9
 759 0121 6200     		.ascii	"b\000"
 760 0123 05       		.byte	0x5
 761 0124 A8       		.byte	0xa8
 762 0125 25000000 		.4byte	0x25
 763 0129 04       		.byte	0x4
 764 012a 00       		.byte	0
 765 012b 04       		.uleb128 0x4
 766 012c BB090000 		.4byte	.LASF22
 767 0130 05       		.byte	0x5
 768 0131 A9       		.byte	0xa9
 769 0132 0A010000 		.4byte	0x10a
 770 0136 0A       		.uleb128 0xa
 771 0137 85080000 		.4byte	.LASF23
 772 013b 09       		.byte	0x9
 773 013c 8D01     		.2byte	0x18d
 774 013e 9E000000 		.4byte	0x9e
 775 0142 0B       		.uleb128 0xb
 776 0143 01       		.byte	0x1
 777 0144 45000000 		.4byte	0x45
 778 0148 0D       		.byte	0xd
 779 0149 35       		.byte	0x35
 780 014a 73010000 		.4byte	0x173
 781 014e 0C       		.uleb128 0xc
 782 014f 5D090000 		.4byte	.LASF24
 783 0153 00       		.byte	0
 784 0154 0C       		.uleb128 0xc
 785 0155 FB070000 		.4byte	.LASF25
 786 0159 01       		.byte	0x1
 787 015a 0C       		.uleb128 0xc
 788 015b 91020000 		.4byte	.LASF26
 789 015f 02       		.byte	0x2
ARM GAS  C:\msys64\tmp\ccSyJrMh.s 			page 15


 790 0160 0C       		.uleb128 0xc
 791 0161 44030000 		.4byte	.LASF27
 792 0165 03       		.byte	0x3
 793 0166 0C       		.uleb128 0xc
 794 0167 AF060000 		.4byte	.LASF28
 795 016b 04       		.byte	0x4
 796 016c 0C       		.uleb128 0xc
 797 016d 21060000 		.4byte	.LASF29
 798 0171 05       		.byte	0x5
 799 0172 00       		.byte	0
 800 0173 0D       		.uleb128 0xd
 801 0174 04       		.byte	0x4
 802 0175 25000000 		.4byte	0x25
 803 0179 0E       		.uleb128 0xe
 804 017a 64737000 		.ascii	"dsp\000"
 805 017e 04       		.byte	0x4
 806 017f 32       		.byte	0x32
 807 0180 61060000 		.4byte	0x661
 808 0184 0F       		.uleb128 0xf
 809 0185 1F0B0000 		.4byte	.LASF39
 810 0189 08       		.byte	0x8
 811 018a 04       		.byte	0x4
 812 018b 37       		.byte	0x37
 813 018c 32040000 		.4byte	0x432
 814 0190 10       		.uleb128 0x10
 815 0191 E1030000 		.4byte	.LASF30
 816 0195 04       		.byte	0x4
 817 0196 2A01     		.2byte	0x12a
 818 0198 36010000 		.4byte	0x136
 819 019c 00       		.byte	0
 820 019d 11       		.uleb128 0x11
 821 019e 773000   		.ascii	"w0\000"
 822 01a1 04       		.byte	0x4
 823 01a2 2B01     		.2byte	0x12b
 824 01a4 36010000 		.4byte	0x136
 825 01a8 04       		.byte	0x4
 826 01a9 12       		.uleb128 0x12
 827 01aa 1F0B0000 		.4byte	.LASF39
 828 01ae 04       		.byte	0x4
 829 01af 44       		.byte	0x44
 830 01b0 CB030000 		.4byte	.LASF41
 831 01b4 61060000 		.4byte	0x661
 832 01b8 C0010000 		.4byte	0x1c0
 833 01bc C6010000 		.4byte	0x1c6
 834 01c0 13       		.uleb128 0x13
 835 01c1 61060000 		.4byte	0x661
 836 01c5 00       		.byte	0
 837 01c6 14       		.uleb128 0x14
 838 01c7 0F080000 		.4byte	.LASF31
 839 01cb 04       		.byte	0x4
 840 01cc 50       		.byte	0x50
 841 01cd D3070000 		.4byte	.LASF33
 842 01d1 D9010000 		.4byte	0x1d9
 843 01d5 DF010000 		.4byte	0x1df
 844 01d9 13       		.uleb128 0x13
 845 01da 61060000 		.4byte	0x661
 846 01de 00       		.byte	0
ARM GAS  C:\msys64\tmp\ccSyJrMh.s 			page 16


 847 01df 14       		.uleb128 0x14
 848 01e0 48080000 		.4byte	.LASF32
 849 01e4 04       		.byte	0x4
 850 01e5 59       		.byte	0x59
 851 01e6 A5020000 		.4byte	.LASF34
 852 01ea F2010000 		.4byte	0x1f2
 853 01ee F8010000 		.4byte	0x1f8
 854 01f2 13       		.uleb128 0x13
 855 01f3 61060000 		.4byte	0x661
 856 01f7 00       		.byte	0
 857 01f8 14       		.uleb128 0x14
 858 01f9 A9070000 		.4byte	.LASF35
 859 01fd 04       		.byte	0x4
 860 01fe 65       		.byte	0x65
 861 01ff FD040000 		.4byte	.LASF36
 862 0203 0B020000 		.4byte	0x20b
 863 0207 1B020000 		.4byte	0x21b
 864 020b 13       		.uleb128 0x13
 865 020c 61060000 		.4byte	0x661
 866 0210 15       		.uleb128 0x15
 867 0211 25000000 		.4byte	0x25
 868 0215 15       		.uleb128 0x15
 869 0216 25000000 		.4byte	0x25
 870 021a 00       		.byte	0
 871 021b 14       		.uleb128 0x14
 872 021c BF080000 		.4byte	.LASF37
 873 0220 04       		.byte	0x4
 874 0221 70       		.byte	0x70
 875 0222 1D040000 		.4byte	.LASF38
 876 0226 2E020000 		.4byte	0x22e
 877 022a 39020000 		.4byte	0x239
 878 022e 13       		.uleb128 0x13
 879 022f 61060000 		.4byte	0x661
 880 0233 15       		.uleb128 0x15
 881 0234 25000000 		.4byte	0x25
 882 0238 00       		.byte	0
 883 0239 12       		.uleb128 0x12
 884 023a 58030000 		.4byte	.LASF40
 885 023e 04       		.byte	0x4
 886 023f 7B       		.byte	0x7b
 887 0240 E0020000 		.4byte	.LASF42
 888 0244 25000000 		.4byte	0x25
 889 0248 50020000 		.4byte	0x250
 890 024c 56020000 		.4byte	0x256
 891 0250 13       		.uleb128 0x13
 892 0251 61060000 		.4byte	0x661
 893 0255 00       		.byte	0
 894 0256 12       		.uleb128 0x12
 895 0257 15080000 		.4byte	.LASF43
 896 025b 04       		.byte	0x4
 897 025c 85       		.byte	0x85
 898 025d 43020000 		.4byte	.LASF44
 899 0261 25000000 		.4byte	0x25
 900 0265 6D020000 		.4byte	0x26d
 901 0269 73020000 		.4byte	0x273
 902 026d 13       		.uleb128 0x13
 903 026e 61060000 		.4byte	0x661
ARM GAS  C:\msys64\tmp\ccSyJrMh.s 			page 17


 904 0272 00       		.byte	0
 905 0273 12       		.uleb128 0x12
 906 0274 31030000 		.4byte	.LASF45
 907 0278 04       		.byte	0x4
 908 0279 91       		.byte	0x91
 909 027a 63060000 		.4byte	.LASF46
 910 027e 25000000 		.4byte	0x25
 911 0282 8A020000 		.4byte	0x28a
 912 0286 95020000 		.4byte	0x295
 913 028a 13       		.uleb128 0x13
 914 028b 61060000 		.4byte	0x661
 915 028f 15       		.uleb128 0x15
 916 0290 25000000 		.4byte	0x25
 917 0294 00       		.byte	0
 918 0295 12       		.uleb128 0x12
 919 0296 78080000 		.4byte	.LASF47
 920 029a 04       		.byte	0x4
 921 029b 9D       		.byte	0x9d
 922 029c 18050000 		.4byte	.LASF48
 923 02a0 25000000 		.4byte	0x25
 924 02a4 AC020000 		.4byte	0x2ac
 925 02a8 B7020000 		.4byte	0x2b7
 926 02ac 13       		.uleb128 0x13
 927 02ad 61060000 		.4byte	0x661
 928 02b1 15       		.uleb128 0x15
 929 02b2 25000000 		.4byte	0x25
 930 02b6 00       		.byte	0
 931 02b7 12       		.uleb128 0x12
 932 02b8 1F070000 		.4byte	.LASF49
 933 02bc 04       		.byte	0x4
 934 02bd A8       		.byte	0xa8
 935 02be 4B000000 		.4byte	.LASF50
 936 02c2 25000000 		.4byte	0x25
 937 02c6 CE020000 		.4byte	0x2ce
 938 02ca D4020000 		.4byte	0x2d4
 939 02ce 13       		.uleb128 0x13
 940 02cf 61060000 		.4byte	0x661
 941 02d3 00       		.byte	0
 942 02d4 12       		.uleb128 0x12
 943 02d5 F00A0000 		.4byte	.LASF51
 944 02d9 04       		.byte	0x4
 945 02da B1       		.byte	0xb1
 946 02db 06000000 		.4byte	.LASF52
 947 02df 25000000 		.4byte	0x25
 948 02e3 EB020000 		.4byte	0x2eb
 949 02e7 F1020000 		.4byte	0x2f1
 950 02eb 13       		.uleb128 0x13
 951 02ec 61060000 		.4byte	0x661
 952 02f0 00       		.byte	0
 953 02f1 12       		.uleb128 0x12
 954 02f2 71040000 		.4byte	.LASF53
 955 02f6 04       		.byte	0x4
 956 02f7 BC       		.byte	0xbc
 957 02f8 1E080000 		.4byte	.LASF54
 958 02fc 25000000 		.4byte	0x25
 959 0300 08030000 		.4byte	0x308
 960 0304 13030000 		.4byte	0x313
ARM GAS  C:\msys64\tmp\ccSyJrMh.s 			page 18


 961 0308 13       		.uleb128 0x13
 962 0309 61060000 		.4byte	0x661
 963 030d 15       		.uleb128 0x15
 964 030e 25000000 		.4byte	0x25
 965 0312 00       		.byte	0
 966 0313 12       		.uleb128 0x12
 967 0314 3F090000 		.4byte	.LASF55
 968 0318 04       		.byte	0x4
 969 0319 C8       		.byte	0xc8
 970 031a 39070000 		.4byte	.LASF56
 971 031e 25000000 		.4byte	0x25
 972 0322 2A030000 		.4byte	0x32a
 973 0326 35030000 		.4byte	0x335
 974 032a 13       		.uleb128 0x13
 975 032b 61060000 		.4byte	0x661
 976 032f 15       		.uleb128 0x15
 977 0330 25000000 		.4byte	0x25
 978 0334 00       		.byte	0
 979 0335 12       		.uleb128 0x12
 980 0336 FF010000 		.4byte	.LASF57
 981 033a 04       		.byte	0x4
 982 033b D3       		.byte	0xd3
 983 033c 3E060000 		.4byte	.LASF58
 984 0340 25000000 		.4byte	0x25
 985 0344 4C030000 		.4byte	0x34c
 986 0348 52030000 		.4byte	0x352
 987 034c 13       		.uleb128 0x13
 988 034d 61060000 		.4byte	0x661
 989 0351 00       		.byte	0
 990 0352 12       		.uleb128 0x12
 991 0353 95030000 		.4byte	.LASF59
 992 0357 04       		.byte	0x4
 993 0358 DC       		.byte	0xdc
 994 0359 030B0000 		.4byte	.LASF60
 995 035d 25000000 		.4byte	0x25
 996 0361 69030000 		.4byte	0x369
 997 0365 6F030000 		.4byte	0x36f
 998 0369 13       		.uleb128 0x13
 999 036a 61060000 		.4byte	0x661
 1000 036e 00       		.byte	0
 1001 036f 12       		.uleb128 0x12
 1002 0370 C5090000 		.4byte	.LASF61
 1003 0374 04       		.byte	0x4
 1004 0375 E7       		.byte	0xe7
 1005 0376 600A0000 		.4byte	.LASF62
 1006 037a 25000000 		.4byte	0x25
 1007 037e 86030000 		.4byte	0x386
 1008 0382 91030000 		.4byte	0x391
 1009 0386 13       		.uleb128 0x13
 1010 0387 61060000 		.4byte	0x661
 1011 038b 15       		.uleb128 0x15
 1012 038c 25000000 		.4byte	0x25
 1013 0390 00       		.byte	0
 1014 0391 12       		.uleb128 0x12
 1015 0392 E6030000 		.4byte	.LASF63
 1016 0396 04       		.byte	0x4
 1017 0397 F3       		.byte	0xf3
ARM GAS  C:\msys64\tmp\ccSyJrMh.s 			page 19


 1018 0398 FC030000 		.4byte	.LASF64
 1019 039c 25000000 		.4byte	0x25
 1020 03a0 A8030000 		.4byte	0x3a8
 1021 03a4 B3030000 		.4byte	0x3b3
 1022 03a8 13       		.uleb128 0x13
 1023 03a9 61060000 		.4byte	0x661
 1024 03ad 15       		.uleb128 0x15
 1025 03ae 25000000 		.4byte	0x25
 1026 03b2 00       		.byte	0
 1027 03b3 16       		.uleb128 0x16
 1028 03b4 D6020000 		.4byte	.LASF65
 1029 03b8 04       		.byte	0x4
 1030 03b9 0001     		.2byte	0x100
 1031 03bb 340A0000 		.4byte	.LASF67
 1032 03bf 25000000 		.4byte	0x25
 1033 03c3 CB030000 		.4byte	0x3cb
 1034 03c7 D1030000 		.4byte	0x3d1
 1035 03cb 13       		.uleb128 0x13
 1036 03cc 61060000 		.4byte	0x661
 1037 03d0 00       		.byte	0
 1038 03d1 16       		.uleb128 0x16
 1039 03d2 8C090000 		.4byte	.LASF66
 1040 03d6 04       		.byte	0x4
 1041 03d7 0901     		.2byte	0x109
 1042 03d9 01060000 		.4byte	.LASF68
 1043 03dd 25000000 		.4byte	0x25
 1044 03e1 E9030000 		.4byte	0x3e9
 1045 03e5 EF030000 		.4byte	0x3ef
 1046 03e9 13       		.uleb128 0x13
 1047 03ea 61060000 		.4byte	0x661
 1048 03ee 00       		.byte	0
 1049 03ef 16       		.uleb128 0x16
 1050 03f0 77020000 		.4byte	.LASF69
 1051 03f4 04       		.byte	0x4
 1052 03f5 1401     		.2byte	0x114
 1053 03f7 93040000 		.4byte	.LASF70
 1054 03fb 25000000 		.4byte	0x25
 1055 03ff 07040000 		.4byte	0x407
 1056 0403 12040000 		.4byte	0x412
 1057 0407 13       		.uleb128 0x13
 1058 0408 61060000 		.4byte	0x661
 1059 040c 15       		.uleb128 0x15
 1060 040d 25000000 		.4byte	0x25
 1061 0411 00       		.byte	0
 1062 0412 17       		.uleb128 0x17
 1063 0413 CD080000 		.4byte	.LASF71
 1064 0417 04       		.byte	0x4
 1065 0418 2001     		.2byte	0x120
 1066 041a 97090000 		.4byte	.LASF103
 1067 041e 25000000 		.4byte	0x25
 1068 0422 26040000 		.4byte	0x426
 1069 0426 13       		.uleb128 0x13
 1070 0427 61060000 		.4byte	0x661
 1071 042b 15       		.uleb128 0x15
 1072 042c 25000000 		.4byte	0x25
 1073 0430 00       		.byte	0
 1074 0431 00       		.byte	0
ARM GAS  C:\msys64\tmp\ccSyJrMh.s 			page 20


 1075 0432 18       		.uleb128 0x18
 1076 0433 ED070000 		.4byte	.LASF77
 1077 0437 18       		.byte	0x18
 1078 0438 02       		.byte	0x2
 1079 0439 BB       		.byte	0xbb
 1080 043a 10       		.uleb128 0x10
 1081 043b CE050000 		.4byte	.LASF72
 1082 043f 02       		.byte	0x2
 1083 0440 8301     		.2byte	0x183
 1084 0442 67060000 		.4byte	0x667
 1085 0446 00       		.byte	0
 1086 0447 10       		.uleb128 0x10
 1087 0448 520A0000 		.4byte	.LASF73
 1088 044c 02       		.byte	0x2
 1089 044d 8401     		.2byte	0x184
 1090 044f 2B010000 		.4byte	0x12b
 1091 0453 04       		.byte	0x4
 1092 0454 10       		.uleb128 0x10
 1093 0455 91060000 		.4byte	.LASF74
 1094 0459 02       		.byte	0x2
 1095 045a 8501     		.2byte	0x185
 1096 045c B4000000 		.4byte	0xb4
 1097 0460 0C       		.byte	0xc
 1098 0461 10       		.uleb128 0x10
 1099 0462 87050000 		.4byte	.LASF75
 1100 0466 02       		.byte	0x2
 1101 0467 8601     		.2byte	0x186
 1102 0469 B4000000 		.4byte	0xb4
 1103 046d 10       		.byte	0x10
 1104 046e 10       		.uleb128 0x10
 1105 046f 7D050000 		.4byte	.LASF76
 1106 0473 02       		.byte	0x2
 1107 0474 8701     		.2byte	0x187
 1108 0476 A9000000 		.4byte	0xa9
 1109 047a 14       		.byte	0x14
 1110 047b 12       		.uleb128 0x12
 1111 047c ED070000 		.4byte	.LASF77
 1112 0480 02       		.byte	0x2
 1113 0481 C8       		.byte	0xc8
 1114 0482 5D080000 		.4byte	.LASF78
 1115 0486 6D060000 		.4byte	0x66d
 1116 048a 92040000 		.4byte	0x492
 1117 048e 98040000 		.4byte	0x498
 1118 0492 13       		.uleb128 0x13
 1119 0493 6D060000 		.4byte	0x66d
 1120 0497 00       		.byte	0
 1121 0498 12       		.uleb128 0x12
 1122 0499 ED070000 		.4byte	.LASF77
 1123 049d 02       		.byte	0x2
 1124 049e D7       		.byte	0xd7
 1125 049f FB090000 		.4byte	.LASF79
 1126 04a3 6D060000 		.4byte	0x66d
 1127 04a7 AF040000 		.4byte	0x4af
 1128 04ab BF040000 		.4byte	0x4bf
 1129 04af 13       		.uleb128 0x13
 1130 04b0 6D060000 		.4byte	0x66d
 1131 04b4 15       		.uleb128 0x15
ARM GAS  C:\msys64\tmp\ccSyJrMh.s 			page 21


 1132 04b5 67060000 		.4byte	0x667
 1133 04b9 15       		.uleb128 0x15
 1134 04ba B4000000 		.4byte	0xb4
 1135 04be 00       		.byte	0
 1136 04bf 14       		.uleb128 0x14
 1137 04c0 FC020000 		.4byte	.LASF80
 1138 04c4 02       		.byte	0x2
 1139 04c5 E5       		.byte	0xe5
 1140 04c6 4A050000 		.4byte	.LASF81
 1141 04ca D2040000 		.4byte	0x4d2
 1142 04ce D8040000 		.4byte	0x4d8
 1143 04d2 13       		.uleb128 0x13
 1144 04d3 6D060000 		.4byte	0x66d
 1145 04d7 00       		.byte	0
 1146 04d8 14       		.uleb128 0x14
 1147 04d9 02030000 		.4byte	.LASF82
 1148 04dd 02       		.byte	0x2
 1149 04de F2       		.byte	0xf2
 1150 04df 9D030000 		.4byte	.LASF83
 1151 04e3 EB040000 		.4byte	0x4eb
 1152 04e7 FB040000 		.4byte	0x4fb
 1153 04eb 13       		.uleb128 0x13
 1154 04ec 6D060000 		.4byte	0x66d
 1155 04f0 15       		.uleb128 0x15
 1156 04f1 67060000 		.4byte	0x667
 1157 04f5 15       		.uleb128 0x15
 1158 04f6 B4000000 		.4byte	0xb4
 1159 04fa 00       		.byte	0
 1160 04fb 14       		.uleb128 0x14
 1161 04fc 77050000 		.4byte	.LASF84
 1162 0500 02       		.byte	0x2
 1163 0501 FF       		.byte	0xff
 1164 0502 6B030000 		.4byte	.LASF85
 1165 0506 0E050000 		.4byte	0x50e
 1166 050a 19050000 		.4byte	0x519
 1167 050e 13       		.uleb128 0x13
 1168 050f 6D060000 		.4byte	0x66d
 1169 0513 15       		.uleb128 0x15
 1170 0514 73060000 		.4byte	0x673
 1171 0518 00       		.byte	0
 1172 0519 16       		.uleb128 0x16
 1173 051a 58080000 		.4byte	.LASF86
 1174 051e 02       		.byte	0x2
 1175 051f 0A01     		.2byte	0x10a
 1176 0521 25020000 		.4byte	.LASF87
 1177 0525 2B010000 		.4byte	0x12b
 1178 0529 31050000 		.4byte	0x531
 1179 052d 3C050000 		.4byte	0x53c
 1180 0531 13       		.uleb128 0x13
 1181 0532 6D060000 		.4byte	0x66d
 1182 0536 15       		.uleb128 0x15
 1183 0537 A9000000 		.4byte	0xa9
 1184 053b 00       		.byte	0
 1185 053c 16       		.uleb128 0x16
 1186 053d 9D010000 		.4byte	.LASF88
 1187 0541 02       		.byte	0x2
 1188 0542 1501     		.2byte	0x115
ARM GAS  C:\msys64\tmp\ccSyJrMh.s 			page 22


 1189 0544 AC050000 		.4byte	.LASF89
 1190 0548 2B010000 		.4byte	0x12b
 1191 054c 54050000 		.4byte	0x554
 1192 0550 5F050000 		.4byte	0x55f
 1193 0554 13       		.uleb128 0x13
 1194 0555 6D060000 		.4byte	0x66d
 1195 0559 15       		.uleb128 0x15
 1196 055a 25000000 		.4byte	0x25
 1197 055e 00       		.byte	0
 1198 055f 16       		.uleb128 0x16
 1199 0560 34060000 		.4byte	.LASF90
 1200 0564 02       		.byte	0x2
 1201 0565 2601     		.2byte	0x126
 1202 0567 AF070000 		.4byte	.LASF91
 1203 056b 2B010000 		.4byte	0x12b
 1204 056f 77050000 		.4byte	0x577
 1205 0573 87050000 		.4byte	0x587
 1206 0577 13       		.uleb128 0x13
 1207 0578 6D060000 		.4byte	0x66d
 1208 057c 15       		.uleb128 0x15
 1209 057d A9000000 		.4byte	0xa9
 1210 0581 15       		.uleb128 0x15
 1211 0582 25000000 		.4byte	0x25
 1212 0586 00       		.byte	0
 1213 0587 16       		.uleb128 0x16
 1214 0588 84060000 		.4byte	.LASF92
 1215 058c 02       		.byte	0x2
 1216 058d 3401     		.2byte	0x134
 1217 058f 8D050000 		.4byte	.LASF93
 1218 0593 25000000 		.4byte	0x25
 1219 0597 9F050000 		.4byte	0x59f
 1220 059b AA050000 		.4byte	0x5aa
 1221 059f 13       		.uleb128 0x13
 1222 05a0 6D060000 		.4byte	0x66d
 1223 05a4 15       		.uleb128 0x15
 1224 05a5 A9000000 		.4byte	0xa9
 1225 05a9 00       		.byte	0
 1226 05aa 16       		.uleb128 0x16
 1227 05ab 3A050000 		.4byte	.LASF94
 1228 05af 02       		.byte	0x2
 1229 05b0 3F01     		.2byte	0x13f
 1230 05b2 DC090000 		.4byte	.LASF95
 1231 05b6 25000000 		.4byte	0x25
 1232 05ba C2050000 		.4byte	0x5c2
 1233 05be CD050000 		.4byte	0x5cd
 1234 05c2 13       		.uleb128 0x13
 1235 05c3 6D060000 		.4byte	0x66d
 1236 05c7 15       		.uleb128 0x15
 1237 05c8 A9000000 		.4byte	0xa9
 1238 05cc 00       		.byte	0
 1239 05cd 16       		.uleb128 0x16
 1240 05ce F2030000 		.4byte	.LASF96
 1241 05d2 02       		.byte	0x2
 1242 05d3 4A01     		.2byte	0x14a
 1243 05d5 D2060000 		.4byte	.LASF97
 1244 05d9 25000000 		.4byte	0x25
 1245 05dd E5050000 		.4byte	0x5e5
ARM GAS  C:\msys64\tmp\ccSyJrMh.s 			page 23


 1246 05e1 F0050000 		.4byte	0x5f0
 1247 05e5 13       		.uleb128 0x13
 1248 05e6 6D060000 		.4byte	0x66d
 1249 05ea 15       		.uleb128 0x15
 1250 05eb 25000000 		.4byte	0x25
 1251 05ef 00       		.byte	0
 1252 05f0 16       		.uleb128 0x16
 1253 05f1 A6080000 		.4byte	.LASF98
 1254 05f5 02       		.byte	0x2
 1255 05f6 5A01     		.2byte	0x15a
 1256 05f8 DB050000 		.4byte	.LASF99
 1257 05fc 25000000 		.4byte	0x25
 1258 0600 08060000 		.4byte	0x608
 1259 0604 18060000 		.4byte	0x618
 1260 0608 13       		.uleb128 0x13
 1261 0609 6D060000 		.4byte	0x66d
 1262 060d 15       		.uleb128 0x15
 1263 060e A9000000 		.4byte	0xa9
 1264 0612 15       		.uleb128 0x15
 1265 0613 25000000 		.4byte	0x25
 1266 0617 00       		.byte	0
 1267 0618 16       		.uleb128 0x16
 1268 0619 41000000 		.4byte	.LASF100
 1269 061d 02       		.byte	0x2
 1270 061e 6801     		.2byte	0x168
 1271 0620 3E040000 		.4byte	.LASF101
 1272 0624 25000000 		.4byte	0x25
 1273 0628 30060000 		.4byte	0x630
 1274 062c 3B060000 		.4byte	0x63b
 1275 0630 13       		.uleb128 0x13
 1276 0631 6D060000 		.4byte	0x66d
 1277 0635 15       		.uleb128 0x15
 1278 0636 25000000 		.4byte	0x25
 1279 063a 00       		.byte	0
 1280 063b 17       		.uleb128 0x17
 1281 063c C2040000 		.4byte	.LASF102
 1282 0640 02       		.byte	0x2
 1283 0641 7801     		.2byte	0x178
 1284 0643 EE080000 		.4byte	.LASF104
 1285 0647 25000000 		.4byte	0x25
 1286 064b 4F060000 		.4byte	0x64f
 1287 064f 13       		.uleb128 0x13
 1288 0650 6D060000 		.4byte	0x66d
 1289 0654 15       		.uleb128 0x15
 1290 0655 A9000000 		.4byte	0xa9
 1291 0659 15       		.uleb128 0x15
 1292 065a 25000000 		.4byte	0x25
 1293 065e 00       		.byte	0
 1294 065f 00       		.byte	0
 1295 0660 00       		.byte	0
 1296 0661 0D       		.uleb128 0xd
 1297 0662 04       		.byte	0x4
 1298 0663 84010000 		.4byte	0x184
 1299 0667 0D       		.uleb128 0xd
 1300 0668 04       		.byte	0x4
 1301 0669 2B010000 		.4byte	0x12b
 1302 066d 0D       		.uleb128 0xd
ARM GAS  C:\msys64\tmp\ccSyJrMh.s 			page 24


 1303 066e 04       		.byte	0x4
 1304 066f 32040000 		.4byte	0x432
 1305 0673 19       		.uleb128 0x19
 1306 0674 04       		.byte	0x4
 1307 0675 79060000 		.4byte	0x679
 1308 0679 1A       		.uleb128 0x1a
 1309 067a 2B010000 		.4byte	0x12b
 1310 067e 1B       		.uleb128 0x1b
 1311 067f EA010000 		.4byte	.LASF106
 1312 0683 05       		.byte	0x5
 1313 0684 1C01     		.2byte	0x11c
 1314 0686 25000000 		.4byte	0x25
 1315 068a 03       		.byte	0x3
 1316 068b A5060000 		.4byte	0x6a5
 1317 068f 1C       		.uleb128 0x1c
 1318 0690 7800     		.ascii	"x\000"
 1319 0692 05       		.byte	0x5
 1320 0693 1C01     		.2byte	0x11c
 1321 0695 25000000 		.4byte	0x25
 1322 0699 1D       		.uleb128 0x1d
 1323 069a 787300   		.ascii	"xs\000"
 1324 069d 05       		.byte	0x5
 1325 069e 1E01     		.2byte	0x11e
 1326 06a0 FF000000 		.4byte	0xff
 1327 06a4 00       		.byte	0
 1328 06a5 1E       		.uleb128 0x1e
 1329 06a6 A9010000 		.4byte	0x1a9
 1330 06aa 03       		.byte	0x3
 1331 06ab B3060000 		.4byte	0x6b3
 1332 06af BD060000 		.4byte	0x6bd
 1333 06b3 1F       		.uleb128 0x1f
 1334 06b4 CD060000 		.4byte	.LASF105
 1335 06b8 BD060000 		.4byte	0x6bd
 1336 06bc 00       		.byte	0
 1337 06bd 1A       		.uleb128 0x1a
 1338 06be 61060000 		.4byte	0x661
 1339 06c2 1E       		.uleb128 0x1e
 1340 06c3 7B040000 		.4byte	0x47b
 1341 06c7 03       		.byte	0x3
 1342 06c8 D0060000 		.4byte	0x6d0
 1343 06cc DA060000 		.4byte	0x6da
 1344 06d0 1F       		.uleb128 0x1f
 1345 06d1 CD060000 		.4byte	.LASF105
 1346 06d5 DA060000 		.4byte	0x6da
 1347 06d9 00       		.byte	0
 1348 06da 1A       		.uleb128 0x1a
 1349 06db 6D060000 		.4byte	0x66d
 1350 06df 20       		.uleb128 0x20
 1351 06e0 B6040000 		.4byte	.LASF154
 1352 06e4 03       		.byte	0x3
 1353 06e5 68       		.byte	0x68
 1354 06e6 03       		.byte	0x3
 1355 06e7 0D070000 		.4byte	0x70d
 1356 06eb 21       		.uleb128 0x21
 1357 06ec 70747200 		.ascii	"ptr\000"
 1358 06f0 03       		.byte	0x3
 1359 06f1 68       		.byte	0x68
ARM GAS  C:\msys64\tmp\ccSyJrMh.s 			page 25


 1360 06f2 0D070000 		.4byte	0x70d
 1361 06f6 21       		.uleb128 0x21
 1362 06f7 6C656E00 		.ascii	"len\000"
 1363 06fb 03       		.byte	0x3
 1364 06fc 69       		.byte	0x69
 1365 06fd 12070000 		.4byte	0x712
 1366 0701 22       		.uleb128 0x22
 1367 0702 656E6400 		.ascii	"end\000"
 1368 0706 03       		.byte	0x3
 1369 0707 6B       		.byte	0x6b
 1370 0708 17070000 		.4byte	0x717
 1371 070c 00       		.byte	0
 1372 070d 23       		.uleb128 0x23
 1373 070e 73010000 		.4byte	0x173
 1374 0712 1A       		.uleb128 0x1a
 1375 0713 A9000000 		.4byte	0xa9
 1376 0717 0D       		.uleb128 0xd
 1377 0718 04       		.byte	0x4
 1378 0719 1D070000 		.4byte	0x71d
 1379 071d 1A       		.uleb128 0x1a
 1380 071e 25000000 		.4byte	0x25
 1381 0722 24       		.uleb128 0x24
 1382 0723 50090000 		.4byte	.LASF107
 1383 0727 0A       		.byte	0xa
 1384 0728 75       		.byte	0x75
 1385 0729 A9000000 		.4byte	0xa9
 1386 072d 03       		.byte	0x3
 1387 072e 3C070000 		.4byte	0x73c
 1388 0732 21       		.uleb128 0x21
 1389 0733 7800     		.ascii	"x\000"
 1390 0735 0A       		.byte	0xa
 1391 0736 75       		.byte	0x75
 1392 0737 A9000000 		.4byte	0xa9
 1393 073b 00       		.byte	0
 1394 073c 1E       		.uleb128 0x1e
 1395 073d F8010000 		.4byte	0x1f8
 1396 0741 03       		.byte	0x3
 1397 0742 4A070000 		.4byte	0x74a
 1398 0746 69070000 		.4byte	0x769
 1399 074a 1F       		.uleb128 0x1f
 1400 074b CD060000 		.4byte	.LASF105
 1401 074f BD060000 		.4byte	0x6bd
 1402 0753 21       		.uleb128 0x21
 1403 0754 663000   		.ascii	"f0\000"
 1404 0757 04       		.byte	0x4
 1405 0758 65       		.byte	0x65
 1406 0759 1D070000 		.4byte	0x71d
 1407 075d 25       		.uleb128 0x25
 1408 075e 14090000 		.4byte	.LASF108
 1409 0762 04       		.byte	0x4
 1410 0763 65       		.byte	0x65
 1411 0764 1D070000 		.4byte	0x71d
 1412 0768 00       		.byte	0
 1413 0769 1E       		.uleb128 0x1e
 1414 076a DF010000 		.4byte	0x1df
 1415 076e 03       		.byte	0x3
 1416 076f 77070000 		.4byte	0x777
ARM GAS  C:\msys64\tmp\ccSyJrMh.s 			page 26


 1417 0773 81070000 		.4byte	0x781
 1418 0777 1F       		.uleb128 0x1f
 1419 0778 CD060000 		.4byte	.LASF105
 1420 077c BD060000 		.4byte	0x6bd
 1421 0780 00       		.byte	0
 1422 0781 1E       		.uleb128 0x1e
 1423 0782 BF040000 		.4byte	0x4bf
 1424 0786 03       		.byte	0x3
 1425 0787 8F070000 		.4byte	0x78f
 1426 078b 99070000 		.4byte	0x799
 1427 078f 1F       		.uleb128 0x1f
 1428 0790 CD060000 		.4byte	.LASF105
 1429 0794 DA060000 		.4byte	0x6da
 1430 0798 00       		.byte	0
 1431 0799 1E       		.uleb128 0x1e
 1432 079a D8040000 		.4byte	0x4d8
 1433 079e 03       		.byte	0x3
 1434 079f A7070000 		.4byte	0x7a7
 1435 07a3 C7070000 		.4byte	0x7c7
 1436 07a7 1F       		.uleb128 0x1f
 1437 07a8 CD060000 		.4byte	.LASF105
 1438 07ac DA060000 		.4byte	0x6da
 1439 07b0 21       		.uleb128 0x21
 1440 07b1 72616D00 		.ascii	"ram\000"
 1441 07b5 02       		.byte	0x2
 1442 07b6 F2       		.byte	0xf2
 1443 07b7 67060000 		.4byte	0x667
 1444 07bb 25       		.uleb128 0x25
 1445 07bc 59060000 		.4byte	.LASF109
 1446 07c0 02       		.byte	0x2
 1447 07c1 F2       		.byte	0xf2
 1448 07c2 B4000000 		.4byte	0xb4
 1449 07c6 00       		.byte	0
 1450 07c7 1E       		.uleb128 0x1e
 1451 07c8 C6010000 		.4byte	0x1c6
 1452 07cc 03       		.byte	0x3
 1453 07cd D5070000 		.4byte	0x7d5
 1454 07d1 DF070000 		.4byte	0x7df
 1455 07d5 1F       		.uleb128 0x1f
 1456 07d6 CD060000 		.4byte	.LASF105
 1457 07da BD060000 		.4byte	0x6bd
 1458 07de 00       		.byte	0
 1459 07df 1E       		.uleb128 0x1e
 1460 07e0 FB040000 		.4byte	0x4fb
 1461 07e4 03       		.byte	0x3
 1462 07e5 ED070000 		.4byte	0x7ed
 1463 07e9 00080000 		.4byte	0x800
 1464 07ed 1F       		.uleb128 0x1f
 1465 07ee CD060000 		.4byte	.LASF105
 1466 07f2 DA060000 		.4byte	0x6da
 1467 07f6 21       		.uleb128 0x21
 1468 07f7 7000     		.ascii	"p\000"
 1469 07f9 02       		.byte	0x2
 1470 07fa FF       		.byte	0xff
 1471 07fb 00080000 		.4byte	0x800
 1472 07ff 00       		.byte	0
 1473 0800 1A       		.uleb128 0x1a
ARM GAS  C:\msys64\tmp\ccSyJrMh.s 			page 27


 1474 0801 73060000 		.4byte	0x673
 1475 0805 1E       		.uleb128 0x1e
 1476 0806 39020000 		.4byte	0x239
 1477 080a 03       		.byte	0x3
 1478 080b 13080000 		.4byte	0x813
 1479 080f 28080000 		.4byte	0x828
 1480 0813 1F       		.uleb128 0x1f
 1481 0814 CD060000 		.4byte	.LASF105
 1482 0818 BD060000 		.4byte	0x6bd
 1483 081c 26       		.uleb128 0x26
 1484 081d 43080000 		.4byte	.LASF110
 1485 0821 04       		.byte	0x4
 1486 0822 7D       		.byte	0x7d
 1487 0823 1D070000 		.4byte	0x71d
 1488 0827 00       		.byte	0
 1489 0828 1E       		.uleb128 0x1e
 1490 0829 AA050000 		.4byte	0x5aa
 1491 082d 03       		.byte	0x3
 1492 082e 36080000 		.4byte	0x836
 1493 0832 4C080000 		.4byte	0x84c
 1494 0836 1F       		.uleb128 0x1f
 1495 0837 CD060000 		.4byte	.LASF105
 1496 083b DA060000 		.4byte	0x6da
 1497 083f 1C       		.uleb128 0x1c
 1498 0840 706F7300 		.ascii	"pos\000"
 1499 0844 02       		.byte	0x2
 1500 0845 3F01     		.2byte	0x13f
 1501 0847 12070000 		.4byte	0x712
 1502 084b 00       		.byte	0
 1503 084c 1E       		.uleb128 0x1e
 1504 084d 87050000 		.4byte	0x587
 1505 0851 03       		.byte	0x3
 1506 0852 5A080000 		.4byte	0x85a
 1507 0856 70080000 		.4byte	0x870
 1508 085a 1F       		.uleb128 0x1f
 1509 085b CD060000 		.4byte	.LASF105
 1510 085f DA060000 		.4byte	0x6da
 1511 0863 1C       		.uleb128 0x1c
 1512 0864 706F7300 		.ascii	"pos\000"
 1513 0868 02       		.byte	0x2
 1514 0869 3401     		.2byte	0x134
 1515 086b 12070000 		.4byte	0x712
 1516 086f 00       		.byte	0
 1517 0870 27       		.uleb128 0x27
 1518 0871 F5060000 		.4byte	.LASF155
 1519 0875 01       		.byte	0x1
 1520 0876 91080000 		.4byte	0x891
 1521 087a 25       		.uleb128 0x25
 1522 087b 22030000 		.4byte	.LASF111
 1523 087f 01       		.byte	0x1
 1524 0880 6C       		.byte	0x6c
 1525 0881 2C000000 		.4byte	0x2c
 1526 0885 25       		.uleb128 0x25
 1527 0886 60030000 		.4byte	.LASF112
 1528 088a 01       		.byte	0x1
 1529 088b 6C       		.byte	0x6c
 1530 088c 2C000000 		.4byte	0x2c
ARM GAS  C:\msys64\tmp\ccSyJrMh.s 			page 28


 1531 0890 00       		.byte	0
 1532 0891 28       		.uleb128 0x28
 1533 0892 5F070000 		.4byte	.LASF113
 1534 0896 01       		.byte	0x1
 1535 0897 1D       		.byte	0x1d
 1536 0898 00000000 		.4byte	.LFB315
 1537 089c 84000000 		.4byte	.LFE315-.LFB315
 1538 08a0 01       		.uleb128 0x1
 1539 08a1 9C       		.byte	0x9c
 1540 08a2 9B090000 		.4byte	0x99b
 1541 08a6 29       		.uleb128 0x29
 1542 08a7 DB010000 		.4byte	.LASF114
 1543 08ab 01       		.byte	0x1
 1544 08ac 1D       		.byte	0x1d
 1545 08ad A9000000 		.4byte	0xa9
 1546 08b1 00000000 		.4byte	.LLST0
 1547 08b5 2A       		.uleb128 0x2a
 1548 08b6 61706900 		.ascii	"api\000"
 1549 08ba 01       		.byte	0x1
 1550 08bb 1D       		.byte	0x1d
 1551 08bc A9000000 		.4byte	0xa9
 1552 08c0 21000000 		.4byte	.LLST1
 1553 08c4 2B       		.uleb128 0x2b
 1554 08c5 99070000 		.4byte	0x799
 1555 08c9 02000000 		.4byte	.LBB48
 1556 08cd 1A000000 		.4byte	.LBE48-.LBB48
 1557 08d1 01       		.byte	0x1
 1558 08d2 1F       		.byte	0x1f
 1559 08d3 F3080000 		.4byte	0x8f3
 1560 08d7 2C       		.uleb128 0x2c
 1561 08d8 BB070000 		.4byte	0x7bb
 1562 08dc 42000000 		.4byte	.LLST2
 1563 08e0 2C       		.uleb128 0x2c
 1564 08e1 B0070000 		.4byte	0x7b0
 1565 08e5 5A000000 		.4byte	.LLST3
 1566 08e9 2C       		.uleb128 0x2c
 1567 08ea A7070000 		.4byte	0x7a7
 1568 08ee 72000000 		.4byte	.LLST4
 1569 08f2 00       		.byte	0
 1570 08f3 2B       		.uleb128 0x2b
 1571 08f4 81070000 		.4byte	0x781
 1572 08f8 1C000000 		.4byte	.LBB50
 1573 08fc 18000000 		.4byte	.LBE50-.LBB50
 1574 0900 01       		.byte	0x1
 1575 0901 20       		.byte	0x20
 1576 0902 45090000 		.4byte	0x945
 1577 0906 2C       		.uleb128 0x2c
 1578 0907 8F070000 		.4byte	0x78f
 1579 090b 8A000000 		.4byte	.LLST5
 1580 090f 2D       		.uleb128 0x2d
 1581 0910 DF060000 		.4byte	0x6df
 1582 0914 1C000000 		.4byte	.LBB51
 1583 0918 18000000 		.4byte	.LBE51-.LBB51
 1584 091c 02       		.byte	0x2
 1585 091d E6       		.byte	0xe6
 1586 091e 2C       		.uleb128 0x2c
 1587 091f F6060000 		.4byte	0x6f6
ARM GAS  C:\msys64\tmp\ccSyJrMh.s 			page 29


 1588 0923 A2000000 		.4byte	.LLST6
 1589 0927 2C       		.uleb128 0x2c
 1590 0928 EB060000 		.4byte	0x6eb
 1591 092c B8000000 		.4byte	.LLST7
 1592 0930 2E       		.uleb128 0x2e
 1593 0931 1C000000 		.4byte	.LBB52
 1594 0935 18000000 		.4byte	.LBE52-.LBB52
 1595 0939 2F       		.uleb128 0x2f
 1596 093a 01070000 		.4byte	0x701
 1597 093e 0F010000 		.4byte	.LLST8
 1598 0942 00       		.byte	0
 1599 0943 00       		.byte	0
 1600 0944 00       		.byte	0
 1601 0945 2B       		.uleb128 0x2b
 1602 0946 69070000 		.4byte	0x769
 1603 094a 34000000 		.4byte	.LBB53
 1604 094e 06000000 		.4byte	.LBE53-.LBB53
 1605 0952 01       		.byte	0x1
 1606 0953 21       		.byte	0x21
 1607 0954 62090000 		.4byte	0x962
 1608 0958 2C       		.uleb128 0x2c
 1609 0959 77070000 		.4byte	0x777
 1610 095d 27010000 		.4byte	.LLST9
 1611 0961 00       		.byte	0
 1612 0962 30       		.uleb128 0x30
 1613 0963 3C070000 		.4byte	0x73c
 1614 0967 4E000000 		.4byte	.LBB55
 1615 096b 00000000 		.4byte	.Ldebug_ranges0+0
 1616 096f 01       		.byte	0x1
 1617 0970 25       		.byte	0x25
 1618 0971 91090000 		.4byte	0x991
 1619 0975 2C       		.uleb128 0x2c
 1620 0976 5D070000 		.4byte	0x75d
 1621 097a 3F010000 		.4byte	.LLST10
 1622 097e 2C       		.uleb128 0x2c
 1623 097f 53070000 		.4byte	0x753
 1624 0983 57010000 		.4byte	.LLST11
 1625 0987 2C       		.uleb128 0x2c
 1626 0988 4A070000 		.4byte	0x74a
 1627 098c 6E010000 		.4byte	.LLST12
 1628 0990 00       		.byte	0
 1629 0991 31       		.uleb128 0x31
 1630 0992 3E000000 		.4byte	.LVL10
 1631 0996 A10D0000 		.4byte	0xda1
 1632 099a 00       		.byte	0
 1633 099b 28       		.uleb128 0x28
 1634 099c 2B070000 		.4byte	.LASF115
 1635 09a0 01       		.byte	0x1
 1636 09a1 2D       		.byte	0x2d
 1637 09a2 84000000 		.4byte	.LFB317
 1638 09a6 F0000000 		.4byte	.LFE317-.LFB317
 1639 09aa 01       		.uleb128 0x1
 1640 09ab 9C       		.byte	0x9c
 1641 09ac F20A0000 		.4byte	0xaf2
 1642 09b0 2A       		.uleb128 0x2a
 1643 09b1 786E00   		.ascii	"xn\000"
 1644 09b4 01       		.byte	0x1
ARM GAS  C:\msys64\tmp\ccSyJrMh.s 			page 30


 1645 09b5 2D       		.byte	0x2d
 1646 09b6 73010000 		.4byte	0x173
 1647 09ba 86010000 		.4byte	.LLST13
 1648 09be 29       		.uleb128 0x29
 1649 09bf CD040000 		.4byte	.LASF116
 1650 09c3 01       		.byte	0x1
 1651 09c4 2D       		.byte	0x2d
 1652 09c5 A9000000 		.4byte	0xa9
 1653 09c9 A7010000 		.4byte	.LLST14
 1654 09cd 32       		.uleb128 0x32
 1655 09ce 7800     		.ascii	"x\000"
 1656 09d0 01       		.byte	0x1
 1657 09d1 2F       		.byte	0x2f
 1658 09d2 73010000 		.4byte	0x173
 1659 09d6 C8010000 		.4byte	.LLST15
 1660 09da 32       		.uleb128 0x32
 1661 09db 785F6500 		.ascii	"x_e\000"
 1662 09df 01       		.byte	0x1
 1663 09e0 30       		.byte	0x30
 1664 09e1 17070000 		.4byte	0x717
 1665 09e5 FE010000 		.4byte	.LLST16
 1666 09e9 33       		.uleb128 0x33
 1667 09ea 77657400 		.ascii	"wet\000"
 1668 09ee 01       		.byte	0x1
 1669 09ef 32       		.byte	0x32
 1670 09f0 1D070000 		.4byte	0x71d
 1671 09f4 02       		.uleb128 0x2
 1672 09f5 90       		.byte	0x90
 1673 09f6 4B       		.uleb128 0x4b
 1674 09f7 34       		.uleb128 0x34
 1675 09f8 20020000 		.4byte	.LASF117
 1676 09fc 01       		.byte	0x1
 1677 09fd 33       		.byte	0x33
 1678 09fe 2B010000 		.4byte	0x12b
 1679 0a02 25020000 		.4byte	.LLST17
 1680 0a06 35       		.uleb128 0x35
 1681 0a07 18000000 		.4byte	.Ldebug_ranges0+0x18
 1682 0a0b 34       		.uleb128 0x34
 1683 0a0c 0C030000 		.4byte	.LASF118
 1684 0a10 01       		.byte	0x1
 1685 0a11 37       		.byte	0x37
 1686 0a12 1D070000 		.4byte	0x71d
 1687 0a16 95020000 		.4byte	.LLST18
 1688 0a1a 34       		.uleb128 0x34
 1689 0a1b 17030000 		.4byte	.LASF119
 1690 0a1f 01       		.byte	0x1
 1691 0a20 38       		.byte	0x38
 1692 0a21 1D070000 		.4byte	0x71d
 1693 0a25 C2020000 		.4byte	.LLST19
 1694 0a29 30       		.uleb128 0x30
 1695 0a2a 05080000 		.4byte	0x805
 1696 0a2e 86000000 		.4byte	.LBB61
 1697 0a32 48000000 		.4byte	.Ldebug_ranges0+0x48
 1698 0a36 01       		.byte	0x1
 1699 0a37 37       		.byte	0x37
 1700 0a38 790A0000 		.4byte	0xa79
 1701 0a3c 2C       		.uleb128 0x2c
ARM GAS  C:\msys64\tmp\ccSyJrMh.s 			page 31


 1702 0a3d 13080000 		.4byte	0x813
 1703 0a41 D6020000 		.4byte	.LLST20
 1704 0a45 35       		.uleb128 0x35
 1705 0a46 48000000 		.4byte	.Ldebug_ranges0+0x48
 1706 0a4a 2F       		.uleb128 0x2f
 1707 0a4b 1C080000 		.4byte	0x81c
 1708 0a4f EE020000 		.4byte	.LLST21
 1709 0a53 2D       		.uleb128 0x2d
 1710 0a54 7E060000 		.4byte	0x67e
 1711 0a58 CC000000 		.4byte	.LBB63
 1712 0a5c 0C000000 		.4byte	.LBE63-.LBB63
 1713 0a60 04       		.byte	0x4
 1714 0a61 7E       		.byte	0x7e
 1715 0a62 36       		.uleb128 0x36
 1716 0a63 8F060000 		.4byte	0x68f
 1717 0a67 2E       		.uleb128 0x2e
 1718 0a68 CC000000 		.4byte	.LBB64
 1719 0a6c 0C000000 		.4byte	.LBE64-.LBB64
 1720 0a70 37       		.uleb128 0x37
 1721 0a71 99060000 		.4byte	0x699
 1722 0a75 00       		.byte	0
 1723 0a76 00       		.byte	0
 1724 0a77 00       		.byte	0
 1725 0a78 00       		.byte	0
 1726 0a79 30       		.uleb128 0x30
 1727 0a7a C7070000 		.4byte	0x7c7
 1728 0a7e 92000000 		.4byte	.LBB70
 1729 0a82 80000000 		.4byte	.Ldebug_ranges0+0x80
 1730 0a86 01       		.byte	0x1
 1731 0a87 40       		.byte	0x40
 1732 0a88 920A0000 		.4byte	0xa92
 1733 0a8c 36       		.uleb128 0x36
 1734 0a8d D5070000 		.4byte	0x7d5
 1735 0a91 00       		.byte	0
 1736 0a92 30       		.uleb128 0x30
 1737 0a93 4C080000 		.4byte	0x84c
 1738 0a97 A0000000 		.4byte	.LBB73
 1739 0a9b 98000000 		.4byte	.Ldebug_ranges0+0x98
 1740 0a9f 01       		.byte	0x1
 1741 0aa0 37       		.byte	0x37
 1742 0aa1 B00A0000 		.4byte	0xab0
 1743 0aa5 36       		.uleb128 0x36
 1744 0aa6 63080000 		.4byte	0x863
 1745 0aaa 36       		.uleb128 0x36
 1746 0aab 5A080000 		.4byte	0x85a
 1747 0aaf 00       		.byte	0
 1748 0ab0 30       		.uleb128 0x30
 1749 0ab1 28080000 		.4byte	0x828
 1750 0ab5 D8000000 		.4byte	.LBB80
 1751 0ab9 B8000000 		.4byte	.Ldebug_ranges0+0xb8
 1752 0abd 01       		.byte	0x1
 1753 0abe 38       		.byte	0x38
 1754 0abf CE0A0000 		.4byte	0xace
 1755 0ac3 36       		.uleb128 0x36
 1756 0ac4 3F080000 		.4byte	0x83f
 1757 0ac8 36       		.uleb128 0x36
 1758 0ac9 36080000 		.4byte	0x836
ARM GAS  C:\msys64\tmp\ccSyJrMh.s 			page 32


 1759 0acd 00       		.byte	0
 1760 0ace 38       		.uleb128 0x38
 1761 0acf DF070000 		.4byte	0x7df
 1762 0ad3 10010000 		.4byte	.LBB89
 1763 0ad7 D0000000 		.4byte	.Ldebug_ranges0+0xd0
 1764 0adb 01       		.byte	0x1
 1765 0adc 3F       		.byte	0x3f
 1766 0add 2C       		.uleb128 0x2c
 1767 0ade F6070000 		.4byte	0x7f6
 1768 0ae2 02030000 		.4byte	.LLST22
 1769 0ae6 2C       		.uleb128 0x2c
 1770 0ae7 ED070000 		.4byte	0x7ed
 1771 0aeb 1A030000 		.4byte	.LLST23
 1772 0aef 00       		.byte	0
 1773 0af0 00       		.byte	0
 1774 0af1 00       		.byte	0
 1775 0af2 28       		.uleb128 0x28
 1776 0af3 28000000 		.4byte	.LASF120
 1777 0af7 01       		.byte	0x1
 1778 0af8 44       		.byte	0x44
 1779 0af9 74010000 		.4byte	.LFB318
 1780 0afd 98000000 		.4byte	.LFE318-.LFB318
 1781 0b01 01       		.uleb128 0x1
 1782 0b02 9C       		.byte	0x9c
 1783 0b03 3E0B0000 		.4byte	0xb3e
 1784 0b07 29       		.uleb128 0x29
 1785 0b08 8B020000 		.4byte	.LASF121
 1786 0b0c 01       		.byte	0x1
 1787 0b0d 44       		.byte	0x44
 1788 0b0e 93000000 		.4byte	0x93
 1789 0b12 32030000 		.4byte	.LLST24
 1790 0b16 29       		.uleb128 0x29
 1791 0b17 FD0A0000 		.4byte	.LASF122
 1792 0b1b 01       		.byte	0x1
 1793 0b1c 44       		.byte	0x44
 1794 0b1d 9E000000 		.4byte	0x9e
 1795 0b21 53030000 		.4byte	.LLST25
 1796 0b25 34       		.uleb128 0x34
 1797 0b26 20020000 		.4byte	.LASF117
 1798 0b2a 01       		.byte	0x1
 1799 0b2b 46       		.byte	0x46
 1800 0b2c 1D070000 		.4byte	0x71d
 1801 0b30 74030000 		.4byte	.LLST26
 1802 0b34 31       		.uleb128 0x31
 1803 0b35 A0010000 		.4byte	.LVL33
 1804 0b39 A10D0000 		.4byte	0xda1
 1805 0b3d 00       		.byte	0
 1806 0b3e 39       		.uleb128 0x39
 1807 0b3f A6010000 		.4byte	.LASF156
 1808 0b43 00000000 		.4byte	.LFB320
 1809 0b47 1C000000 		.4byte	.LFE320-.LFB320
 1810 0b4b 01       		.uleb128 0x1
 1811 0b4c 9C       		.byte	0x9c
 1812 0b4d AD0B0000 		.4byte	0xbad
 1813 0b51 2D       		.uleb128 0x2d
 1814 0b52 70080000 		.4byte	0x870
 1815 0b56 00000000 		.4byte	.LBB108
ARM GAS  C:\msys64\tmp\ccSyJrMh.s 			page 33


 1816 0b5a 1C000000 		.4byte	.LBE108-.LBB108
 1817 0b5e 01       		.byte	0x1
 1818 0b5f 6C       		.byte	0x6c
 1819 0b60 2C       		.uleb128 0x2c
 1820 0b61 7A080000 		.4byte	0x87a
 1821 0b65 A2030000 		.4byte	.LLST27
 1822 0b69 2C       		.uleb128 0x2c
 1823 0b6a 85080000 		.4byte	0x885
 1824 0b6e B6030000 		.4byte	.LLST28
 1825 0b72 30       		.uleb128 0x30
 1826 0b73 C2060000 		.4byte	0x6c2
 1827 0b77 00000000 		.4byte	.LBB109
 1828 0b7b F0000000 		.4byte	.Ldebug_ranges0+0xf0
 1829 0b7f 01       		.byte	0x1
 1830 0b80 0D       		.byte	0xd
 1831 0b81 8F0B0000 		.4byte	0xb8f
 1832 0b85 2C       		.uleb128 0x2c
 1833 0b86 D0060000 		.4byte	0x6d0
 1834 0b8a CC030000 		.4byte	.LLST29
 1835 0b8e 00       		.byte	0
 1836 0b8f 38       		.uleb128 0x38
 1837 0b90 A5060000 		.4byte	0x6a5
 1838 0b94 04000000 		.4byte	.LBB112
 1839 0b98 08010000 		.4byte	.Ldebug_ranges0+0x108
 1840 0b9c 01       		.byte	0x1
 1841 0b9d 10       		.byte	0x10
 1842 0b9e 3A       		.uleb128 0x3a
 1843 0b9f B3060000 		.4byte	0x6b3
 1844 0ba3 06       		.uleb128 0x6
 1845 0ba4 03       		.byte	0x3
 1846 0ba5 18000000 		.4byte	_ZL5s_lfo
 1847 0ba9 9F       		.byte	0x9f
 1848 0baa 00       		.byte	0
 1849 0bab 00       		.byte	0
 1850 0bac 00       		.byte	0
 1851 0bad 3B       		.uleb128 0x3b
 1852 0bae 81040000 		.4byte	.LASF123
 1853 0bb2 0B       		.byte	0xb
 1854 0bb3 46       		.byte	0x46
 1855 0bb4 12070000 		.4byte	0x712
 1856 0bb8 3B       		.uleb128 0x3b
 1857 0bb9 06020000 		.4byte	.LASF124
 1858 0bbd 0B       		.byte	0xb
 1859 0bbe 4B       		.byte	0x4b
 1860 0bbf 12070000 		.4byte	0x712
 1861 0bc3 3C       		.uleb128 0x3c
 1862 0bc4 1D070000 		.4byte	0x71d
 1863 0bc8 D30B0000 		.4byte	0xbd3
 1864 0bcc 3D       		.uleb128 0x3d
 1865 0bcd CB000000 		.4byte	0xcb
 1866 0bd1 80       		.byte	0x80
 1867 0bd2 00       		.byte	0
 1868 0bd3 3B       		.uleb128 0x3b
 1869 0bd4 B1080000 		.4byte	.LASF125
 1870 0bd8 0C       		.byte	0xc
 1871 0bd9 94       		.byte	0x94
 1872 0bda DE0B0000 		.4byte	0xbde
ARM GAS  C:\msys64\tmp\ccSyJrMh.s 			page 34


 1873 0bde 1A       		.uleb128 0x1a
 1874 0bdf C30B0000 		.4byte	0xbc3
 1875 0be3 3C       		.uleb128 0x3c
 1876 0be4 1D070000 		.4byte	0x71d
 1877 0be8 F40B0000 		.4byte	0xbf4
 1878 0bec 3E       		.uleb128 0x3e
 1879 0bed CB000000 		.4byte	0xcb
 1880 0bf1 0001     		.2byte	0x100
 1881 0bf3 00       		.byte	0
 1882 0bf4 3F       		.uleb128 0x3f
 1883 0bf5 40050000 		.4byte	.LASF126
 1884 0bf9 0C       		.byte	0xc
 1885 0bfa 4D02     		.2byte	0x24d
 1886 0bfc 000C0000 		.4byte	0xc00
 1887 0c00 1A       		.uleb128 0x1a
 1888 0c01 E30B0000 		.4byte	0xbe3
 1889 0c05 3F       		.uleb128 0x3f
 1890 0c06 F3010000 		.4byte	.LASF127
 1891 0c0a 0C       		.byte	0xc
 1892 0c0b 6402     		.2byte	0x264
 1893 0c0d 110C0000 		.4byte	0xc11
 1894 0c11 1A       		.uleb128 0x1a
 1895 0c12 E30B0000 		.4byte	0xbe3
 1896 0c16 3F       		.uleb128 0x3f
 1897 0c17 74070000 		.4byte	.LASF128
 1898 0c1b 0C       		.byte	0xc
 1899 0c1c 7C02     		.2byte	0x27c
 1900 0c1e 220C0000 		.4byte	0xc22
 1901 0c22 1A       		.uleb128 0x1a
 1902 0c23 E30B0000 		.4byte	0xbe3
 1903 0c27 3F       		.uleb128 0x3f
 1904 0c28 66040000 		.4byte	.LASF129
 1905 0c2c 0B       		.byte	0xb
 1906 0c2d 0F01     		.2byte	0x10f
 1907 0c2f 330C0000 		.4byte	0xc33
 1908 0c33 1A       		.uleb128 0x1a
 1909 0c34 E30B0000 		.4byte	0xbe3
 1910 0c38 3F       		.uleb128 0x3f
 1911 0c39 84070000 		.4byte	.LASF130
 1912 0c3d 0C       		.byte	0xc
 1913 0c3e AB02     		.2byte	0x2ab
 1914 0c40 440C0000 		.4byte	0xc44
 1915 0c44 1A       		.uleb128 0x1a
 1916 0c45 C30B0000 		.4byte	0xbc3
 1917 0c49 3F       		.uleb128 0x3f
 1918 0c4a D4040000 		.4byte	.LASF131
 1919 0c4e 0C       		.byte	0xc
 1920 0c4f C002     		.2byte	0x2c0
 1921 0c51 550C0000 		.4byte	0xc55
 1922 0c55 1A       		.uleb128 0x1a
 1923 0c56 C30B0000 		.4byte	0xbc3
 1924 0c5a 3F       		.uleb128 0x3f
 1925 0c5b EB040000 		.4byte	.LASF132
 1926 0c5f 0C       		.byte	0xc
 1927 0c60 DD02     		.2byte	0x2dd
 1928 0c62 660C0000 		.4byte	0xc66
 1929 0c66 1A       		.uleb128 0x1a
ARM GAS  C:\msys64\tmp\ccSyJrMh.s 			page 35


 1930 0c67 C30B0000 		.4byte	0xbc3
 1931 0c6b 3B       		.uleb128 0x3b
 1932 0c6c 290B0000 		.4byte	.LASF133
 1933 0c70 0C       		.byte	0xc
 1934 0c71 45       		.byte	0x45
 1935 0c72 12070000 		.4byte	0x712
 1936 0c76 3B       		.uleb128 0x3b
 1937 0c77 C9010000 		.4byte	.LASF134
 1938 0c7b 0C       		.byte	0xc
 1939 0c7c 4A       		.byte	0x4a
 1940 0c7d 12070000 		.4byte	0x712
 1941 0c81 3C       		.uleb128 0x3c
 1942 0c82 1D070000 		.4byte	0x71d
 1943 0c86 910C0000 		.4byte	0xc91
 1944 0c8a 3D       		.uleb128 0x3d
 1945 0c8b CB000000 		.4byte	0xcb
 1946 0c8f 97       		.byte	0x97
 1947 0c90 00       		.byte	0
 1948 0c91 3B       		.uleb128 0x3b
 1949 0c92 66020000 		.4byte	.LASF135
 1950 0c96 0C       		.byte	0xc
 1951 0c97 67       		.byte	0x67
 1952 0c98 9C0C0000 		.4byte	0xc9c
 1953 0c9c 1A       		.uleb128 0x1a
 1954 0c9d 810C0000 		.4byte	0xc81
 1955 0ca1 3C       		.uleb128 0x3c
 1956 0ca2 1D070000 		.4byte	0x71d
 1957 0ca6 B20C0000 		.4byte	0xcb2
 1958 0caa 3E       		.uleb128 0x3e
 1959 0cab CB000000 		.4byte	0xcb
 1960 0caf 8603     		.2byte	0x386
 1961 0cb1 00       		.byte	0
 1962 0cb2 3B       		.uleb128 0x3b
 1963 0cb3 A2060000 		.4byte	.LASF136
 1964 0cb7 0C       		.byte	0xc
 1965 0cb8 C6       		.byte	0xc6
 1966 0cb9 BD0C0000 		.4byte	0xcbd
 1967 0cbd 1A       		.uleb128 0x1a
 1968 0cbe A10C0000 		.4byte	0xca1
 1969 0cc2 3F       		.uleb128 0x3f
 1970 0cc3 93070000 		.4byte	.LASF137
 1971 0cc7 0C       		.byte	0xc
 1972 0cc8 3801     		.2byte	0x138
 1973 0cca CE0C0000 		.4byte	0xcce
 1974 0cce 1A       		.uleb128 0x1a
 1975 0ccf A10C0000 		.4byte	0xca1
 1976 0cd3 3F       		.uleb128 0x3f
 1977 0cd4 34000000 		.4byte	.LASF138
 1978 0cd8 0C       		.byte	0xc
 1979 0cd9 AB01     		.2byte	0x1ab
 1980 0cdb DF0C0000 		.4byte	0xcdf
 1981 0cdf 1A       		.uleb128 0x1a
 1982 0ce0 A10C0000 		.4byte	0xca1
 1983 0ce4 40       		.uleb128 0x40
 1984 0ce5 72090000 		.4byte	.LASF139
 1985 0ce9 01       		.byte	0x1
 1986 0cea 0D       		.byte	0xd
ARM GAS  C:\msys64\tmp\ccSyJrMh.s 			page 36


 1987 0ceb 32040000 		.4byte	0x432
 1988 0cef 05       		.uleb128 0x5
 1989 0cf0 03       		.byte	0x3
 1990 0cf1 00000000 		.4byte	_ZL7s_delay
 1991 0cf5 3C       		.uleb128 0x3c
 1992 0cf6 2B010000 		.4byte	0x12b
 1993 0cfa 080D0000 		.4byte	0xd08
 1994 0cfe 41       		.uleb128 0x41
 1995 0cff CB000000 		.4byte	0xcb
 1996 0d03 4F340300 		.4byte	0x3344f
 1997 0d07 00       		.byte	0
 1998 0d08 40       		.uleb128 0x40
 1999 0d09 6C000000 		.4byte	.LASF140
 2000 0d0d 01       		.byte	0x1
 2001 0d0e 0E       		.byte	0xe
 2002 0d0f F50C0000 		.4byte	0xcf5
 2003 0d13 05       		.uleb128 0x5
 2004 0d14 03       		.byte	0x3
 2005 0d15 00000000 		.4byte	_ZL11s_delay_ram
 2006 0d19 40       		.uleb128 0x40
 2007 0d1a 60020000 		.4byte	.LASF141
 2008 0d1e 01       		.byte	0x1
 2009 0d1f 10       		.byte	0x10
 2010 0d20 84010000 		.4byte	0x184
 2011 0d24 05       		.uleb128 0x5
 2012 0d25 03       		.byte	0x3
 2013 0d26 18000000 		.4byte	_ZL5s_lfo
 2014 0d2a 42       		.uleb128 0x42
 2015 0d2b 1C090000 		.4byte	.LASF142
 2016 0d2f 01       		.byte	0x1
 2017 0d30 11       		.byte	0x11
 2018 0d31 25000000 		.4byte	0x25
 2019 0d35 05       		.uleb128 0x5
 2020 0d36 03       		.byte	0x3
 2021 0d37 00000000 		.4byte	lfo_speed
 2022 0d3b 42       		.uleb128 0x42
 2023 0d3c E4010000 		.4byte	.LASF143
 2024 0d40 01       		.byte	0x1
 2025 0d41 13       		.byte	0x13
 2026 0d42 A9000000 		.4byte	0xa9
 2027 0d46 05       		.uleb128 0x5
 2028 0d47 03       		.byte	0x3
 2029 0d48 00000000 		.4byte	s_len
 2030 0d4c 40       		.uleb128 0x40
 2031 0d4d E8080000 		.4byte	.LASF144
 2032 0d51 01       		.byte	0x1
 2033 0d52 14       		.byte	0x14
 2034 0d53 25000000 		.4byte	0x25
 2035 0d57 05       		.uleb128 0x5
 2036 0d58 03       		.byte	0x3
 2037 0d59 28000000 		.4byte	_ZL5s_mix
 2038 0d5d 40       		.uleb128 0x40
 2039 0d5e F8040000 		.4byte	.LASF145
 2040 0d62 01       		.byte	0x1
 2041 0d63 15       		.byte	0x15
 2042 0d64 25000000 		.4byte	0x25
 2043 0d68 05       		.uleb128 0x5
ARM GAS  C:\msys64\tmp\ccSyJrMh.s 			page 37


 2044 0d69 03       		.byte	0x3
 2045 0d6a 2C000000 		.4byte	_ZL4gain
 2046 0d6e 42       		.uleb128 0x42
 2047 0d6f D4050000 		.4byte	.LASF146
 2048 0d73 01       		.byte	0x1
 2049 0d74 16       		.byte	0x16
 2050 0d75 25000000 		.4byte	0x25
 2051 0d79 05       		.uleb128 0x5
 2052 0d7a 03       		.byte	0x3
 2053 0d7b 00000000 		.4byte	wetXNL
 2054 0d7f 42       		.uleb128 0x42
 2055 0d80 37040000 		.4byte	.LASF147
 2056 0d84 01       		.byte	0x1
 2057 0d85 17       		.byte	0x17
 2058 0d86 25000000 		.4byte	0x25
 2059 0d8a 05       		.uleb128 0x5
 2060 0d8b 03       		.byte	0x3
 2061 0d8c 00000000 		.4byte	wetXNR
 2062 0d90 43       		.uleb128 0x43
 2063 0d91 62706D00 		.ascii	"bpm\000"
 2064 0d95 01       		.byte	0x1
 2065 0d96 18       		.byte	0x18
 2066 0d97 2C000000 		.4byte	0x2c
 2067 0d9b 05       		.uleb128 0x5
 2068 0d9c 03       		.byte	0x3
 2069 0d9d 00000000 		.4byte	bpm
 2070 0da1 44       		.uleb128 0x44
 2071 0da2 DC080000 		.4byte	.LASF157
 2072 0da6 DC080000 		.4byte	.LASF157
 2073 0daa 0B       		.byte	0xb
 2074 0dab 5D       		.byte	0x5d
 2075 0dac 00       		.byte	0
 2076              		.section	.debug_abbrev,"",%progbits
 2077              	.Ldebug_abbrev0:
 2078 0000 01       		.uleb128 0x1
 2079 0001 11       		.uleb128 0x11
 2080 0002 01       		.byte	0x1
 2081 0003 25       		.uleb128 0x25
 2082 0004 0E       		.uleb128 0xe
 2083 0005 13       		.uleb128 0x13
 2084 0006 0B       		.uleb128 0xb
 2085 0007 03       		.uleb128 0x3
 2086 0008 0E       		.uleb128 0xe
 2087 0009 1B       		.uleb128 0x1b
 2088 000a 0E       		.uleb128 0xe
 2089 000b 55       		.uleb128 0x55
 2090 000c 17       		.uleb128 0x17
 2091 000d 11       		.uleb128 0x11
 2092 000e 01       		.uleb128 0x1
 2093 000f 10       		.uleb128 0x10
 2094 0010 17       		.uleb128 0x17
 2095 0011 00       		.byte	0
 2096 0012 00       		.byte	0
 2097 0013 02       		.uleb128 0x2
 2098 0014 24       		.uleb128 0x24
 2099 0015 00       		.byte	0
 2100 0016 0B       		.uleb128 0xb
ARM GAS  C:\msys64\tmp\ccSyJrMh.s 			page 38


 2101 0017 0B       		.uleb128 0xb
 2102 0018 3E       		.uleb128 0x3e
 2103 0019 0B       		.uleb128 0xb
 2104 001a 03       		.uleb128 0x3
 2105 001b 0E       		.uleb128 0xe
 2106 001c 00       		.byte	0
 2107 001d 00       		.byte	0
 2108 001e 03       		.uleb128 0x3
 2109 001f 24       		.uleb128 0x24
 2110 0020 00       		.byte	0
 2111 0021 0B       		.uleb128 0xb
 2112 0022 0B       		.uleb128 0xb
 2113 0023 3E       		.uleb128 0x3e
 2114 0024 0B       		.uleb128 0xb
 2115 0025 03       		.uleb128 0x3
 2116 0026 08       		.uleb128 0x8
 2117 0027 00       		.byte	0
 2118 0028 00       		.byte	0
 2119 0029 04       		.uleb128 0x4
 2120 002a 16       		.uleb128 0x16
 2121 002b 00       		.byte	0
 2122 002c 03       		.uleb128 0x3
 2123 002d 0E       		.uleb128 0xe
 2124 002e 3A       		.uleb128 0x3a
 2125 002f 0B       		.uleb128 0xb
 2126 0030 3B       		.uleb128 0x3b
 2127 0031 0B       		.uleb128 0xb
 2128 0032 49       		.uleb128 0x49
 2129 0033 13       		.uleb128 0x13
 2130 0034 00       		.byte	0
 2131 0035 00       		.byte	0
 2132 0036 05       		.uleb128 0x5
 2133 0037 3B       		.uleb128 0x3b
 2134 0038 00       		.byte	0
 2135 0039 03       		.uleb128 0x3
 2136 003a 0E       		.uleb128 0xe
 2137 003b 00       		.byte	0
 2138 003c 00       		.byte	0
 2139 003d 06       		.uleb128 0x6
 2140 003e 17       		.uleb128 0x17
 2141 003f 01       		.byte	0x1
 2142 0040 0B       		.uleb128 0xb
 2143 0041 0B       		.uleb128 0xb
 2144 0042 3A       		.uleb128 0x3a
 2145 0043 0B       		.uleb128 0xb
 2146 0044 3B       		.uleb128 0x3b
 2147 0045 0B       		.uleb128 0xb
 2148 0046 6E       		.uleb128 0x6e
 2149 0047 0E       		.uleb128 0xe
 2150 0048 01       		.uleb128 0x1
 2151 0049 13       		.uleb128 0x13
 2152 004a 00       		.byte	0
 2153 004b 00       		.byte	0
 2154 004c 07       		.uleb128 0x7
 2155 004d 0D       		.uleb128 0xd
 2156 004e 00       		.byte	0
 2157 004f 03       		.uleb128 0x3
ARM GAS  C:\msys64\tmp\ccSyJrMh.s 			page 39


 2158 0050 08       		.uleb128 0x8
 2159 0051 3A       		.uleb128 0x3a
 2160 0052 0B       		.uleb128 0xb
 2161 0053 3B       		.uleb128 0x3b
 2162 0054 0B       		.uleb128 0xb
 2163 0055 49       		.uleb128 0x49
 2164 0056 13       		.uleb128 0x13
 2165 0057 00       		.byte	0
 2166 0058 00       		.byte	0
 2167 0059 08       		.uleb128 0x8
 2168 005a 13       		.uleb128 0x13
 2169 005b 01       		.byte	0x1
 2170 005c 0B       		.uleb128 0xb
 2171 005d 0B       		.uleb128 0xb
 2172 005e 3A       		.uleb128 0x3a
 2173 005f 0B       		.uleb128 0xb
 2174 0060 3B       		.uleb128 0x3b
 2175 0061 0B       		.uleb128 0xb
 2176 0062 6E       		.uleb128 0x6e
 2177 0063 0E       		.uleb128 0xe
 2178 0064 01       		.uleb128 0x1
 2179 0065 13       		.uleb128 0x13
 2180 0066 00       		.byte	0
 2181 0067 00       		.byte	0
 2182 0068 09       		.uleb128 0x9
 2183 0069 0D       		.uleb128 0xd
 2184 006a 00       		.byte	0
 2185 006b 03       		.uleb128 0x3
 2186 006c 08       		.uleb128 0x8
 2187 006d 3A       		.uleb128 0x3a
 2188 006e 0B       		.uleb128 0xb
 2189 006f 3B       		.uleb128 0x3b
 2190 0070 0B       		.uleb128 0xb
 2191 0071 49       		.uleb128 0x49
 2192 0072 13       		.uleb128 0x13
 2193 0073 38       		.uleb128 0x38
 2194 0074 0B       		.uleb128 0xb
 2195 0075 00       		.byte	0
 2196 0076 00       		.byte	0
 2197 0077 0A       		.uleb128 0xa
 2198 0078 16       		.uleb128 0x16
 2199 0079 00       		.byte	0
 2200 007a 03       		.uleb128 0x3
 2201 007b 0E       		.uleb128 0xe
 2202 007c 3A       		.uleb128 0x3a
 2203 007d 0B       		.uleb128 0xb
 2204 007e 3B       		.uleb128 0x3b
 2205 007f 05       		.uleb128 0x5
 2206 0080 49       		.uleb128 0x49
 2207 0081 13       		.uleb128 0x13
 2208 0082 00       		.byte	0
 2209 0083 00       		.byte	0
 2210 0084 0B       		.uleb128 0xb
 2211 0085 04       		.uleb128 0x4
 2212 0086 01       		.byte	0x1
 2213 0087 0B       		.uleb128 0xb
 2214 0088 0B       		.uleb128 0xb
ARM GAS  C:\msys64\tmp\ccSyJrMh.s 			page 40


 2215 0089 49       		.uleb128 0x49
 2216 008a 13       		.uleb128 0x13
 2217 008b 3A       		.uleb128 0x3a
 2218 008c 0B       		.uleb128 0xb
 2219 008d 3B       		.uleb128 0x3b
 2220 008e 0B       		.uleb128 0xb
 2221 008f 01       		.uleb128 0x1
 2222 0090 13       		.uleb128 0x13
 2223 0091 00       		.byte	0
 2224 0092 00       		.byte	0
 2225 0093 0C       		.uleb128 0xc
 2226 0094 28       		.uleb128 0x28
 2227 0095 00       		.byte	0
 2228 0096 03       		.uleb128 0x3
 2229 0097 0E       		.uleb128 0xe
 2230 0098 1C       		.uleb128 0x1c
 2231 0099 0B       		.uleb128 0xb
 2232 009a 00       		.byte	0
 2233 009b 00       		.byte	0
 2234 009c 0D       		.uleb128 0xd
 2235 009d 0F       		.uleb128 0xf
 2236 009e 00       		.byte	0
 2237 009f 0B       		.uleb128 0xb
 2238 00a0 0B       		.uleb128 0xb
 2239 00a1 49       		.uleb128 0x49
 2240 00a2 13       		.uleb128 0x13
 2241 00a3 00       		.byte	0
 2242 00a4 00       		.byte	0
 2243 00a5 0E       		.uleb128 0xe
 2244 00a6 39       		.uleb128 0x39
 2245 00a7 01       		.byte	0x1
 2246 00a8 03       		.uleb128 0x3
 2247 00a9 08       		.uleb128 0x8
 2248 00aa 3A       		.uleb128 0x3a
 2249 00ab 0B       		.uleb128 0xb
 2250 00ac 3B       		.uleb128 0x3b
 2251 00ad 0B       		.uleb128 0xb
 2252 00ae 01       		.uleb128 0x1
 2253 00af 13       		.uleb128 0x13
 2254 00b0 00       		.byte	0
 2255 00b1 00       		.byte	0
 2256 00b2 0F       		.uleb128 0xf
 2257 00b3 13       		.uleb128 0x13
 2258 00b4 01       		.byte	0x1
 2259 00b5 03       		.uleb128 0x3
 2260 00b6 0E       		.uleb128 0xe
 2261 00b7 0B       		.uleb128 0xb
 2262 00b8 0B       		.uleb128 0xb
 2263 00b9 3A       		.uleb128 0x3a
 2264 00ba 0B       		.uleb128 0xb
 2265 00bb 3B       		.uleb128 0x3b
 2266 00bc 0B       		.uleb128 0xb
 2267 00bd 01       		.uleb128 0x1
 2268 00be 13       		.uleb128 0x13
 2269 00bf 00       		.byte	0
 2270 00c0 00       		.byte	0
 2271 00c1 10       		.uleb128 0x10
ARM GAS  C:\msys64\tmp\ccSyJrMh.s 			page 41


 2272 00c2 0D       		.uleb128 0xd
 2273 00c3 00       		.byte	0
 2274 00c4 03       		.uleb128 0x3
 2275 00c5 0E       		.uleb128 0xe
 2276 00c6 3A       		.uleb128 0x3a
 2277 00c7 0B       		.uleb128 0xb
 2278 00c8 3B       		.uleb128 0x3b
 2279 00c9 05       		.uleb128 0x5
 2280 00ca 49       		.uleb128 0x49
 2281 00cb 13       		.uleb128 0x13
 2282 00cc 38       		.uleb128 0x38
 2283 00cd 0B       		.uleb128 0xb
 2284 00ce 00       		.byte	0
 2285 00cf 00       		.byte	0
 2286 00d0 11       		.uleb128 0x11
 2287 00d1 0D       		.uleb128 0xd
 2288 00d2 00       		.byte	0
 2289 00d3 03       		.uleb128 0x3
 2290 00d4 08       		.uleb128 0x8
 2291 00d5 3A       		.uleb128 0x3a
 2292 00d6 0B       		.uleb128 0xb
 2293 00d7 3B       		.uleb128 0x3b
 2294 00d8 05       		.uleb128 0x5
 2295 00d9 49       		.uleb128 0x49
 2296 00da 13       		.uleb128 0x13
 2297 00db 38       		.uleb128 0x38
 2298 00dc 0B       		.uleb128 0xb
 2299 00dd 00       		.byte	0
 2300 00de 00       		.byte	0
 2301 00df 12       		.uleb128 0x12
 2302 00e0 2E       		.uleb128 0x2e
 2303 00e1 01       		.byte	0x1
 2304 00e2 3F       		.uleb128 0x3f
 2305 00e3 19       		.uleb128 0x19
 2306 00e4 03       		.uleb128 0x3
 2307 00e5 0E       		.uleb128 0xe
 2308 00e6 3A       		.uleb128 0x3a
 2309 00e7 0B       		.uleb128 0xb
 2310 00e8 3B       		.uleb128 0x3b
 2311 00e9 0B       		.uleb128 0xb
 2312 00ea 6E       		.uleb128 0x6e
 2313 00eb 0E       		.uleb128 0xe
 2314 00ec 49       		.uleb128 0x49
 2315 00ed 13       		.uleb128 0x13
 2316 00ee 3C       		.uleb128 0x3c
 2317 00ef 19       		.uleb128 0x19
 2318 00f0 64       		.uleb128 0x64
 2319 00f1 13       		.uleb128 0x13
 2320 00f2 01       		.uleb128 0x1
 2321 00f3 13       		.uleb128 0x13
 2322 00f4 00       		.byte	0
 2323 00f5 00       		.byte	0
 2324 00f6 13       		.uleb128 0x13
 2325 00f7 05       		.uleb128 0x5
 2326 00f8 00       		.byte	0
 2327 00f9 49       		.uleb128 0x49
 2328 00fa 13       		.uleb128 0x13
ARM GAS  C:\msys64\tmp\ccSyJrMh.s 			page 42


 2329 00fb 34       		.uleb128 0x34
 2330 00fc 19       		.uleb128 0x19
 2331 00fd 00       		.byte	0
 2332 00fe 00       		.byte	0
 2333 00ff 14       		.uleb128 0x14
 2334 0100 2E       		.uleb128 0x2e
 2335 0101 01       		.byte	0x1
 2336 0102 3F       		.uleb128 0x3f
 2337 0103 19       		.uleb128 0x19
 2338 0104 03       		.uleb128 0x3
 2339 0105 0E       		.uleb128 0xe
 2340 0106 3A       		.uleb128 0x3a
 2341 0107 0B       		.uleb128 0xb
 2342 0108 3B       		.uleb128 0x3b
 2343 0109 0B       		.uleb128 0xb
 2344 010a 6E       		.uleb128 0x6e
 2345 010b 0E       		.uleb128 0xe
 2346 010c 3C       		.uleb128 0x3c
 2347 010d 19       		.uleb128 0x19
 2348 010e 64       		.uleb128 0x64
 2349 010f 13       		.uleb128 0x13
 2350 0110 01       		.uleb128 0x1
 2351 0111 13       		.uleb128 0x13
 2352 0112 00       		.byte	0
 2353 0113 00       		.byte	0
 2354 0114 15       		.uleb128 0x15
 2355 0115 05       		.uleb128 0x5
 2356 0116 00       		.byte	0
 2357 0117 49       		.uleb128 0x49
 2358 0118 13       		.uleb128 0x13
 2359 0119 00       		.byte	0
 2360 011a 00       		.byte	0
 2361 011b 16       		.uleb128 0x16
 2362 011c 2E       		.uleb128 0x2e
 2363 011d 01       		.byte	0x1
 2364 011e 3F       		.uleb128 0x3f
 2365 011f 19       		.uleb128 0x19
 2366 0120 03       		.uleb128 0x3
 2367 0121 0E       		.uleb128 0xe
 2368 0122 3A       		.uleb128 0x3a
 2369 0123 0B       		.uleb128 0xb
 2370 0124 3B       		.uleb128 0x3b
 2371 0125 05       		.uleb128 0x5
 2372 0126 6E       		.uleb128 0x6e
 2373 0127 0E       		.uleb128 0xe
 2374 0128 49       		.uleb128 0x49
 2375 0129 13       		.uleb128 0x13
 2376 012a 3C       		.uleb128 0x3c
 2377 012b 19       		.uleb128 0x19
 2378 012c 64       		.uleb128 0x64
 2379 012d 13       		.uleb128 0x13
 2380 012e 01       		.uleb128 0x1
 2381 012f 13       		.uleb128 0x13
 2382 0130 00       		.byte	0
 2383 0131 00       		.byte	0
 2384 0132 17       		.uleb128 0x17
 2385 0133 2E       		.uleb128 0x2e
ARM GAS  C:\msys64\tmp\ccSyJrMh.s 			page 43


 2386 0134 01       		.byte	0x1
 2387 0135 3F       		.uleb128 0x3f
 2388 0136 19       		.uleb128 0x19
 2389 0137 03       		.uleb128 0x3
 2390 0138 0E       		.uleb128 0xe
 2391 0139 3A       		.uleb128 0x3a
 2392 013a 0B       		.uleb128 0xb
 2393 013b 3B       		.uleb128 0x3b
 2394 013c 05       		.uleb128 0x5
 2395 013d 6E       		.uleb128 0x6e
 2396 013e 0E       		.uleb128 0xe
 2397 013f 49       		.uleb128 0x49
 2398 0140 13       		.uleb128 0x13
 2399 0141 3C       		.uleb128 0x3c
 2400 0142 19       		.uleb128 0x19
 2401 0143 64       		.uleb128 0x64
 2402 0144 13       		.uleb128 0x13
 2403 0145 00       		.byte	0
 2404 0146 00       		.byte	0
 2405 0147 18       		.uleb128 0x18
 2406 0148 13       		.uleb128 0x13
 2407 0149 01       		.byte	0x1
 2408 014a 03       		.uleb128 0x3
 2409 014b 0E       		.uleb128 0xe
 2410 014c 0B       		.uleb128 0xb
 2411 014d 0B       		.uleb128 0xb
 2412 014e 3A       		.uleb128 0x3a
 2413 014f 0B       		.uleb128 0xb
 2414 0150 3B       		.uleb128 0x3b
 2415 0151 0B       		.uleb128 0xb
 2416 0152 00       		.byte	0
 2417 0153 00       		.byte	0
 2418 0154 19       		.uleb128 0x19
 2419 0155 10       		.uleb128 0x10
 2420 0156 00       		.byte	0
 2421 0157 0B       		.uleb128 0xb
 2422 0158 0B       		.uleb128 0xb
 2423 0159 49       		.uleb128 0x49
 2424 015a 13       		.uleb128 0x13
 2425 015b 00       		.byte	0
 2426 015c 00       		.byte	0
 2427 015d 1A       		.uleb128 0x1a
 2428 015e 26       		.uleb128 0x26
 2429 015f 00       		.byte	0
 2430 0160 49       		.uleb128 0x49
 2431 0161 13       		.uleb128 0x13
 2432 0162 00       		.byte	0
 2433 0163 00       		.byte	0
 2434 0164 1B       		.uleb128 0x1b
 2435 0165 2E       		.uleb128 0x2e
 2436 0166 01       		.byte	0x1
 2437 0167 03       		.uleb128 0x3
 2438 0168 0E       		.uleb128 0xe
 2439 0169 3A       		.uleb128 0x3a
 2440 016a 0B       		.uleb128 0xb
 2441 016b 3B       		.uleb128 0x3b
 2442 016c 05       		.uleb128 0x5
ARM GAS  C:\msys64\tmp\ccSyJrMh.s 			page 44


 2443 016d 49       		.uleb128 0x49
 2444 016e 13       		.uleb128 0x13
 2445 016f 20       		.uleb128 0x20
 2446 0170 0B       		.uleb128 0xb
 2447 0171 01       		.uleb128 0x1
 2448 0172 13       		.uleb128 0x13
 2449 0173 00       		.byte	0
 2450 0174 00       		.byte	0
 2451 0175 1C       		.uleb128 0x1c
 2452 0176 05       		.uleb128 0x5
 2453 0177 00       		.byte	0
 2454 0178 03       		.uleb128 0x3
 2455 0179 08       		.uleb128 0x8
 2456 017a 3A       		.uleb128 0x3a
 2457 017b 0B       		.uleb128 0xb
 2458 017c 3B       		.uleb128 0x3b
 2459 017d 05       		.uleb128 0x5
 2460 017e 49       		.uleb128 0x49
 2461 017f 13       		.uleb128 0x13
 2462 0180 00       		.byte	0
 2463 0181 00       		.byte	0
 2464 0182 1D       		.uleb128 0x1d
 2465 0183 34       		.uleb128 0x34
 2466 0184 00       		.byte	0
 2467 0185 03       		.uleb128 0x3
 2468 0186 08       		.uleb128 0x8
 2469 0187 3A       		.uleb128 0x3a
 2470 0188 0B       		.uleb128 0xb
 2471 0189 3B       		.uleb128 0x3b
 2472 018a 05       		.uleb128 0x5
 2473 018b 49       		.uleb128 0x49
 2474 018c 13       		.uleb128 0x13
 2475 018d 00       		.byte	0
 2476 018e 00       		.byte	0
 2477 018f 1E       		.uleb128 0x1e
 2478 0190 2E       		.uleb128 0x2e
 2479 0191 01       		.byte	0x1
 2480 0192 47       		.uleb128 0x47
 2481 0193 13       		.uleb128 0x13
 2482 0194 20       		.uleb128 0x20
 2483 0195 0B       		.uleb128 0xb
 2484 0196 64       		.uleb128 0x64
 2485 0197 13       		.uleb128 0x13
 2486 0198 01       		.uleb128 0x1
 2487 0199 13       		.uleb128 0x13
 2488 019a 00       		.byte	0
 2489 019b 00       		.byte	0
 2490 019c 1F       		.uleb128 0x1f
 2491 019d 05       		.uleb128 0x5
 2492 019e 00       		.byte	0
 2493 019f 03       		.uleb128 0x3
 2494 01a0 0E       		.uleb128 0xe
 2495 01a1 49       		.uleb128 0x49
 2496 01a2 13       		.uleb128 0x13
 2497 01a3 34       		.uleb128 0x34
 2498 01a4 19       		.uleb128 0x19
 2499 01a5 00       		.byte	0
ARM GAS  C:\msys64\tmp\ccSyJrMh.s 			page 45


 2500 01a6 00       		.byte	0
 2501 01a7 20       		.uleb128 0x20
 2502 01a8 2E       		.uleb128 0x2e
 2503 01a9 01       		.byte	0x1
 2504 01aa 03       		.uleb128 0x3
 2505 01ab 0E       		.uleb128 0xe
 2506 01ac 3A       		.uleb128 0x3a
 2507 01ad 0B       		.uleb128 0xb
 2508 01ae 3B       		.uleb128 0x3b
 2509 01af 0B       		.uleb128 0xb
 2510 01b0 20       		.uleb128 0x20
 2511 01b1 0B       		.uleb128 0xb
 2512 01b2 01       		.uleb128 0x1
 2513 01b3 13       		.uleb128 0x13
 2514 01b4 00       		.byte	0
 2515 01b5 00       		.byte	0
 2516 01b6 21       		.uleb128 0x21
 2517 01b7 05       		.uleb128 0x5
 2518 01b8 00       		.byte	0
 2519 01b9 03       		.uleb128 0x3
 2520 01ba 08       		.uleb128 0x8
 2521 01bb 3A       		.uleb128 0x3a
 2522 01bc 0B       		.uleb128 0xb
 2523 01bd 3B       		.uleb128 0x3b
 2524 01be 0B       		.uleb128 0xb
 2525 01bf 49       		.uleb128 0x49
 2526 01c0 13       		.uleb128 0x13
 2527 01c1 00       		.byte	0
 2528 01c2 00       		.byte	0
 2529 01c3 22       		.uleb128 0x22
 2530 01c4 34       		.uleb128 0x34
 2531 01c5 00       		.byte	0
 2532 01c6 03       		.uleb128 0x3
 2533 01c7 08       		.uleb128 0x8
 2534 01c8 3A       		.uleb128 0x3a
 2535 01c9 0B       		.uleb128 0xb
 2536 01ca 3B       		.uleb128 0x3b
 2537 01cb 0B       		.uleb128 0xb
 2538 01cc 49       		.uleb128 0x49
 2539 01cd 13       		.uleb128 0x13
 2540 01ce 00       		.byte	0
 2541 01cf 00       		.byte	0
 2542 01d0 23       		.uleb128 0x23
 2543 01d1 37       		.uleb128 0x37
 2544 01d2 00       		.byte	0
 2545 01d3 49       		.uleb128 0x49
 2546 01d4 13       		.uleb128 0x13
 2547 01d5 00       		.byte	0
 2548 01d6 00       		.byte	0
 2549 01d7 24       		.uleb128 0x24
 2550 01d8 2E       		.uleb128 0x2e
 2551 01d9 01       		.byte	0x1
 2552 01da 03       		.uleb128 0x3
 2553 01db 0E       		.uleb128 0xe
 2554 01dc 3A       		.uleb128 0x3a
 2555 01dd 0B       		.uleb128 0xb
 2556 01de 3B       		.uleb128 0x3b
ARM GAS  C:\msys64\tmp\ccSyJrMh.s 			page 46


 2557 01df 0B       		.uleb128 0xb
 2558 01e0 49       		.uleb128 0x49
 2559 01e1 13       		.uleb128 0x13
 2560 01e2 20       		.uleb128 0x20
 2561 01e3 0B       		.uleb128 0xb
 2562 01e4 01       		.uleb128 0x1
 2563 01e5 13       		.uleb128 0x13
 2564 01e6 00       		.byte	0
 2565 01e7 00       		.byte	0
 2566 01e8 25       		.uleb128 0x25
 2567 01e9 05       		.uleb128 0x5
 2568 01ea 00       		.byte	0
 2569 01eb 03       		.uleb128 0x3
 2570 01ec 0E       		.uleb128 0xe
 2571 01ed 3A       		.uleb128 0x3a
 2572 01ee 0B       		.uleb128 0xb
 2573 01ef 3B       		.uleb128 0x3b
 2574 01f0 0B       		.uleb128 0xb
 2575 01f1 49       		.uleb128 0x49
 2576 01f2 13       		.uleb128 0x13
 2577 01f3 00       		.byte	0
 2578 01f4 00       		.byte	0
 2579 01f5 26       		.uleb128 0x26
 2580 01f6 34       		.uleb128 0x34
 2581 01f7 00       		.byte	0
 2582 01f8 03       		.uleb128 0x3
 2583 01f9 0E       		.uleb128 0xe
 2584 01fa 3A       		.uleb128 0x3a
 2585 01fb 0B       		.uleb128 0xb
 2586 01fc 3B       		.uleb128 0x3b
 2587 01fd 0B       		.uleb128 0xb
 2588 01fe 49       		.uleb128 0x49
 2589 01ff 13       		.uleb128 0x13
 2590 0200 00       		.byte	0
 2591 0201 00       		.byte	0
 2592 0202 27       		.uleb128 0x27
 2593 0203 2E       		.uleb128 0x2e
 2594 0204 01       		.byte	0x1
 2595 0205 03       		.uleb128 0x3
 2596 0206 0E       		.uleb128 0xe
 2597 0207 34       		.uleb128 0x34
 2598 0208 19       		.uleb128 0x19
 2599 0209 20       		.uleb128 0x20
 2600 020a 0B       		.uleb128 0xb
 2601 020b 01       		.uleb128 0x1
 2602 020c 13       		.uleb128 0x13
 2603 020d 00       		.byte	0
 2604 020e 00       		.byte	0
 2605 020f 28       		.uleb128 0x28
 2606 0210 2E       		.uleb128 0x2e
 2607 0211 01       		.byte	0x1
 2608 0212 3F       		.uleb128 0x3f
 2609 0213 19       		.uleb128 0x19
 2610 0214 03       		.uleb128 0x3
 2611 0215 0E       		.uleb128 0xe
 2612 0216 3A       		.uleb128 0x3a
 2613 0217 0B       		.uleb128 0xb
ARM GAS  C:\msys64\tmp\ccSyJrMh.s 			page 47


 2614 0218 3B       		.uleb128 0x3b
 2615 0219 0B       		.uleb128 0xb
 2616 021a 11       		.uleb128 0x11
 2617 021b 01       		.uleb128 0x1
 2618 021c 12       		.uleb128 0x12
 2619 021d 06       		.uleb128 0x6
 2620 021e 40       		.uleb128 0x40
 2621 021f 18       		.uleb128 0x18
 2622 0220 9742     		.uleb128 0x2117
 2623 0222 19       		.uleb128 0x19
 2624 0223 01       		.uleb128 0x1
 2625 0224 13       		.uleb128 0x13
 2626 0225 00       		.byte	0
 2627 0226 00       		.byte	0
 2628 0227 29       		.uleb128 0x29
 2629 0228 05       		.uleb128 0x5
 2630 0229 00       		.byte	0
 2631 022a 03       		.uleb128 0x3
 2632 022b 0E       		.uleb128 0xe
 2633 022c 3A       		.uleb128 0x3a
 2634 022d 0B       		.uleb128 0xb
 2635 022e 3B       		.uleb128 0x3b
 2636 022f 0B       		.uleb128 0xb
 2637 0230 49       		.uleb128 0x49
 2638 0231 13       		.uleb128 0x13
 2639 0232 02       		.uleb128 0x2
 2640 0233 17       		.uleb128 0x17
 2641 0234 00       		.byte	0
 2642 0235 00       		.byte	0
 2643 0236 2A       		.uleb128 0x2a
 2644 0237 05       		.uleb128 0x5
 2645 0238 00       		.byte	0
 2646 0239 03       		.uleb128 0x3
 2647 023a 08       		.uleb128 0x8
 2648 023b 3A       		.uleb128 0x3a
 2649 023c 0B       		.uleb128 0xb
 2650 023d 3B       		.uleb128 0x3b
 2651 023e 0B       		.uleb128 0xb
 2652 023f 49       		.uleb128 0x49
 2653 0240 13       		.uleb128 0x13
 2654 0241 02       		.uleb128 0x2
 2655 0242 17       		.uleb128 0x17
 2656 0243 00       		.byte	0
 2657 0244 00       		.byte	0
 2658 0245 2B       		.uleb128 0x2b
 2659 0246 1D       		.uleb128 0x1d
 2660 0247 01       		.byte	0x1
 2661 0248 31       		.uleb128 0x31
 2662 0249 13       		.uleb128 0x13
 2663 024a 11       		.uleb128 0x11
 2664 024b 01       		.uleb128 0x1
 2665 024c 12       		.uleb128 0x12
 2666 024d 06       		.uleb128 0x6
 2667 024e 58       		.uleb128 0x58
 2668 024f 0B       		.uleb128 0xb
 2669 0250 59       		.uleb128 0x59
 2670 0251 0B       		.uleb128 0xb
ARM GAS  C:\msys64\tmp\ccSyJrMh.s 			page 48


 2671 0252 01       		.uleb128 0x1
 2672 0253 13       		.uleb128 0x13
 2673 0254 00       		.byte	0
 2674 0255 00       		.byte	0
 2675 0256 2C       		.uleb128 0x2c
 2676 0257 05       		.uleb128 0x5
 2677 0258 00       		.byte	0
 2678 0259 31       		.uleb128 0x31
 2679 025a 13       		.uleb128 0x13
 2680 025b 02       		.uleb128 0x2
 2681 025c 17       		.uleb128 0x17
 2682 025d 00       		.byte	0
 2683 025e 00       		.byte	0
 2684 025f 2D       		.uleb128 0x2d
 2685 0260 1D       		.uleb128 0x1d
 2686 0261 01       		.byte	0x1
 2687 0262 31       		.uleb128 0x31
 2688 0263 13       		.uleb128 0x13
 2689 0264 11       		.uleb128 0x11
 2690 0265 01       		.uleb128 0x1
 2691 0266 12       		.uleb128 0x12
 2692 0267 06       		.uleb128 0x6
 2693 0268 58       		.uleb128 0x58
 2694 0269 0B       		.uleb128 0xb
 2695 026a 59       		.uleb128 0x59
 2696 026b 0B       		.uleb128 0xb
 2697 026c 00       		.byte	0
 2698 026d 00       		.byte	0
 2699 026e 2E       		.uleb128 0x2e
 2700 026f 0B       		.uleb128 0xb
 2701 0270 01       		.byte	0x1
 2702 0271 11       		.uleb128 0x11
 2703 0272 01       		.uleb128 0x1
 2704 0273 12       		.uleb128 0x12
 2705 0274 06       		.uleb128 0x6
 2706 0275 00       		.byte	0
 2707 0276 00       		.byte	0
 2708 0277 2F       		.uleb128 0x2f
 2709 0278 34       		.uleb128 0x34
 2710 0279 00       		.byte	0
 2711 027a 31       		.uleb128 0x31
 2712 027b 13       		.uleb128 0x13
 2713 027c 02       		.uleb128 0x2
 2714 027d 17       		.uleb128 0x17
 2715 027e 00       		.byte	0
 2716 027f 00       		.byte	0
 2717 0280 30       		.uleb128 0x30
 2718 0281 1D       		.uleb128 0x1d
 2719 0282 01       		.byte	0x1
 2720 0283 31       		.uleb128 0x31
 2721 0284 13       		.uleb128 0x13
 2722 0285 52       		.uleb128 0x52
 2723 0286 01       		.uleb128 0x1
 2724 0287 55       		.uleb128 0x55
 2725 0288 17       		.uleb128 0x17
 2726 0289 58       		.uleb128 0x58
 2727 028a 0B       		.uleb128 0xb
ARM GAS  C:\msys64\tmp\ccSyJrMh.s 			page 49


 2728 028b 59       		.uleb128 0x59
 2729 028c 0B       		.uleb128 0xb
 2730 028d 01       		.uleb128 0x1
 2731 028e 13       		.uleb128 0x13
 2732 028f 00       		.byte	0
 2733 0290 00       		.byte	0
 2734 0291 31       		.uleb128 0x31
 2735 0292 898201   		.uleb128 0x4109
 2736 0295 00       		.byte	0
 2737 0296 11       		.uleb128 0x11
 2738 0297 01       		.uleb128 0x1
 2739 0298 31       		.uleb128 0x31
 2740 0299 13       		.uleb128 0x13
 2741 029a 00       		.byte	0
 2742 029b 00       		.byte	0
 2743 029c 32       		.uleb128 0x32
 2744 029d 34       		.uleb128 0x34
 2745 029e 00       		.byte	0
 2746 029f 03       		.uleb128 0x3
 2747 02a0 08       		.uleb128 0x8
 2748 02a1 3A       		.uleb128 0x3a
 2749 02a2 0B       		.uleb128 0xb
 2750 02a3 3B       		.uleb128 0x3b
 2751 02a4 0B       		.uleb128 0xb
 2752 02a5 49       		.uleb128 0x49
 2753 02a6 13       		.uleb128 0x13
 2754 02a7 02       		.uleb128 0x2
 2755 02a8 17       		.uleb128 0x17
 2756 02a9 00       		.byte	0
 2757 02aa 00       		.byte	0
 2758 02ab 33       		.uleb128 0x33
 2759 02ac 34       		.uleb128 0x34
 2760 02ad 00       		.byte	0
 2761 02ae 03       		.uleb128 0x3
 2762 02af 08       		.uleb128 0x8
 2763 02b0 3A       		.uleb128 0x3a
 2764 02b1 0B       		.uleb128 0xb
 2765 02b2 3B       		.uleb128 0x3b
 2766 02b3 0B       		.uleb128 0xb
 2767 02b4 49       		.uleb128 0x49
 2768 02b5 13       		.uleb128 0x13
 2769 02b6 02       		.uleb128 0x2
 2770 02b7 18       		.uleb128 0x18
 2771 02b8 00       		.byte	0
 2772 02b9 00       		.byte	0
 2773 02ba 34       		.uleb128 0x34
 2774 02bb 34       		.uleb128 0x34
 2775 02bc 00       		.byte	0
 2776 02bd 03       		.uleb128 0x3
 2777 02be 0E       		.uleb128 0xe
 2778 02bf 3A       		.uleb128 0x3a
 2779 02c0 0B       		.uleb128 0xb
 2780 02c1 3B       		.uleb128 0x3b
 2781 02c2 0B       		.uleb128 0xb
 2782 02c3 49       		.uleb128 0x49
 2783 02c4 13       		.uleb128 0x13
 2784 02c5 02       		.uleb128 0x2
ARM GAS  C:\msys64\tmp\ccSyJrMh.s 			page 50


 2785 02c6 17       		.uleb128 0x17
 2786 02c7 00       		.byte	0
 2787 02c8 00       		.byte	0
 2788 02c9 35       		.uleb128 0x35
 2789 02ca 0B       		.uleb128 0xb
 2790 02cb 01       		.byte	0x1
 2791 02cc 55       		.uleb128 0x55
 2792 02cd 17       		.uleb128 0x17
 2793 02ce 00       		.byte	0
 2794 02cf 00       		.byte	0
 2795 02d0 36       		.uleb128 0x36
 2796 02d1 05       		.uleb128 0x5
 2797 02d2 00       		.byte	0
 2798 02d3 31       		.uleb128 0x31
 2799 02d4 13       		.uleb128 0x13
 2800 02d5 00       		.byte	0
 2801 02d6 00       		.byte	0
 2802 02d7 37       		.uleb128 0x37
 2803 02d8 34       		.uleb128 0x34
 2804 02d9 00       		.byte	0
 2805 02da 31       		.uleb128 0x31
 2806 02db 13       		.uleb128 0x13
 2807 02dc 00       		.byte	0
 2808 02dd 00       		.byte	0
 2809 02de 38       		.uleb128 0x38
 2810 02df 1D       		.uleb128 0x1d
 2811 02e0 01       		.byte	0x1
 2812 02e1 31       		.uleb128 0x31
 2813 02e2 13       		.uleb128 0x13
 2814 02e3 52       		.uleb128 0x52
 2815 02e4 01       		.uleb128 0x1
 2816 02e5 55       		.uleb128 0x55
 2817 02e6 17       		.uleb128 0x17
 2818 02e7 58       		.uleb128 0x58
 2819 02e8 0B       		.uleb128 0xb
 2820 02e9 59       		.uleb128 0x59
 2821 02ea 0B       		.uleb128 0xb
 2822 02eb 00       		.byte	0
 2823 02ec 00       		.byte	0
 2824 02ed 39       		.uleb128 0x39
 2825 02ee 2E       		.uleb128 0x2e
 2826 02ef 01       		.byte	0x1
 2827 02f0 03       		.uleb128 0x3
 2828 02f1 0E       		.uleb128 0xe
 2829 02f2 34       		.uleb128 0x34
 2830 02f3 19       		.uleb128 0x19
 2831 02f4 11       		.uleb128 0x11
 2832 02f5 01       		.uleb128 0x1
 2833 02f6 12       		.uleb128 0x12
 2834 02f7 06       		.uleb128 0x6
 2835 02f8 40       		.uleb128 0x40
 2836 02f9 18       		.uleb128 0x18
 2837 02fa 9742     		.uleb128 0x2117
 2838 02fc 19       		.uleb128 0x19
 2839 02fd 01       		.uleb128 0x1
 2840 02fe 13       		.uleb128 0x13
 2841 02ff 00       		.byte	0
ARM GAS  C:\msys64\tmp\ccSyJrMh.s 			page 51


 2842 0300 00       		.byte	0
 2843 0301 3A       		.uleb128 0x3a
 2844 0302 05       		.uleb128 0x5
 2845 0303 00       		.byte	0
 2846 0304 31       		.uleb128 0x31
 2847 0305 13       		.uleb128 0x13
 2848 0306 02       		.uleb128 0x2
 2849 0307 18       		.uleb128 0x18
 2850 0308 00       		.byte	0
 2851 0309 00       		.byte	0
 2852 030a 3B       		.uleb128 0x3b
 2853 030b 34       		.uleb128 0x34
 2854 030c 00       		.byte	0
 2855 030d 03       		.uleb128 0x3
 2856 030e 0E       		.uleb128 0xe
 2857 030f 3A       		.uleb128 0x3a
 2858 0310 0B       		.uleb128 0xb
 2859 0311 3B       		.uleb128 0x3b
 2860 0312 0B       		.uleb128 0xb
 2861 0313 49       		.uleb128 0x49
 2862 0314 13       		.uleb128 0x13
 2863 0315 3F       		.uleb128 0x3f
 2864 0316 19       		.uleb128 0x19
 2865 0317 3C       		.uleb128 0x3c
 2866 0318 19       		.uleb128 0x19
 2867 0319 00       		.byte	0
 2868 031a 00       		.byte	0
 2869 031b 3C       		.uleb128 0x3c
 2870 031c 01       		.uleb128 0x1
 2871 031d 01       		.byte	0x1
 2872 031e 49       		.uleb128 0x49
 2873 031f 13       		.uleb128 0x13
 2874 0320 01       		.uleb128 0x1
 2875 0321 13       		.uleb128 0x13
 2876 0322 00       		.byte	0
 2877 0323 00       		.byte	0
 2878 0324 3D       		.uleb128 0x3d
 2879 0325 21       		.uleb128 0x21
 2880 0326 00       		.byte	0
 2881 0327 49       		.uleb128 0x49
 2882 0328 13       		.uleb128 0x13
 2883 0329 2F       		.uleb128 0x2f
 2884 032a 0B       		.uleb128 0xb
 2885 032b 00       		.byte	0
 2886 032c 00       		.byte	0
 2887 032d 3E       		.uleb128 0x3e
 2888 032e 21       		.uleb128 0x21
 2889 032f 00       		.byte	0
 2890 0330 49       		.uleb128 0x49
 2891 0331 13       		.uleb128 0x13
 2892 0332 2F       		.uleb128 0x2f
 2893 0333 05       		.uleb128 0x5
 2894 0334 00       		.byte	0
 2895 0335 00       		.byte	0
 2896 0336 3F       		.uleb128 0x3f
 2897 0337 34       		.uleb128 0x34
 2898 0338 00       		.byte	0
ARM GAS  C:\msys64\tmp\ccSyJrMh.s 			page 52


 2899 0339 03       		.uleb128 0x3
 2900 033a 0E       		.uleb128 0xe
 2901 033b 3A       		.uleb128 0x3a
 2902 033c 0B       		.uleb128 0xb
 2903 033d 3B       		.uleb128 0x3b
 2904 033e 05       		.uleb128 0x5
 2905 033f 49       		.uleb128 0x49
 2906 0340 13       		.uleb128 0x13
 2907 0341 3F       		.uleb128 0x3f
 2908 0342 19       		.uleb128 0x19
 2909 0343 3C       		.uleb128 0x3c
 2910 0344 19       		.uleb128 0x19
 2911 0345 00       		.byte	0
 2912 0346 00       		.byte	0
 2913 0347 40       		.uleb128 0x40
 2914 0348 34       		.uleb128 0x34
 2915 0349 00       		.byte	0
 2916 034a 03       		.uleb128 0x3
 2917 034b 0E       		.uleb128 0xe
 2918 034c 3A       		.uleb128 0x3a
 2919 034d 0B       		.uleb128 0xb
 2920 034e 3B       		.uleb128 0x3b
 2921 034f 0B       		.uleb128 0xb
 2922 0350 49       		.uleb128 0x49
 2923 0351 13       		.uleb128 0x13
 2924 0352 02       		.uleb128 0x2
 2925 0353 18       		.uleb128 0x18
 2926 0354 00       		.byte	0
 2927 0355 00       		.byte	0
 2928 0356 41       		.uleb128 0x41
 2929 0357 21       		.uleb128 0x21
 2930 0358 00       		.byte	0
 2931 0359 49       		.uleb128 0x49
 2932 035a 13       		.uleb128 0x13
 2933 035b 2F       		.uleb128 0x2f
 2934 035c 06       		.uleb128 0x6
 2935 035d 00       		.byte	0
 2936 035e 00       		.byte	0
 2937 035f 42       		.uleb128 0x42
 2938 0360 34       		.uleb128 0x34
 2939 0361 00       		.byte	0
 2940 0362 03       		.uleb128 0x3
 2941 0363 0E       		.uleb128 0xe
 2942 0364 3A       		.uleb128 0x3a
 2943 0365 0B       		.uleb128 0xb
 2944 0366 3B       		.uleb128 0x3b
 2945 0367 0B       		.uleb128 0xb
 2946 0368 49       		.uleb128 0x49
 2947 0369 13       		.uleb128 0x13
 2948 036a 3F       		.uleb128 0x3f
 2949 036b 19       		.uleb128 0x19
 2950 036c 02       		.uleb128 0x2
 2951 036d 18       		.uleb128 0x18
 2952 036e 00       		.byte	0
 2953 036f 00       		.byte	0
 2954 0370 43       		.uleb128 0x43
 2955 0371 34       		.uleb128 0x34
ARM GAS  C:\msys64\tmp\ccSyJrMh.s 			page 53


 2956 0372 00       		.byte	0
 2957 0373 03       		.uleb128 0x3
 2958 0374 08       		.uleb128 0x8
 2959 0375 3A       		.uleb128 0x3a
 2960 0376 0B       		.uleb128 0xb
 2961 0377 3B       		.uleb128 0x3b
 2962 0378 0B       		.uleb128 0xb
 2963 0379 49       		.uleb128 0x49
 2964 037a 13       		.uleb128 0x13
 2965 037b 3F       		.uleb128 0x3f
 2966 037c 19       		.uleb128 0x19
 2967 037d 02       		.uleb128 0x2
 2968 037e 18       		.uleb128 0x18
 2969 037f 00       		.byte	0
 2970 0380 00       		.byte	0
 2971 0381 44       		.uleb128 0x44
 2972 0382 2E       		.uleb128 0x2e
 2973 0383 00       		.byte	0
 2974 0384 3F       		.uleb128 0x3f
 2975 0385 19       		.uleb128 0x19
 2976 0386 3C       		.uleb128 0x3c
 2977 0387 19       		.uleb128 0x19
 2978 0388 6E       		.uleb128 0x6e
 2979 0389 0E       		.uleb128 0xe
 2980 038a 03       		.uleb128 0x3
 2981 038b 0E       		.uleb128 0xe
 2982 038c 3A       		.uleb128 0x3a
 2983 038d 0B       		.uleb128 0xb
 2984 038e 3B       		.uleb128 0x3b
 2985 038f 0B       		.uleb128 0xb
 2986 0390 00       		.byte	0
 2987 0391 00       		.byte	0
 2988 0392 00       		.byte	0
 2989              		.section	.debug_loc,"",%progbits
 2990              	.Ldebug_loc0:
 2991              	.LLST0:
 2992 0000 00000000 		.4byte	.LVL0
 2993 0004 3D000000 		.4byte	.LVL10-1
 2994 0008 0100     		.2byte	0x1
 2995 000a 50       		.byte	0x50
 2996 000b 3D000000 		.4byte	.LVL10-1
 2997 000f 84000000 		.4byte	.LFE315
 2998 0013 0400     		.2byte	0x4
 2999 0015 F3       		.byte	0xf3
 3000 0016 01       		.uleb128 0x1
 3001 0017 50       		.byte	0x50
 3002 0018 9F       		.byte	0x9f
 3003 0019 00000000 		.4byte	0
 3004 001d 00000000 		.4byte	0
 3005              	.LLST1:
 3006 0021 00000000 		.4byte	.LVL0
 3007 0025 1C000000 		.4byte	.LVL2
 3008 0029 0100     		.2byte	0x1
 3009 002b 51       		.byte	0x51
 3010 002c 1C000000 		.4byte	.LVL2
 3011 0030 84000000 		.4byte	.LFE315
 3012 0034 0400     		.2byte	0x4
ARM GAS  C:\msys64\tmp\ccSyJrMh.s 			page 54


 3013 0036 F3       		.byte	0xf3
 3014 0037 01       		.uleb128 0x1
 3015 0038 51       		.byte	0x51
 3016 0039 9F       		.byte	0x9f
 3017 003a 00000000 		.4byte	0
 3018 003e 00000000 		.4byte	0
 3019              	.LLST2:
 3020 0042 00000000 		.4byte	.LVL0
 3021 0046 18000000 		.4byte	.LVL1
 3022 004a 0600     		.2byte	0x6
 3023 004c 0C       		.byte	0xc
 3024 004d 50340300 		.4byte	0x33450
 3025 0051 9F       		.byte	0x9f
 3026 0052 00000000 		.4byte	0
 3027 0056 00000000 		.4byte	0
 3028              	.LLST3:
 3029 005a 00000000 		.4byte	.LVL0
 3030 005e 18000000 		.4byte	.LVL1
 3031 0062 0600     		.2byte	0x6
 3032 0064 03       		.byte	0x3
 3033 0065 00000000 		.4byte	_ZL11s_delay_ram
 3034 0069 9F       		.byte	0x9f
 3035 006a 00000000 		.4byte	0
 3036 006e 00000000 		.4byte	0
 3037              	.LLST4:
 3038 0072 00000000 		.4byte	.LVL0
 3039 0076 18000000 		.4byte	.LVL1
 3040 007a 0600     		.2byte	0x6
 3041 007c 03       		.byte	0x3
 3042 007d 00000000 		.4byte	_ZL7s_delay
 3043 0081 9F       		.byte	0x9f
 3044 0082 00000000 		.4byte	0
 3045 0086 00000000 		.4byte	0
 3046              	.LLST5:
 3047 008a 18000000 		.4byte	.LVL1
 3048 008e 34000000 		.4byte	.LVL8
 3049 0092 0600     		.2byte	0x6
 3050 0094 03       		.byte	0x3
 3051 0095 00000000 		.4byte	_ZL7s_delay
 3052 0099 9F       		.byte	0x9f
 3053 009a 00000000 		.4byte	0
 3054 009e 00000000 		.4byte	0
 3055              	.LLST6:
 3056 00a2 18000000 		.4byte	.LVL1
 3057 00a6 34000000 		.4byte	.LVL8
 3058 00aa 0400     		.2byte	0x4
 3059 00ac 40       		.byte	0x40
 3060 00ad 3F       		.byte	0x3f
 3061 00ae 24       		.byte	0x24
 3062 00af 9F       		.byte	0x9f
 3063 00b0 00000000 		.4byte	0
 3064 00b4 00000000 		.4byte	0
 3065              	.LLST7:
 3066 00b8 18000000 		.4byte	.LVL1
 3067 00bc 1E000000 		.4byte	.LVL3
 3068 00c0 0600     		.2byte	0x6
 3069 00c2 03       		.byte	0x3
ARM GAS  C:\msys64\tmp\ccSyJrMh.s 			page 55


 3070 00c3 00000000 		.4byte	_ZL11s_delay_ram
 3071 00c7 9F       		.byte	0x9f
 3072 00c8 1E000000 		.4byte	.LVL3
 3073 00cc 22000000 		.4byte	.LVL4
 3074 00d0 0300     		.2byte	0x3
 3075 00d2 73       		.byte	0x73
 3076 00d3 74       		.sleb128 -12
 3077 00d4 9F       		.byte	0x9f
 3078 00d5 22000000 		.4byte	.LVL4
 3079 00d9 26000000 		.4byte	.LVL5
 3080 00dd 0300     		.2byte	0x3
 3081 00df 73       		.byte	0x73
 3082 00e0 78       		.sleb128 -8
 3083 00e1 9F       		.byte	0x9f
 3084 00e2 26000000 		.4byte	.LVL5
 3085 00e6 2A000000 		.4byte	.LVL6
 3086 00ea 0300     		.2byte	0x3
 3087 00ec 73       		.byte	0x73
 3088 00ed 7C       		.sleb128 -4
 3089 00ee 9F       		.byte	0x9f
 3090 00ef 2A000000 		.4byte	.LVL6
 3091 00f3 30000000 		.4byte	.LVL7
 3092 00f7 0100     		.2byte	0x1
 3093 00f9 53       		.byte	0x53
 3094 00fa 30000000 		.4byte	.LVL7
 3095 00fe 34000000 		.4byte	.LVL8
 3096 0102 0300     		.2byte	0x3
 3097 0104 73       		.byte	0x73
 3098 0105 70       		.sleb128 -16
 3099 0106 9F       		.byte	0x9f
 3100 0107 00000000 		.4byte	0
 3101 010b 00000000 		.4byte	0
 3102              	.LLST8:
 3103 010f 18000000 		.4byte	.LVL1
 3104 0113 34000000 		.4byte	.LVL8
 3105 0117 0600     		.2byte	0x6
 3106 0119 03       		.byte	0x3
 3107 011a 00002000 		.4byte	_ZL11s_delay_ram+2097152
 3108 011e 9F       		.byte	0x9f
 3109 011f 00000000 		.4byte	0
 3110 0123 00000000 		.4byte	0
 3111              	.LLST9:
 3112 0127 34000000 		.4byte	.LVL8
 3113 012b 3A000000 		.4byte	.LVL9
 3114 012f 0600     		.2byte	0x6
 3115 0131 03       		.byte	0x3
 3116 0132 18000000 		.4byte	_ZL5s_lfo
 3117 0136 9F       		.byte	0x9f
 3118 0137 00000000 		.4byte	0
 3119 013b 00000000 		.4byte	0
 3120              	.LLST10:
 3121 013f 5A000000 		.4byte	.LVL11
 3122 0143 6E000000 		.4byte	.LVL12
 3123 0147 0600     		.2byte	0x6
 3124 0149 9E       		.byte	0x9e
 3125 014a 04       		.uleb128 0x4
 3126 014b 3EC3AE37 		.4byte	0x37aec33e
ARM GAS  C:\msys64\tmp\ccSyJrMh.s 			page 56


 3127 014f 00000000 		.4byte	0
 3128 0153 00000000 		.4byte	0
 3129              	.LLST11:
 3130 0157 5A000000 		.4byte	.LVL11
 3131 015b 6E000000 		.4byte	.LVL12
 3132 015f 0500     		.2byte	0x5
 3133 0161 03       		.byte	0x3
 3134 0162 00000000 		.4byte	lfo_speed
 3135 0166 00000000 		.4byte	0
 3136 016a 00000000 		.4byte	0
 3137              	.LLST12:
 3138 016e 5A000000 		.4byte	.LVL11
 3139 0172 6E000000 		.4byte	.LVL12
 3140 0176 0600     		.2byte	0x6
 3141 0178 03       		.byte	0x3
 3142 0179 18000000 		.4byte	_ZL5s_lfo
 3143 017d 9F       		.byte	0x9f
 3144 017e 00000000 		.4byte	0
 3145 0182 00000000 		.4byte	0
 3146              	.LLST13:
 3147 0186 84000000 		.4byte	.LVL13
 3148 018a B6000000 		.4byte	.LVL16
 3149 018e 0100     		.2byte	0x1
 3150 0190 50       		.byte	0x50
 3151 0191 B6000000 		.4byte	.LVL16
 3152 0195 74010000 		.4byte	.LFE317
 3153 0199 0400     		.2byte	0x4
 3154 019b F3       		.byte	0xf3
 3155 019c 01       		.uleb128 0x1
 3156 019d 50       		.byte	0x50
 3157 019e 9F       		.byte	0x9f
 3158 019f 00000000 		.4byte	0
 3159 01a3 00000000 		.4byte	0
 3160              	.LLST14:
 3161 01a7 84000000 		.4byte	.LVL13
 3162 01ab A6000000 		.4byte	.LVL14
 3163 01af 0100     		.2byte	0x1
 3164 01b1 51       		.byte	0x51
 3165 01b2 A6000000 		.4byte	.LVL14
 3166 01b6 74010000 		.4byte	.LFE317
 3167 01ba 0400     		.2byte	0x4
 3168 01bc F3       		.byte	0xf3
 3169 01bd 01       		.uleb128 0x1
 3170 01be 51       		.byte	0x51
 3171 01bf 9F       		.byte	0x9f
 3172 01c0 00000000 		.4byte	0
 3173 01c4 00000000 		.4byte	0
 3174              	.LLST15:
 3175 01c8 84000000 		.4byte	.LVL13
 3176 01cc D0000000 		.4byte	.LVL19
 3177 01d0 0100     		.2byte	0x1
 3178 01d2 50       		.byte	0x50
 3179 01d3 D0000000 		.4byte	.LVL19
 3180 01d7 56010000 		.4byte	.LVL27
 3181 01db 0300     		.2byte	0x3
 3182 01dd 74       		.byte	0x74
 3183 01de 78       		.sleb128 -8
ARM GAS  C:\msys64\tmp\ccSyJrMh.s 			page 57


 3184 01df 9F       		.byte	0x9f
 3185 01e0 56010000 		.4byte	.LVL27
 3186 01e4 5A010000 		.4byte	.LVL29
 3187 01e8 0100     		.2byte	0x1
 3188 01ea 54       		.byte	0x54
 3189 01eb 5A010000 		.4byte	.LVL29
 3190 01ef 74010000 		.4byte	.LFE317
 3191 01f3 0100     		.2byte	0x1
 3192 01f5 50       		.byte	0x50
 3193 01f6 00000000 		.4byte	0
 3194 01fa 00000000 		.4byte	0
 3195              	.LLST16:
 3196 01fe AA000000 		.4byte	.LVL15
 3197 0202 6A010000 		.4byte	.LVL30
 3198 0206 0100     		.2byte	0x1
 3199 0208 58       		.byte	0x58
 3200 0209 6A010000 		.4byte	.LVL30
 3201 020d 74010000 		.4byte	.LFE317
 3202 0211 0A00     		.2byte	0xa
 3203 0213 F3       		.byte	0xf3
 3204 0214 01       		.uleb128 0x1
 3205 0215 51       		.byte	0x51
 3206 0216 33       		.byte	0x33
 3207 0217 24       		.byte	0x24
 3208 0218 F3       		.byte	0xf3
 3209 0219 01       		.uleb128 0x1
 3210 021a 50       		.byte	0x50
 3211 021b 22       		.byte	0x22
 3212 021c 9F       		.byte	0x9f
 3213 021d 00000000 		.4byte	0
 3214 0221 00000000 		.4byte	0
 3215              	.LLST17:
 3216 0225 48010000 		.4byte	.LVL25
 3217 0229 50010000 		.4byte	.LVL26
 3218 022d 1200     		.2byte	0x12
 3219 022f 90       		.byte	0x90
 3220 0230 4F       		.uleb128 0x4f
 3221 0231 93       		.byte	0x93
 3222 0232 04       		.uleb128 0x4
 3223 0233 F5       		.byte	0xf5
 3224 0234 4F       		.uleb128 0x4f
 3225 0235 25       		.uleb128 0x25
 3226 0236 F4       		.byte	0xf4
 3227 0237 25       		.uleb128 0x25
 3228 0238 04       		.byte	0x4
 3229 0239 0000803F 		.4byte	0x3f800000
 3230 023d 22       		.byte	0x22
 3231 023e 9F       		.byte	0x9f
 3232 023f 93       		.byte	0x93
 3233 0240 04       		.uleb128 0x4
 3234 0241 50010000 		.4byte	.LVL26
 3235 0245 58010000 		.4byte	.LVL28
 3236 0249 1400     		.2byte	0x14
 3237 024b 70       		.byte	0x70
 3238 024c 00       		.sleb128 0
 3239 024d 93       		.byte	0x93
 3240 024e 04       		.uleb128 0x4
ARM GAS  C:\msys64\tmp\ccSyJrMh.s 			page 58


 3241 024f 70       		.byte	0x70
 3242 0250 00       		.sleb128 0
 3243 0251 F6       		.byte	0xf6
 3244 0252 04       		.byte	0x4
 3245 0253 25       		.uleb128 0x25
 3246 0254 F4       		.byte	0xf4
 3247 0255 25       		.uleb128 0x25
 3248 0256 04       		.byte	0x4
 3249 0257 0000803F 		.4byte	0x3f800000
 3250 025b 22       		.byte	0x22
 3251 025c 9F       		.byte	0x9f
 3252 025d 93       		.byte	0x93
 3253 025e 04       		.uleb128 0x4
 3254 025f 58010000 		.4byte	.LVL28
 3255 0263 5A010000 		.4byte	.LVL29
 3256 0267 2400     		.2byte	0x24
 3257 0269 72       		.byte	0x72
 3258 026a 01       		.sleb128 1
 3259 026b 77       		.byte	0x77
 3260 026c 00       		.sleb128 0
 3261 026d 1A       		.byte	0x1a
 3262 026e 33       		.byte	0x33
 3263 026f 24       		.byte	0x24
 3264 0270 76       		.byte	0x76
 3265 0271 00       		.sleb128 0
 3266 0272 22       		.byte	0x22
 3267 0273 93       		.byte	0x93
 3268 0274 04       		.uleb128 0x4
 3269 0275 72       		.byte	0x72
 3270 0276 01       		.sleb128 1
 3271 0277 77       		.byte	0x77
 3272 0278 00       		.sleb128 0
 3273 0279 1A       		.byte	0x1a
 3274 027a 33       		.byte	0x33
 3275 027b 24       		.byte	0x24
 3276 027c 76       		.byte	0x76
 3277 027d 00       		.sleb128 0
 3278 027e 22       		.byte	0x22
 3279 027f F6       		.byte	0xf6
 3280 0280 04       		.byte	0x4
 3281 0281 25       		.uleb128 0x25
 3282 0282 F4       		.byte	0xf4
 3283 0283 25       		.uleb128 0x25
 3284 0284 04       		.byte	0x4
 3285 0285 0000803F 		.4byte	0x3f800000
 3286 0289 22       		.byte	0x22
 3287 028a 9F       		.byte	0x9f
 3288 028b 93       		.byte	0x93
 3289 028c 04       		.uleb128 0x4
 3290 028d 00000000 		.4byte	0
 3291 0291 00000000 		.4byte	0
 3292              	.LLST18:
 3293 0295 F6000000 		.4byte	.LVL21
 3294 0299 0C010000 		.4byte	.LVL23
 3295 029d 1B00     		.2byte	0x1b
 3296 029f 72       		.byte	0x72
 3297 02a0 900D     		.sleb128 1680
ARM GAS  C:\msys64\tmp\ccSyJrMh.s 			page 59


 3298 02a2 77       		.byte	0x77
 3299 02a3 00       		.sleb128 0
 3300 02a4 1A       		.byte	0x1a
 3301 02a5 33       		.byte	0x33
 3302 02a6 24       		.byte	0x24
 3303 02a7 76       		.byte	0x76
 3304 02a8 00       		.sleb128 0
 3305 02a9 22       		.byte	0x22
 3306 02aa F6       		.byte	0xf6
 3307 02ab 04       		.byte	0x4
 3308 02ac 25       		.uleb128 0x25
 3309 02ad F5       		.byte	0xf5
 3310 02ae 4A       		.uleb128 0x4a
 3311 02af 25       		.uleb128 0x25
 3312 02b0 1E       		.byte	0x1e
 3313 02b1 F5       		.byte	0xf5
 3314 02b2 4F       		.uleb128 0x4f
 3315 02b3 25       		.uleb128 0x25
 3316 02b4 F5       		.byte	0xf5
 3317 02b5 4F       		.uleb128 0x4f
 3318 02b6 25       		.uleb128 0x25
 3319 02b7 22       		.byte	0x22
 3320 02b8 1E       		.byte	0x1e
 3321 02b9 9F       		.byte	0x9f
 3322 02ba 00000000 		.4byte	0
 3323 02be 00000000 		.4byte	0
 3324              	.LLST19:
 3325 02c2 04010000 		.4byte	.LVL22
 3326 02c6 3C010000 		.4byte	.LVL24
 3327 02ca 0200     		.2byte	0x2
 3328 02cc 90       		.byte	0x90
 3329 02cd 4D       		.uleb128 0x4d
 3330 02ce 00000000 		.4byte	0
 3331 02d2 00000000 		.4byte	0
 3332              	.LLST20:
 3333 02d6 C4000000 		.4byte	.LVL17
 3334 02da F6000000 		.4byte	.LVL21
 3335 02de 0600     		.2byte	0x6
 3336 02e0 03       		.byte	0x3
 3337 02e1 18000000 		.4byte	_ZL5s_lfo
 3338 02e5 9F       		.byte	0x9f
 3339 02e6 00000000 		.4byte	0
 3340 02ea 00000000 		.4byte	0
 3341              	.LLST21:
 3342 02ee CC000000 		.4byte	.LVL18
 3343 02f2 EE000000 		.4byte	.LVL20
 3344 02f6 0200     		.2byte	0x2
 3345 02f8 90       		.byte	0x90
 3346 02f9 4E       		.uleb128 0x4e
 3347 02fa 00000000 		.4byte	0
 3348 02fe 00000000 		.4byte	0
 3349              	.LLST22:
 3350 0302 48010000 		.4byte	.LVL25
 3351 0306 56010000 		.4byte	.LVL27
 3352 030a 0600     		.2byte	0x6
 3353 030c F2       		.byte	0xf2
 3354 030d F7090000 		.4byte	.Ldebug_info0+2551
ARM GAS  C:\msys64\tmp\ccSyJrMh.s 			page 60


 3355 0311 00       		.sleb128 0
 3356 0312 00000000 		.4byte	0
 3357 0316 00000000 		.4byte	0
 3358              	.LLST23:
 3359 031a 48010000 		.4byte	.LVL25
 3360 031e 56010000 		.4byte	.LVL27
 3361 0322 0600     		.2byte	0x6
 3362 0324 03       		.byte	0x3
 3363 0325 00000000 		.4byte	_ZL7s_delay
 3364 0329 9F       		.byte	0x9f
 3365 032a 00000000 		.4byte	0
 3366 032e 00000000 		.4byte	0
 3367              	.LLST24:
 3368 0332 74010000 		.4byte	.LVL31
 3369 0336 9F010000 		.4byte	.LVL33-1
 3370 033a 0100     		.2byte	0x1
 3371 033c 50       		.byte	0x50
 3372 033d 9F010000 		.4byte	.LVL33-1
 3373 0341 0C020000 		.4byte	.LFE318
 3374 0345 0400     		.2byte	0x4
 3375 0347 F3       		.byte	0xf3
 3376 0348 01       		.uleb128 0x1
 3377 0349 50       		.byte	0x50
 3378 034a 9F       		.byte	0x9f
 3379 034b 00000000 		.4byte	0
 3380 034f 00000000 		.4byte	0
 3381              	.LLST25:
 3382 0353 74010000 		.4byte	.LVL31
 3383 0357 9F010000 		.4byte	.LVL33-1
 3384 035b 0100     		.2byte	0x1
 3385 035d 51       		.byte	0x51
 3386 035e 9F010000 		.4byte	.LVL33-1
 3387 0362 0C020000 		.4byte	.LFE318
 3388 0366 0400     		.2byte	0x4
 3389 0368 F3       		.byte	0xf3
 3390 0369 01       		.uleb128 0x1
 3391 036a 51       		.byte	0x51
 3392 036b 9F       		.byte	0x9f
 3393 036c 00000000 		.4byte	0
 3394 0370 00000000 		.4byte	0
 3395              	.LLST26:
 3396 0374 84010000 		.4byte	.LVL32
 3397 0378 FC010000 		.4byte	.LVL34
 3398 037c 0200     		.2byte	0x2
 3399 037e 90       		.byte	0x90
 3400 037f 50       		.uleb128 0x50
 3401 0380 FC010000 		.4byte	.LVL34
 3402 0384 0C020000 		.4byte	.LFE318
 3403 0388 1000     		.2byte	0x10
 3404 038a F3       		.byte	0xf3
 3405 038b 01       		.uleb128 0x1
 3406 038c 51       		.byte	0x51
 3407 038d F7       		.byte	0xf7
 3408 038e 2C       		.uleb128 0x2c
 3409 038f F7       		.byte	0xf7
 3410 0390 25       		.uleb128 0x25
 3411 0391 F4       		.byte	0xf4
ARM GAS  C:\msys64\tmp\ccSyJrMh.s 			page 61


 3412 0392 25       		.uleb128 0x25
 3413 0393 04       		.byte	0x4
 3414 0394 00000030 		.4byte	0x30000000
 3415 0398 1E       		.byte	0x1e
 3416 0399 9F       		.byte	0x9f
 3417 039a 00000000 		.4byte	0
 3418 039e 00000000 		.4byte	0
 3419              	.LLST27:
 3420 03a2 00000000 		.4byte	.LVL35
 3421 03a6 14000000 		.4byte	.LVL37
 3422 03aa 0200     		.2byte	0x2
 3423 03ac 31       		.byte	0x31
 3424 03ad 9F       		.byte	0x9f
 3425 03ae 00000000 		.4byte	0
 3426 03b2 00000000 		.4byte	0
 3427              	.LLST28:
 3428 03b6 00000000 		.4byte	.LVL35
 3429 03ba 14000000 		.4byte	.LVL37
 3430 03be 0400     		.2byte	0x4
 3431 03c0 0A       		.byte	0xa
 3432 03c1 FFFF     		.2byte	0xffff
 3433 03c3 9F       		.byte	0x9f
 3434 03c4 00000000 		.4byte	0
 3435 03c8 00000000 		.4byte	0
 3436              	.LLST29:
 3437 03cc 00000000 		.4byte	.LVL35
 3438 03d0 10000000 		.4byte	.LVL36
 3439 03d4 0600     		.2byte	0x6
 3440 03d6 03       		.byte	0x3
 3441 03d7 00000000 		.4byte	_ZL7s_delay
 3442 03db 9F       		.byte	0x9f
 3443 03dc 00000000 		.4byte	0
 3444 03e0 00000000 		.4byte	0
 3445              		.section	.debug_aranges,"",%progbits
 3446 0000 24000000 		.4byte	0x24
 3447 0004 0200     		.2byte	0x2
 3448 0006 00000000 		.4byte	.Ldebug_info0
 3449 000a 04       		.byte	0x4
 3450 000b 00       		.byte	0
 3451 000c 0000     		.2byte	0
 3452 000e 0000     		.2byte	0
 3453 0010 00000000 		.4byte	.Ltext0
 3454 0014 0C020000 		.4byte	.Letext0-.Ltext0
 3455 0018 00000000 		.4byte	.LFB320
 3456 001c 1C000000 		.4byte	.LFE320-.LFB320
 3457 0020 00000000 		.4byte	0
 3458 0024 00000000 		.4byte	0
 3459              		.section	.debug_ranges,"",%progbits
 3460              	.Ldebug_ranges0:
 3461 0000 4E000000 		.4byte	.LBB55
 3462 0004 52000000 		.4byte	.LBE55
 3463 0008 5E000000 		.4byte	.LBB58
 3464 000c 84000000 		.4byte	.LBE58
 3465 0010 00000000 		.4byte	0
 3466 0014 00000000 		.4byte	0
 3467 0018 86000000 		.4byte	.LBB60
 3468 001c 8A000000 		.4byte	.LBE60
ARM GAS  C:\msys64\tmp\ccSyJrMh.s 			page 62


 3469 0020 8E000000 		.4byte	.LBB95
 3470 0024 96000000 		.4byte	.LBE95
 3471 0028 A0000000 		.4byte	.LBB96
 3472 002c A4000000 		.4byte	.LBE96
 3473 0030 AC000000 		.4byte	.LBB97
 3474 0034 B6000000 		.4byte	.LBE97
 3475 0038 C4000000 		.4byte	.LBB98
 3476 003c 56010000 		.4byte	.LBE98
 3477 0040 00000000 		.4byte	0
 3478 0044 00000000 		.4byte	0
 3479 0048 86000000 		.4byte	.LBB61
 3480 004c 8A000000 		.4byte	.LBE61
 3481 0050 AE000000 		.4byte	.LBB78
 3482 0054 B6000000 		.4byte	.LBE78
 3483 0058 C4000000 		.4byte	.LBB79
 3484 005c D8000000 		.4byte	.LBE79
 3485 0060 DC000000 		.4byte	.LBB83
 3486 0064 E0000000 		.4byte	.LBE83
 3487 0068 E6000000 		.4byte	.LBB85
 3488 006c EA000000 		.4byte	.LBE85
 3489 0070 F2000000 		.4byte	.LBB87
 3490 0074 F6000000 		.4byte	.LBE87
 3491 0078 00000000 		.4byte	0
 3492 007c 00000000 		.4byte	0
 3493 0080 92000000 		.4byte	.LBB70
 3494 0084 96000000 		.4byte	.LBE70
 3495 0088 AC000000 		.4byte	.LBB77
 3496 008c AE000000 		.4byte	.LBE77
 3497 0090 00000000 		.4byte	0
 3498 0094 00000000 		.4byte	0
 3499 0098 A0000000 		.4byte	.LBB73
 3500 009c A4000000 		.4byte	.LBE73
 3501 00a0 EE000000 		.4byte	.LBB86
 3502 00a4 F2000000 		.4byte	.LBE86
 3503 00a8 FA000000 		.4byte	.LBB88
 3504 00ac 00010000 		.4byte	.LBE88
 3505 00b0 00000000 		.4byte	0
 3506 00b4 00000000 		.4byte	0
 3507 00b8 D8000000 		.4byte	.LBB80
 3508 00bc DC000000 		.4byte	.LBE80
 3509 00c0 E0000000 		.4byte	.LBB84
 3510 00c4 E6000000 		.4byte	.LBE84
 3511 00c8 00000000 		.4byte	0
 3512 00cc 00000000 		.4byte	0
 3513 00d0 10010000 		.4byte	.LBB89
 3514 00d4 14010000 		.4byte	.LBE89
 3515 00d8 40010000 		.4byte	.LBB93
 3516 00dc 44010000 		.4byte	.LBE93
 3517 00e0 48010000 		.4byte	.LBB94
 3518 00e4 56010000 		.4byte	.LBE94
 3519 00e8 00000000 		.4byte	0
 3520 00ec 00000000 		.4byte	0
 3521 00f0 00000000 		.4byte	.LBB109
 3522 00f4 04000000 		.4byte	.LBE109
 3523 00f8 08000000 		.4byte	.LBB115
 3524 00fc 10000000 		.4byte	.LBE115
 3525 0100 00000000 		.4byte	0
ARM GAS  C:\msys64\tmp\ccSyJrMh.s 			page 63


 3526 0104 00000000 		.4byte	0
 3527 0108 04000000 		.4byte	.LBB112
 3528 010c 08000000 		.4byte	.LBE112
 3529 0110 10000000 		.4byte	.LBB116
 3530 0114 1C000000 		.4byte	.LBE116
 3531 0118 00000000 		.4byte	0
 3532 011c 00000000 		.4byte	0
 3533 0120 00000000 		.4byte	.Ltext0
 3534 0124 0C020000 		.4byte	.Letext0
 3535 0128 00000000 		.4byte	.LFB320
 3536 012c 1C000000 		.4byte	.LFE320
 3537 0130 00000000 		.4byte	0
 3538 0134 00000000 		.4byte	0
 3539              		.section	.debug_line,"",%progbits
 3540              	.Ldebug_line0:
 3541 0000 EB030000 		.section	.debug_str,"MS",%progbits,1
 3541      0200AC02 
 3541      00000201 
 3541      FB0E0D00 
 3541      01010101 
 3542              	.LASF21:
 3543 0000 6633325F 		.ascii	"f32_t\000"
 3543      7400
 3544              	.LASF52:
 3545 0006 5F5A4E33 		.ascii	"_ZN3dsp9SimpleLFO12triangle_uniEv\000"
 3545      64737039 
 3545      53696D70 
 3545      6C654C46 
 3545      4F313274 
 3546              	.LASF120:
 3547 0028 5F686F6F 		.ascii	"_hook_param\000"
 3547      6B5F7061 
 3547      72616D00 
 3548              	.LASF138:
 3549 0034 77745F70 		.ascii	"wt_par_lut_f\000"
 3549      61725F6C 
 3549      75745F66 
 3549      00
 3550              	.LASF100:
 3551 0041 72656164 		.ascii	"read1Frac\000"
 3551      31467261 
 3551      6300
 3552              	.LASF50:
 3553 004b 5F5A4E33 		.ascii	"_ZN3dsp9SimpleLFO11triangle_biEv\000"
 3553      64737039 
 3553      53696D70 
 3553      6C654C46 
 3553      4F313174 
 3554              	.LASF140:
 3555 006c 735F6465 		.ascii	"s_delay_ram\000"
 3555      6C61795F 
 3555      72616D00 
 3556              	.LASF148:
 3557 0078 474E5520 		.ascii	"GNU C++11 5.4.1 20160919 (release) [ARM/embedded-5-"
 3557      432B2B31 
 3557      3120352E 
 3557      342E3120 
ARM GAS  C:\msys64\tmp\ccSyJrMh.s 			page 64


 3557      32303136 
 3558 00ab 6272616E 		.ascii	"branch revision 240496] -mcpu=cortex-m4 -mthumb -mn"
 3558      63682072 
 3558      65766973 
 3558      696F6E20 
 3558      32343034 
 3559 00de 6F2D7468 		.ascii	"o-thumb-interwork -mlittle-endian -mfloat-abi=hard "
 3559      756D622D 
 3559      696E7465 
 3559      72776F72 
 3559      6B202D6D 
 3560 0111 2D6D6670 		.ascii	"-mfpu=fpv4-sp-d16 -g -Os -std=c++11 -fsingle-precis"
 3560      753D6670 
 3560      76342D73 
 3560      702D6431 
 3560      36202D67 
 3561 0144 696F6E2D 		.ascii	"ion-constant -fcheck-new -fno-rtti -fno-exceptions "
 3561      636F6E73 
 3561      74616E74 
 3561      202D6663 
 3561      6865636B 
 3562 0177 2D666E6F 		.ascii	"-fno-non-call-exceptions\000"
 3562      2D6E6F6E 
 3562      2D63616C 
 3562      6C2D6578 
 3562      63657074 
 3563              	.LASF12:
 3564 0190 756E7369 		.ascii	"unsigned int\000"
 3564      676E6564 
 3564      20696E74 
 3564      00
 3565              	.LASF88:
 3566 019d 72656164 		.ascii	"readFrac\000"
 3566      46726163 
 3566      00
 3567              	.LASF156:
 3568 01a6 5F474C4F 		.ascii	"_GLOBAL__sub_I_lfo_speed\000"
 3568      42414C5F 
 3568      5F737562 
 3568      5F495F6C 
 3568      666F5F73 
 3569              	.LASF6:
 3570 01bf 5F5F696E 		.ascii	"__int32_t\000"
 3570      7433325F 
 3570      7400
 3571              	.LASF134:
 3572 01c9 6B5F6F73 		.ascii	"k_osc_api_version\000"
 3572      635F6170 
 3572      695F7665 
 3572      7273696F 
 3572      6E00
 3573              	.LASF114:
 3574 01db 706C6174 		.ascii	"platform\000"
 3574      666F726D 
 3574      00
 3575              	.LASF143:
 3576 01e4 735F6C65 		.ascii	"s_len\000"
ARM GAS  C:\msys64\tmp\ccSyJrMh.s 			page 65


 3576      6E00
 3577              	.LASF106:
 3578 01ea 73695F66 		.ascii	"si_fabsf\000"
 3578      61627366 
 3578      00
 3579              	.LASF127:
 3580 01f3 74616E70 		.ascii	"tanpi_lut_f\000"
 3580      695F6C75 
 3580      745F6600 
 3581              	.LASF57:
 3582 01ff 7361775F 		.ascii	"saw_bi\000"
 3582      626900
 3583              	.LASF124:
 3584 0206 6B5F6678 		.ascii	"k_fx_api_version\000"
 3584      5F617069 
 3584      5F766572 
 3584      73696F6E 
 3584      00
 3585              	.LASF15:
 3586 0217 75696E74 		.ascii	"uint32_t\000"
 3586      33325F74 
 3586      00
 3587              	.LASF117:
 3588 0220 76616C66 		.ascii	"valf\000"
 3588      00
 3589              	.LASF87:
 3590 0225 5F5A4E33 		.ascii	"_ZN3dsp13DualDelayLine4readEm\000"
 3590      64737031 
 3590      33447561 
 3590      6C44656C 
 3590      61794C69 
 3591              	.LASF44:
 3592 0243 5F5A4E33 		.ascii	"_ZN3dsp9SimpleLFO8sine_uniEv\000"
 3592      64737039 
 3592      53696D70 
 3592      6C654C46 
 3592      4F387369 
 3593              	.LASF141:
 3594 0260 735F6C66 		.ascii	"s_lfo\000"
 3594      6F00
 3595              	.LASF135:
 3596 0266 6D696469 		.ascii	"midi_to_hz_lut_f\000"
 3596      5F746F5F 
 3596      687A5F6C 
 3596      75745F66 
 3596      00
 3597              	.LASF69:
 3598 0277 73717561 		.ascii	"square_bi_off\000"
 3598      72655F62 
 3598      695F6F66 
 3598      6600
 3599              	.LASF0:
 3600 0285 666C6F61 		.ascii	"float\000"
 3600      7400
 3601              	.LASF121:
 3602 028b 696E6465 		.ascii	"index\000"
 3602      7800
ARM GAS  C:\msys64\tmp\ccSyJrMh.s 			page 66


 3603              	.LASF26:
 3604 0291 6B5F7573 		.ascii	"k_user_module_delfx\000"
 3604      65725F6D 
 3604      6F64756C 
 3604      655F6465 
 3604      6C667800 
 3605              	.LASF34:
 3606 02a5 5F5A4E33 		.ascii	"_ZN3dsp9SimpleLFO5resetEv\000"
 3606      64737039 
 3606      53696D70 
 3606      6C654C46 
 3606      4F357265 
 3607              	.LASF11:
 3608 02bf 6C6F6E67 		.ascii	"long long unsigned int\000"
 3608      206C6F6E 
 3608      6720756E 
 3608      7369676E 
 3608      65642069 
 3609              	.LASF65:
 3610 02d6 73717561 		.ascii	"square_bi\000"
 3610      72655F62 
 3610      6900
 3611              	.LASF42:
 3612 02e0 5F5A4E33 		.ascii	"_ZN3dsp9SimpleLFO7sine_biEv\000"
 3612      64737039 
 3612      53696D70 
 3612      6C654C46 
 3612      4F377369 
 3613              	.LASF80:
 3614 02fc 636C6561 		.ascii	"clear\000"
 3614      7200
 3615              	.LASF82:
 3616 0302 7365744D 		.ascii	"setMemory\000"
 3616      656D6F72 
 3616      7900
 3617              	.LASF118:
 3618 030c 64656C53 		.ascii	"delSample1\000"
 3618      616D706C 
 3618      653100
 3619              	.LASF119:
 3620 0317 64656C53 		.ascii	"delSample2\000"
 3620      616D706C 
 3620      653200
 3621              	.LASF111:
 3622 0322 5F5F696E 		.ascii	"__initialize_p\000"
 3622      69746961 
 3622      6C697A65 
 3622      5F7000
 3623              	.LASF45:
 3624 0331 73696E65 		.ascii	"sine_bi_off\000"
 3624      5F62695F 
 3624      6F666600 
 3625              	.LASF16:
 3626 033d 73697A65 		.ascii	"size_t\000"
 3626      5F7400
 3627              	.LASF27:
 3628 0344 6B5F7573 		.ascii	"k_user_module_revfx\000"
ARM GAS  C:\msys64\tmp\ccSyJrMh.s 			page 67


 3628      65725F6D 
 3628      6F64756C 
 3628      655F7265 
 3628      76667800 
 3629              	.LASF40:
 3630 0358 73696E65 		.ascii	"sine_bi\000"
 3630      5F626900 
 3631              	.LASF112:
 3632 0360 5F5F7072 		.ascii	"__priority\000"
 3632      696F7269 
 3632      747900
 3633              	.LASF85:
 3634 036b 5F5A4E33 		.ascii	"_ZN3dsp13DualDelayLine5writeERK9f32pair_t\000"
 3634      64737031 
 3634      33447561 
 3634      6C44656C 
 3634      61794C69 
 3635              	.LASF59:
 3636 0395 7361775F 		.ascii	"saw_uni\000"
 3636      756E6900 
 3637              	.LASF83:
 3638 039d 5F5A4E33 		.ascii	"_ZN3dsp13DualDelayLine9setMemoryEP9f32pair_tj\000"
 3638      64737031 
 3638      33447561 
 3638      6C44656C 
 3638      61794C69 
 3639              	.LASF41:
 3640 03cb 5F5A4E33 		.ascii	"_ZN3dsp9SimpleLFOC4Ev\000"
 3640      64737039 
 3640      53696D70 
 3640      6C654C46 
 3640      4F433445 
 3641              	.LASF30:
 3642 03e1 70686930 		.ascii	"phi0\000"
 3642      00
 3643              	.LASF63:
 3644 03e6 7361775F 		.ascii	"saw_uni_off\000"
 3644      756E695F 
 3644      6F666600 
 3645              	.LASF96:
 3646 03f2 72656164 		.ascii	"read0Frac\000"
 3646      30467261 
 3646      6300
 3647              	.LASF64:
 3648 03fc 5F5A4E33 		.ascii	"_ZN3dsp9SimpleLFO11saw_uni_offEf\000"
 3648      64737039 
 3648      53696D70 
 3648      6C654C46 
 3648      4F313173 
 3649              	.LASF38:
 3650 041d 5F5A4E33 		.ascii	"_ZN3dsp9SimpleLFO5setW0Ef\000"
 3650      64737039 
 3650      53696D70 
 3650      6C654C46 
 3650      4F357365 
 3651              	.LASF147:
 3652 0437 77657458 		.ascii	"wetXNR\000"
ARM GAS  C:\msys64\tmp\ccSyJrMh.s 			page 68


 3652      4E5200
 3653              	.LASF101:
 3654 043e 5F5A4E33 		.ascii	"_ZN3dsp13DualDelayLine9read1FracEf\000"
 3654      64737031 
 3654      33447561 
 3654      6C44656C 
 3654      61794C69 
 3655              	.LASF19:
 3656 0461 63686172 		.ascii	"char\000"
 3656      00
 3657              	.LASF129:
 3658 0466 706F7732 		.ascii	"pow2_lut_f\000"
 3658      5F6C7574 
 3658      5F6600
 3659              	.LASF53:
 3660 0471 74726961 		.ascii	"triangle_bi_off\000"
 3660      6E676C65 
 3660      5F62695F 
 3660      6F666600 
 3661              	.LASF123:
 3662 0481 6B5F6678 		.ascii	"k_fx_api_platform\000"
 3662      5F617069 
 3662      5F706C61 
 3662      74666F72 
 3662      6D00
 3663              	.LASF70:
 3664 0493 5F5A4E33 		.ascii	"_ZN3dsp9SimpleLFO13square_bi_offEf\000"
 3664      64737039 
 3664      53696D70 
 3664      6C654C46 
 3664      4F313373 
 3665              	.LASF154:
 3666 04b6 6275665F 		.ascii	"buf_clr_f32\000"
 3666      636C725F 
 3666      66333200 
 3667              	.LASF102:
 3668 04c2 72656164 		.ascii	"read1Fracz\000"
 3668      31467261 
 3668      637A00
 3669              	.LASF116:
 3670 04cd 6672616D 		.ascii	"frames\000"
 3670      657300
 3671              	.LASF131:
 3672 04d4 73636865 		.ascii	"schetzen_lut_f\000"
 3672      747A656E 
 3672      5F6C7574 
 3672      5F6600
 3673              	.LASF13:
 3674 04e3 75696E74 		.ascii	"uint8_t\000"
 3674      385F7400 
 3675              	.LASF132:
 3676 04eb 62697472 		.ascii	"bitres_lut_f\000"
 3676      65735F6C 
 3676      75745F66 
 3676      00
 3677              	.LASF145:
 3678 04f8 6761696E 		.ascii	"gain\000"
ARM GAS  C:\msys64\tmp\ccSyJrMh.s 			page 69


 3678      00
 3679              	.LASF36:
 3680 04fd 5F5A4E33 		.ascii	"_ZN3dsp9SimpleLFO5setF0Eff\000"
 3680      64737039 
 3680      53696D70 
 3680      6C654C46 
 3680      4F357365 
 3681              	.LASF48:
 3682 0518 5F5A4E33 		.ascii	"_ZN3dsp9SimpleLFO12sine_uni_offEf\000"
 3682      64737039 
 3682      53696D70 
 3682      6C654C46 
 3682      4F313273 
 3683              	.LASF94:
 3684 053a 72656164 		.ascii	"read1\000"
 3684      3100
 3685              	.LASF126:
 3686 0540 6C6F675F 		.ascii	"log_lut_f\000"
 3686      6C75745F 
 3686      6600
 3687              	.LASF81:
 3688 054a 5F5A4E33 		.ascii	"_ZN3dsp13DualDelayLine5clearEv\000"
 3688      64737031 
 3688      33447561 
 3688      6C44656C 
 3688      61794C69 
 3689              	.LASF10:
 3690 0569 6C6F6E67 		.ascii	"long long int\000"
 3690      206C6F6E 
 3690      6720696E 
 3690      7400
 3691              	.LASF84:
 3692 0577 77726974 		.ascii	"write\000"
 3692      6500
 3693              	.LASF76:
 3694 057d 6D577269 		.ascii	"mWriteIdx\000"
 3694      74654964 
 3694      7800
 3695              	.LASF75:
 3696 0587 6D4D6173 		.ascii	"mMask\000"
 3696      6B00
 3697              	.LASF93:
 3698 058d 5F5A4E33 		.ascii	"_ZN3dsp13DualDelayLine5read0Em\000"
 3698      64737031 
 3698      33447561 
 3698      6C44656C 
 3698      61794C69 
 3699              	.LASF89:
 3700 05ac 5F5A4E33 		.ascii	"_ZN3dsp13DualDelayLine8readFracEf\000"
 3700      64737031 
 3700      33447561 
 3700      6C44656C 
 3700      61794C69 
 3701              	.LASF72:
 3702 05ce 6D4C696E 		.ascii	"mLine\000"
 3702      6500
 3703              	.LASF146:
ARM GAS  C:\msys64\tmp\ccSyJrMh.s 			page 70


 3704 05d4 77657458 		.ascii	"wetXNL\000"
 3704      4E4C00
 3705              	.LASF99:
 3706 05db 5F5A4E33 		.ascii	"_ZN3dsp13DualDelayLine10read0FraczEmf\000"
 3706      64737031 
 3706      33447561 
 3706      6C44656C 
 3706      61794C69 
 3707              	.LASF68:
 3708 0601 5F5A4E33 		.ascii	"_ZN3dsp9SimpleLFO10square_uniEv\000"
 3708      64737039 
 3708      53696D70 
 3708      6C654C46 
 3708      4F313073 
 3709              	.LASF29:
 3710 0621 6B5F6E75 		.ascii	"k_num_user_modules\000"
 3710      6D5F7573 
 3710      65725F6D 
 3710      6F64756C 
 3710      657300
 3711              	.LASF90:
 3712 0634 72656164 		.ascii	"readFracz\000"
 3712      46726163 
 3712      7A00
 3713              	.LASF58:
 3714 063e 5F5A4E33 		.ascii	"_ZN3dsp9SimpleLFO6saw_biEv\000"
 3714      64737039 
 3714      53696D70 
 3714      6C654C46 
 3714      4F367361 
 3715              	.LASF109:
 3716 0659 6C696E65 		.ascii	"line_size\000"
 3716      5F73697A 
 3716      6500
 3717              	.LASF46:
 3718 0663 5F5A4E33 		.ascii	"_ZN3dsp9SimpleLFO11sine_bi_offEf\000"
 3718      64737039 
 3718      53696D70 
 3718      6C654C46 
 3718      4F313173 
 3719              	.LASF92:
 3720 0684 72656164 		.ascii	"read0\000"
 3720      3000
 3721              	.LASF152:
 3722 068a 35663332 		.ascii	"5f32_t\000"
 3722      5F7400
 3723              	.LASF74:
 3724 0691 6D53697A 		.ascii	"mSize\000"
 3724      6500
 3725              	.LASF153:
 3726 0697 39663332 		.ascii	"9f32pair_t\000"
 3726      70616972 
 3726      5F7400
 3727              	.LASF136:
 3728 06a2 77745F73 		.ascii	"wt_saw_lut_f\000"
 3728      61775F6C 
 3728      75745F66 
ARM GAS  C:\msys64\tmp\ccSyJrMh.s 			page 71


 3728      00
 3729              	.LASF28:
 3730 06af 6B5F7573 		.ascii	"k_user_module_osc\000"
 3730      65725F6D 
 3730      6F64756C 
 3730      655F6F73 
 3730      6300
 3731              	.LASF17:
 3732 06c1 6C6F6E67 		.ascii	"long double\000"
 3732      20646F75 
 3732      626C6500 
 3733              	.LASF105:
 3734 06cd 74686973 		.ascii	"this\000"
 3734      00
 3735              	.LASF97:
 3736 06d2 5F5A4E33 		.ascii	"_ZN3dsp13DualDelayLine9read0FracEf\000"
 3736      64737031 
 3736      33447561 
 3736      6C44656C 
 3736      61794C69 
 3737              	.LASF155:
 3738 06f5 5F5F7374 		.ascii	"__static_initialization_and_destruction_0\000"
 3738      61746963 
 3738      5F696E69 
 3738      7469616C 
 3738      697A6174 
 3739              	.LASF49:
 3740 071f 74726961 		.ascii	"triangle_bi\000"
 3740      6E676C65 
 3740      5F626900 
 3741              	.LASF115:
 3742 072b 5F686F6F 		.ascii	"_hook_process\000"
 3742      6B5F7072 
 3742      6F636573 
 3742      7300
 3743              	.LASF56:
 3744 0739 5F5A4E33 		.ascii	"_ZN3dsp9SimpleLFO16triangle_uni_offEf\000"
 3744      64737039 
 3744      53696D70 
 3744      6C654C46 
 3744      4F313674 
 3745              	.LASF113:
 3746 075f 5F686F6F 		.ascii	"_hook_init\000"
 3746      6B5F696E 
 3746      697400
 3747              	.LASF3:
 3748 076a 73686F72 		.ascii	"short int\000"
 3748      7420696E 
 3748      7400
 3749              	.LASF128:
 3750 0774 73717274 		.ascii	"sqrtm2log_lut_f\000"
 3750      6D326C6F 
 3750      675F6C75 
 3750      745F6600 
 3751              	.LASF130:
 3752 0784 63756269 		.ascii	"cubicsat_lut_f\000"
 3752      63736174 
ARM GAS  C:\msys64\tmp\ccSyJrMh.s 			page 72


 3752      5F6C7574 
 3752      5F6600
 3753              	.LASF137:
 3754 0793 77745F73 		.ascii	"wt_sqr_lut_f\000"
 3754      71725F6C 
 3754      75745F66 
 3754      00
 3755              	.LASF7:
 3756 07a0 6C6F6E67 		.ascii	"long int\000"
 3756      20696E74 
 3756      00
 3757              	.LASF35:
 3758 07a9 73657446 		.ascii	"setF0\000"
 3758      3000
 3759              	.LASF91:
 3760 07af 5F5A4E33 		.ascii	"_ZN3dsp13DualDelayLine9readFraczEmf\000"
 3760      64737031 
 3760      33447561 
 3760      6C44656C 
 3760      61794C69 
 3761              	.LASF33:
 3762 07d3 5F5A4E33 		.ascii	"_ZN3dsp9SimpleLFO5cycleEv\000"
 3762      64737039 
 3762      53696D70 
 3762      6C654C46 
 3762      4F356379 
 3763              	.LASF77:
 3764 07ed 4475616C 		.ascii	"DualDelayLine\000"
 3764      44656C61 
 3764      794C696E 
 3764      6500
 3765              	.LASF25:
 3766 07fb 6B5F7573 		.ascii	"k_user_module_modfx\000"
 3766      65725F6D 
 3766      6F64756C 
 3766      655F6D6F 
 3766      64667800 
 3767              	.LASF31:
 3768 080f 6379636C 		.ascii	"cycle\000"
 3768      6500
 3769              	.LASF43:
 3770 0815 73696E65 		.ascii	"sine_uni\000"
 3770      5F756E69 
 3770      00
 3771              	.LASF54:
 3772 081e 5F5A4E33 		.ascii	"_ZN3dsp9SimpleLFO15triangle_bi_offEf\000"
 3772      64737039 
 3772      53696D70 
 3772      6C654C46 
 3772      4F313574 
 3773              	.LASF110:
 3774 0843 70686966 		.ascii	"phif\000"
 3774      00
 3775              	.LASF32:
 3776 0848 72657365 		.ascii	"reset\000"
 3776      7400
 3777              	.LASF5:
ARM GAS  C:\msys64\tmp\ccSyJrMh.s 			page 73


 3778 084e 5F5F7569 		.ascii	"__uint8_t\000"
 3778      6E74385F 
 3778      7400
 3779              	.LASF86:
 3780 0858 72656164 		.ascii	"read\000"
 3780      00
 3781              	.LASF78:
 3782 085d 5F5A4E33 		.ascii	"_ZN3dsp13DualDelayLineC4Ev\000"
 3782      64737031 
 3782      33447561 
 3782      6C44656C 
 3782      61794C69 
 3783              	.LASF47:
 3784 0878 73696E65 		.ascii	"sine_uni_off\000"
 3784      5F756E69 
 3784      5F6F6666 
 3784      00
 3785              	.LASF23:
 3786 0885 7133315F 		.ascii	"q31_t\000"
 3786      7400
 3787              	.LASF18:
 3788 088b 73697A65 		.ascii	"sizetype\000"
 3788      74797065 
 3788      00
 3789              	.LASF9:
 3790 0894 6C6F6E67 		.ascii	"long unsigned int\000"
 3790      20756E73 
 3790      69676E65 
 3790      6420696E 
 3790      7400
 3791              	.LASF98:
 3792 08a6 72656164 		.ascii	"read0Fracz\000"
 3792      30467261 
 3792      637A00
 3793              	.LASF125:
 3794 08b1 77745F73 		.ascii	"wt_sine_lut_f\000"
 3794      696E655F 
 3794      6C75745F 
 3794      6600
 3795              	.LASF37:
 3796 08bf 73657457 		.ascii	"setW0\000"
 3796      3000
 3797              	.LASF14:
 3798 08c5 696E7433 		.ascii	"int32_t\000"
 3798      325F7400 
 3799              	.LASF71:
 3800 08cd 73717561 		.ascii	"square_uni_off\000"
 3800      72655F75 
 3800      6E695F6F 
 3800      666600
 3801              	.LASF157:
 3802 08dc 5F66785F 		.ascii	"_fx_get_bpm\000"
 3802      6765745F 
 3802      62706D00 
 3803              	.LASF144:
 3804 08e8 735F6D69 		.ascii	"s_mix\000"
 3804      7800
ARM GAS  C:\msys64\tmp\ccSyJrMh.s 			page 74


 3805              	.LASF104:
 3806 08ee 5F5A4E33 		.ascii	"_ZN3dsp13DualDelayLine10read1FraczEmf\000"
 3806      64737031 
 3806      33447561 
 3806      6C44656C 
 3806      61794C69 
 3807              	.LASF108:
 3808 0914 66737265 		.ascii	"fsrecip\000"
 3808      63697000 
 3809              	.LASF142:
 3810 091c 6C666F5F 		.ascii	"lfo_speed\000"
 3810      73706565 
 3810      6400
 3811              	.LASF2:
 3812 0926 756E7369 		.ascii	"unsigned char\000"
 3812      676E6564 
 3812      20636861 
 3812      7200
 3813              	.LASF8:
 3814 0934 5F5F7569 		.ascii	"__uint32_t\000"
 3814      6E743332 
 3814      5F7400
 3815              	.LASF55:
 3816 093f 74726961 		.ascii	"triangle_uni_off\000"
 3816      6E676C65 
 3816      5F756E69 
 3816      5F6F6666 
 3816      00
 3817              	.LASF107:
 3818 0950 6E657874 		.ascii	"nextpow2_u32\000"
 3818      706F7732 
 3818      5F753332 
 3818      00
 3819              	.LASF24:
 3820 095d 6B5F7573 		.ascii	"k_user_module_global\000"
 3820      65725F6D 
 3820      6F64756C 
 3820      655F676C 
 3820      6F62616C 
 3821              	.LASF139:
 3822 0972 735F6465 		.ascii	"s_delay\000"
 3822      6C617900 
 3823              	.LASF151:
 3824 097a 6465636C 		.ascii	"decltype(nullptr)\000"
 3824      74797065 
 3824      286E756C 
 3824      6C707472 
 3824      2900
 3825              	.LASF66:
 3826 098c 73717561 		.ascii	"square_uni\000"
 3826      72655F75 
 3826      6E6900
 3827              	.LASF103:
 3828 0997 5F5A4E33 		.ascii	"_ZN3dsp9SimpleLFO14square_uni_offEf\000"
 3828      64737039 
 3828      53696D70 
 3828      6C654C46 
ARM GAS  C:\msys64\tmp\ccSyJrMh.s 			page 75


 3828      4F313473 
 3829              	.LASF22:
 3830 09bb 66333270 		.ascii	"f32pair_t\000"
 3830      6169725F 
 3830      7400
 3831              	.LASF61:
 3832 09c5 7361775F 		.ascii	"saw_bi_off\000"
 3832      62695F6F 
 3832      666600
 3833              	.LASF1:
 3834 09d0 7369676E 		.ascii	"signed char\000"
 3834      65642063 
 3834      68617200 
 3835              	.LASF95:
 3836 09dc 5F5A4E33 		.ascii	"_ZN3dsp13DualDelayLine5read1Em\000"
 3836      64737031 
 3836      33447561 
 3836      6C44656C 
 3836      61794C69 
 3837              	.LASF79:
 3838 09fb 5F5A4E33 		.ascii	"_ZN3dsp13DualDelayLineC4EP9f32pair_tj\000"
 3838      64737031 
 3838      33447561 
 3838      6C44656C 
 3838      61794C69 
 3839              	.LASF4:
 3840 0a21 73686F72 		.ascii	"short unsigned int\000"
 3840      7420756E 
 3840      7369676E 
 3840      65642069 
 3840      6E7400
 3841              	.LASF67:
 3842 0a34 5F5A4E33 		.ascii	"_ZN3dsp9SimpleLFO9square_biEv\000"
 3842      64737039 
 3842      53696D70 
 3842      6C654C46 
 3842      4F397371 
 3843              	.LASF73:
 3844 0a52 6D467261 		.ascii	"mFracZ\000"
 3844      635A00
 3845              	.LASF20:
 3846 0a59 646F7562 		.ascii	"double\000"
 3846      6C6500
 3847              	.LASF62:
 3848 0a60 5F5A4E33 		.ascii	"_ZN3dsp9SimpleLFO10saw_bi_offEf\000"
 3848      64737039 
 3848      53696D70 
 3848      6C654C46 
 3848      4F313073 
 3849              	.LASF150:
 3850 0a80 433A5C75 		.ascii	"C:\\users\\bradl\\desktop\\Code Projects\\korgfx\\K"
 3850      73657273 
 3850      5C627261 
 3850      646C5C64 
 3850      65736B74 
 3851 0aad 6F726744 		.ascii	"orgDelayFXSet\\Delays\\platform\\minilogue-xd\\chor"
 3851      656C6179 
ARM GAS  C:\msys64\tmp\ccSyJrMh.s 			page 76


 3851      46585365 
 3851      745C4465 
 3851      6C617973 
 3852 0adc 757300   		.ascii	"us\000"
 3853              	.LASF149:
 3854 0adf 2E2F7372 		.ascii	"./src/chorus.cpp\000"
 3854      632F6368 
 3854      6F727573 
 3854      2E637070 
 3854      00
 3855              	.LASF51:
 3856 0af0 74726961 		.ascii	"triangle_uni\000"
 3856      6E676C65 
 3856      5F756E69 
 3856      00
 3857              	.LASF122:
 3858 0afd 76616C75 		.ascii	"value\000"
 3858      6500
 3859              	.LASF60:
 3860 0b03 5F5A4E33 		.ascii	"_ZN3dsp9SimpleLFO7saw_uniEv\000"
 3860      64737039 
 3860      53696D70 
 3860      6C654C46 
 3860      4F377361 
 3861              	.LASF39:
 3862 0b1f 53696D70 		.ascii	"SimpleLFO\000"
 3862      6C654C46 
 3862      4F00
 3863              	.LASF133:
 3864 0b29 6B5F6F73 		.ascii	"k_osc_api_platform\000"
 3864      635F6170 
 3864      695F706C 
 3864      6174666F 
 3864      726D00
 3865              		.ident	"GCC: (GNU Tools for ARM Embedded Processors) 5.4.1 20160919 (release) [ARM/embedded-5-bran
ARM GAS  C:\msys64\tmp\ccSyJrMh.s 			page 77


DEFINED SYMBOLS
                            *ABS*:00000000 chorus.cpp
C:\msys64\tmp\ccSyJrMh.s:21     .text:00000000 $t
C:\msys64\tmp\ccSyJrMh.s:26     .text:00000000 _hook_init
C:\msys64\tmp\ccSyJrMh.s:133    .text:00000070 $d
C:\msys64\tmp\ccSyJrMh.s:143    .text:00000084 $t
C:\msys64\tmp\ccSyJrMh.s:148    .text:00000084 _hook_process
C:\msys64\tmp\ccSyJrMh.s:376    .text:0000016c $d
C:\msys64\tmp\ccSyJrMh.s:382    .text:00000174 $t
C:\msys64\tmp\ccSyJrMh.s:387    .text:00000174 _hook_param
C:\msys64\tmp\ccSyJrMh.s:486    .text:00000200 $d
C:\msys64\tmp\ccSyJrMh.s:493    .text.startup:00000000 $t
C:\msys64\tmp\ccSyJrMh.s:497    .text.startup:00000000 _GLOBAL__sub_I_lfo_speed
C:\msys64\tmp\ccSyJrMh.s:539    .text.startup:00000018 $d
C:\msys64\tmp\ccSyJrMh.s:547    .init_array:00000000 $d
C:\msys64\tmp\ccSyJrMh.s:574    .bss:00000020 bpm
C:\msys64\tmp\ccSyJrMh.s:594    .bss:00000034 wetXNR
C:\msys64\tmp\ccSyJrMh.s:590    .bss:00000030 wetXNL
C:\msys64\tmp\ccSyJrMh.s:578    .bss:00000024 s_len
C:\msys64\tmp\ccSyJrMh.s:559    .data:00000000 lfo_speed
C:\msys64\tmp\ccSyJrMh.s:555    .data:00000000 $d
C:\msys64\tmp\ccSyJrMh.s:562    .bss:00000000 $d
C:\msys64\tmp\ccSyJrMh.s:566    .bss:00000000 _ZL7s_delay
C:\msys64\tmp\ccSyJrMh.s:570    .bss:00000018 _ZL5s_lfo
C:\msys64\tmp\ccSyJrMh.s:582    .bss:00000028 _ZL5s_mix
C:\msys64\tmp\ccSyJrMh.s:586    .bss:0000002c _ZL4gain
C:\msys64\tmp\ccSyJrMh.s:597    .sdram:00000000 $d
C:\msys64\tmp\ccSyJrMh.s:601    .sdram:00000000 _ZL11s_delay_ram
                     .debug_frame:00000010 $d

UNDEFINED SYMBOLS
_fx_get_bpm
