ARM GAS  C:\msys64\tmp\ccLgZ92a.s 			page 1


   1              		.syntax unified
   2              		.cpu cortex-m4
   3              		.eabi_attribute 27, 1
   4              		.eabi_attribute 28, 1
   5              		.fpu fpv4-sp-d16
   6              		.eabi_attribute 20, 1
   7              		.eabi_attribute 21, 1
   8              		.eabi_attribute 23, 3
   9              		.eabi_attribute 24, 1
  10              		.eabi_attribute 25, 1
  11              		.eabi_attribute 26, 1
  12              		.eabi_attribute 30, 4
  13              		.eabi_attribute 34, 1
  14              		.eabi_attribute 18, 4
  15              		.thumb
  16              		.syntax unified
  17              		.file	"chorus.cpp"
  18              		.text
  19              	.Ltext0:
  20              		.cfi_sections	.debug_frame
  21              		.align	1
  22              		.global	_hook_init
  23              		.thumb
  24              		.thumb_func
  25              		.type	_hook_init, %function
  26              	_hook_init:
  27              	.LFB316:
  28              		.file 1 "./src/chorus.cpp"
  29              		.loc 1 33 0
  30              		.cfi_startproc
  31              		@ args = 0, pretend = 0, frame = 0
  32              		@ frame_needed = 0, uses_anonymous_args = 0
  33              		@ link register save eliminated.
  34              	.LVL0:
  35              	.LBB78:
  36              	.LBB79:
  37              		.file 2 "../inc/dsp/delayline.hpp"
  38              		.loc 2 243 0
  39 0000 154A     		ldr	r2, .L5
  40 0002 164B     		ldr	r3, .L5+4
  41 0004 1360     		str	r3, [r2]
  42              		.loc 2 244 0
  43 0006 4FF48021 		mov	r1, #262144
  44              	.LVL1:
  45 000a D160     		str	r1, [r2, #12]
  46              		.loc 2 245 0
  47 000c 0139     		subs	r1, r1, #1
  48 000e 1161     		str	r1, [r2, #16]
  49 0010 1033     		adds	r3, r3, #16
  50              		.loc 2 246 0
  51 0012 0021     		movs	r1, #0
  52 0014 5161     		str	r1, [r2, #20]
  53              	.LVL2:
  54 0016 03F50010 		add	r0, r3, #2097152
  55              	.LVL3:
  56              	.LBE79:
  57              	.LBE78:
ARM GAS  C:\msys64\tmp\ccLgZ92a.s 			page 2


  58              	.LBB80:
  59              	.LBB81:
  60              	.LBB82:
  61              		.file 3 "../inc/utils/buffer_ops.h"
  62              		.loc 3 109 0
  63 001a 0021     		movs	r1, #0
  64              	.LVL4:
  65              	.L2:
  66 001c 43F8101C 		str	r1, [r3, #-16]	@ float
  67              	.LVL5:
  68 0020 43F80C1C 		str	r1, [r3, #-12]	@ float
  69              	.LVL6:
  70 0024 43F8081C 		str	r1, [r3, #-8]	@ float
  71              	.LVL7:
  72 0028 43F8041C 		str	r1, [r3, #-4]	@ float
  73 002c 1033     		adds	r3, r3, #16
  74              	.LVL8:
  75              		.loc 3 108 0
  76 002e 9842     		cmp	r0, r3
  77 0030 F4D1     		bne	.L2
  78              	.LVL9:
  79              	.LBE82:
  80              	.LBE81:
  81              	.LBE80:
  82              	.LBB83:
  83              	.LBB84:
  84              		.file 4 "../inc/dsp/simplelfo.hpp"
  85              		.loc 4 91 0
  86 0032 4FF00043 		mov	r3, #-2147483648
  87 0036 9361     		str	r3, [r2, #24]
  88              	.LVL10:
  89              	.LBE84:
  90              	.LBE83:
  91              		.loc 1 37 0
  92 0038 4FF07C53 		mov	r3, #1056964608
  93 003c 1362     		str	r3, [r2, #32]	@ float
  94              	.LVL11:
  95              		.loc 1 38 0
  96 003e 084B     		ldr	r3, .L5+8
  97              	.LBB85:
  98              	.LBB86:
  99              		.loc 4 103 0
 100 0040 9FED087A 		vldr.32	s14, .L5+12
 101 0044 D3ED007A 		vldr.32	s15, [r3]
 102 0048 67EE877A 		vmul.f32	s15, s15, s14
 103 004c FEEEC07A 		vcvt.s32.f32	s15, s15, #32
 104 0050 C2ED077A 		vstr.32	s15, [r2, #28]	@ int
 105              	.LVL12:
 106 0054 7047     		bx	lr
 107              	.L6:
 108 0056 00BF     		.align	2
 109              	.L5:
 110 0058 00000000 		.word	.LANCHOR0
 111 005c 00000000 		.word	.LANCHOR1
 112 0060 00000000 		.word	.LANCHOR2
 113 0064 3EC3AE37 		.word	934200126
 114              	.LBE86:
ARM GAS  C:\msys64\tmp\ccLgZ92a.s 			page 3


 115              	.LBE85:
 116              		.cfi_endproc
 117              	.LFE316:
 118              		.size	_hook_init, .-_hook_init
 119              		.align	1
 120              		.global	_hook_process
 121              		.thumb
 122              		.thumb_func
 123              		.type	_hook_process, %function
 124              	_hook_process:
 125              	.LFB317:
 126              		.loc 1 42 0
 127              		.cfi_startproc
 128              		@ args = 0, pretend = 0, frame = 0
 129              		@ frame_needed = 0, uses_anonymous_args = 0
 130              	.LVL13:
 131 0068 2DE9F04F 		push	{r4, r5, r6, r7, r8, r9, r10, fp, lr}
 132              		.cfi_def_cfa_offset 36
 133              		.cfi_offset 4, -36
 134              		.cfi_offset 5, -32
 135              		.cfi_offset 6, -28
 136              		.cfi_offset 7, -24
 137              		.cfi_offset 8, -20
 138              		.cfi_offset 9, -16
 139              		.cfi_offset 10, -12
 140              		.cfi_offset 11, -8
 141              		.cfi_offset 14, -4
 142              		.loc 1 46 0
 143 006c 804B     		ldr	r3, .L11
 144              	.LBB87:
 145              	.LBB88:
 146              	.LBB89:
 147              	.LBB90:
 148              		.loc 4 125 0
 149 006e 9FED812A 		vldr.32	s4, .L11+4
 150 0072 D3F81890 		ldr	r9, [r3, #24]
 151 0076 D3F814E0 		ldr	lr, [r3, #20]
 152              	.LBE90:
 153              	.LBE89:
 154              	.LBE88:
 155              	.LBE87:
 156              		.loc 1 46 0
 157 007a 93ED084A 		vldr.32	s8, [r3, #32]
 158              	.LBB167:
 159              	.LBB163:
 160              	.LBB96:
 161              	.LBB97:
 162              	.LBB98:
 163              	.LBB99:
 164              		.loc 2 309 0
 165 007e 1E68     		ldr	r6, [r3]
 166 0080 1F69     		ldr	r7, [r3, #16]
 167              	.LBE99:
 168              	.LBE98:
 169              	.LBE97:
 170              	.LBE96:
 171              	.LBB110:
ARM GAS  C:\msys64\tmp\ccLgZ92a.s 			page 4


 172              	.LBB111:
 173              		.loc 4 82 0
 174 0082 D3F81CC0 		ldr	ip, [r3, #28]
 175              	.LBE111:
 176              	.LBE110:
 177              		.loc 1 53 0
 178 0086 DFED7C3A 		vldr.32	s7, .L11+8
 179 008a DFED7C2A 		vldr.32	s5, .L11+12
 180              		.loc 1 54 0
 181 008e 9FED7C3A 		vldr.32	s6, .L11+16
 182              		.loc 1 65 0
 183 0092 DFED7C4A 		vldr.32	s9, .L11+20
 184 0096 9FED7C5A 		vldr.32	s10, .L11+24
 185 009a DFED7C5A 		vldr.32	s11, .L11+28
 186 009e 9FED7C6A 		vldr.32	s12, .L11+32
 187              	.LBE163:
 188              	.LBE167:
 189              		.loc 1 42 0
 190 00a2 2DED048B 		vpush.64	{d8, d9}
 191              		.cfi_def_cfa_offset 52
 192              		.cfi_offset 80, -52
 193              		.cfi_offset 81, -48
 194              		.cfi_offset 82, -44
 195              		.cfi_offset 83, -40
 196              		.loc 1 44 0
 197 00a6 C900     		lsls	r1, r1, #3
 198              	.LVL14:
 199 00a8 00EB010A 		add	r10, r0, r1
 200              	.LVL15:
 201 00ac C846     		mov	r8, r9
 202              	.LBB168:
 203              	.LBB164:
 204              	.LBB113:
 205              	.LBB112:
 206              		.loc 4 82 0
 207 00ae 7446     		mov	r4, lr
 208              	.LVL16:
 209              	.L9:
 210              	.LBE112:
 211              	.LBE113:
 212              	.LBE164:
 213              		.loc 1 49 0 discriminator 2
 214 00b0 8245     		cmp	r10, r0
 215 00b2 07EE908A 		vmov	s15, r8	@ int
 216 00b6 00F10805 		add	r5, r0, #8
 217 00ba E044     		add	r8, r8, ip
 218 00bc 00F0CB80 		beq	.L8
 219              	.LVL17:
 220              	.LBB165:
 221              	.LBB114:
 222              	.LBB93:
 223              		.loc 4 125 0
 224 00c0 F8EEE77A 		vcvt.f32.s32	s15, s15
 225              		.loc 4 126 0
 226 00c4 B7EE001A 		vmov.f32	s2, #1.0e+0
 227              		.loc 4 125 0
 228 00c8 27EE827A 		vmul.f32	s14, s15, s4
ARM GAS  C:\msys64\tmp\ccLgZ92a.s 			page 5


 229              	.LVL18:
 230              	.LBE93:
 231              	.LBE114:
 232              		.loc 1 53 0
 233 00cc F0EE626A 		vmov.f32	s13, s5
 234              	.LBB115:
 235              	.LBB94:
 236              	.LBB91:
 237              	.LBB92:
 238              		.file 5 "../inc/utils/float_math.h"
 239              		.loc 5 287 0
 240 00d0 17EE102A 		vmov	r2, s14	@ int
 241 00d4 22F00042 		bic	r2, r2, #-2147483648
 242 00d8 07EE902A 		vmov	s15, r2	@ int
 243              	.LBE92:
 244              	.LBE91:
 245              		.loc 4 126 0
 246 00dc 77EEC17A 		vsub.f32	s15, s15, s2
 247              	.LBE94:
 248              	.LBE115:
 249              		.loc 1 54 0
 250 00e0 F0EE431A 		vmov.f32	s3, s6
 251              	.LBB116:
 252              	.LBB95:
 253              		.loc 4 126 0
 254 00e4 67EE877A 		vmul.f32	s15, s15, s14
 255 00e8 B1EE007A 		vmov.f32	s14, #4.0e+0
 256              	.LVL19:
 257 00ec 67EE877A 		vmul.f32	s15, s15, s14
 258              	.LVL20:
 259              	.LBE95:
 260              	.LBE116:
 261              		.loc 1 53 0
 262 00f0 93ED090A 		vldr.32	s0, [r3, #36]
 263 00f4 E7EEA36A 		vfma.f32	s13, s15, s7
 264              	.LVL21:
 265              		.loc 1 54 0
 266 00f8 E7EEA31A 		vfma.f32	s3, s15, s7
 267              	.LBB117:
 268              	.LBB106:
 269              		.loc 2 331 0
 270 00fc BCEEE67A 		vcvt.u32.f32	s14, s13
 271              	.LBE106:
 272              	.LBE117:
 273              	.LBB118:
 274              	.LBB119:
 275              		.loc 2 361 0
 276 0100 FCEEE17A 		vcvt.u32.f32	s15, s3
 277              	.LBE119:
 278              	.LBE118:
 279              	.LBB133:
 280              	.LBB107:
 281              		.loc 2 331 0
 282 0104 17EE102A 		vmov	r2, s14	@ int
 283              	.LVL22:
 284              	.LBB101:
 285              	.LBB100:
ARM GAS  C:\msys64\tmp\ccLgZ92a.s 			page 6


 286              		.loc 2 309 0
 287 0108 1019     		adds	r0, r2, r4
 288              	.LVL23:
 289 010a 3840     		ands	r0, r0, r7
 290 010c 06EBC000 		add	r0, r6, r0, lsl #3
 291 0110 90ED007A 		vldr.32	s14, [r0]
 292              	.LVL24:
 293              	.LBE100:
 294              	.LBE101:
 295              	.LBE107:
 296              	.LBE133:
 297              	.LBB134:
 298              	.LBB130:
 299              		.loc 2 361 0
 300 0114 17EE900A 		vmov	r0, s15	@ int
 301              	.LVL25:
 302              	.LBB120:
 303              	.LBB121:
 304              		.loc 2 320 0
 305 0118 00EB040B 		add	fp, r0, r4
 306              	.LBE121:
 307              	.LBE120:
 308              	.LBE130:
 309              	.LBE134:
 310              		.loc 1 54 0
 311 011c 00EE900A 		vmov	s1, r0	@ int
 312              	.LBB135:
 313              	.LBB131:
 314              	.LBB124:
 315              	.LBB125:
 316              		.loc 2 320 0
 317 0120 0130     		adds	r0, r0, #1
 318              	.LVL26:
 319 0122 2044     		add	r0, r0, r4
 320              	.LBE125:
 321              	.LBE124:
 322              	.LBE131:
 323              	.LBE135:
 324              		.loc 1 54 0
 325 0124 F8EEE00A 		vcvt.f32.s32	s1, s1
 326              	.LVL27:
 327              	.LBB136:
 328              	.LBB132:
 329              	.LBB127:
 330              	.LBB122:
 331              		.loc 2 320 0
 332 0128 0BEA070B 		and	fp, fp, r7
 333              	.LBE122:
 334              	.LBE127:
 335              	.LBB128:
 336              	.LBB126:
 337 012c 3840     		ands	r0, r0, r7
 338 012e 06EBC000 		add	r0, r6, r0, lsl #3
 339              	.LBE126:
 340              	.LBE128:
 341              	.LBB129:
 342              	.LBB123:
ARM GAS  C:\msys64\tmp\ccLgZ92a.s 			page 7


 343 0132 06EBCB0B 		add	fp, r6, fp, lsl #3
 344 0136 DBED017A 		vldr.32	s15, [fp, #4]
 345              	.LVL28:
 346              	.LBE123:
 347              	.LBE129:
 348              	.LBE132:
 349              	.LBE136:
 350              		.loc 1 54 0
 351 013a 71EEE01A 		vsub.f32	s3, s3, s1
 352 013e D0ED010A 		vldr.32	s1, [r0, #4]
 353 0142 70EEE70A 		vsub.f32	s1, s1, s15
 354              	.LBB137:
 355              	.LBB138:
 356              		.loc 1 26 0
 357 0146 B7EE088A 		vmov.f32	s16, #1.5e+0
 358              	.LBE138:
 359              	.LBE137:
 360              		.loc 1 54 0
 361 014a E1EEA07A 		vfma.f32	s15, s3, s1
 362              	.LBE165:
 363              		.loc 1 49 0
 364 014e 2846     		mov	r0, r5
 365              	.LBB166:
 366              		.loc 1 58 0
 367 0150 01EE902A 		vmov	s3, r2	@ int
 368              	.LBB144:
 369              	.LBB108:
 370              	.LBB102:
 371              	.LBB103:
 372              		.loc 2 309 0
 373 0154 0132     		adds	r2, r2, #1
 374              	.LVL29:
 375 0156 2244     		add	r2, r2, r4
 376              	.LBE103:
 377              	.LBE102:
 378              	.LBE108:
 379              	.LBE144:
 380              		.loc 1 58 0
 381 0158 F8EEE11A 		vcvt.f32.s32	s3, s3
 382              	.LVL30:
 383              	.LBB145:
 384              	.LBB109:
 385              	.LBB105:
 386              	.LBB104:
 387              		.loc 2 309 0
 388 015c 3A40     		ands	r2, r2, r7
 389 015e 06EBC202 		add	r2, r6, r2, lsl #3
 390              	.LBE104:
 391              	.LBE105:
 392              	.LBE109:
 393              	.LBE145:
 394              		.loc 1 58 0
 395 0162 76EEE16A 		vsub.f32	s13, s13, s3
 396              	.LVL31:
 397 0166 D2ED001A 		vldr.32	s3, [r2]
 398 016a 71EEC71A 		vsub.f32	s3, s3, s14
 399              		.loc 1 54 0
ARM GAS  C:\msys64\tmp\ccLgZ92a.s 			page 8


 400 016e 67EE807A 		vmul.f32	s15, s15, s0
 401              	.LVL32:
 402              		.loc 1 58 0
 403 0172 A6EEA17A 		vfma.f32	s14, s13, s3
 404              	.LBB146:
 405              	.LBB147:
 406              		.loc 2 256 0
 407 0176 07EA0402 		and	r2, r7, r4
 408 017a 06EBC202 		add	r2, r6, r2, lsl #3
 409              	.LBE147:
 410              	.LBE146:
 411              		.loc 1 59 0
 412 017e 64EE277A 		vmul.f32	s15, s8, s15
 413              	.LVL33:
 414              		.loc 1 58 0
 415 0182 27EE007A 		vmul.f32	s14, s14, s0
 416              		.loc 1 59 0
 417 0186 C3ED0B7A 		vstr.32	s15, [r3, #44]
 418              		.loc 1 58 0
 419 018a 27EE047A 		vmul.f32	s14, s14, s8
 420              	.LBB151:
 421              	.LBB139:
 422              		.loc 1 26 0
 423 018e F6EE006A 		vmov.f32	s13, #5.0e-1
 424              	.LBE139:
 425              	.LBE151:
 426              		.loc 1 58 0
 427 0192 83ED0A7A 		vstr.32	s14, [r3, #40]
 428              		.loc 1 61 0
 429 0196 55ED027A 		vldr.32	s15, [r5, #-8]
 430              	.LVL34:
 431              		.loc 1 65 0
 432 019a 9FED3E0A 		vldr.32	s0, .L11+36
 433              	.LBB152:
 434              	.LBB148:
 435              		.loc 2 256 0
 436 019e C2ED007A 		vstr.32	s15, [r2]
 437 01a2 77EE817A 		vadd.f32	s15, s15, s2
 438              	.LVL35:
 439              	.LBE148:
 440              	.LBE152:
 441              		.loc 1 65 0
 442 01a6 F0EE651A 		vmov.f32	s3, s11
 443              	.LBB153:
 444              	.LBB149:
 445              		.loc 2 256 0
 446 01aa C2ED017A 		vstr.32	s15, [r2, #4]
 447              	.LVL36:
 448              	.LBE149:
 449              	.LBE153:
 450              	.LBB154:
 451              	.LBB140:
 452              		.loc 1 26 0
 453 01ae 67EE077A 		vmul.f32	s15, s14, s14
 454              	.LVL37:
 455              	.LBE140:
 456              	.LBE154:
ARM GAS  C:\msys64\tmp\ccLgZ92a.s 			page 9


 457              		.loc 1 65 0
 458 01b2 9FED391A 		vldr.32	s2, .L11+40
 459              	.LBB155:
 460              	.LBB141:
 461              		.loc 1 26 0
 462 01b6 67EE877A 		vmul.f32	s15, s15, s14
 463              	.LBE141:
 464              	.LBE155:
 465              		.loc 1 65 0
 466 01ba F0EE468A 		vmov.f32	s17, s12
 467              	.LBB156:
 468              	.LBB142:
 469              		.loc 1 26 0
 470 01be 66EEE77A 		vnmul.f32	s15, s13, s15
 471              	.LBE142:
 472              	.LBE156:
 473              	.LBB157:
 474              	.LBB150:
 475              		.loc 2 256 0
 476 01c2 013C     		subs	r4, r4, #1
 477              	.LBE150:
 478              	.LBE157:
 479              	.LBB158:
 480              	.LBB143:
 481              		.loc 1 26 0
 482 01c4 E7EE087A 		vfma.f32	s15, s14, s16
 483              	.LVL38:
 484              	.LBE143:
 485              	.LBE158:
 486              		.loc 1 65 0
 487 01c8 B0EE457A 		vmov.f32	s14, s10
 488 01cc A7EEA47A 		vfma.f32	s14, s15, s9
 489 01d0 E7EE271A 		vfma.f32	s3, s14, s15
 490 01d4 B0EE417A 		vmov.f32	s14, s2
 491 01d8 A7EE807A 		vfma.f32	s14, s15, s0
 492 01dc E1EEA78A 		vfma.f32	s17, s3, s15
 493 01e0 DFED2E1A 		vldr.32	s3, .L11+44
 494 01e4 F0EE610A 		vmov.f32	s1, s3
 495 01e8 E7EE270A 		vfma.f32	s1, s14, s15
 496 01ec 9FED2C7A 		vldr.32	s14, .L11+48
 497 01f0 B0EE479A 		vmov.f32	s18, s14
 498 01f4 A0EEA79A 		vfma.f32	s18, s1, s15
 499 01f8 55ED027A 		vldr.32	s15, [r5, #-8]
 500 01fc C8EE890A 		vdiv.f32	s1, s17, s18
 501 0200 77EEA07A 		vadd.f32	s15, s15, s1
 502 0204 45ED027A 		vstr.32	s15, [r5, #-8]
 503              	.LVL39:
 504              		.loc 1 66 0
 505 0208 D3ED0B0A 		vldr.32	s1, [r3, #44]
 506              	.LVL40:
 507              	.LBB159:
 508              	.LBB160:
 509              		.loc 1 26 0
 510 020c 60EEA07A 		vmul.f32	s15, s1, s1
 511 0210 67EEA07A 		vmul.f32	s15, s15, s1
 512 0214 66EEE77A 		vnmul.f32	s15, s13, s15
 513              	.LBE160:
ARM GAS  C:\msys64\tmp\ccLgZ92a.s 			page 10


 514              	.LBE159:
 515              		.loc 1 66 0
 516 0218 F0EE456A 		vmov.f32	s13, s10
 517              	.LBB162:
 518              	.LBB161:
 519              		.loc 1 26 0
 520 021c E0EE887A 		vfma.f32	s15, s1, s16
 521              	.LVL41:
 522              	.LBE161:
 523              	.LBE162:
 524              		.loc 1 66 0
 525 0220 F0EE650A 		vmov.f32	s1, s11
 526 0224 E7EEA46A 		vfma.f32	s13, s15, s9
 527 0228 A7EE801A 		vfma.f32	s2, s15, s0
 528 022c E6EEA70A 		vfma.f32	s1, s13, s15
 529 0230 E1EE271A 		vfma.f32	s3, s2, s15
 530 0234 F0EE606A 		vmov.f32	s13, s1
 531 0238 F0EE460A 		vmov.f32	s1, s12
 532 023c E6EEA70A 		vfma.f32	s1, s13, s15
 533 0240 A1EEA77A 		vfma.f32	s14, s3, s15
 534 0244 55ED017A 		vldr.32	s15, [r5, #-4]
 535 0248 C0EE876A 		vdiv.f32	s13, s1, s14
 536 024c 77EEA67A 		vadd.f32	s15, s15, s13
 537 0250 45ED017A 		vstr.32	s15, [r5, #-4]
 538              	.LVL42:
 539              	.LBE166:
 540              		.loc 1 49 0
 541 0254 2CE7     		b	.L9
 542              	.LVL43:
 543              	.L8:
 544              	.LBE168:
 545              		.loc 1 68 0
 546 0256 BDEC048B 		vldm	sp!, {d8-d9}
 547              		.cfi_restore 82
 548              		.cfi_restore 83
 549              		.cfi_restore 80
 550              		.cfi_restore 81
 551              		.cfi_def_cfa_offset 36
 552 025a C908     		lsrs	r1, r1, #3
 553 025c 044A     		ldr	r2, .L11
 554 025e 0CFB0193 		mla	r3, ip, r1, r9
 555 0262 C1EB0E01 		rsb	r1, r1, lr
 556 0266 9361     		str	r3, [r2, #24]
 557 0268 5161     		str	r1, [r2, #20]
 558 026a BDE8F08F 		pop	{r4, r5, r6, r7, r8, r9, r10, fp, pc}
 559              	.LVL44:
 560              	.L12:
 561 026e 00BF     		.align	2
 562              	.L11:
 563 0270 00000000 		.word	.LANCHOR0
 564 0274 00000030 		.word	805306368
 565 0278 00007043 		.word	1131413504
 566 027c 0000F043 		.word	1139802112
 567 0280 00006444 		.word	1147404288
 568 0284 3684093D 		.word	1024033846
 569 0288 72146F3D 		.word	1030689906
 570 028c 0CBD7C3E 		.word	1048362252
ARM GAS  C:\msys64\tmp\ccLgZ92a.s 			page 11


 571 0290 C847E2B6 		.word	-1226684472
 572 0294 FF7EEB3C 		.word	1022066431
 573 0298 4D74DE3D 		.word	1037988941
 574 029c AF96793D 		.word	1031378607
 575 02a0 75667C3E 		.word	1048340085
 576              		.cfi_endproc
 577              	.LFE317:
 578              		.size	_hook_process, .-_hook_process
 579              		.align	1
 580              		.global	_hook_param
 581              		.thumb
 582              		.thumb_func
 583              		.type	_hook_param, %function
 584              	_hook_param:
 585              	.LFB318:
 586              		.loc 1 71 0
 587              		.cfi_startproc
 588              		@ args = 0, pretend = 0, frame = 0
 589              		@ frame_needed = 0, uses_anonymous_args = 0
 590              		@ link register save eliminated.
 591              	.LVL45:
 592              		.loc 1 72 0
 593 02a4 07EE901A 		vmov	s15, r1	@ int
 594              		.loc 1 73 0
 595 02a8 0128     		cmp	r0, #1
 596              		.loc 1 72 0
 597 02aa FAEEE07A 		vcvt.f32.s32	s15, s15, #31
 598              	.LVL46:
 599              		.loc 1 73 0
 600 02ae 07D0     		beq	.L15
 601 02b0 02D3     		bcc	.L16
 602 02b2 0328     		cmp	r0, #3
 603 02b4 13D0     		beq	.L17
 604 02b6 7047     		bx	lr
 605              	.L16:
 606              		.loc 1 76 0
 607 02b8 0B4B     		ldr	r3, .L18
 608 02ba C3ED097A 		vstr.32	s15, [r3, #36]
 609              		.loc 1 77 0
 610 02be 7047     		bx	lr
 611              	.L15:
 612              		.loc 1 79 0
 613 02c0 77EEA77A 		vadd.f32	s15, s15, s15
 614              	.LVL47:
 615 02c4 094B     		ldr	r3, .L18+4
 616              	.LBB169:
 617              	.LBB170:
 618              		.loc 4 103 0
 619 02c6 9FED0A7A 		vldr.32	s14, .L18+8
 620              	.LBE170:
 621              	.LBE169:
 622              		.loc 1 79 0
 623 02ca C3ED007A 		vstr.32	s15, [r3]
 624              	.LVL48:
 625              	.LBB172:
 626              	.LBB171:
 627              		.loc 4 103 0
ARM GAS  C:\msys64\tmp\ccLgZ92a.s 			page 12


 628 02ce 67EE877A 		vmul.f32	s15, s15, s14
 629              	.LVL49:
 630 02d2 054B     		ldr	r3, .L18
 631 02d4 FEEEC07A 		vcvt.s32.f32	s15, s15, #32
 632 02d8 C3ED077A 		vstr.32	s15, [r3, #28]	@ int
 633 02dc 7047     		bx	lr
 634              	.LVL50:
 635              	.L17:
 636              	.LBE171:
 637              	.LBE172:
 638              		.loc 1 83 0
 639 02de 024B     		ldr	r3, .L18
 640 02e0 C3ED087A 		vstr.32	s15, [r3, #32]
 641 02e4 7047     		bx	lr
 642              	.L19:
 643 02e6 00BF     		.align	2
 644              	.L18:
 645 02e8 00000000 		.word	.LANCHOR0
 646 02ec 00000000 		.word	.LANCHOR2
 647 02f0 3EC3AE37 		.word	934200126
 648              		.cfi_endproc
 649              	.LFE318:
 650              		.size	_hook_param, .-_hook_param
 651              		.section	.text.startup,"ax",%progbits
 652              		.align	1
 653              		.thumb
 654              		.thumb_func
 655              		.type	_GLOBAL__sub_I_lfo_speed, %function
 656              	_GLOBAL__sub_I_lfo_speed:
 657              	.LFB320:
 658              		.loc 1 88 0
 659              		.cfi_startproc
 660              		@ args = 0, pretend = 0, frame = 0
 661              		@ frame_needed = 0, uses_anonymous_args = 0
 662              		@ link register save eliminated.
 663              	.LVL51:
 664              	.LBB179:
 665              	.LBB180:
 666              	.LBB181:
 667              		.loc 2 204 0
 668 0000 054B     		ldr	r3, .L21
 669 0002 0022     		movs	r2, #0
 670              	.LBE181:
 671              	.LBE180:
 672              	.LBB183:
 673              	.LBB184:
 674              		.loc 4 69 0
 675 0004 4FF00041 		mov	r1, #-2147483648
 676              	.LBE184:
 677              	.LBE183:
 678              	.LBB186:
 679              	.LBB182:
 680              		.loc 2 204 0
 681 0008 1A60     		str	r2, [r3]
 682 000a DA60     		str	r2, [r3, #12]
 683 000c 1A61     		str	r2, [r3, #16]
 684 000e 5A61     		str	r2, [r3, #20]
ARM GAS  C:\msys64\tmp\ccLgZ92a.s 			page 13


 685              	.LVL52:
 686              	.LBE182:
 687              	.LBE186:
 688              	.LBB187:
 689              	.LBB185:
 690              		.loc 4 69 0
 691 0010 9961     		str	r1, [r3, #24]
 692 0012 DA61     		str	r2, [r3, #28]
 693              	.LVL53:
 694 0014 7047     		bx	lr
 695              	.L22:
 696 0016 00BF     		.align	2
 697              	.L21:
 698 0018 00000000 		.word	.LANCHOR0
 699              	.LBE185:
 700              	.LBE187:
 701              	.LBE179:
 702              		.cfi_endproc
 703              	.LFE320:
 704              		.size	_GLOBAL__sub_I_lfo_speed, .-_GLOBAL__sub_I_lfo_speed
 705              		.section	.init_array,"aw",%init_array
 706              		.align	2
 707 0000 00000000 		.word	_GLOBAL__sub_I_lfo_speed(target1)
 708              		.global	bpm_valf
 709              		.global	wetXNR
 710              		.global	wetXNL
 711              		.global	gain
 712              		.global	s_mix
 713              		.global	lfo_speed
 714              		.data
 715              		.align	2
 716              		.set	.LANCHOR2,. + 0
 717              		.type	lfo_speed, %object
 718              		.size	lfo_speed, 4
 719              	lfo_speed:
 720 0000 0000A040 		.word	1084227584
 721              		.bss
 722              		.align	2
 723              		.set	.LANCHOR0,. + 0
 724              		.type	_ZL7s_delay, %object
 725              		.size	_ZL7s_delay, 24
 726              	_ZL7s_delay:
 727 0000 00000000 		.space	24
 727      00000000 
 727      00000000 
 727      00000000 
 727      00000000 
 728              		.type	_ZL5s_lfo, %object
 729              		.size	_ZL5s_lfo, 8
 730              	_ZL5s_lfo:
 731 0018 00000000 		.space	8
 731      00000000 
 732              		.type	s_mix, %object
 733              		.size	s_mix, 4
 734              	s_mix:
 735 0020 00000000 		.space	4
 736              		.type	gain, %object
ARM GAS  C:\msys64\tmp\ccLgZ92a.s 			page 14


 737              		.size	gain, 4
 738              	gain:
 739 0024 00000000 		.space	4
 740              		.type	wetXNL, %object
 741              		.size	wetXNL, 4
 742              	wetXNL:
 743 0028 00000000 		.space	4
 744              		.type	wetXNR, %object
 745              		.size	wetXNR, 4
 746              	wetXNR:
 747 002c 00000000 		.space	4
 748              		.type	bpm_valf, %object
 749              		.size	bpm_valf, 4
 750              	bpm_valf:
 751 0030 00000000 		.space	4
 752              		.section	.sdram,"aw",%progbits
 753              		.align	2
 754              		.set	.LANCHOR1,. + 0
 755              		.type	_ZL11s_delay_ram, %object
 756              		.size	_ZL11s_delay_ram, 1536000
 757              	_ZL11s_delay_ram:
 758 0000 00000000 		.space	1536000
 758      00000000 
 758      00000000 
 758      00000000 
 758      00000000 
 759              		.text
 760              	.Letext0:
 761              		.file 6 "c:\\users\\bradl\\desktop\\code projects\\korgfx\\korgdelayfxset\\delays\\tools\\gcc\\gcc
 762              		.file 7 "c:\\users\\bradl\\desktop\\code projects\\korgfx\\korgdelayfxset\\delays\\tools\\gcc\\gcc
 763              		.file 8 "c:\\users\\bradl\\desktop\\code projects\\korgfx\\korgdelayfxset\\delays\\tools\\gcc\\gcc
 764              		.file 9 "../../ext/CMSIS/CMSIS/Include/arm_math.h"
 765              		.file 10 "../inc/userdelfx.h"
 766              		.file 11 "../inc/utils/int_math.h"
 767              		.file 12 "../inc/fx_api.h"
 768              		.file 13 "../inc/osc_api.h"
 769              		.file 14 "../inc/userprg.h"
 770              		.section	.debug_info,"",%progbits
 771              	.Ldebug_info0:
 772 0000 04100000 		.4byte	0x1004
 773 0004 0400     		.2byte	0x4
 774 0006 00000000 		.4byte	.Ldebug_abbrev0
 775 000a 04       		.byte	0x4
 776 000b 01       		.uleb128 0x1
 777 000c 78000000 		.4byte	.LASF161
 778 0010 04       		.byte	0x4
 779 0011 BC0B0000 		.4byte	.LASF162
 780 0015 5D0B0000 		.4byte	.LASF163
 781 0019 D8010000 		.4byte	.Ldebug_ranges0+0x1d8
 782 001d 00000000 		.4byte	0
 783 0021 00000000 		.4byte	.Ldebug_line0
 784 0025 02       		.uleb128 0x2
 785 0026 04       		.byte	0x4
 786 0027 04       		.byte	0x4
 787 0028 93020000 		.4byte	.LASF0
 788 002c 03       		.uleb128 0x3
 789 002d 04       		.byte	0x4
ARM GAS  C:\msys64\tmp\ccLgZ92a.s 			page 15


 790 002e 05       		.byte	0x5
 791 002f 696E7400 		.ascii	"int\000"
 792 0033 02       		.uleb128 0x2
 793 0034 01       		.byte	0x1
 794 0035 06       		.byte	0x6
 795 0036 AD0A0000 		.4byte	.LASF1
 796 003a 04       		.uleb128 0x4
 797 003b EF080000 		.4byte	.LASF5
 798 003f 06       		.byte	0x6
 799 0040 1D       		.byte	0x1d
 800 0041 45000000 		.4byte	0x45
 801 0045 02       		.uleb128 0x2
 802 0046 01       		.byte	0x1
 803 0047 08       		.byte	0x8
 804 0048 DB090000 		.4byte	.LASF2
 805 004c 02       		.uleb128 0x2
 806 004d 02       		.byte	0x2
 807 004e 05       		.byte	0x5
 808 004f EF070000 		.4byte	.LASF3
 809 0053 02       		.uleb128 0x2
 810 0054 02       		.byte	0x2
 811 0055 07       		.byte	0x7
 812 0056 FE0A0000 		.4byte	.LASF4
 813 005a 04       		.uleb128 0x4
 814 005b C4010000 		.4byte	.LASF6
 815 005f 06       		.byte	0x6
 816 0060 3F       		.byte	0x3f
 817 0061 65000000 		.4byte	0x65
 818 0065 02       		.uleb128 0x2
 819 0066 04       		.byte	0x4
 820 0067 05       		.byte	0x5
 821 0068 25080000 		.4byte	.LASF7
 822 006c 04       		.uleb128 0x4
 823 006d E9090000 		.4byte	.LASF8
 824 0071 06       		.byte	0x6
 825 0072 41       		.byte	0x41
 826 0073 77000000 		.4byte	0x77
 827 0077 02       		.uleb128 0x2
 828 0078 04       		.byte	0x4
 829 0079 07       		.byte	0x7
 830 007a 4D090000 		.4byte	.LASF9
 831 007e 02       		.uleb128 0x2
 832 007f 08       		.byte	0x8
 833 0080 05       		.byte	0x5
 834 0081 CA050000 		.4byte	.LASF10
 835 0085 02       		.uleb128 0x2
 836 0086 08       		.byte	0x8
 837 0087 07       		.byte	0x7
 838 0088 D2020000 		.4byte	.LASF11
 839 008c 02       		.uleb128 0x2
 840 008d 04       		.byte	0x4
 841 008e 07       		.byte	0x7
 842 008f 90010000 		.4byte	.LASF12
 843 0093 04       		.uleb128 0x4
 844 0094 44050000 		.4byte	.LASF13
 845 0098 07       		.byte	0x7
 846 0099 18       		.byte	0x18
ARM GAS  C:\msys64\tmp\ccLgZ92a.s 			page 16


 847 009a 3A000000 		.4byte	0x3a
 848 009e 04       		.uleb128 0x4
 849 009f 7E090000 		.4byte	.LASF14
 850 00a3 07       		.byte	0x7
 851 00a4 2C       		.byte	0x2c
 852 00a5 5A000000 		.4byte	0x5a
 853 00a9 04       		.uleb128 0x4
 854 00aa 1B020000 		.4byte	.LASF15
 855 00ae 07       		.byte	0x7
 856 00af 30       		.byte	0x30
 857 00b0 6C000000 		.4byte	0x6c
 858 00b4 04       		.uleb128 0x4
 859 00b5 5C030000 		.4byte	.LASF16
 860 00b9 08       		.byte	0x8
 861 00ba D8       		.byte	0xd8
 862 00bb 8C000000 		.4byte	0x8c
 863 00bf 02       		.uleb128 0x2
 864 00c0 08       		.byte	0x8
 865 00c1 04       		.byte	0x4
 866 00c2 46070000 		.4byte	.LASF17
 867 00c6 05       		.uleb128 0x5
 868 00c7 4E0A0000 		.4byte	.LASF164
 869 00cb 02       		.uleb128 0x2
 870 00cc 04       		.byte	0x4
 871 00cd 07       		.byte	0x7
 872 00ce 44090000 		.4byte	.LASF18
 873 00d2 02       		.uleb128 0x2
 874 00d3 01       		.byte	0x1
 875 00d4 08       		.byte	0x8
 876 00d5 C2040000 		.4byte	.LASF19
 877 00d9 02       		.uleb128 0x2
 878 00da 08       		.byte	0x8
 879 00db 04       		.byte	0x4
 880 00dc 360B0000 		.4byte	.LASF20
 881 00e0 06       		.uleb128 0x6
 882 00e1 04       		.byte	0x4
 883 00e2 05       		.byte	0x5
 884 00e3 A1       		.byte	0xa1
 885 00e4 0F070000 		.4byte	.LASF165
 886 00e8 FF000000 		.4byte	0xff
 887 00ec 07       		.uleb128 0x7
 888 00ed 6600     		.ascii	"f\000"
 889 00ef 05       		.byte	0x5
 890 00f0 A2       		.byte	0xa2
 891 00f1 25000000 		.4byte	0x25
 892 00f5 07       		.uleb128 0x7
 893 00f6 6900     		.ascii	"i\000"
 894 00f8 05       		.byte	0x5
 895 00f9 A3       		.byte	0xa3
 896 00fa A9000000 		.4byte	0xa9
 897 00fe 00       		.byte	0
 898 00ff 04       		.uleb128 0x4
 899 0100 00000000 		.4byte	.LASF21
 900 0104 05       		.byte	0x5
 901 0105 A4       		.byte	0xa4
 902 0106 E0000000 		.4byte	0xe0
 903 010a 08       		.uleb128 0x8
ARM GAS  C:\msys64\tmp\ccLgZ92a.s 			page 17


 904 010b 08       		.byte	0x8
 905 010c 05       		.byte	0x5
 906 010d A6       		.byte	0xa6
 907 010e 1C070000 		.4byte	.LASF166
 908 0112 2B010000 		.4byte	0x12b
 909 0116 09       		.uleb128 0x9
 910 0117 6100     		.ascii	"a\000"
 911 0119 05       		.byte	0x5
 912 011a A7       		.byte	0xa7
 913 011b 25000000 		.4byte	0x25
 914 011f 00       		.byte	0
 915 0120 09       		.uleb128 0x9
 916 0121 6200     		.ascii	"b\000"
 917 0123 05       		.byte	0x5
 918 0124 A8       		.byte	0xa8
 919 0125 25000000 		.4byte	0x25
 920 0129 04       		.byte	0x4
 921 012a 00       		.byte	0
 922 012b 04       		.uleb128 0x4
 923 012c 8F0A0000 		.4byte	.LASF22
 924 0130 05       		.byte	0x5
 925 0131 A9       		.byte	0xa9
 926 0132 0A010000 		.4byte	0x10a
 927 0136 0A       		.uleb128 0xa
 928 0137 3E090000 		.4byte	.LASF23
 929 013b 09       		.byte	0x9
 930 013c 8D01     		.2byte	0x18d
 931 013e 9E000000 		.4byte	0x9e
 932 0142 0B       		.uleb128 0xb
 933 0143 01       		.byte	0x1
 934 0144 45000000 		.4byte	0x45
 935 0148 0E       		.byte	0xe
 936 0149 35       		.byte	0x35
 937 014a 73010000 		.4byte	0x173
 938 014e 0C       		.uleb128 0xc
 939 014f 120A0000 		.4byte	.LASF24
 940 0153 00       		.byte	0
 941 0154 0C       		.uleb128 0xc
 942 0155 80080000 		.4byte	.LASF25
 943 0159 01       		.byte	0x1
 944 015a 0C       		.uleb128 0xc
 945 015b A4020000 		.4byte	.LASF26
 946 015f 02       		.byte	0x2
 947 0160 0C       		.uleb128 0xc
 948 0161 63030000 		.4byte	.LASF27
 949 0165 03       		.byte	0x3
 950 0166 0C       		.uleb128 0xc
 951 0167 34070000 		.4byte	.LASF28
 952 016b 04       		.byte	0x4
 953 016c 0C       		.uleb128 0xc
 954 016d 89060000 		.4byte	.LASF29
 955 0171 05       		.byte	0x5
 956 0172 00       		.byte	0
 957 0173 0D       		.uleb128 0xd
 958 0174 01       		.byte	0x1
 959 0175 45000000 		.4byte	0x45
 960 0179 0A       		.byte	0xa
ARM GAS  C:\msys64\tmp\ccLgZ92a.s 			page 18


 961 017a 43       		.byte	0x43
 962 017b 44030000 		.4byte	.LASF167
 963 017f A2010000 		.4byte	0x1a2
 964 0183 0C       		.uleb128 0xc
 965 0184 26090000 		.4byte	.LASF30
 966 0188 00       		.byte	0
 967 0189 0C       		.uleb128 0xc
 968 018a 41040000 		.4byte	.LASF31
 969 018e 01       		.byte	0x1
 970 018f 0C       		.uleb128 0xc
 971 0190 9C060000 		.4byte	.LASF32
 972 0194 02       		.byte	0x2
 973 0195 0C       		.uleb128 0xc
 974 0196 270A0000 		.4byte	.LASF33
 975 019a 03       		.byte	0x3
 976 019b 0C       		.uleb128 0xc
 977 019c 7F030000 		.4byte	.LASF34
 978 01a0 04       		.byte	0x4
 979 01a1 00       		.byte	0
 980 01a2 04       		.uleb128 0x4
 981 01a3 94080000 		.4byte	.LASF35
 982 01a7 0A       		.byte	0xa
 983 01a8 4C       		.byte	0x4c
 984 01a9 73010000 		.4byte	0x173
 985 01ad 0E       		.uleb128 0xe
 986 01ae 04       		.byte	0x4
 987 01af 25000000 		.4byte	0x25
 988 01b3 0F       		.uleb128 0xf
 989 01b4 64737000 		.ascii	"dsp\000"
 990 01b8 04       		.byte	0x4
 991 01b9 32       		.byte	0x32
 992 01ba 9B060000 		.4byte	0x69b
 993 01be 10       		.uleb128 0x10
 994 01bf 020C0000 		.4byte	.LASF45
 995 01c3 08       		.byte	0x8
 996 01c4 04       		.byte	0x4
 997 01c5 37       		.byte	0x37
 998 01c6 6C040000 		.4byte	0x46c
 999 01ca 11       		.uleb128 0x11
 1000 01cb 30040000 		.4byte	.LASF36
 1001 01cf 04       		.byte	0x4
 1002 01d0 2A01     		.2byte	0x12a
 1003 01d2 36010000 		.4byte	0x136
 1004 01d6 00       		.byte	0
 1005 01d7 12       		.uleb128 0x12
 1006 01d8 773000   		.ascii	"w0\000"
 1007 01db 04       		.byte	0x4
 1008 01dc 2B01     		.2byte	0x12b
 1009 01de 36010000 		.4byte	0x136
 1010 01e2 04       		.byte	0x4
 1011 01e3 13       		.uleb128 0x13
 1012 01e4 020C0000 		.4byte	.LASF45
 1013 01e8 04       		.byte	0x4
 1014 01e9 44       		.byte	0x44
 1015 01ea 1A040000 		.4byte	.LASF47
 1016 01ee 9B060000 		.4byte	0x69b
 1017 01f2 FA010000 		.4byte	0x1fa
ARM GAS  C:\msys64\tmp\ccLgZ92a.s 			page 19


 1018 01f6 00020000 		.4byte	0x200
 1019 01fa 14       		.uleb128 0x14
 1020 01fb 9B060000 		.4byte	0x69b
 1021 01ff 00       		.byte	0
 1022 0200 15       		.uleb128 0x15
 1023 0201 FC0B0000 		.4byte	.LASF37
 1024 0205 04       		.byte	0x4
 1025 0206 50       		.byte	0x50
 1026 0207 58080000 		.4byte	.LASF39
 1027 020b 13020000 		.4byte	0x213
 1028 020f 19020000 		.4byte	0x219
 1029 0213 14       		.uleb128 0x14
 1030 0214 9B060000 		.4byte	0x69b
 1031 0218 00       		.byte	0
 1032 0219 15       		.uleb128 0x15
 1033 021a E9080000 		.4byte	.LASF38
 1034 021e 04       		.byte	0x4
 1035 021f 59       		.byte	0x59
 1036 0220 B8020000 		.4byte	.LASF40
 1037 0224 2C020000 		.4byte	0x22c
 1038 0228 32020000 		.4byte	0x232
 1039 022c 14       		.uleb128 0x14
 1040 022d 9B060000 		.4byte	0x69b
 1041 0231 00       		.byte	0
 1042 0232 15       		.uleb128 0x15
 1043 0233 2E080000 		.4byte	.LASF41
 1044 0237 04       		.byte	0x4
 1045 0238 65       		.byte	0x65
 1046 0239 5E050000 		.4byte	.LASF42
 1047 023d 45020000 		.4byte	0x245
 1048 0241 55020000 		.4byte	0x255
 1049 0245 14       		.uleb128 0x14
 1050 0246 9B060000 		.4byte	0x69b
 1051 024a 16       		.uleb128 0x16
 1052 024b 25000000 		.4byte	0x25
 1053 024f 16       		.uleb128 0x16
 1054 0250 25000000 		.4byte	0x25
 1055 0254 00       		.byte	0
 1056 0255 15       		.uleb128 0x15
 1057 0256 78090000 		.4byte	.LASF43
 1058 025a 04       		.byte	0x4
 1059 025b 70       		.byte	0x70
 1060 025c 85040000 		.4byte	.LASF44
 1061 0260 68020000 		.4byte	0x268
 1062 0264 73020000 		.4byte	0x273
 1063 0268 14       		.uleb128 0x14
 1064 0269 9B060000 		.4byte	0x69b
 1065 026d 16       		.uleb128 0x16
 1066 026e 25000000 		.4byte	0x25
 1067 0272 00       		.byte	0
 1068 0273 13       		.uleb128 0x13
 1069 0274 77030000 		.4byte	.LASF46
 1070 0278 04       		.byte	0x4
 1071 0279 7B       		.byte	0x7b
 1072 027a FD020000 		.4byte	.LASF48
 1073 027e 25000000 		.4byte	0x25
 1074 0282 8A020000 		.4byte	0x28a
ARM GAS  C:\msys64\tmp\ccLgZ92a.s 			page 20


 1075 0286 90020000 		.4byte	0x290
 1076 028a 14       		.uleb128 0x14
 1077 028b 9B060000 		.4byte	0x69b
 1078 028f 00       		.byte	0
 1079 0290 13       		.uleb128 0x13
 1080 0291 AA080000 		.4byte	.LASF49
 1081 0295 04       		.byte	0x4
 1082 0296 85       		.byte	0x85
 1083 0297 4C020000 		.4byte	.LASF50
 1084 029b 25000000 		.4byte	0x25
 1085 029f A7020000 		.4byte	0x2a7
 1086 02a3 AD020000 		.4byte	0x2ad
 1087 02a7 14       		.uleb128 0x14
 1088 02a8 9B060000 		.4byte	0x69b
 1089 02ac 00       		.byte	0
 1090 02ad 13       		.uleb128 0x13
 1091 02ae 38030000 		.4byte	.LASF51
 1092 02b2 04       		.byte	0x4
 1093 02b3 91       		.byte	0x91
 1094 02b4 E8060000 		.4byte	.LASF52
 1095 02b8 25000000 		.4byte	0x25
 1096 02bc C4020000 		.4byte	0x2c4
 1097 02c0 CF020000 		.4byte	0x2cf
 1098 02c4 14       		.uleb128 0x14
 1099 02c5 9B060000 		.4byte	0x69b
 1100 02c9 16       		.uleb128 0x16
 1101 02ca 25000000 		.4byte	0x25
 1102 02ce 00       		.byte	0
 1103 02cf 13       		.uleb128 0x13
 1104 02d0 19090000 		.4byte	.LASF53
 1105 02d4 04       		.byte	0x4
 1106 02d5 9D       		.byte	0x9d
 1107 02d6 79050000 		.4byte	.LASF54
 1108 02da 25000000 		.4byte	0x25
 1109 02de E6020000 		.4byte	0x2e6
 1110 02e2 F1020000 		.4byte	0x2f1
 1111 02e6 14       		.uleb128 0x14
 1112 02e7 9B060000 		.4byte	0x69b
 1113 02eb 16       		.uleb128 0x16
 1114 02ec 25000000 		.4byte	0x25
 1115 02f0 00       		.byte	0
 1116 02f1 13       		.uleb128 0x13
 1117 02f2 A4070000 		.4byte	.LASF55
 1118 02f6 04       		.byte	0x4
 1119 02f7 A8       		.byte	0xa8
 1120 02f8 4B000000 		.4byte	.LASF56
 1121 02fc 25000000 		.4byte	0x25
 1122 0300 08030000 		.4byte	0x308
 1123 0304 0E030000 		.4byte	0x30e
 1124 0308 14       		.uleb128 0x14
 1125 0309 9B060000 		.4byte	0x69b
 1126 030d 00       		.byte	0
 1127 030e 13       		.uleb128 0x13
 1128 030f CD0B0000 		.4byte	.LASF57
 1129 0313 04       		.byte	0x4
 1130 0314 B1       		.byte	0xb1
 1131 0315 06000000 		.4byte	.LASF58
ARM GAS  C:\msys64\tmp\ccLgZ92a.s 			page 21


 1132 0319 25000000 		.4byte	0x25
 1133 031d 25030000 		.4byte	0x325
 1134 0321 2B030000 		.4byte	0x32b
 1135 0325 14       		.uleb128 0x14
 1136 0326 9B060000 		.4byte	0x69b
 1137 032a 00       		.byte	0
 1138 032b 13       		.uleb128 0x13
 1139 032c D2040000 		.4byte	.LASF59
 1140 0330 04       		.byte	0x4
 1141 0331 BC       		.byte	0xbc
 1142 0332 B3080000 		.4byte	.LASF60
 1143 0336 25000000 		.4byte	0x25
 1144 033a 42030000 		.4byte	0x342
 1145 033e 4D030000 		.4byte	0x34d
 1146 0342 14       		.uleb128 0x14
 1147 0343 9B060000 		.4byte	0x69b
 1148 0347 16       		.uleb128 0x16
 1149 0348 25000000 		.4byte	0x25
 1150 034c 00       		.byte	0
 1151 034d 13       		.uleb128 0x13
 1152 034e F4090000 		.4byte	.LASF61
 1153 0352 04       		.byte	0x4
 1154 0353 C8       		.byte	0xc8
 1155 0354 BE070000 		.4byte	.LASF62
 1156 0358 25000000 		.4byte	0x25
 1157 035c 64030000 		.4byte	0x364
 1158 0360 6F030000 		.4byte	0x36f
 1159 0364 14       		.uleb128 0x14
 1160 0365 9B060000 		.4byte	0x69b
 1161 0369 16       		.uleb128 0x16
 1162 036a 25000000 		.4byte	0x25
 1163 036e 00       		.byte	0
 1164 036f 13       		.uleb128 0x13
 1165 0370 03020000 		.4byte	.LASF63
 1166 0374 04       		.byte	0x4
 1167 0375 D3       		.byte	0xd3
 1168 0376 C3060000 		.4byte	.LASF64
 1169 037a 25000000 		.4byte	0x25
 1170 037e 86030000 		.4byte	0x386
 1171 0382 8C030000 		.4byte	0x38c
 1172 0386 14       		.uleb128 0x14
 1173 0387 9B060000 		.4byte	0x69b
 1174 038b 00       		.byte	0
 1175 038c 13       		.uleb128 0x13
 1176 038d D9030000 		.4byte	.LASF65
 1177 0391 04       		.byte	0x4
 1178 0392 DC       		.byte	0xdc
 1179 0393 E00B0000 		.4byte	.LASF66
 1180 0397 25000000 		.4byte	0x25
 1181 039b A3030000 		.4byte	0x3a3
 1182 039f A9030000 		.4byte	0x3a9
 1183 03a3 14       		.uleb128 0x14
 1184 03a4 9B060000 		.4byte	0x69b
 1185 03a8 00       		.byte	0
 1186 03a9 13       		.uleb128 0x13
 1187 03aa A20A0000 		.4byte	.LASF67
 1188 03ae 04       		.byte	0x4
ARM GAS  C:\msys64\tmp\ccLgZ92a.s 			page 22


 1189 03af E7       		.byte	0xe7
 1190 03b0 3D0B0000 		.4byte	.LASF68
 1191 03b4 25000000 		.4byte	0x25
 1192 03b8 C0030000 		.4byte	0x3c0
 1193 03bc CB030000 		.4byte	0x3cb
 1194 03c0 14       		.uleb128 0x14
 1195 03c1 9B060000 		.4byte	0x69b
 1196 03c5 16       		.uleb128 0x16
 1197 03c6 25000000 		.4byte	0x25
 1198 03ca 00       		.byte	0
 1199 03cb 13       		.uleb128 0x13
 1200 03cc 35040000 		.4byte	.LASF69
 1201 03d0 04       		.byte	0x4
 1202 03d1 F3       		.byte	0xf3
 1203 03d2 64040000 		.4byte	.LASF70
 1204 03d6 25000000 		.4byte	0x25
 1205 03da E2030000 		.4byte	0x3e2
 1206 03de ED030000 		.4byte	0x3ed
 1207 03e2 14       		.uleb128 0x14
 1208 03e3 9B060000 		.4byte	0x69b
 1209 03e7 16       		.uleb128 0x16
 1210 03e8 25000000 		.4byte	0x25
 1211 03ec 00       		.byte	0
 1212 03ed 17       		.uleb128 0x17
 1213 03ee E9020000 		.4byte	.LASF71
 1214 03f2 04       		.byte	0x4
 1215 03f3 0001     		.2byte	0x100
 1216 03f5 110B0000 		.4byte	.LASF73
 1217 03f9 25000000 		.4byte	0x25
 1218 03fd 05040000 		.4byte	0x405
 1219 0401 0B040000 		.4byte	0x40b
 1220 0405 14       		.uleb128 0x14
 1221 0406 9B060000 		.4byte	0x69b
 1222 040a 00       		.byte	0
 1223 040b 17       		.uleb128 0x17
 1224 040c 600A0000 		.4byte	.LASF72
 1225 0410 04       		.byte	0x4
 1226 0411 0901     		.2byte	0x109
 1227 0413 69060000 		.4byte	.LASF74
 1228 0417 25000000 		.4byte	0x25
 1229 041b 23040000 		.4byte	0x423
 1230 041f 29040000 		.4byte	0x429
 1231 0423 14       		.uleb128 0x14
 1232 0424 9B060000 		.4byte	0x69b
 1233 0428 00       		.byte	0
 1234 0429 17       		.uleb128 0x17
 1235 042a 85020000 		.4byte	.LASF75
 1236 042e 04       		.byte	0x4
 1237 042f 1401     		.2byte	0x114
 1238 0431 F4040000 		.4byte	.LASF76
 1239 0435 25000000 		.4byte	0x25
 1240 0439 41040000 		.4byte	0x441
 1241 043d 4C040000 		.4byte	0x44c
 1242 0441 14       		.uleb128 0x14
 1243 0442 9B060000 		.4byte	0x69b
 1244 0446 16       		.uleb128 0x16
 1245 0447 25000000 		.4byte	0x25
ARM GAS  C:\msys64\tmp\ccLgZ92a.s 			page 23


 1246 044b 00       		.byte	0
 1247 044c 18       		.uleb128 0x18
 1248 044d 86090000 		.4byte	.LASF77
 1249 0451 04       		.byte	0x4
 1250 0452 2001     		.2byte	0x120
 1251 0454 6B0A0000 		.4byte	.LASF109
 1252 0458 25000000 		.4byte	0x25
 1253 045c 60040000 		.4byte	0x460
 1254 0460 14       		.uleb128 0x14
 1255 0461 9B060000 		.4byte	0x69b
 1256 0465 16       		.uleb128 0x16
 1257 0466 25000000 		.4byte	0x25
 1258 046a 00       		.byte	0
 1259 046b 00       		.byte	0
 1260 046c 19       		.uleb128 0x19
 1261 046d 72080000 		.4byte	.LASF83
 1262 0471 18       		.byte	0x18
 1263 0472 02       		.byte	0x2
 1264 0473 BB       		.byte	0xbb
 1265 0474 11       		.uleb128 0x11
 1266 0475 2F060000 		.4byte	.LASF78
 1267 0479 02       		.byte	0x2
 1268 047a 8301     		.2byte	0x183
 1269 047c A1060000 		.4byte	0x6a1
 1270 0480 00       		.byte	0
 1271 0481 11       		.uleb128 0x11
 1272 0482 2F0B0000 		.4byte	.LASF79
 1273 0486 02       		.byte	0x2
 1274 0487 8401     		.2byte	0x184
 1275 0489 2B010000 		.4byte	0x12b
 1276 048d 04       		.byte	0x4
 1277 048e 11       		.uleb128 0x11
 1278 048f 16070000 		.4byte	.LASF80
 1279 0493 02       		.byte	0x2
 1280 0494 8501     		.2byte	0x185
 1281 0496 B4000000 		.4byte	0xb4
 1282 049a 0C       		.byte	0xc
 1283 049b 11       		.uleb128 0x11
 1284 049c E8050000 		.4byte	.LASF81
 1285 04a0 02       		.byte	0x2
 1286 04a1 8601     		.2byte	0x186
 1287 04a3 B4000000 		.4byte	0xb4
 1288 04a7 10       		.byte	0x10
 1289 04a8 11       		.uleb128 0x11
 1290 04a9 DE050000 		.4byte	.LASF82
 1291 04ad 02       		.byte	0x2
 1292 04ae 8701     		.2byte	0x187
 1293 04b0 A9000000 		.4byte	0xa9
 1294 04b4 14       		.byte	0x14
 1295 04b5 13       		.uleb128 0x13
 1296 04b6 72080000 		.4byte	.LASF83
 1297 04ba 02       		.byte	0x2
 1298 04bb C8       		.byte	0xc8
 1299 04bc FE080000 		.4byte	.LASF84
 1300 04c0 A7060000 		.4byte	0x6a7
 1301 04c4 CC040000 		.4byte	0x4cc
 1302 04c8 D2040000 		.4byte	0x4d2
ARM GAS  C:\msys64\tmp\ccLgZ92a.s 			page 24


 1303 04cc 14       		.uleb128 0x14
 1304 04cd A7060000 		.4byte	0x6a7
 1305 04d1 00       		.byte	0
 1306 04d2 13       		.uleb128 0x13
 1307 04d3 72080000 		.4byte	.LASF83
 1308 04d7 02       		.byte	0x2
 1309 04d8 D7       		.byte	0xd7
 1310 04d9 D80A0000 		.4byte	.LASF85
 1311 04dd A7060000 		.4byte	0x6a7
 1312 04e1 E9040000 		.4byte	0x4e9
 1313 04e5 F9040000 		.4byte	0x4f9
 1314 04e9 14       		.uleb128 0x14
 1315 04ea A7060000 		.4byte	0x6a7
 1316 04ee 16       		.uleb128 0x16
 1317 04ef A1060000 		.4byte	0x6a1
 1318 04f3 16       		.uleb128 0x16
 1319 04f4 B4000000 		.4byte	0xb4
 1320 04f8 00       		.byte	0
 1321 04f9 15       		.uleb128 0x15
 1322 04fa 19030000 		.4byte	.LASF86
 1323 04fe 02       		.byte	0x2
 1324 04ff E5       		.byte	0xe5
 1325 0500 AB050000 		.4byte	.LASF87
 1326 0504 0C050000 		.4byte	0x50c
 1327 0508 12050000 		.4byte	0x512
 1328 050c 14       		.uleb128 0x14
 1329 050d A7060000 		.4byte	0x6a7
 1330 0511 00       		.byte	0
 1331 0512 15       		.uleb128 0x15
 1332 0513 1F030000 		.4byte	.LASF88
 1333 0517 02       		.byte	0x2
 1334 0518 F2       		.byte	0xf2
 1335 0519 E1030000 		.4byte	.LASF89
 1336 051d 25050000 		.4byte	0x525
 1337 0521 35050000 		.4byte	0x535
 1338 0525 14       		.uleb128 0x14
 1339 0526 A7060000 		.4byte	0x6a7
 1340 052a 16       		.uleb128 0x16
 1341 052b A1060000 		.4byte	0x6a1
 1342 052f 16       		.uleb128 0x16
 1343 0530 B4000000 		.4byte	0xb4
 1344 0534 00       		.byte	0
 1345 0535 15       		.uleb128 0x15
 1346 0536 D8050000 		.4byte	.LASF90
 1347 053a 02       		.byte	0x2
 1348 053b FF       		.byte	0xff
 1349 053c AF030000 		.4byte	.LASF91
 1350 0540 48050000 		.4byte	0x548
 1351 0544 53050000 		.4byte	0x553
 1352 0548 14       		.uleb128 0x14
 1353 0549 A7060000 		.4byte	0x6a7
 1354 054d 16       		.uleb128 0x16
 1355 054e AD060000 		.4byte	0x6ad
 1356 0552 00       		.byte	0
 1357 0553 17       		.uleb128 0x17
 1358 0554 F9080000 		.4byte	.LASF92
 1359 0558 02       		.byte	0x2
ARM GAS  C:\msys64\tmp\ccLgZ92a.s 			page 25


 1360 0559 0A01     		.2byte	0x10a
 1361 055b 2E020000 		.4byte	.LASF93
 1362 055f 2B010000 		.4byte	0x12b
 1363 0563 6B050000 		.4byte	0x56b
 1364 0567 76050000 		.4byte	0x576
 1365 056b 14       		.uleb128 0x14
 1366 056c A7060000 		.4byte	0x6a7
 1367 0570 16       		.uleb128 0x16
 1368 0571 A9000000 		.4byte	0xa9
 1369 0575 00       		.byte	0
 1370 0576 17       		.uleb128 0x17
 1371 0577 9D010000 		.4byte	.LASF94
 1372 057b 02       		.byte	0x2
 1373 057c 1501     		.2byte	0x115
 1374 057e 0D060000 		.4byte	.LASF95
 1375 0582 2B010000 		.4byte	0x12b
 1376 0586 8E050000 		.4byte	0x58e
 1377 058a 99050000 		.4byte	0x599
 1378 058e 14       		.uleb128 0x14
 1379 058f A7060000 		.4byte	0x6a7
 1380 0593 16       		.uleb128 0x16
 1381 0594 25000000 		.4byte	0x25
 1382 0598 00       		.byte	0
 1383 0599 17       		.uleb128 0x17
 1384 059a B9060000 		.4byte	.LASF96
 1385 059e 02       		.byte	0x2
 1386 059f 2601     		.2byte	0x126
 1387 05a1 34080000 		.4byte	.LASF97
 1388 05a5 2B010000 		.4byte	0x12b
 1389 05a9 B1050000 		.4byte	0x5b1
 1390 05ad C1050000 		.4byte	0x5c1
 1391 05b1 14       		.uleb128 0x14
 1392 05b2 A7060000 		.4byte	0x6a7
 1393 05b6 16       		.uleb128 0x16
 1394 05b7 A9000000 		.4byte	0xa9
 1395 05bb 16       		.uleb128 0x16
 1396 05bc 25000000 		.4byte	0x25
 1397 05c0 00       		.byte	0
 1398 05c1 17       		.uleb128 0x17
 1399 05c2 09070000 		.4byte	.LASF98
 1400 05c6 02       		.byte	0x2
 1401 05c7 3401     		.2byte	0x134
 1402 05c9 EE050000 		.4byte	.LASF99
 1403 05cd 25000000 		.4byte	0x25
 1404 05d1 D9050000 		.4byte	0x5d9
 1405 05d5 E4050000 		.4byte	0x5e4
 1406 05d9 14       		.uleb128 0x14
 1407 05da A7060000 		.4byte	0x6a7
 1408 05de 16       		.uleb128 0x16
 1409 05df A9000000 		.4byte	0xa9
 1410 05e3 00       		.byte	0
 1411 05e4 17       		.uleb128 0x17
 1412 05e5 9B050000 		.4byte	.LASF100
 1413 05e9 02       		.byte	0x2
 1414 05ea 3F01     		.2byte	0x13f
 1415 05ec B90A0000 		.4byte	.LASF101
 1416 05f0 25000000 		.4byte	0x25
ARM GAS  C:\msys64\tmp\ccLgZ92a.s 			page 26


 1417 05f4 FC050000 		.4byte	0x5fc
 1418 05f8 07060000 		.4byte	0x607
 1419 05fc 14       		.uleb128 0x14
 1420 05fd A7060000 		.4byte	0x6a7
 1421 0601 16       		.uleb128 0x16
 1422 0602 A9000000 		.4byte	0xa9
 1423 0606 00       		.byte	0
 1424 0607 17       		.uleb128 0x17
 1425 0608 5A040000 		.4byte	.LASF102
 1426 060c 02       		.byte	0x2
 1427 060d 4A01     		.2byte	0x14a
 1428 060f 57070000 		.4byte	.LASF103
 1429 0613 25000000 		.4byte	0x25
 1430 0617 1F060000 		.4byte	0x61f
 1431 061b 2A060000 		.4byte	0x62a
 1432 061f 14       		.uleb128 0x14
 1433 0620 A7060000 		.4byte	0x6a7
 1434 0624 16       		.uleb128 0x16
 1435 0625 25000000 		.4byte	0x25
 1436 0629 00       		.byte	0
 1437 062a 17       		.uleb128 0x17
 1438 062b 5F090000 		.4byte	.LASF104
 1439 062f 02       		.byte	0x2
 1440 0630 5A01     		.2byte	0x15a
 1441 0632 3C060000 		.4byte	.LASF105
 1442 0636 25000000 		.4byte	0x25
 1443 063a 42060000 		.4byte	0x642
 1444 063e 52060000 		.4byte	0x652
 1445 0642 14       		.uleb128 0x14
 1446 0643 A7060000 		.4byte	0x6a7
 1447 0647 16       		.uleb128 0x16
 1448 0648 A9000000 		.4byte	0xa9
 1449 064c 16       		.uleb128 0x16
 1450 064d 25000000 		.4byte	0x25
 1451 0651 00       		.byte	0
 1452 0652 17       		.uleb128 0x17
 1453 0653 41000000 		.4byte	.LASF106
 1454 0657 02       		.byte	0x2
 1455 0658 6801     		.2byte	0x168
 1456 065a 9F040000 		.4byte	.LASF107
 1457 065e 25000000 		.4byte	0x25
 1458 0662 6A060000 		.4byte	0x66a
 1459 0666 75060000 		.4byte	0x675
 1460 066a 14       		.uleb128 0x14
 1461 066b A7060000 		.4byte	0x6a7
 1462 066f 16       		.uleb128 0x16
 1463 0670 25000000 		.4byte	0x25
 1464 0674 00       		.byte	0
 1465 0675 18       		.uleb128 0x18
 1466 0676 23050000 		.4byte	.LASF108
 1467 067a 02       		.byte	0x2
 1468 067b 7801     		.2byte	0x178
 1469 067d A3090000 		.4byte	.LASF110
 1470 0681 25000000 		.4byte	0x25
 1471 0685 89060000 		.4byte	0x689
 1472 0689 14       		.uleb128 0x14
 1473 068a A7060000 		.4byte	0x6a7
ARM GAS  C:\msys64\tmp\ccLgZ92a.s 			page 27


 1474 068e 16       		.uleb128 0x16
 1475 068f A9000000 		.4byte	0xa9
 1476 0693 16       		.uleb128 0x16
 1477 0694 25000000 		.4byte	0x25
 1478 0698 00       		.byte	0
 1479 0699 00       		.byte	0
 1480 069a 00       		.byte	0
 1481 069b 0E       		.uleb128 0xe
 1482 069c 04       		.byte	0x4
 1483 069d BE010000 		.4byte	0x1be
 1484 06a1 0E       		.uleb128 0xe
 1485 06a2 04       		.byte	0x4
 1486 06a3 2B010000 		.4byte	0x12b
 1487 06a7 0E       		.uleb128 0xe
 1488 06a8 04       		.byte	0x4
 1489 06a9 6C040000 		.4byte	0x46c
 1490 06ad 1A       		.uleb128 0x1a
 1491 06ae 04       		.byte	0x4
 1492 06af B3060000 		.4byte	0x6b3
 1493 06b3 1B       		.uleb128 0x1b
 1494 06b4 2B010000 		.4byte	0x12b
 1495 06b8 1C       		.uleb128 0x1c
 1496 06b9 EE010000 		.4byte	.LASF112
 1497 06bd 05       		.byte	0x5
 1498 06be 1C01     		.2byte	0x11c
 1499 06c0 25000000 		.4byte	0x25
 1500 06c4 03       		.byte	0x3
 1501 06c5 DF060000 		.4byte	0x6df
 1502 06c9 1D       		.uleb128 0x1d
 1503 06ca 7800     		.ascii	"x\000"
 1504 06cc 05       		.byte	0x5
 1505 06cd 1C01     		.2byte	0x11c
 1506 06cf 25000000 		.4byte	0x25
 1507 06d3 1E       		.uleb128 0x1e
 1508 06d4 787300   		.ascii	"xs\000"
 1509 06d7 05       		.byte	0x5
 1510 06d8 1E01     		.2byte	0x11e
 1511 06da FF000000 		.4byte	0xff
 1512 06de 00       		.byte	0
 1513 06df 1F       		.uleb128 0x1f
 1514 06e0 E3010000 		.4byte	0x1e3
 1515 06e4 03       		.byte	0x3
 1516 06e5 ED060000 		.4byte	0x6ed
 1517 06e9 F7060000 		.4byte	0x6f7
 1518 06ed 20       		.uleb128 0x20
 1519 06ee 52070000 		.4byte	.LASF111
 1520 06f2 F7060000 		.4byte	0x6f7
 1521 06f6 00       		.byte	0
 1522 06f7 1B       		.uleb128 0x1b
 1523 06f8 9B060000 		.4byte	0x69b
 1524 06fc 1F       		.uleb128 0x1f
 1525 06fd B5040000 		.4byte	0x4b5
 1526 0701 03       		.byte	0x3
 1527 0702 0A070000 		.4byte	0x70a
 1528 0706 14070000 		.4byte	0x714
 1529 070a 20       		.uleb128 0x20
 1530 070b 52070000 		.4byte	.LASF111
ARM GAS  C:\msys64\tmp\ccLgZ92a.s 			page 28


 1531 070f 14070000 		.4byte	0x714
 1532 0713 00       		.byte	0
 1533 0714 1B       		.uleb128 0x1b
 1534 0715 A7060000 		.4byte	0x6a7
 1535 0719 21       		.uleb128 0x21
 1536 071a 17050000 		.4byte	.LASF168
 1537 071e 03       		.byte	0x3
 1538 071f 68       		.byte	0x68
 1539 0720 03       		.byte	0x3
 1540 0721 47070000 		.4byte	0x747
 1541 0725 22       		.uleb128 0x22
 1542 0726 70747200 		.ascii	"ptr\000"
 1543 072a 03       		.byte	0x3
 1544 072b 68       		.byte	0x68
 1545 072c 47070000 		.4byte	0x747
 1546 0730 22       		.uleb128 0x22
 1547 0731 6C656E00 		.ascii	"len\000"
 1548 0735 03       		.byte	0x3
 1549 0736 69       		.byte	0x69
 1550 0737 4C070000 		.4byte	0x74c
 1551 073b 23       		.uleb128 0x23
 1552 073c 656E6400 		.ascii	"end\000"
 1553 0740 03       		.byte	0x3
 1554 0741 6B       		.byte	0x6b
 1555 0742 51070000 		.4byte	0x751
 1556 0746 00       		.byte	0
 1557 0747 24       		.uleb128 0x24
 1558 0748 AD010000 		.4byte	0x1ad
 1559 074c 1B       		.uleb128 0x1b
 1560 074d A9000000 		.4byte	0xa9
 1561 0751 0E       		.uleb128 0xe
 1562 0752 04       		.byte	0x4
 1563 0753 57070000 		.4byte	0x757
 1564 0757 1B       		.uleb128 0x1b
 1565 0758 25000000 		.4byte	0x25
 1566 075c 25       		.uleb128 0x25
 1567 075d 050A0000 		.4byte	.LASF113
 1568 0761 0B       		.byte	0xb
 1569 0762 75       		.byte	0x75
 1570 0763 A9000000 		.4byte	0xa9
 1571 0767 03       		.byte	0x3
 1572 0768 76070000 		.4byte	0x776
 1573 076c 22       		.uleb128 0x22
 1574 076d 7800     		.ascii	"x\000"
 1575 076f 0B       		.byte	0xb
 1576 0770 75       		.byte	0x75
 1577 0771 A9000000 		.4byte	0xa9
 1578 0775 00       		.byte	0
 1579 0776 1C       		.uleb128 0x1c
 1580 0777 9B090000 		.4byte	.LASF114
 1581 077b 05       		.byte	0x5
 1582 077c 3903     		.2byte	0x339
 1583 077e 25000000 		.4byte	0x25
 1584 0782 03       		.byte	0x3
 1585 0783 A9070000 		.4byte	0x7a9
 1586 0787 1D       		.uleb128 0x1d
 1587 0788 667200   		.ascii	"fr\000"
ARM GAS  C:\msys64\tmp\ccLgZ92a.s 			page 29


 1588 078b 05       		.byte	0x5
 1589 078c 3903     		.2byte	0x339
 1590 078e 57070000 		.4byte	0x757
 1591 0792 1D       		.uleb128 0x1d
 1592 0793 783000   		.ascii	"x0\000"
 1593 0796 05       		.byte	0x5
 1594 0797 3903     		.2byte	0x339
 1595 0799 57070000 		.4byte	0x757
 1596 079d 1D       		.uleb128 0x1d
 1597 079e 783100   		.ascii	"x1\000"
 1598 07a1 05       		.byte	0x5
 1599 07a2 3903     		.2byte	0x339
 1600 07a4 57070000 		.4byte	0x757
 1601 07a8 00       		.byte	0
 1602 07a9 1F       		.uleb128 0x1f
 1603 07aa C1050000 		.4byte	0x5c1
 1604 07ae 03       		.byte	0x3
 1605 07af B7070000 		.4byte	0x7b7
 1606 07b3 CD070000 		.4byte	0x7cd
 1607 07b7 20       		.uleb128 0x20
 1608 07b8 52070000 		.4byte	.LASF111
 1609 07bc 14070000 		.4byte	0x714
 1610 07c0 1D       		.uleb128 0x1d
 1611 07c1 706F7300 		.ascii	"pos\000"
 1612 07c5 02       		.byte	0x2
 1613 07c6 3401     		.2byte	0x134
 1614 07c8 4C070000 		.4byte	0x74c
 1615 07cc 00       		.byte	0
 1616 07cd 1F       		.uleb128 0x1f
 1617 07ce E4050000 		.4byte	0x5e4
 1618 07d2 03       		.byte	0x3
 1619 07d3 DB070000 		.4byte	0x7db
 1620 07d7 F1070000 		.4byte	0x7f1
 1621 07db 20       		.uleb128 0x20
 1622 07dc 52070000 		.4byte	.LASF111
 1623 07e0 14070000 		.4byte	0x714
 1624 07e4 1D       		.uleb128 0x1d
 1625 07e5 706F7300 		.ascii	"pos\000"
 1626 07e9 02       		.byte	0x2
 1627 07ea 3F01     		.2byte	0x13f
 1628 07ec 4C070000 		.4byte	0x74c
 1629 07f0 00       		.byte	0
 1630 07f1 1F       		.uleb128 0x1f
 1631 07f2 32020000 		.4byte	0x232
 1632 07f6 03       		.byte	0x3
 1633 07f7 FF070000 		.4byte	0x7ff
 1634 07fb 1E080000 		.4byte	0x81e
 1635 07ff 20       		.uleb128 0x20
 1636 0800 52070000 		.4byte	.LASF111
 1637 0804 F7060000 		.4byte	0x6f7
 1638 0808 22       		.uleb128 0x22
 1639 0809 663000   		.ascii	"f0\000"
 1640 080c 04       		.byte	0x4
 1641 080d 65       		.byte	0x65
 1642 080e 57070000 		.4byte	0x757
 1643 0812 26       		.uleb128 0x26
 1644 0813 C9090000 		.4byte	.LASF115
ARM GAS  C:\msys64\tmp\ccLgZ92a.s 			page 30


 1645 0817 04       		.byte	0x4
 1646 0818 65       		.byte	0x65
 1647 0819 57070000 		.4byte	0x757
 1648 081d 00       		.byte	0
 1649 081e 1F       		.uleb128 0x1f
 1650 081f 19020000 		.4byte	0x219
 1651 0823 03       		.byte	0x3
 1652 0824 2C080000 		.4byte	0x82c
 1653 0828 36080000 		.4byte	0x836
 1654 082c 20       		.uleb128 0x20
 1655 082d 52070000 		.4byte	.LASF111
 1656 0831 F7060000 		.4byte	0x6f7
 1657 0835 00       		.byte	0
 1658 0836 1F       		.uleb128 0x1f
 1659 0837 F9040000 		.4byte	0x4f9
 1660 083b 03       		.byte	0x3
 1661 083c 44080000 		.4byte	0x844
 1662 0840 4E080000 		.4byte	0x84e
 1663 0844 20       		.uleb128 0x20
 1664 0845 52070000 		.4byte	.LASF111
 1665 0849 14070000 		.4byte	0x714
 1666 084d 00       		.byte	0
 1667 084e 1F       		.uleb128 0x1f
 1668 084f 12050000 		.4byte	0x512
 1669 0853 03       		.byte	0x3
 1670 0854 5C080000 		.4byte	0x85c
 1671 0858 7C080000 		.4byte	0x87c
 1672 085c 20       		.uleb128 0x20
 1673 085d 52070000 		.4byte	.LASF111
 1674 0861 14070000 		.4byte	0x714
 1675 0865 22       		.uleb128 0x22
 1676 0866 72616D00 		.ascii	"ram\000"
 1677 086a 02       		.byte	0x2
 1678 086b F2       		.byte	0xf2
 1679 086c A1060000 		.4byte	0x6a1
 1680 0870 26       		.uleb128 0x26
 1681 0871 DE060000 		.4byte	.LASF116
 1682 0875 02       		.byte	0x2
 1683 0876 F2       		.byte	0xf2
 1684 0877 B4000000 		.4byte	0xb4
 1685 087b 00       		.byte	0
 1686 087c 1C       		.uleb128 0x1c
 1687 087d DD080000 		.4byte	.LASF117
 1688 0881 05       		.byte	0x5
 1689 0882 F702     		.2byte	0x2f7
 1690 0884 25000000 		.4byte	0x25
 1691 0888 03       		.byte	0x3
 1692 0889 98080000 		.4byte	0x898
 1693 088d 1D       		.uleb128 0x1d
 1694 088e 7800     		.ascii	"x\000"
 1695 0890 05       		.byte	0x5
 1696 0891 F702     		.2byte	0x2f7
 1697 0893 25000000 		.4byte	0x25
 1698 0897 00       		.byte	0
 1699 0898 25       		.uleb128 0x25
 1700 0899 24020000 		.4byte	.LASF118
 1701 089d 01       		.byte	0x1
ARM GAS  C:\msys64\tmp\ccLgZ92a.s 			page 31


 1702 089e 18       		.byte	0x18
 1703 089f 25000000 		.4byte	0x25
 1704 08a3 03       		.byte	0x3
 1705 08a4 B3080000 		.4byte	0x8b3
 1706 08a8 22       		.uleb128 0x22
 1707 08a9 696E00   		.ascii	"in\000"
 1708 08ac 01       		.byte	0x1
 1709 08ad 18       		.byte	0x18
 1710 08ae 25000000 		.4byte	0x25
 1711 08b2 00       		.byte	0
 1712 08b3 1F       		.uleb128 0x1f
 1713 08b4 35050000 		.4byte	0x535
 1714 08b8 03       		.byte	0x3
 1715 08b9 C1080000 		.4byte	0x8c1
 1716 08bd D4080000 		.4byte	0x8d4
 1717 08c1 20       		.uleb128 0x20
 1718 08c2 52070000 		.4byte	.LASF111
 1719 08c6 14070000 		.4byte	0x714
 1720 08ca 22       		.uleb128 0x22
 1721 08cb 7000     		.ascii	"p\000"
 1722 08cd 02       		.byte	0x2
 1723 08ce FF       		.byte	0xff
 1724 08cf D4080000 		.4byte	0x8d4
 1725 08d3 00       		.byte	0
 1726 08d4 1B       		.uleb128 0x1b
 1727 08d5 AD060000 		.4byte	0x6ad
 1728 08d9 1F       		.uleb128 0x1f
 1729 08da 00020000 		.4byte	0x200
 1730 08de 03       		.byte	0x3
 1731 08df E7080000 		.4byte	0x8e7
 1732 08e3 F1080000 		.4byte	0x8f1
 1733 08e7 20       		.uleb128 0x20
 1734 08e8 52070000 		.4byte	.LASF111
 1735 08ec F7060000 		.4byte	0x6f7
 1736 08f0 00       		.byte	0
 1737 08f1 1F       		.uleb128 0x1f
 1738 08f2 52060000 		.4byte	0x652
 1739 08f6 03       		.byte	0x3
 1740 08f7 FF080000 		.4byte	0x8ff
 1741 08fb 43090000 		.4byte	0x943
 1742 08ff 20       		.uleb128 0x20
 1743 0900 52070000 		.4byte	.LASF111
 1744 0904 14070000 		.4byte	0x714
 1745 0908 1D       		.uleb128 0x1d
 1746 0909 706F7300 		.ascii	"pos\000"
 1747 090d 02       		.byte	0x2
 1748 090e 6801     		.2byte	0x168
 1749 0910 57070000 		.4byte	0x757
 1750 0914 27       		.uleb128 0x27
 1751 0915 99020000 		.4byte	.LASF119
 1752 0919 02       		.byte	0x2
 1753 091a 6901     		.2byte	0x169
 1754 091c 43090000 		.4byte	0x943
 1755 0920 27       		.uleb128 0x27
 1756 0921 BF010000 		.4byte	.LASF120
 1757 0925 02       		.byte	0x2
 1758 0926 6A01     		.2byte	0x16a
ARM GAS  C:\msys64\tmp\ccLgZ92a.s 			page 32


 1759 0928 57070000 		.4byte	0x757
 1760 092c 1E       		.uleb128 0x1e
 1761 092d 663000   		.ascii	"f0\000"
 1762 0930 02       		.byte	0x2
 1763 0931 6B01     		.2byte	0x16b
 1764 0933 57070000 		.4byte	0x757
 1765 0937 1E       		.uleb128 0x1e
 1766 0938 663100   		.ascii	"f1\000"
 1767 093b 02       		.byte	0x2
 1768 093c 6C01     		.2byte	0x16c
 1769 093e 57070000 		.4byte	0x757
 1770 0942 00       		.byte	0
 1771 0943 1B       		.uleb128 0x1b
 1772 0944 9E000000 		.4byte	0x9e
 1773 0948 1F       		.uleb128 0x1f
 1774 0949 07060000 		.4byte	0x607
 1775 094d 03       		.byte	0x3
 1776 094e 56090000 		.4byte	0x956
 1777 0952 9A090000 		.4byte	0x99a
 1778 0956 20       		.uleb128 0x20
 1779 0957 52070000 		.4byte	.LASF111
 1780 095b 14070000 		.4byte	0x714
 1781 095f 1D       		.uleb128 0x1d
 1782 0960 706F7300 		.ascii	"pos\000"
 1783 0964 02       		.byte	0x2
 1784 0965 4A01     		.2byte	0x14a
 1785 0967 57070000 		.4byte	0x757
 1786 096b 27       		.uleb128 0x27
 1787 096c 99020000 		.4byte	.LASF119
 1788 0970 02       		.byte	0x2
 1789 0971 4B01     		.2byte	0x14b
 1790 0973 43090000 		.4byte	0x943
 1791 0977 27       		.uleb128 0x27
 1792 0978 BF010000 		.4byte	.LASF120
 1793 097c 02       		.byte	0x2
 1794 097d 4C01     		.2byte	0x14c
 1795 097f 57070000 		.4byte	0x757
 1796 0983 1E       		.uleb128 0x1e
 1797 0984 663000   		.ascii	"f0\000"
 1798 0987 02       		.byte	0x2
 1799 0988 4D01     		.2byte	0x14d
 1800 098a 57070000 		.4byte	0x757
 1801 098e 1E       		.uleb128 0x1e
 1802 098f 663100   		.ascii	"f1\000"
 1803 0992 02       		.byte	0x2
 1804 0993 4E01     		.2byte	0x14e
 1805 0995 57070000 		.4byte	0x757
 1806 0999 00       		.byte	0
 1807 099a 1F       		.uleb128 0x1f
 1808 099b 73020000 		.4byte	0x273
 1809 099f 03       		.byte	0x3
 1810 09a0 A8090000 		.4byte	0x9a8
 1811 09a4 BD090000 		.4byte	0x9bd
 1812 09a8 20       		.uleb128 0x20
 1813 09a9 52070000 		.4byte	.LASF111
 1814 09ad F7060000 		.4byte	0x6f7
 1815 09b1 28       		.uleb128 0x28
ARM GAS  C:\msys64\tmp\ccLgZ92a.s 			page 33


 1816 09b2 D8080000 		.4byte	.LASF121
 1817 09b6 04       		.byte	0x4
 1818 09b7 7D       		.byte	0x7d
 1819 09b8 57070000 		.4byte	0x757
 1820 09bc 00       		.byte	0
 1821 09bd 29       		.uleb128 0x29
 1822 09be 7A070000 		.4byte	.LASF169
 1823 09c2 01       		.byte	0x1
 1824 09c3 DE090000 		.4byte	0x9de
 1825 09c7 26       		.uleb128 0x26
 1826 09c8 29030000 		.4byte	.LASF122
 1827 09cc 01       		.byte	0x1
 1828 09cd 58       		.byte	0x58
 1829 09ce 2C000000 		.4byte	0x2c
 1830 09d2 26       		.uleb128 0x26
 1831 09d3 A4030000 		.4byte	.LASF123
 1832 09d7 01       		.byte	0x1
 1833 09d8 58       		.byte	0x58
 1834 09d9 2C000000 		.4byte	0x2c
 1835 09dd 00       		.byte	0
 1836 09de 2A       		.uleb128 0x2a
 1837 09df E4070000 		.4byte	.LASF124
 1838 09e3 01       		.byte	0x1
 1839 09e4 20       		.byte	0x20
 1840 09e5 00000000 		.4byte	.LFB316
 1841 09e9 68000000 		.4byte	.LFE316-.LFB316
 1842 09ed 01       		.uleb128 0x1
 1843 09ee 9C       		.byte	0x9c
 1844 09ef DB0A0000 		.4byte	0xadb
 1845 09f3 2B       		.uleb128 0x2b
 1846 09f4 E0010000 		.4byte	.LASF125
 1847 09f8 01       		.byte	0x1
 1848 09f9 20       		.byte	0x20
 1849 09fa A9000000 		.4byte	0xa9
 1850 09fe 00000000 		.4byte	.LLST0
 1851 0a02 2C       		.uleb128 0x2c
 1852 0a03 61706900 		.ascii	"api\000"
 1853 0a07 01       		.byte	0x1
 1854 0a08 20       		.byte	0x20
 1855 0a09 A9000000 		.4byte	0xa9
 1856 0a0d 21000000 		.4byte	.LLST1
 1857 0a11 2D       		.uleb128 0x2d
 1858 0a12 4E080000 		.4byte	0x84e
 1859 0a16 00000000 		.4byte	.LBB78
 1860 0a1a 1A000000 		.4byte	.LBE78-.LBB78
 1861 0a1e 01       		.byte	0x1
 1862 0a1f 22       		.byte	0x22
 1863 0a20 400A0000 		.4byte	0xa40
 1864 0a24 2E       		.uleb128 0x2e
 1865 0a25 70080000 		.4byte	0x870
 1866 0a29 42000000 		.4byte	.LLST2
 1867 0a2d 2E       		.uleb128 0x2e
 1868 0a2e 65080000 		.4byte	0x865
 1869 0a32 5A000000 		.4byte	.LLST3
 1870 0a36 2E       		.uleb128 0x2e
 1871 0a37 5C080000 		.4byte	0x85c
 1872 0a3b 72000000 		.4byte	.LLST4
ARM GAS  C:\msys64\tmp\ccLgZ92a.s 			page 34


 1873 0a3f 00       		.byte	0
 1874 0a40 2D       		.uleb128 0x2d
 1875 0a41 36080000 		.4byte	0x836
 1876 0a45 1A000000 		.4byte	.LBB80
 1877 0a49 18000000 		.4byte	.LBE80-.LBB80
 1878 0a4d 01       		.byte	0x1
 1879 0a4e 23       		.byte	0x23
 1880 0a4f 920A0000 		.4byte	0xa92
 1881 0a53 2E       		.uleb128 0x2e
 1882 0a54 44080000 		.4byte	0x844
 1883 0a58 8A000000 		.4byte	.LLST5
 1884 0a5c 2F       		.uleb128 0x2f
 1885 0a5d 19070000 		.4byte	0x719
 1886 0a61 1A000000 		.4byte	.LBB81
 1887 0a65 18000000 		.4byte	.LBE81-.LBB81
 1888 0a69 02       		.byte	0x2
 1889 0a6a E6       		.byte	0xe6
 1890 0a6b 2E       		.uleb128 0x2e
 1891 0a6c 30070000 		.4byte	0x730
 1892 0a70 A2000000 		.4byte	.LLST6
 1893 0a74 2E       		.uleb128 0x2e
 1894 0a75 25070000 		.4byte	0x725
 1895 0a79 B8000000 		.4byte	.LLST7
 1896 0a7d 30       		.uleb128 0x30
 1897 0a7e 1A000000 		.4byte	.LBB82
 1898 0a82 18000000 		.4byte	.LBE82-.LBB82
 1899 0a86 31       		.uleb128 0x31
 1900 0a87 3B070000 		.4byte	0x73b
 1901 0a8b 0F010000 		.4byte	.LLST8
 1902 0a8f 00       		.byte	0
 1903 0a90 00       		.byte	0
 1904 0a91 00       		.byte	0
 1905 0a92 2D       		.uleb128 0x2d
 1906 0a93 1E080000 		.4byte	0x81e
 1907 0a97 32000000 		.4byte	.LBB83
 1908 0a9b 06000000 		.4byte	.LBE83-.LBB83
 1909 0a9f 01       		.byte	0x1
 1910 0aa0 24       		.byte	0x24
 1911 0aa1 AF0A0000 		.4byte	0xaaf
 1912 0aa5 2E       		.uleb128 0x2e
 1913 0aa6 2C080000 		.4byte	0x82c
 1914 0aaa 27010000 		.4byte	.LLST9
 1915 0aae 00       		.byte	0
 1916 0aaf 2F       		.uleb128 0x2f
 1917 0ab0 F1070000 		.4byte	0x7f1
 1918 0ab4 40000000 		.4byte	.LBB85
 1919 0ab8 28000000 		.4byte	.LBE85-.LBB85
 1920 0abc 01       		.byte	0x1
 1921 0abd 26       		.byte	0x26
 1922 0abe 2E       		.uleb128 0x2e
 1923 0abf 12080000 		.4byte	0x812
 1924 0ac3 3F010000 		.4byte	.LLST10
 1925 0ac7 2E       		.uleb128 0x2e
 1926 0ac8 08080000 		.4byte	0x808
 1927 0acc 57010000 		.4byte	.LLST11
 1928 0ad0 2E       		.uleb128 0x2e
 1929 0ad1 FF070000 		.4byte	0x7ff
ARM GAS  C:\msys64\tmp\ccLgZ92a.s 			page 35


 1930 0ad5 6E010000 		.4byte	.LLST12
 1931 0ad9 00       		.byte	0
 1932 0ada 00       		.byte	0
 1933 0adb 2A       		.uleb128 0x2a
 1934 0adc B0070000 		.4byte	.LASF126
 1935 0ae0 01       		.byte	0x1
 1936 0ae1 29       		.byte	0x29
 1937 0ae2 68000000 		.4byte	.LFB317
 1938 0ae6 3C020000 		.4byte	.LFE317-.LFB317
 1939 0aea 01       		.uleb128 0x1
 1940 0aeb 9C       		.byte	0x9c
 1941 0aec 4B0D0000 		.4byte	0xd4b
 1942 0af0 2C       		.uleb128 0x2c
 1943 0af1 786E00   		.ascii	"xn\000"
 1944 0af4 01       		.byte	0x1
 1945 0af5 29       		.byte	0x29
 1946 0af6 AD010000 		.4byte	0x1ad
 1947 0afa 86010000 		.4byte	.LLST13
 1948 0afe 2B       		.uleb128 0x2b
 1949 0aff 2E050000 		.4byte	.LASF127
 1950 0b03 01       		.byte	0x1
 1951 0b04 29       		.byte	0x29
 1952 0b05 A9000000 		.4byte	0xa9
 1953 0b09 A7010000 		.4byte	.LLST14
 1954 0b0d 32       		.uleb128 0x32
 1955 0b0e 7800     		.ascii	"x\000"
 1956 0b10 01       		.byte	0x1
 1957 0b11 2B       		.byte	0x2b
 1958 0b12 AD010000 		.4byte	0x1ad
 1959 0b16 C8010000 		.4byte	.LLST15
 1960 0b1a 32       		.uleb128 0x32
 1961 0b1b 785F6500 		.ascii	"x_e\000"
 1962 0b1f 01       		.byte	0x1
 1963 0b20 2C       		.byte	0x2c
 1964 0b21 51070000 		.4byte	0x751
 1965 0b25 FE010000 		.4byte	.LLST16
 1966 0b29 33       		.uleb128 0x33
 1967 0b2a 77657400 		.ascii	"wet\000"
 1968 0b2e 01       		.byte	0x1
 1969 0b2f 2E       		.byte	0x2e
 1970 0b30 57070000 		.4byte	0x757
 1971 0b34 02       		.uleb128 0x2
 1972 0b35 90       		.byte	0x90
 1973 0b36 48       		.uleb128 0x48
 1974 0b37 34       		.uleb128 0x34
 1975 0b38 69020000 		.4byte	.LASF128
 1976 0b3c 01       		.byte	0x1
 1977 0b3d 2F       		.byte	0x2f
 1978 0b3e 2B010000 		.4byte	0x12b
 1979 0b42 25020000 		.4byte	.LLST17
 1980 0b46 35       		.uleb128 0x35
 1981 0b47 00000000 		.4byte	.Ldebug_ranges0+0
 1982 0b4b 28       		.uleb128 0x28
 1983 0b4c F3020000 		.4byte	.LASF129
 1984 0b50 01       		.byte	0x1
 1985 0b51 33       		.byte	0x33
 1986 0b52 57070000 		.4byte	0x757
ARM GAS  C:\msys64\tmp\ccLgZ92a.s 			page 36


 1987 0b56 28       		.uleb128 0x28
 1988 0b57 99030000 		.4byte	.LASF130
 1989 0b5b 01       		.byte	0x1
 1990 0b5c 35       		.byte	0x35
 1991 0b5d 57070000 		.4byte	0x757
 1992 0b61 34       		.uleb128 0x34
 1993 0b62 0F040000 		.4byte	.LASF131
 1994 0b66 01       		.byte	0x1
 1995 0b67 36       		.byte	0x36
 1996 0b68 57070000 		.4byte	0x757
 1997 0b6c 6D020000 		.4byte	.LLST18
 1998 0b70 36       		.uleb128 0x36
 1999 0b71 9A090000 		.4byte	0x99a
 2000 0b75 6E000000 		.4byte	.LBB89
 2001 0b79 30000000 		.4byte	.Ldebug_ranges0+0x30
 2002 0b7d 01       		.byte	0x1
 2003 0b7e 33       		.byte	0x33
 2004 0b7f C00B0000 		.4byte	0xbc0
 2005 0b83 2E       		.uleb128 0x2e
 2006 0b84 A8090000 		.4byte	0x9a8
 2007 0b88 81020000 		.4byte	.LLST19
 2008 0b8c 35       		.uleb128 0x35
 2009 0b8d 30000000 		.4byte	.Ldebug_ranges0+0x30
 2010 0b91 31       		.uleb128 0x31
 2011 0b92 B1090000 		.4byte	0x9b1
 2012 0b96 99020000 		.4byte	.LLST20
 2013 0b9a 2F       		.uleb128 0x2f
 2014 0b9b B8060000 		.4byte	0x6b8
 2015 0b9f D0000000 		.4byte	.LBB91
 2016 0ba3 0C000000 		.4byte	.LBE91-.LBB91
 2017 0ba7 04       		.byte	0x4
 2018 0ba8 7E       		.byte	0x7e
 2019 0ba9 37       		.uleb128 0x37
 2020 0baa C9060000 		.4byte	0x6c9
 2021 0bae 30       		.uleb128 0x30
 2022 0baf D0000000 		.4byte	.LBB92
 2023 0bb3 0C000000 		.4byte	.LBE92-.LBB92
 2024 0bb7 38       		.uleb128 0x38
 2025 0bb8 D3060000 		.4byte	0x6d3
 2026 0bbc 00       		.byte	0
 2027 0bbd 00       		.byte	0
 2028 0bbe 00       		.byte	0
 2029 0bbf 00       		.byte	0
 2030 0bc0 36       		.uleb128 0x36
 2031 0bc1 48090000 		.4byte	0x948
 2032 0bc5 7E000000 		.4byte	.LBB96
 2033 0bc9 58000000 		.4byte	.Ldebug_ranges0+0x58
 2034 0bcd 01       		.byte	0x1
 2035 0bce 35       		.byte	0x35
 2036 0bcf 4A0C0000 		.4byte	0xc4a
 2037 0bd3 2E       		.uleb128 0x2e
 2038 0bd4 5F090000 		.4byte	0x95f
 2039 0bd8 AD020000 		.4byte	.LLST21
 2040 0bdc 2E       		.uleb128 0x2e
 2041 0bdd 56090000 		.4byte	0x956
 2042 0be1 C1020000 		.4byte	.LLST22
 2043 0be5 35       		.uleb128 0x35
ARM GAS  C:\msys64\tmp\ccLgZ92a.s 			page 37


 2044 0be6 58000000 		.4byte	.Ldebug_ranges0+0x58
 2045 0bea 31       		.uleb128 0x31
 2046 0beb 6B090000 		.4byte	0x96b
 2047 0bef D9020000 		.4byte	.LLST23
 2048 0bf3 31       		.uleb128 0x31
 2049 0bf4 77090000 		.4byte	0x977
 2050 0bf8 EC020000 		.4byte	.LLST24
 2051 0bfc 38       		.uleb128 0x38
 2052 0bfd 83090000 		.4byte	0x983
 2053 0c01 38       		.uleb128 0x38
 2054 0c02 8E090000 		.4byte	0x98e
 2055 0c06 39       		.uleb128 0x39
 2056 0c07 A9070000 		.4byte	0x7a9
 2057 0c0b 7E000000 		.4byte	.LBB98
 2058 0c0f 88000000 		.4byte	.Ldebug_ranges0+0x88
 2059 0c13 02       		.byte	0x2
 2060 0c14 4D01     		.2byte	0x14d
 2061 0c16 2D0C0000 		.4byte	0xc2d
 2062 0c1a 2E       		.uleb128 0x2e
 2063 0c1b C0070000 		.4byte	0x7c0
 2064 0c1f D9020000 		.4byte	.LLST23
 2065 0c23 2E       		.uleb128 0x2e
 2066 0c24 B7070000 		.4byte	0x7b7
 2067 0c28 09030000 		.4byte	.LLST26
 2068 0c2c 00       		.byte	0
 2069 0c2d 3A       		.uleb128 0x3a
 2070 0c2e A9070000 		.4byte	0x7a9
 2071 0c32 54010000 		.4byte	.LBB102
 2072 0c36 70000000 		.4byte	.Ldebug_ranges0+0x70
 2073 0c3a 02       		.byte	0x2
 2074 0c3b 4E01     		.2byte	0x14e
 2075 0c3d 37       		.uleb128 0x37
 2076 0c3e C0070000 		.4byte	0x7c0
 2077 0c42 37       		.uleb128 0x37
 2078 0c43 B7070000 		.4byte	0x7b7
 2079 0c47 00       		.byte	0
 2080 0c48 00       		.byte	0
 2081 0c49 00       		.byte	0
 2082 0c4a 36       		.uleb128 0x36
 2083 0c4b D9080000 		.4byte	0x8d9
 2084 0c4f 82000000 		.4byte	.LBB110
 2085 0c53 A0000000 		.4byte	.Ldebug_ranges0+0xa0
 2086 0c57 01       		.byte	0x1
 2087 0c58 38       		.byte	0x38
 2088 0c59 630C0000 		.4byte	0xc63
 2089 0c5d 37       		.uleb128 0x37
 2090 0c5e E7080000 		.4byte	0x8e7
 2091 0c62 00       		.byte	0
 2092 0c63 36       		.uleb128 0x36
 2093 0c64 F1080000 		.4byte	0x8f1
 2094 0c68 00010000 		.4byte	.LBB118
 2095 0c6c B8000000 		.4byte	.Ldebug_ranges0+0xb8
 2096 0c70 01       		.byte	0x1
 2097 0c71 36       		.byte	0x36
 2098 0c72 ED0C0000 		.4byte	0xced
 2099 0c76 2E       		.uleb128 0x2e
 2100 0c77 08090000 		.4byte	0x908
ARM GAS  C:\msys64\tmp\ccLgZ92a.s 			page 38


 2101 0c7b 21030000 		.4byte	.LLST27
 2102 0c7f 2E       		.uleb128 0x2e
 2103 0c80 FF080000 		.4byte	0x8ff
 2104 0c84 35030000 		.4byte	.LLST28
 2105 0c88 35       		.uleb128 0x35
 2106 0c89 B8000000 		.4byte	.Ldebug_ranges0+0xb8
 2107 0c8d 31       		.uleb128 0x31
 2108 0c8e 14090000 		.4byte	0x914
 2109 0c92 4D030000 		.4byte	.LLST29
 2110 0c96 31       		.uleb128 0x31
 2111 0c97 20090000 		.4byte	0x920
 2112 0c9b 78030000 		.4byte	.LLST30
 2113 0c9f 38       		.uleb128 0x38
 2114 0ca0 2C090000 		.4byte	0x92c
 2115 0ca4 38       		.uleb128 0x38
 2116 0ca5 37090000 		.4byte	0x937
 2117 0ca9 39       		.uleb128 0x39
 2118 0caa CD070000 		.4byte	0x7cd
 2119 0cae 18010000 		.4byte	.LBB120
 2120 0cb2 E0000000 		.4byte	.Ldebug_ranges0+0xe0
 2121 0cb6 02       		.byte	0x2
 2122 0cb7 6B01     		.2byte	0x16b
 2123 0cb9 D00C0000 		.4byte	0xcd0
 2124 0cbd 2E       		.uleb128 0x2e
 2125 0cbe E4070000 		.4byte	0x7e4
 2126 0cc2 4D030000 		.4byte	.LLST29
 2127 0cc6 2E       		.uleb128 0x2e
 2128 0cc7 DB070000 		.4byte	0x7db
 2129 0ccb C1030000 		.4byte	.LLST32
 2130 0ccf 00       		.byte	0
 2131 0cd0 3A       		.uleb128 0x3a
 2132 0cd1 CD070000 		.4byte	0x7cd
 2133 0cd5 20010000 		.4byte	.LBB124
 2134 0cd9 00010000 		.4byte	.Ldebug_ranges0+0x100
 2135 0cdd 02       		.byte	0x2
 2136 0cde 6C01     		.2byte	0x16c
 2137 0ce0 37       		.uleb128 0x37
 2138 0ce1 E4070000 		.4byte	0x7e4
 2139 0ce5 37       		.uleb128 0x37
 2140 0ce6 DB070000 		.4byte	0x7db
 2141 0cea 00       		.byte	0
 2142 0ceb 00       		.byte	0
 2143 0cec 00       		.byte	0
 2144 0ced 36       		.uleb128 0x36
 2145 0cee 98080000 		.4byte	0x898
 2146 0cf2 46010000 		.4byte	.LBB137
 2147 0cf6 18010000 		.4byte	.Ldebug_ranges0+0x118
 2148 0cfa 01       		.byte	0x1
 2149 0cfb 41       		.byte	0x41
 2150 0cfc 0A0D0000 		.4byte	0xd0a
 2151 0d00 2E       		.uleb128 0x2e
 2152 0d01 A8080000 		.4byte	0x8a8
 2153 0d05 D9030000 		.4byte	.LLST33
 2154 0d09 00       		.byte	0
 2155 0d0a 36       		.uleb128 0x36
 2156 0d0b B3080000 		.4byte	0x8b3
 2157 0d0f 76010000 		.4byte	.LBB146
ARM GAS  C:\msys64\tmp\ccLgZ92a.s 			page 39


 2158 0d13 50010000 		.4byte	.Ldebug_ranges0+0x150
 2159 0d17 01       		.byte	0x1
 2160 0d18 3F       		.byte	0x3f
 2161 0d19 300D0000 		.4byte	0xd30
 2162 0d1d 2E       		.uleb128 0x2e
 2163 0d1e CA080000 		.4byte	0x8ca
 2164 0d22 ED030000 		.4byte	.LLST34
 2165 0d26 2E       		.uleb128 0x2e
 2166 0d27 C1080000 		.4byte	0x8c1
 2167 0d2b 05040000 		.4byte	.LLST35
 2168 0d2f 00       		.byte	0
 2169 0d30 3B       		.uleb128 0x3b
 2170 0d31 98080000 		.4byte	0x898
 2171 0d35 0C020000 		.4byte	.LBB159
 2172 0d39 78010000 		.4byte	.Ldebug_ranges0+0x178
 2173 0d3d 01       		.byte	0x1
 2174 0d3e 42       		.byte	0x42
 2175 0d3f 2E       		.uleb128 0x2e
 2176 0d40 A8080000 		.4byte	0x8a8
 2177 0d44 1D040000 		.4byte	.LLST36
 2178 0d48 00       		.byte	0
 2179 0d49 00       		.byte	0
 2180 0d4a 00       		.byte	0
 2181 0d4b 2A       		.uleb128 0x2a
 2182 0d4c 28000000 		.4byte	.LASF132
 2183 0d50 01       		.byte	0x1
 2184 0d51 46       		.byte	0x46
 2185 0d52 A4020000 		.4byte	.LFB318
 2186 0d56 50000000 		.4byte	.LFE318-.LFB318
 2187 0d5a 01       		.uleb128 0x1
 2188 0d5b 9C       		.byte	0x9c
 2189 0d5c B50D0000 		.4byte	0xdb5
 2190 0d60 3C       		.uleb128 0x3c
 2191 0d61 9E020000 		.4byte	.LASF133
 2192 0d65 01       		.byte	0x1
 2193 0d66 46       		.byte	0x46
 2194 0d67 93000000 		.4byte	0x93
 2195 0d6b 01       		.uleb128 0x1
 2196 0d6c 50       		.byte	0x50
 2197 0d6d 3C       		.uleb128 0x3c
 2198 0d6e DA0B0000 		.4byte	.LASF134
 2199 0d72 01       		.byte	0x1
 2200 0d73 46       		.byte	0x46
 2201 0d74 9E000000 		.4byte	0x9e
 2202 0d78 01       		.uleb128 0x1
 2203 0d79 51       		.byte	0x51
 2204 0d7a 34       		.uleb128 0x34
 2205 0d7b E9010000 		.4byte	.LASF135
 2206 0d7f 01       		.byte	0x1
 2207 0d80 48       		.byte	0x48
 2208 0d81 57070000 		.4byte	0x757
 2209 0d85 31040000 		.4byte	.LLST37
 2210 0d89 3B       		.uleb128 0x3b
 2211 0d8a F1070000 		.4byte	0x7f1
 2212 0d8e C6020000 		.4byte	.LBB169
 2213 0d92 90010000 		.4byte	.Ldebug_ranges0+0x190
 2214 0d96 01       		.byte	0x1
ARM GAS  C:\msys64\tmp\ccLgZ92a.s 			page 40


 2215 0d97 50       		.byte	0x50
 2216 0d98 2E       		.uleb128 0x2e
 2217 0d99 12080000 		.4byte	0x812
 2218 0d9d 6A040000 		.4byte	.LLST38
 2219 0da1 2E       		.uleb128 0x2e
 2220 0da2 08080000 		.4byte	0x808
 2221 0da6 82040000 		.4byte	.LLST39
 2222 0daa 2E       		.uleb128 0x2e
 2223 0dab FF070000 		.4byte	0x7ff
 2224 0daf A5040000 		.4byte	.LLST40
 2225 0db3 00       		.byte	0
 2226 0db4 00       		.byte	0
 2227 0db5 3D       		.uleb128 0x3d
 2228 0db6 A6010000 		.4byte	.LASF170
 2229 0dba 00000000 		.4byte	.LFB320
 2230 0dbe 1C000000 		.4byte	.LFE320-.LFB320
 2231 0dc2 01       		.uleb128 0x1
 2232 0dc3 9C       		.byte	0x9c
 2233 0dc4 240E0000 		.4byte	0xe24
 2234 0dc8 2F       		.uleb128 0x2f
 2235 0dc9 BD090000 		.4byte	0x9bd
 2236 0dcd 00000000 		.4byte	.LBB179
 2237 0dd1 1C000000 		.4byte	.LBE179-.LBB179
 2238 0dd5 01       		.byte	0x1
 2239 0dd6 58       		.byte	0x58
 2240 0dd7 2E       		.uleb128 0x2e
 2241 0dd8 C7090000 		.4byte	0x9c7
 2242 0ddc BD040000 		.4byte	.LLST41
 2243 0de0 2E       		.uleb128 0x2e
 2244 0de1 D2090000 		.4byte	0x9d2
 2245 0de5 D1040000 		.4byte	.LLST42
 2246 0de9 36       		.uleb128 0x36
 2247 0dea FC060000 		.4byte	0x6fc
 2248 0dee 00000000 		.4byte	.LBB180
 2249 0df2 A8010000 		.4byte	.Ldebug_ranges0+0x1a8
 2250 0df6 01       		.byte	0x1
 2251 0df7 0D       		.byte	0xd
 2252 0df8 060E0000 		.4byte	0xe06
 2253 0dfc 2E       		.uleb128 0x2e
 2254 0dfd 0A070000 		.4byte	0x70a
 2255 0e01 E7040000 		.4byte	.LLST43
 2256 0e05 00       		.byte	0
 2257 0e06 3B       		.uleb128 0x3b
 2258 0e07 DF060000 		.4byte	0x6df
 2259 0e0b 04000000 		.4byte	.LBB183
 2260 0e0f C0010000 		.4byte	.Ldebug_ranges0+0x1c0
 2261 0e13 01       		.byte	0x1
 2262 0e14 10       		.byte	0x10
 2263 0e15 3E       		.uleb128 0x3e
 2264 0e16 ED060000 		.4byte	0x6ed
 2265 0e1a 06       		.uleb128 0x6
 2266 0e1b 03       		.byte	0x3
 2267 0e1c 18000000 		.4byte	_ZL5s_lfo
 2268 0e20 9F       		.byte	0x9f
 2269 0e21 00       		.byte	0
 2270 0e22 00       		.byte	0
 2271 0e23 00       		.byte	0
ARM GAS  C:\msys64\tmp\ccLgZ92a.s 			page 41


 2272 0e24 3F       		.uleb128 0x3f
 2273 0e25 E2040000 		.4byte	.LASF136
 2274 0e29 0C       		.byte	0xc
 2275 0e2a 46       		.byte	0x46
 2276 0e2b 4C070000 		.4byte	0x74c
 2277 0e2f 3F       		.uleb128 0x3f
 2278 0e30 0A020000 		.4byte	.LASF137
 2279 0e34 0C       		.byte	0xc
 2280 0e35 4B       		.byte	0x4b
 2281 0e36 4C070000 		.4byte	0x74c
 2282 0e3a 40       		.uleb128 0x40
 2283 0e3b 57070000 		.4byte	0x757
 2284 0e3f 4A0E0000 		.4byte	0xe4a
 2285 0e43 41       		.uleb128 0x41
 2286 0e44 CB000000 		.4byte	0xcb
 2287 0e48 80       		.byte	0x80
 2288 0e49 00       		.byte	0
 2289 0e4a 3F       		.uleb128 0x3f
 2290 0e4b 6A090000 		.4byte	.LASF138
 2291 0e4f 0D       		.byte	0xd
 2292 0e50 94       		.byte	0x94
 2293 0e51 550E0000 		.4byte	0xe55
 2294 0e55 1B       		.uleb128 0x1b
 2295 0e56 3A0E0000 		.4byte	0xe3a
 2296 0e5a 40       		.uleb128 0x40
 2297 0e5b 57070000 		.4byte	0x757
 2298 0e5f 6B0E0000 		.4byte	0xe6b
 2299 0e63 42       		.uleb128 0x42
 2300 0e64 CB000000 		.4byte	0xcb
 2301 0e68 0001     		.2byte	0x100
 2302 0e6a 00       		.byte	0
 2303 0e6b 43       		.uleb128 0x43
 2304 0e6c A1050000 		.4byte	.LASF139
 2305 0e70 0D       		.byte	0xd
 2306 0e71 4D02     		.2byte	0x24d
 2307 0e73 770E0000 		.4byte	0xe77
 2308 0e77 1B       		.uleb128 0x1b
 2309 0e78 5A0E0000 		.4byte	0xe5a
 2310 0e7c 43       		.uleb128 0x43
 2311 0e7d F7010000 		.4byte	.LASF140
 2312 0e81 0D       		.byte	0xd
 2313 0e82 6402     		.2byte	0x264
 2314 0e84 880E0000 		.4byte	0xe88
 2315 0e88 1B       		.uleb128 0x1b
 2316 0e89 5A0E0000 		.4byte	0xe5a
 2317 0e8d 43       		.uleb128 0x43
 2318 0e8e F9070000 		.4byte	.LASF141
 2319 0e92 0D       		.byte	0xd
 2320 0e93 7C02     		.2byte	0x27c
 2321 0e95 990E0000 		.4byte	0xe99
 2322 0e99 1B       		.uleb128 0x1b
 2323 0e9a 5A0E0000 		.4byte	0xe5a
 2324 0e9e 43       		.uleb128 0x43
 2325 0e9f C7040000 		.4byte	.LASF142
 2326 0ea3 0C       		.byte	0xc
 2327 0ea4 0F01     		.2byte	0x10f
 2328 0ea6 AA0E0000 		.4byte	0xeaa
ARM GAS  C:\msys64\tmp\ccLgZ92a.s 			page 42


 2329 0eaa 1B       		.uleb128 0x1b
 2330 0eab 5A0E0000 		.4byte	0xe5a
 2331 0eaf 43       		.uleb128 0x43
 2332 0eb0 09080000 		.4byte	.LASF143
 2333 0eb4 0D       		.byte	0xd
 2334 0eb5 AB02     		.2byte	0x2ab
 2335 0eb7 BB0E0000 		.4byte	0xebb
 2336 0ebb 1B       		.uleb128 0x1b
 2337 0ebc 3A0E0000 		.4byte	0xe3a
 2338 0ec0 43       		.uleb128 0x43
 2339 0ec1 35050000 		.4byte	.LASF144
 2340 0ec5 0D       		.byte	0xd
 2341 0ec6 C002     		.2byte	0x2c0
 2342 0ec8 CC0E0000 		.4byte	0xecc
 2343 0ecc 1B       		.uleb128 0x1b
 2344 0ecd 3A0E0000 		.4byte	0xe3a
 2345 0ed1 43       		.uleb128 0x43
 2346 0ed2 4C050000 		.4byte	.LASF145
 2347 0ed6 0D       		.byte	0xd
 2348 0ed7 DD02     		.2byte	0x2dd
 2349 0ed9 DD0E0000 		.4byte	0xedd
 2350 0edd 1B       		.uleb128 0x1b
 2351 0ede 3A0E0000 		.4byte	0xe3a
 2352 0ee2 3F       		.uleb128 0x3f
 2353 0ee3 0C0C0000 		.4byte	.LASF146
 2354 0ee7 0D       		.byte	0xd
 2355 0ee8 45       		.byte	0x45
 2356 0ee9 4C070000 		.4byte	0x74c
 2357 0eed 3F       		.uleb128 0x3f
 2358 0eee CE010000 		.4byte	.LASF147
 2359 0ef2 0D       		.byte	0xd
 2360 0ef3 4A       		.byte	0x4a
 2361 0ef4 4C070000 		.4byte	0x74c
 2362 0ef8 40       		.uleb128 0x40
 2363 0ef9 57070000 		.4byte	0x757
 2364 0efd 080F0000 		.4byte	0xf08
 2365 0f01 41       		.uleb128 0x41
 2366 0f02 CB000000 		.4byte	0xcb
 2367 0f06 97       		.byte	0x97
 2368 0f07 00       		.byte	0
 2369 0f08 3F       		.uleb128 0x3f
 2370 0f09 74020000 		.4byte	.LASF148
 2371 0f0d 0D       		.byte	0xd
 2372 0f0e 67       		.byte	0x67
 2373 0f0f 130F0000 		.4byte	0xf13
 2374 0f13 1B       		.uleb128 0x1b
 2375 0f14 F80E0000 		.4byte	0xef8
 2376 0f18 40       		.uleb128 0x40
 2377 0f19 57070000 		.4byte	0x757
 2378 0f1d 290F0000 		.4byte	0xf29
 2379 0f21 42       		.uleb128 0x42
 2380 0f22 CB000000 		.4byte	0xcb
 2381 0f26 8603     		.2byte	0x386
 2382 0f28 00       		.byte	0
 2383 0f29 3F       		.uleb128 0x3f
 2384 0f2a 27070000 		.4byte	.LASF149
 2385 0f2e 0D       		.byte	0xd
ARM GAS  C:\msys64\tmp\ccLgZ92a.s 			page 43


 2386 0f2f C6       		.byte	0xc6
 2387 0f30 340F0000 		.4byte	0xf34
 2388 0f34 1B       		.uleb128 0x1b
 2389 0f35 180F0000 		.4byte	0xf18
 2390 0f39 43       		.uleb128 0x43
 2391 0f3a 18080000 		.4byte	.LASF150
 2392 0f3e 0D       		.byte	0xd
 2393 0f3f 3801     		.2byte	0x138
 2394 0f41 450F0000 		.4byte	0xf45
 2395 0f45 1B       		.uleb128 0x1b
 2396 0f46 180F0000 		.4byte	0xf18
 2397 0f4a 43       		.uleb128 0x43
 2398 0f4b 34000000 		.4byte	.LASF151
 2399 0f4f 0D       		.byte	0xd
 2400 0f50 AB01     		.2byte	0x1ab
 2401 0f52 560F0000 		.4byte	0xf56
 2402 0f56 1B       		.uleb128 0x1b
 2403 0f57 180F0000 		.4byte	0xf18
 2404 0f5b 44       		.uleb128 0x44
 2405 0f5c 460A0000 		.4byte	.LASF152
 2406 0f60 01       		.byte	0x1
 2407 0f61 0D       		.byte	0xd
 2408 0f62 6C040000 		.4byte	0x46c
 2409 0f66 05       		.uleb128 0x5
 2410 0f67 03       		.byte	0x3
 2411 0f68 00000000 		.4byte	_ZL7s_delay
 2412 0f6c 40       		.uleb128 0x40
 2413 0f6d 2B010000 		.4byte	0x12b
 2414 0f71 7F0F0000 		.4byte	0xf7f
 2415 0f75 45       		.uleb128 0x45
 2416 0f76 CB000000 		.4byte	0xcb
 2417 0f7a FFED0200 		.4byte	0x2edff
 2418 0f7e 00       		.byte	0
 2419 0f7f 44       		.uleb128 0x44
 2420 0f80 6C000000 		.4byte	.LASF153
 2421 0f84 01       		.byte	0x1
 2422 0f85 0E       		.byte	0xe
 2423 0f86 6C0F0000 		.4byte	0xf6c
 2424 0f8a 05       		.uleb128 0x5
 2425 0f8b 03       		.byte	0x3
 2426 0f8c 00000000 		.4byte	_ZL11s_delay_ram
 2427 0f90 44       		.uleb128 0x44
 2428 0f91 6E020000 		.4byte	.LASF154
 2429 0f95 01       		.byte	0x1
 2430 0f96 10       		.byte	0x10
 2431 0f97 BE010000 		.4byte	0x1be
 2432 0f9b 05       		.uleb128 0x5
 2433 0f9c 03       		.byte	0x3
 2434 0f9d 18000000 		.4byte	_ZL5s_lfo
 2435 0fa1 46       		.uleb128 0x46
 2436 0fa2 D1090000 		.4byte	.LASF155
 2437 0fa6 01       		.byte	0x1
 2438 0fa7 11       		.byte	0x11
 2439 0fa8 25000000 		.4byte	0x25
 2440 0fac 05       		.uleb128 0x5
 2441 0fad 03       		.byte	0x3
 2442 0fae 00000000 		.4byte	lfo_speed
ARM GAS  C:\msys64\tmp\ccLgZ92a.s 			page 44


 2443 0fb2 46       		.uleb128 0x46
 2444 0fb3 95090000 		.4byte	.LASF156
 2445 0fb7 01       		.byte	0x1
 2446 0fb8 13       		.byte	0x13
 2447 0fb9 25000000 		.4byte	0x25
 2448 0fbd 05       		.uleb128 0x5
 2449 0fbe 03       		.byte	0x3
 2450 0fbf 00000000 		.4byte	s_mix
 2451 0fc3 46       		.uleb128 0x46
 2452 0fc4 59050000 		.4byte	.LASF157
 2453 0fc8 01       		.byte	0x1
 2454 0fc9 14       		.byte	0x14
 2455 0fca 25000000 		.4byte	0x25
 2456 0fce 05       		.uleb128 0x5
 2457 0fcf 03       		.byte	0x3
 2458 0fd0 00000000 		.4byte	gain
 2459 0fd4 46       		.uleb128 0x46
 2460 0fd5 35060000 		.4byte	.LASF158
 2461 0fd9 01       		.byte	0x1
 2462 0fda 15       		.byte	0x15
 2463 0fdb 25000000 		.4byte	0x25
 2464 0fdf 05       		.uleb128 0x5
 2465 0fe0 03       		.byte	0x3
 2466 0fe1 00000000 		.4byte	wetXNL
 2467 0fe5 46       		.uleb128 0x46
 2468 0fe6 62060000 		.4byte	.LASF159
 2469 0fea 01       		.byte	0x1
 2470 0feb 15       		.byte	0x15
 2471 0fec 25000000 		.4byte	0x25
 2472 0ff0 05       		.uleb128 0x5
 2473 0ff1 03       		.byte	0x3
 2474 0ff2 00000000 		.4byte	wetXNR
 2475 0ff6 46       		.uleb128 0x46
 2476 0ff7 990A0000 		.4byte	.LASF160
 2477 0ffb 01       		.byte	0x1
 2478 0ffc 16       		.byte	0x16
 2479 0ffd 25000000 		.4byte	0x25
 2480 1001 05       		.uleb128 0x5
 2481 1002 03       		.byte	0x3
 2482 1003 00000000 		.4byte	bpm_valf
 2483 1007 00       		.byte	0
 2484              		.section	.debug_abbrev,"",%progbits
 2485              	.Ldebug_abbrev0:
 2486 0000 01       		.uleb128 0x1
 2487 0001 11       		.uleb128 0x11
 2488 0002 01       		.byte	0x1
 2489 0003 25       		.uleb128 0x25
 2490 0004 0E       		.uleb128 0xe
 2491 0005 13       		.uleb128 0x13
 2492 0006 0B       		.uleb128 0xb
 2493 0007 03       		.uleb128 0x3
 2494 0008 0E       		.uleb128 0xe
 2495 0009 1B       		.uleb128 0x1b
 2496 000a 0E       		.uleb128 0xe
 2497 000b 55       		.uleb128 0x55
 2498 000c 17       		.uleb128 0x17
 2499 000d 11       		.uleb128 0x11
ARM GAS  C:\msys64\tmp\ccLgZ92a.s 			page 45


 2500 000e 01       		.uleb128 0x1
 2501 000f 10       		.uleb128 0x10
 2502 0010 17       		.uleb128 0x17
 2503 0011 00       		.byte	0
 2504 0012 00       		.byte	0
 2505 0013 02       		.uleb128 0x2
 2506 0014 24       		.uleb128 0x24
 2507 0015 00       		.byte	0
 2508 0016 0B       		.uleb128 0xb
 2509 0017 0B       		.uleb128 0xb
 2510 0018 3E       		.uleb128 0x3e
 2511 0019 0B       		.uleb128 0xb
 2512 001a 03       		.uleb128 0x3
 2513 001b 0E       		.uleb128 0xe
 2514 001c 00       		.byte	0
 2515 001d 00       		.byte	0
 2516 001e 03       		.uleb128 0x3
 2517 001f 24       		.uleb128 0x24
 2518 0020 00       		.byte	0
 2519 0021 0B       		.uleb128 0xb
 2520 0022 0B       		.uleb128 0xb
 2521 0023 3E       		.uleb128 0x3e
 2522 0024 0B       		.uleb128 0xb
 2523 0025 03       		.uleb128 0x3
 2524 0026 08       		.uleb128 0x8
 2525 0027 00       		.byte	0
 2526 0028 00       		.byte	0
 2527 0029 04       		.uleb128 0x4
 2528 002a 16       		.uleb128 0x16
 2529 002b 00       		.byte	0
 2530 002c 03       		.uleb128 0x3
 2531 002d 0E       		.uleb128 0xe
 2532 002e 3A       		.uleb128 0x3a
 2533 002f 0B       		.uleb128 0xb
 2534 0030 3B       		.uleb128 0x3b
 2535 0031 0B       		.uleb128 0xb
 2536 0032 49       		.uleb128 0x49
 2537 0033 13       		.uleb128 0x13
 2538 0034 00       		.byte	0
 2539 0035 00       		.byte	0
 2540 0036 05       		.uleb128 0x5
 2541 0037 3B       		.uleb128 0x3b
 2542 0038 00       		.byte	0
 2543 0039 03       		.uleb128 0x3
 2544 003a 0E       		.uleb128 0xe
 2545 003b 00       		.byte	0
 2546 003c 00       		.byte	0
 2547 003d 06       		.uleb128 0x6
 2548 003e 17       		.uleb128 0x17
 2549 003f 01       		.byte	0x1
 2550 0040 0B       		.uleb128 0xb
 2551 0041 0B       		.uleb128 0xb
 2552 0042 3A       		.uleb128 0x3a
 2553 0043 0B       		.uleb128 0xb
 2554 0044 3B       		.uleb128 0x3b
 2555 0045 0B       		.uleb128 0xb
 2556 0046 6E       		.uleb128 0x6e
ARM GAS  C:\msys64\tmp\ccLgZ92a.s 			page 46


 2557 0047 0E       		.uleb128 0xe
 2558 0048 01       		.uleb128 0x1
 2559 0049 13       		.uleb128 0x13
 2560 004a 00       		.byte	0
 2561 004b 00       		.byte	0
 2562 004c 07       		.uleb128 0x7
 2563 004d 0D       		.uleb128 0xd
 2564 004e 00       		.byte	0
 2565 004f 03       		.uleb128 0x3
 2566 0050 08       		.uleb128 0x8
 2567 0051 3A       		.uleb128 0x3a
 2568 0052 0B       		.uleb128 0xb
 2569 0053 3B       		.uleb128 0x3b
 2570 0054 0B       		.uleb128 0xb
 2571 0055 49       		.uleb128 0x49
 2572 0056 13       		.uleb128 0x13
 2573 0057 00       		.byte	0
 2574 0058 00       		.byte	0
 2575 0059 08       		.uleb128 0x8
 2576 005a 13       		.uleb128 0x13
 2577 005b 01       		.byte	0x1
 2578 005c 0B       		.uleb128 0xb
 2579 005d 0B       		.uleb128 0xb
 2580 005e 3A       		.uleb128 0x3a
 2581 005f 0B       		.uleb128 0xb
 2582 0060 3B       		.uleb128 0x3b
 2583 0061 0B       		.uleb128 0xb
 2584 0062 6E       		.uleb128 0x6e
 2585 0063 0E       		.uleb128 0xe
 2586 0064 01       		.uleb128 0x1
 2587 0065 13       		.uleb128 0x13
 2588 0066 00       		.byte	0
 2589 0067 00       		.byte	0
 2590 0068 09       		.uleb128 0x9
 2591 0069 0D       		.uleb128 0xd
 2592 006a 00       		.byte	0
 2593 006b 03       		.uleb128 0x3
 2594 006c 08       		.uleb128 0x8
 2595 006d 3A       		.uleb128 0x3a
 2596 006e 0B       		.uleb128 0xb
 2597 006f 3B       		.uleb128 0x3b
 2598 0070 0B       		.uleb128 0xb
 2599 0071 49       		.uleb128 0x49
 2600 0072 13       		.uleb128 0x13
 2601 0073 38       		.uleb128 0x38
 2602 0074 0B       		.uleb128 0xb
 2603 0075 00       		.byte	0
 2604 0076 00       		.byte	0
 2605 0077 0A       		.uleb128 0xa
 2606 0078 16       		.uleb128 0x16
 2607 0079 00       		.byte	0
 2608 007a 03       		.uleb128 0x3
 2609 007b 0E       		.uleb128 0xe
 2610 007c 3A       		.uleb128 0x3a
 2611 007d 0B       		.uleb128 0xb
 2612 007e 3B       		.uleb128 0x3b
 2613 007f 05       		.uleb128 0x5
ARM GAS  C:\msys64\tmp\ccLgZ92a.s 			page 47


 2614 0080 49       		.uleb128 0x49
 2615 0081 13       		.uleb128 0x13
 2616 0082 00       		.byte	0
 2617 0083 00       		.byte	0
 2618 0084 0B       		.uleb128 0xb
 2619 0085 04       		.uleb128 0x4
 2620 0086 01       		.byte	0x1
 2621 0087 0B       		.uleb128 0xb
 2622 0088 0B       		.uleb128 0xb
 2623 0089 49       		.uleb128 0x49
 2624 008a 13       		.uleb128 0x13
 2625 008b 3A       		.uleb128 0x3a
 2626 008c 0B       		.uleb128 0xb
 2627 008d 3B       		.uleb128 0x3b
 2628 008e 0B       		.uleb128 0xb
 2629 008f 01       		.uleb128 0x1
 2630 0090 13       		.uleb128 0x13
 2631 0091 00       		.byte	0
 2632 0092 00       		.byte	0
 2633 0093 0C       		.uleb128 0xc
 2634 0094 28       		.uleb128 0x28
 2635 0095 00       		.byte	0
 2636 0096 03       		.uleb128 0x3
 2637 0097 0E       		.uleb128 0xe
 2638 0098 1C       		.uleb128 0x1c
 2639 0099 0B       		.uleb128 0xb
 2640 009a 00       		.byte	0
 2641 009b 00       		.byte	0
 2642 009c 0D       		.uleb128 0xd
 2643 009d 04       		.uleb128 0x4
 2644 009e 01       		.byte	0x1
 2645 009f 0B       		.uleb128 0xb
 2646 00a0 0B       		.uleb128 0xb
 2647 00a1 49       		.uleb128 0x49
 2648 00a2 13       		.uleb128 0x13
 2649 00a3 3A       		.uleb128 0x3a
 2650 00a4 0B       		.uleb128 0xb
 2651 00a5 3B       		.uleb128 0x3b
 2652 00a6 0B       		.uleb128 0xb
 2653 00a7 6E       		.uleb128 0x6e
 2654 00a8 0E       		.uleb128 0xe
 2655 00a9 01       		.uleb128 0x1
 2656 00aa 13       		.uleb128 0x13
 2657 00ab 00       		.byte	0
 2658 00ac 00       		.byte	0
 2659 00ad 0E       		.uleb128 0xe
 2660 00ae 0F       		.uleb128 0xf
 2661 00af 00       		.byte	0
 2662 00b0 0B       		.uleb128 0xb
 2663 00b1 0B       		.uleb128 0xb
 2664 00b2 49       		.uleb128 0x49
 2665 00b3 13       		.uleb128 0x13
 2666 00b4 00       		.byte	0
 2667 00b5 00       		.byte	0
 2668 00b6 0F       		.uleb128 0xf
 2669 00b7 39       		.uleb128 0x39
 2670 00b8 01       		.byte	0x1
ARM GAS  C:\msys64\tmp\ccLgZ92a.s 			page 48


 2671 00b9 03       		.uleb128 0x3
 2672 00ba 08       		.uleb128 0x8
 2673 00bb 3A       		.uleb128 0x3a
 2674 00bc 0B       		.uleb128 0xb
 2675 00bd 3B       		.uleb128 0x3b
 2676 00be 0B       		.uleb128 0xb
 2677 00bf 01       		.uleb128 0x1
 2678 00c0 13       		.uleb128 0x13
 2679 00c1 00       		.byte	0
 2680 00c2 00       		.byte	0
 2681 00c3 10       		.uleb128 0x10
 2682 00c4 13       		.uleb128 0x13
 2683 00c5 01       		.byte	0x1
 2684 00c6 03       		.uleb128 0x3
 2685 00c7 0E       		.uleb128 0xe
 2686 00c8 0B       		.uleb128 0xb
 2687 00c9 0B       		.uleb128 0xb
 2688 00ca 3A       		.uleb128 0x3a
 2689 00cb 0B       		.uleb128 0xb
 2690 00cc 3B       		.uleb128 0x3b
 2691 00cd 0B       		.uleb128 0xb
 2692 00ce 01       		.uleb128 0x1
 2693 00cf 13       		.uleb128 0x13
 2694 00d0 00       		.byte	0
 2695 00d1 00       		.byte	0
 2696 00d2 11       		.uleb128 0x11
 2697 00d3 0D       		.uleb128 0xd
 2698 00d4 00       		.byte	0
 2699 00d5 03       		.uleb128 0x3
 2700 00d6 0E       		.uleb128 0xe
 2701 00d7 3A       		.uleb128 0x3a
 2702 00d8 0B       		.uleb128 0xb
 2703 00d9 3B       		.uleb128 0x3b
 2704 00da 05       		.uleb128 0x5
 2705 00db 49       		.uleb128 0x49
 2706 00dc 13       		.uleb128 0x13
 2707 00dd 38       		.uleb128 0x38
 2708 00de 0B       		.uleb128 0xb
 2709 00df 00       		.byte	0
 2710 00e0 00       		.byte	0
 2711 00e1 12       		.uleb128 0x12
 2712 00e2 0D       		.uleb128 0xd
 2713 00e3 00       		.byte	0
 2714 00e4 03       		.uleb128 0x3
 2715 00e5 08       		.uleb128 0x8
 2716 00e6 3A       		.uleb128 0x3a
 2717 00e7 0B       		.uleb128 0xb
 2718 00e8 3B       		.uleb128 0x3b
 2719 00e9 05       		.uleb128 0x5
 2720 00ea 49       		.uleb128 0x49
 2721 00eb 13       		.uleb128 0x13
 2722 00ec 38       		.uleb128 0x38
 2723 00ed 0B       		.uleb128 0xb
 2724 00ee 00       		.byte	0
 2725 00ef 00       		.byte	0
 2726 00f0 13       		.uleb128 0x13
 2727 00f1 2E       		.uleb128 0x2e
ARM GAS  C:\msys64\tmp\ccLgZ92a.s 			page 49


 2728 00f2 01       		.byte	0x1
 2729 00f3 3F       		.uleb128 0x3f
 2730 00f4 19       		.uleb128 0x19
 2731 00f5 03       		.uleb128 0x3
 2732 00f6 0E       		.uleb128 0xe
 2733 00f7 3A       		.uleb128 0x3a
 2734 00f8 0B       		.uleb128 0xb
 2735 00f9 3B       		.uleb128 0x3b
 2736 00fa 0B       		.uleb128 0xb
 2737 00fb 6E       		.uleb128 0x6e
 2738 00fc 0E       		.uleb128 0xe
 2739 00fd 49       		.uleb128 0x49
 2740 00fe 13       		.uleb128 0x13
 2741 00ff 3C       		.uleb128 0x3c
 2742 0100 19       		.uleb128 0x19
 2743 0101 64       		.uleb128 0x64
 2744 0102 13       		.uleb128 0x13
 2745 0103 01       		.uleb128 0x1
 2746 0104 13       		.uleb128 0x13
 2747 0105 00       		.byte	0
 2748 0106 00       		.byte	0
 2749 0107 14       		.uleb128 0x14
 2750 0108 05       		.uleb128 0x5
 2751 0109 00       		.byte	0
 2752 010a 49       		.uleb128 0x49
 2753 010b 13       		.uleb128 0x13
 2754 010c 34       		.uleb128 0x34
 2755 010d 19       		.uleb128 0x19
 2756 010e 00       		.byte	0
 2757 010f 00       		.byte	0
 2758 0110 15       		.uleb128 0x15
 2759 0111 2E       		.uleb128 0x2e
 2760 0112 01       		.byte	0x1
 2761 0113 3F       		.uleb128 0x3f
 2762 0114 19       		.uleb128 0x19
 2763 0115 03       		.uleb128 0x3
 2764 0116 0E       		.uleb128 0xe
 2765 0117 3A       		.uleb128 0x3a
 2766 0118 0B       		.uleb128 0xb
 2767 0119 3B       		.uleb128 0x3b
 2768 011a 0B       		.uleb128 0xb
 2769 011b 6E       		.uleb128 0x6e
 2770 011c 0E       		.uleb128 0xe
 2771 011d 3C       		.uleb128 0x3c
 2772 011e 19       		.uleb128 0x19
 2773 011f 64       		.uleb128 0x64
 2774 0120 13       		.uleb128 0x13
 2775 0121 01       		.uleb128 0x1
 2776 0122 13       		.uleb128 0x13
 2777 0123 00       		.byte	0
 2778 0124 00       		.byte	0
 2779 0125 16       		.uleb128 0x16
 2780 0126 05       		.uleb128 0x5
 2781 0127 00       		.byte	0
 2782 0128 49       		.uleb128 0x49
 2783 0129 13       		.uleb128 0x13
 2784 012a 00       		.byte	0
ARM GAS  C:\msys64\tmp\ccLgZ92a.s 			page 50


 2785 012b 00       		.byte	0
 2786 012c 17       		.uleb128 0x17
 2787 012d 2E       		.uleb128 0x2e
 2788 012e 01       		.byte	0x1
 2789 012f 3F       		.uleb128 0x3f
 2790 0130 19       		.uleb128 0x19
 2791 0131 03       		.uleb128 0x3
 2792 0132 0E       		.uleb128 0xe
 2793 0133 3A       		.uleb128 0x3a
 2794 0134 0B       		.uleb128 0xb
 2795 0135 3B       		.uleb128 0x3b
 2796 0136 05       		.uleb128 0x5
 2797 0137 6E       		.uleb128 0x6e
 2798 0138 0E       		.uleb128 0xe
 2799 0139 49       		.uleb128 0x49
 2800 013a 13       		.uleb128 0x13
 2801 013b 3C       		.uleb128 0x3c
 2802 013c 19       		.uleb128 0x19
 2803 013d 64       		.uleb128 0x64
 2804 013e 13       		.uleb128 0x13
 2805 013f 01       		.uleb128 0x1
 2806 0140 13       		.uleb128 0x13
 2807 0141 00       		.byte	0
 2808 0142 00       		.byte	0
 2809 0143 18       		.uleb128 0x18
 2810 0144 2E       		.uleb128 0x2e
 2811 0145 01       		.byte	0x1
 2812 0146 3F       		.uleb128 0x3f
 2813 0147 19       		.uleb128 0x19
 2814 0148 03       		.uleb128 0x3
 2815 0149 0E       		.uleb128 0xe
 2816 014a 3A       		.uleb128 0x3a
 2817 014b 0B       		.uleb128 0xb
 2818 014c 3B       		.uleb128 0x3b
 2819 014d 05       		.uleb128 0x5
 2820 014e 6E       		.uleb128 0x6e
 2821 014f 0E       		.uleb128 0xe
 2822 0150 49       		.uleb128 0x49
 2823 0151 13       		.uleb128 0x13
 2824 0152 3C       		.uleb128 0x3c
 2825 0153 19       		.uleb128 0x19
 2826 0154 64       		.uleb128 0x64
 2827 0155 13       		.uleb128 0x13
 2828 0156 00       		.byte	0
 2829 0157 00       		.byte	0
 2830 0158 19       		.uleb128 0x19
 2831 0159 13       		.uleb128 0x13
 2832 015a 01       		.byte	0x1
 2833 015b 03       		.uleb128 0x3
 2834 015c 0E       		.uleb128 0xe
 2835 015d 0B       		.uleb128 0xb
 2836 015e 0B       		.uleb128 0xb
 2837 015f 3A       		.uleb128 0x3a
 2838 0160 0B       		.uleb128 0xb
 2839 0161 3B       		.uleb128 0x3b
 2840 0162 0B       		.uleb128 0xb
 2841 0163 00       		.byte	0
ARM GAS  C:\msys64\tmp\ccLgZ92a.s 			page 51


 2842 0164 00       		.byte	0
 2843 0165 1A       		.uleb128 0x1a
 2844 0166 10       		.uleb128 0x10
 2845 0167 00       		.byte	0
 2846 0168 0B       		.uleb128 0xb
 2847 0169 0B       		.uleb128 0xb
 2848 016a 49       		.uleb128 0x49
 2849 016b 13       		.uleb128 0x13
 2850 016c 00       		.byte	0
 2851 016d 00       		.byte	0
 2852 016e 1B       		.uleb128 0x1b
 2853 016f 26       		.uleb128 0x26
 2854 0170 00       		.byte	0
 2855 0171 49       		.uleb128 0x49
 2856 0172 13       		.uleb128 0x13
 2857 0173 00       		.byte	0
 2858 0174 00       		.byte	0
 2859 0175 1C       		.uleb128 0x1c
 2860 0176 2E       		.uleb128 0x2e
 2861 0177 01       		.byte	0x1
 2862 0178 03       		.uleb128 0x3
 2863 0179 0E       		.uleb128 0xe
 2864 017a 3A       		.uleb128 0x3a
 2865 017b 0B       		.uleb128 0xb
 2866 017c 3B       		.uleb128 0x3b
 2867 017d 05       		.uleb128 0x5
 2868 017e 49       		.uleb128 0x49
 2869 017f 13       		.uleb128 0x13
 2870 0180 20       		.uleb128 0x20
 2871 0181 0B       		.uleb128 0xb
 2872 0182 01       		.uleb128 0x1
 2873 0183 13       		.uleb128 0x13
 2874 0184 00       		.byte	0
 2875 0185 00       		.byte	0
 2876 0186 1D       		.uleb128 0x1d
 2877 0187 05       		.uleb128 0x5
 2878 0188 00       		.byte	0
 2879 0189 03       		.uleb128 0x3
 2880 018a 08       		.uleb128 0x8
 2881 018b 3A       		.uleb128 0x3a
 2882 018c 0B       		.uleb128 0xb
 2883 018d 3B       		.uleb128 0x3b
 2884 018e 05       		.uleb128 0x5
 2885 018f 49       		.uleb128 0x49
 2886 0190 13       		.uleb128 0x13
 2887 0191 00       		.byte	0
 2888 0192 00       		.byte	0
 2889 0193 1E       		.uleb128 0x1e
 2890 0194 34       		.uleb128 0x34
 2891 0195 00       		.byte	0
 2892 0196 03       		.uleb128 0x3
 2893 0197 08       		.uleb128 0x8
 2894 0198 3A       		.uleb128 0x3a
 2895 0199 0B       		.uleb128 0xb
 2896 019a 3B       		.uleb128 0x3b
 2897 019b 05       		.uleb128 0x5
 2898 019c 49       		.uleb128 0x49
ARM GAS  C:\msys64\tmp\ccLgZ92a.s 			page 52


 2899 019d 13       		.uleb128 0x13
 2900 019e 00       		.byte	0
 2901 019f 00       		.byte	0
 2902 01a0 1F       		.uleb128 0x1f
 2903 01a1 2E       		.uleb128 0x2e
 2904 01a2 01       		.byte	0x1
 2905 01a3 47       		.uleb128 0x47
 2906 01a4 13       		.uleb128 0x13
 2907 01a5 20       		.uleb128 0x20
 2908 01a6 0B       		.uleb128 0xb
 2909 01a7 64       		.uleb128 0x64
 2910 01a8 13       		.uleb128 0x13
 2911 01a9 01       		.uleb128 0x1
 2912 01aa 13       		.uleb128 0x13
 2913 01ab 00       		.byte	0
 2914 01ac 00       		.byte	0
 2915 01ad 20       		.uleb128 0x20
 2916 01ae 05       		.uleb128 0x5
 2917 01af 00       		.byte	0
 2918 01b0 03       		.uleb128 0x3
 2919 01b1 0E       		.uleb128 0xe
 2920 01b2 49       		.uleb128 0x49
 2921 01b3 13       		.uleb128 0x13
 2922 01b4 34       		.uleb128 0x34
 2923 01b5 19       		.uleb128 0x19
 2924 01b6 00       		.byte	0
 2925 01b7 00       		.byte	0
 2926 01b8 21       		.uleb128 0x21
 2927 01b9 2E       		.uleb128 0x2e
 2928 01ba 01       		.byte	0x1
 2929 01bb 03       		.uleb128 0x3
 2930 01bc 0E       		.uleb128 0xe
 2931 01bd 3A       		.uleb128 0x3a
 2932 01be 0B       		.uleb128 0xb
 2933 01bf 3B       		.uleb128 0x3b
 2934 01c0 0B       		.uleb128 0xb
 2935 01c1 20       		.uleb128 0x20
 2936 01c2 0B       		.uleb128 0xb
 2937 01c3 01       		.uleb128 0x1
 2938 01c4 13       		.uleb128 0x13
 2939 01c5 00       		.byte	0
 2940 01c6 00       		.byte	0
 2941 01c7 22       		.uleb128 0x22
 2942 01c8 05       		.uleb128 0x5
 2943 01c9 00       		.byte	0
 2944 01ca 03       		.uleb128 0x3
 2945 01cb 08       		.uleb128 0x8
 2946 01cc 3A       		.uleb128 0x3a
 2947 01cd 0B       		.uleb128 0xb
 2948 01ce 3B       		.uleb128 0x3b
 2949 01cf 0B       		.uleb128 0xb
 2950 01d0 49       		.uleb128 0x49
 2951 01d1 13       		.uleb128 0x13
 2952 01d2 00       		.byte	0
 2953 01d3 00       		.byte	0
 2954 01d4 23       		.uleb128 0x23
 2955 01d5 34       		.uleb128 0x34
ARM GAS  C:\msys64\tmp\ccLgZ92a.s 			page 53


 2956 01d6 00       		.byte	0
 2957 01d7 03       		.uleb128 0x3
 2958 01d8 08       		.uleb128 0x8
 2959 01d9 3A       		.uleb128 0x3a
 2960 01da 0B       		.uleb128 0xb
 2961 01db 3B       		.uleb128 0x3b
 2962 01dc 0B       		.uleb128 0xb
 2963 01dd 49       		.uleb128 0x49
 2964 01de 13       		.uleb128 0x13
 2965 01df 00       		.byte	0
 2966 01e0 00       		.byte	0
 2967 01e1 24       		.uleb128 0x24
 2968 01e2 37       		.uleb128 0x37
 2969 01e3 00       		.byte	0
 2970 01e4 49       		.uleb128 0x49
 2971 01e5 13       		.uleb128 0x13
 2972 01e6 00       		.byte	0
 2973 01e7 00       		.byte	0
 2974 01e8 25       		.uleb128 0x25
 2975 01e9 2E       		.uleb128 0x2e
 2976 01ea 01       		.byte	0x1
 2977 01eb 03       		.uleb128 0x3
 2978 01ec 0E       		.uleb128 0xe
 2979 01ed 3A       		.uleb128 0x3a
 2980 01ee 0B       		.uleb128 0xb
 2981 01ef 3B       		.uleb128 0x3b
 2982 01f0 0B       		.uleb128 0xb
 2983 01f1 49       		.uleb128 0x49
 2984 01f2 13       		.uleb128 0x13
 2985 01f3 20       		.uleb128 0x20
 2986 01f4 0B       		.uleb128 0xb
 2987 01f5 01       		.uleb128 0x1
 2988 01f6 13       		.uleb128 0x13
 2989 01f7 00       		.byte	0
 2990 01f8 00       		.byte	0
 2991 01f9 26       		.uleb128 0x26
 2992 01fa 05       		.uleb128 0x5
 2993 01fb 00       		.byte	0
 2994 01fc 03       		.uleb128 0x3
 2995 01fd 0E       		.uleb128 0xe
 2996 01fe 3A       		.uleb128 0x3a
 2997 01ff 0B       		.uleb128 0xb
 2998 0200 3B       		.uleb128 0x3b
 2999 0201 0B       		.uleb128 0xb
 3000 0202 49       		.uleb128 0x49
 3001 0203 13       		.uleb128 0x13
 3002 0204 00       		.byte	0
 3003 0205 00       		.byte	0
 3004 0206 27       		.uleb128 0x27
 3005 0207 34       		.uleb128 0x34
 3006 0208 00       		.byte	0
 3007 0209 03       		.uleb128 0x3
 3008 020a 0E       		.uleb128 0xe
 3009 020b 3A       		.uleb128 0x3a
 3010 020c 0B       		.uleb128 0xb
 3011 020d 3B       		.uleb128 0x3b
 3012 020e 05       		.uleb128 0x5
ARM GAS  C:\msys64\tmp\ccLgZ92a.s 			page 54


 3013 020f 49       		.uleb128 0x49
 3014 0210 13       		.uleb128 0x13
 3015 0211 00       		.byte	0
 3016 0212 00       		.byte	0
 3017 0213 28       		.uleb128 0x28
 3018 0214 34       		.uleb128 0x34
 3019 0215 00       		.byte	0
 3020 0216 03       		.uleb128 0x3
 3021 0217 0E       		.uleb128 0xe
 3022 0218 3A       		.uleb128 0x3a
 3023 0219 0B       		.uleb128 0xb
 3024 021a 3B       		.uleb128 0x3b
 3025 021b 0B       		.uleb128 0xb
 3026 021c 49       		.uleb128 0x49
 3027 021d 13       		.uleb128 0x13
 3028 021e 00       		.byte	0
 3029 021f 00       		.byte	0
 3030 0220 29       		.uleb128 0x29
 3031 0221 2E       		.uleb128 0x2e
 3032 0222 01       		.byte	0x1
 3033 0223 03       		.uleb128 0x3
 3034 0224 0E       		.uleb128 0xe
 3035 0225 34       		.uleb128 0x34
 3036 0226 19       		.uleb128 0x19
 3037 0227 20       		.uleb128 0x20
 3038 0228 0B       		.uleb128 0xb
 3039 0229 01       		.uleb128 0x1
 3040 022a 13       		.uleb128 0x13
 3041 022b 00       		.byte	0
 3042 022c 00       		.byte	0
 3043 022d 2A       		.uleb128 0x2a
 3044 022e 2E       		.uleb128 0x2e
 3045 022f 01       		.byte	0x1
 3046 0230 3F       		.uleb128 0x3f
 3047 0231 19       		.uleb128 0x19
 3048 0232 03       		.uleb128 0x3
 3049 0233 0E       		.uleb128 0xe
 3050 0234 3A       		.uleb128 0x3a
 3051 0235 0B       		.uleb128 0xb
 3052 0236 3B       		.uleb128 0x3b
 3053 0237 0B       		.uleb128 0xb
 3054 0238 11       		.uleb128 0x11
 3055 0239 01       		.uleb128 0x1
 3056 023a 12       		.uleb128 0x12
 3057 023b 06       		.uleb128 0x6
 3058 023c 40       		.uleb128 0x40
 3059 023d 18       		.uleb128 0x18
 3060 023e 9742     		.uleb128 0x2117
 3061 0240 19       		.uleb128 0x19
 3062 0241 01       		.uleb128 0x1
 3063 0242 13       		.uleb128 0x13
 3064 0243 00       		.byte	0
 3065 0244 00       		.byte	0
 3066 0245 2B       		.uleb128 0x2b
 3067 0246 05       		.uleb128 0x5
 3068 0247 00       		.byte	0
 3069 0248 03       		.uleb128 0x3
ARM GAS  C:\msys64\tmp\ccLgZ92a.s 			page 55


 3070 0249 0E       		.uleb128 0xe
 3071 024a 3A       		.uleb128 0x3a
 3072 024b 0B       		.uleb128 0xb
 3073 024c 3B       		.uleb128 0x3b
 3074 024d 0B       		.uleb128 0xb
 3075 024e 49       		.uleb128 0x49
 3076 024f 13       		.uleb128 0x13
 3077 0250 02       		.uleb128 0x2
 3078 0251 17       		.uleb128 0x17
 3079 0252 00       		.byte	0
 3080 0253 00       		.byte	0
 3081 0254 2C       		.uleb128 0x2c
 3082 0255 05       		.uleb128 0x5
 3083 0256 00       		.byte	0
 3084 0257 03       		.uleb128 0x3
 3085 0258 08       		.uleb128 0x8
 3086 0259 3A       		.uleb128 0x3a
 3087 025a 0B       		.uleb128 0xb
 3088 025b 3B       		.uleb128 0x3b
 3089 025c 0B       		.uleb128 0xb
 3090 025d 49       		.uleb128 0x49
 3091 025e 13       		.uleb128 0x13
 3092 025f 02       		.uleb128 0x2
 3093 0260 17       		.uleb128 0x17
 3094 0261 00       		.byte	0
 3095 0262 00       		.byte	0
 3096 0263 2D       		.uleb128 0x2d
 3097 0264 1D       		.uleb128 0x1d
 3098 0265 01       		.byte	0x1
 3099 0266 31       		.uleb128 0x31
 3100 0267 13       		.uleb128 0x13
 3101 0268 11       		.uleb128 0x11
 3102 0269 01       		.uleb128 0x1
 3103 026a 12       		.uleb128 0x12
 3104 026b 06       		.uleb128 0x6
 3105 026c 58       		.uleb128 0x58
 3106 026d 0B       		.uleb128 0xb
 3107 026e 59       		.uleb128 0x59
 3108 026f 0B       		.uleb128 0xb
 3109 0270 01       		.uleb128 0x1
 3110 0271 13       		.uleb128 0x13
 3111 0272 00       		.byte	0
 3112 0273 00       		.byte	0
 3113 0274 2E       		.uleb128 0x2e
 3114 0275 05       		.uleb128 0x5
 3115 0276 00       		.byte	0
 3116 0277 31       		.uleb128 0x31
 3117 0278 13       		.uleb128 0x13
 3118 0279 02       		.uleb128 0x2
 3119 027a 17       		.uleb128 0x17
 3120 027b 00       		.byte	0
 3121 027c 00       		.byte	0
 3122 027d 2F       		.uleb128 0x2f
 3123 027e 1D       		.uleb128 0x1d
 3124 027f 01       		.byte	0x1
 3125 0280 31       		.uleb128 0x31
 3126 0281 13       		.uleb128 0x13
ARM GAS  C:\msys64\tmp\ccLgZ92a.s 			page 56


 3127 0282 11       		.uleb128 0x11
 3128 0283 01       		.uleb128 0x1
 3129 0284 12       		.uleb128 0x12
 3130 0285 06       		.uleb128 0x6
 3131 0286 58       		.uleb128 0x58
 3132 0287 0B       		.uleb128 0xb
 3133 0288 59       		.uleb128 0x59
 3134 0289 0B       		.uleb128 0xb
 3135 028a 00       		.byte	0
 3136 028b 00       		.byte	0
 3137 028c 30       		.uleb128 0x30
 3138 028d 0B       		.uleb128 0xb
 3139 028e 01       		.byte	0x1
 3140 028f 11       		.uleb128 0x11
 3141 0290 01       		.uleb128 0x1
 3142 0291 12       		.uleb128 0x12
 3143 0292 06       		.uleb128 0x6
 3144 0293 00       		.byte	0
 3145 0294 00       		.byte	0
 3146 0295 31       		.uleb128 0x31
 3147 0296 34       		.uleb128 0x34
 3148 0297 00       		.byte	0
 3149 0298 31       		.uleb128 0x31
 3150 0299 13       		.uleb128 0x13
 3151 029a 02       		.uleb128 0x2
 3152 029b 17       		.uleb128 0x17
 3153 029c 00       		.byte	0
 3154 029d 00       		.byte	0
 3155 029e 32       		.uleb128 0x32
 3156 029f 34       		.uleb128 0x34
 3157 02a0 00       		.byte	0
 3158 02a1 03       		.uleb128 0x3
 3159 02a2 08       		.uleb128 0x8
 3160 02a3 3A       		.uleb128 0x3a
 3161 02a4 0B       		.uleb128 0xb
 3162 02a5 3B       		.uleb128 0x3b
 3163 02a6 0B       		.uleb128 0xb
 3164 02a7 49       		.uleb128 0x49
 3165 02a8 13       		.uleb128 0x13
 3166 02a9 02       		.uleb128 0x2
 3167 02aa 17       		.uleb128 0x17
 3168 02ab 00       		.byte	0
 3169 02ac 00       		.byte	0
 3170 02ad 33       		.uleb128 0x33
 3171 02ae 34       		.uleb128 0x34
 3172 02af 00       		.byte	0
 3173 02b0 03       		.uleb128 0x3
 3174 02b1 08       		.uleb128 0x8
 3175 02b2 3A       		.uleb128 0x3a
 3176 02b3 0B       		.uleb128 0xb
 3177 02b4 3B       		.uleb128 0x3b
 3178 02b5 0B       		.uleb128 0xb
 3179 02b6 49       		.uleb128 0x49
 3180 02b7 13       		.uleb128 0x13
 3181 02b8 02       		.uleb128 0x2
 3182 02b9 18       		.uleb128 0x18
 3183 02ba 00       		.byte	0
ARM GAS  C:\msys64\tmp\ccLgZ92a.s 			page 57


 3184 02bb 00       		.byte	0
 3185 02bc 34       		.uleb128 0x34
 3186 02bd 34       		.uleb128 0x34
 3187 02be 00       		.byte	0
 3188 02bf 03       		.uleb128 0x3
 3189 02c0 0E       		.uleb128 0xe
 3190 02c1 3A       		.uleb128 0x3a
 3191 02c2 0B       		.uleb128 0xb
 3192 02c3 3B       		.uleb128 0x3b
 3193 02c4 0B       		.uleb128 0xb
 3194 02c5 49       		.uleb128 0x49
 3195 02c6 13       		.uleb128 0x13
 3196 02c7 02       		.uleb128 0x2
 3197 02c8 17       		.uleb128 0x17
 3198 02c9 00       		.byte	0
 3199 02ca 00       		.byte	0
 3200 02cb 35       		.uleb128 0x35
 3201 02cc 0B       		.uleb128 0xb
 3202 02cd 01       		.byte	0x1
 3203 02ce 55       		.uleb128 0x55
 3204 02cf 17       		.uleb128 0x17
 3205 02d0 00       		.byte	0
 3206 02d1 00       		.byte	0
 3207 02d2 36       		.uleb128 0x36
 3208 02d3 1D       		.uleb128 0x1d
 3209 02d4 01       		.byte	0x1
 3210 02d5 31       		.uleb128 0x31
 3211 02d6 13       		.uleb128 0x13
 3212 02d7 52       		.uleb128 0x52
 3213 02d8 01       		.uleb128 0x1
 3214 02d9 55       		.uleb128 0x55
 3215 02da 17       		.uleb128 0x17
 3216 02db 58       		.uleb128 0x58
 3217 02dc 0B       		.uleb128 0xb
 3218 02dd 59       		.uleb128 0x59
 3219 02de 0B       		.uleb128 0xb
 3220 02df 01       		.uleb128 0x1
 3221 02e0 13       		.uleb128 0x13
 3222 02e1 00       		.byte	0
 3223 02e2 00       		.byte	0
 3224 02e3 37       		.uleb128 0x37
 3225 02e4 05       		.uleb128 0x5
 3226 02e5 00       		.byte	0
 3227 02e6 31       		.uleb128 0x31
 3228 02e7 13       		.uleb128 0x13
 3229 02e8 00       		.byte	0
 3230 02e9 00       		.byte	0
 3231 02ea 38       		.uleb128 0x38
 3232 02eb 34       		.uleb128 0x34
 3233 02ec 00       		.byte	0
 3234 02ed 31       		.uleb128 0x31
 3235 02ee 13       		.uleb128 0x13
 3236 02ef 00       		.byte	0
 3237 02f0 00       		.byte	0
 3238 02f1 39       		.uleb128 0x39
 3239 02f2 1D       		.uleb128 0x1d
 3240 02f3 01       		.byte	0x1
ARM GAS  C:\msys64\tmp\ccLgZ92a.s 			page 58


 3241 02f4 31       		.uleb128 0x31
 3242 02f5 13       		.uleb128 0x13
 3243 02f6 52       		.uleb128 0x52
 3244 02f7 01       		.uleb128 0x1
 3245 02f8 55       		.uleb128 0x55
 3246 02f9 17       		.uleb128 0x17
 3247 02fa 58       		.uleb128 0x58
 3248 02fb 0B       		.uleb128 0xb
 3249 02fc 59       		.uleb128 0x59
 3250 02fd 05       		.uleb128 0x5
 3251 02fe 01       		.uleb128 0x1
 3252 02ff 13       		.uleb128 0x13
 3253 0300 00       		.byte	0
 3254 0301 00       		.byte	0
 3255 0302 3A       		.uleb128 0x3a
 3256 0303 1D       		.uleb128 0x1d
 3257 0304 01       		.byte	0x1
 3258 0305 31       		.uleb128 0x31
 3259 0306 13       		.uleb128 0x13
 3260 0307 52       		.uleb128 0x52
 3261 0308 01       		.uleb128 0x1
 3262 0309 55       		.uleb128 0x55
 3263 030a 17       		.uleb128 0x17
 3264 030b 58       		.uleb128 0x58
 3265 030c 0B       		.uleb128 0xb
 3266 030d 59       		.uleb128 0x59
 3267 030e 05       		.uleb128 0x5
 3268 030f 00       		.byte	0
 3269 0310 00       		.byte	0
 3270 0311 3B       		.uleb128 0x3b
 3271 0312 1D       		.uleb128 0x1d
 3272 0313 01       		.byte	0x1
 3273 0314 31       		.uleb128 0x31
 3274 0315 13       		.uleb128 0x13
 3275 0316 52       		.uleb128 0x52
 3276 0317 01       		.uleb128 0x1
 3277 0318 55       		.uleb128 0x55
 3278 0319 17       		.uleb128 0x17
 3279 031a 58       		.uleb128 0x58
 3280 031b 0B       		.uleb128 0xb
 3281 031c 59       		.uleb128 0x59
 3282 031d 0B       		.uleb128 0xb
 3283 031e 00       		.byte	0
 3284 031f 00       		.byte	0
 3285 0320 3C       		.uleb128 0x3c
 3286 0321 05       		.uleb128 0x5
 3287 0322 00       		.byte	0
 3288 0323 03       		.uleb128 0x3
 3289 0324 0E       		.uleb128 0xe
 3290 0325 3A       		.uleb128 0x3a
 3291 0326 0B       		.uleb128 0xb
 3292 0327 3B       		.uleb128 0x3b
 3293 0328 0B       		.uleb128 0xb
 3294 0329 49       		.uleb128 0x49
 3295 032a 13       		.uleb128 0x13
 3296 032b 02       		.uleb128 0x2
 3297 032c 18       		.uleb128 0x18
ARM GAS  C:\msys64\tmp\ccLgZ92a.s 			page 59


 3298 032d 00       		.byte	0
 3299 032e 00       		.byte	0
 3300 032f 3D       		.uleb128 0x3d
 3301 0330 2E       		.uleb128 0x2e
 3302 0331 01       		.byte	0x1
 3303 0332 03       		.uleb128 0x3
 3304 0333 0E       		.uleb128 0xe
 3305 0334 34       		.uleb128 0x34
 3306 0335 19       		.uleb128 0x19
 3307 0336 11       		.uleb128 0x11
 3308 0337 01       		.uleb128 0x1
 3309 0338 12       		.uleb128 0x12
 3310 0339 06       		.uleb128 0x6
 3311 033a 40       		.uleb128 0x40
 3312 033b 18       		.uleb128 0x18
 3313 033c 9742     		.uleb128 0x2117
 3314 033e 19       		.uleb128 0x19
 3315 033f 01       		.uleb128 0x1
 3316 0340 13       		.uleb128 0x13
 3317 0341 00       		.byte	0
 3318 0342 00       		.byte	0
 3319 0343 3E       		.uleb128 0x3e
 3320 0344 05       		.uleb128 0x5
 3321 0345 00       		.byte	0
 3322 0346 31       		.uleb128 0x31
 3323 0347 13       		.uleb128 0x13
 3324 0348 02       		.uleb128 0x2
 3325 0349 18       		.uleb128 0x18
 3326 034a 00       		.byte	0
 3327 034b 00       		.byte	0
 3328 034c 3F       		.uleb128 0x3f
 3329 034d 34       		.uleb128 0x34
 3330 034e 00       		.byte	0
 3331 034f 03       		.uleb128 0x3
 3332 0350 0E       		.uleb128 0xe
 3333 0351 3A       		.uleb128 0x3a
 3334 0352 0B       		.uleb128 0xb
 3335 0353 3B       		.uleb128 0x3b
 3336 0354 0B       		.uleb128 0xb
 3337 0355 49       		.uleb128 0x49
 3338 0356 13       		.uleb128 0x13
 3339 0357 3F       		.uleb128 0x3f
 3340 0358 19       		.uleb128 0x19
 3341 0359 3C       		.uleb128 0x3c
 3342 035a 19       		.uleb128 0x19
 3343 035b 00       		.byte	0
 3344 035c 00       		.byte	0
 3345 035d 40       		.uleb128 0x40
 3346 035e 01       		.uleb128 0x1
 3347 035f 01       		.byte	0x1
 3348 0360 49       		.uleb128 0x49
 3349 0361 13       		.uleb128 0x13
 3350 0362 01       		.uleb128 0x1
 3351 0363 13       		.uleb128 0x13
 3352 0364 00       		.byte	0
 3353 0365 00       		.byte	0
 3354 0366 41       		.uleb128 0x41
ARM GAS  C:\msys64\tmp\ccLgZ92a.s 			page 60


 3355 0367 21       		.uleb128 0x21
 3356 0368 00       		.byte	0
 3357 0369 49       		.uleb128 0x49
 3358 036a 13       		.uleb128 0x13
 3359 036b 2F       		.uleb128 0x2f
 3360 036c 0B       		.uleb128 0xb
 3361 036d 00       		.byte	0
 3362 036e 00       		.byte	0
 3363 036f 42       		.uleb128 0x42
 3364 0370 21       		.uleb128 0x21
 3365 0371 00       		.byte	0
 3366 0372 49       		.uleb128 0x49
 3367 0373 13       		.uleb128 0x13
 3368 0374 2F       		.uleb128 0x2f
 3369 0375 05       		.uleb128 0x5
 3370 0376 00       		.byte	0
 3371 0377 00       		.byte	0
 3372 0378 43       		.uleb128 0x43
 3373 0379 34       		.uleb128 0x34
 3374 037a 00       		.byte	0
 3375 037b 03       		.uleb128 0x3
 3376 037c 0E       		.uleb128 0xe
 3377 037d 3A       		.uleb128 0x3a
 3378 037e 0B       		.uleb128 0xb
 3379 037f 3B       		.uleb128 0x3b
 3380 0380 05       		.uleb128 0x5
 3381 0381 49       		.uleb128 0x49
 3382 0382 13       		.uleb128 0x13
 3383 0383 3F       		.uleb128 0x3f
 3384 0384 19       		.uleb128 0x19
 3385 0385 3C       		.uleb128 0x3c
 3386 0386 19       		.uleb128 0x19
 3387 0387 00       		.byte	0
 3388 0388 00       		.byte	0
 3389 0389 44       		.uleb128 0x44
 3390 038a 34       		.uleb128 0x34
 3391 038b 00       		.byte	0
 3392 038c 03       		.uleb128 0x3
 3393 038d 0E       		.uleb128 0xe
 3394 038e 3A       		.uleb128 0x3a
 3395 038f 0B       		.uleb128 0xb
 3396 0390 3B       		.uleb128 0x3b
 3397 0391 0B       		.uleb128 0xb
 3398 0392 49       		.uleb128 0x49
 3399 0393 13       		.uleb128 0x13
 3400 0394 02       		.uleb128 0x2
 3401 0395 18       		.uleb128 0x18
 3402 0396 00       		.byte	0
 3403 0397 00       		.byte	0
 3404 0398 45       		.uleb128 0x45
 3405 0399 21       		.uleb128 0x21
 3406 039a 00       		.byte	0
 3407 039b 49       		.uleb128 0x49
 3408 039c 13       		.uleb128 0x13
 3409 039d 2F       		.uleb128 0x2f
 3410 039e 06       		.uleb128 0x6
 3411 039f 00       		.byte	0
ARM GAS  C:\msys64\tmp\ccLgZ92a.s 			page 61


 3412 03a0 00       		.byte	0
 3413 03a1 46       		.uleb128 0x46
 3414 03a2 34       		.uleb128 0x34
 3415 03a3 00       		.byte	0
 3416 03a4 03       		.uleb128 0x3
 3417 03a5 0E       		.uleb128 0xe
 3418 03a6 3A       		.uleb128 0x3a
 3419 03a7 0B       		.uleb128 0xb
 3420 03a8 3B       		.uleb128 0x3b
 3421 03a9 0B       		.uleb128 0xb
 3422 03aa 49       		.uleb128 0x49
 3423 03ab 13       		.uleb128 0x13
 3424 03ac 3F       		.uleb128 0x3f
 3425 03ad 19       		.uleb128 0x19
 3426 03ae 02       		.uleb128 0x2
 3427 03af 18       		.uleb128 0x18
 3428 03b0 00       		.byte	0
 3429 03b1 00       		.byte	0
 3430 03b2 00       		.byte	0
 3431              		.section	.debug_loc,"",%progbits
 3432              	.Ldebug_loc0:
 3433              	.LLST0:
 3434 0000 00000000 		.4byte	.LVL0
 3435 0004 1A000000 		.4byte	.LVL3
 3436 0008 0100     		.2byte	0x1
 3437 000a 50       		.byte	0x50
 3438 000b 1A000000 		.4byte	.LVL3
 3439 000f 68000000 		.4byte	.LFE316
 3440 0013 0400     		.2byte	0x4
 3441 0015 F3       		.byte	0xf3
 3442 0016 01       		.uleb128 0x1
 3443 0017 50       		.byte	0x50
 3444 0018 9F       		.byte	0x9f
 3445 0019 00000000 		.4byte	0
 3446 001d 00000000 		.4byte	0
 3447              	.LLST1:
 3448 0021 00000000 		.4byte	.LVL0
 3449 0025 0A000000 		.4byte	.LVL1
 3450 0029 0100     		.2byte	0x1
 3451 002b 51       		.byte	0x51
 3452 002c 0A000000 		.4byte	.LVL1
 3453 0030 68000000 		.4byte	.LFE316
 3454 0034 0400     		.2byte	0x4
 3455 0036 F3       		.byte	0xf3
 3456 0037 01       		.uleb128 0x1
 3457 0038 51       		.byte	0x51
 3458 0039 9F       		.byte	0x9f
 3459 003a 00000000 		.4byte	0
 3460 003e 00000000 		.4byte	0
 3461              	.LLST2:
 3462 0042 00000000 		.4byte	.LVL0
 3463 0046 16000000 		.4byte	.LVL2
 3464 004a 0600     		.2byte	0x6
 3465 004c 0C       		.byte	0xc
 3466 004d 00EE0200 		.4byte	0x2ee00
 3467 0051 9F       		.byte	0x9f
 3468 0052 00000000 		.4byte	0
ARM GAS  C:\msys64\tmp\ccLgZ92a.s 			page 62


 3469 0056 00000000 		.4byte	0
 3470              	.LLST3:
 3471 005a 00000000 		.4byte	.LVL0
 3472 005e 16000000 		.4byte	.LVL2
 3473 0062 0600     		.2byte	0x6
 3474 0064 03       		.byte	0x3
 3475 0065 00000000 		.4byte	_ZL11s_delay_ram
 3476 0069 9F       		.byte	0x9f
 3477 006a 00000000 		.4byte	0
 3478 006e 00000000 		.4byte	0
 3479              	.LLST4:
 3480 0072 00000000 		.4byte	.LVL0
 3481 0076 16000000 		.4byte	.LVL2
 3482 007a 0600     		.2byte	0x6
 3483 007c 03       		.byte	0x3
 3484 007d 00000000 		.4byte	_ZL7s_delay
 3485 0081 9F       		.byte	0x9f
 3486 0082 00000000 		.4byte	0
 3487 0086 00000000 		.4byte	0
 3488              	.LLST5:
 3489 008a 16000000 		.4byte	.LVL2
 3490 008e 32000000 		.4byte	.LVL9
 3491 0092 0600     		.2byte	0x6
 3492 0094 03       		.byte	0x3
 3493 0095 00000000 		.4byte	_ZL7s_delay
 3494 0099 9F       		.byte	0x9f
 3495 009a 00000000 		.4byte	0
 3496 009e 00000000 		.4byte	0
 3497              	.LLST6:
 3498 00a2 16000000 		.4byte	.LVL2
 3499 00a6 32000000 		.4byte	.LVL9
 3500 00aa 0400     		.2byte	0x4
 3501 00ac 40       		.byte	0x40
 3502 00ad 3F       		.byte	0x3f
 3503 00ae 24       		.byte	0x24
 3504 00af 9F       		.byte	0x9f
 3505 00b0 00000000 		.4byte	0
 3506 00b4 00000000 		.4byte	0
 3507              	.LLST7:
 3508 00b8 16000000 		.4byte	.LVL2
 3509 00bc 1C000000 		.4byte	.LVL4
 3510 00c0 0600     		.2byte	0x6
 3511 00c2 03       		.byte	0x3
 3512 00c3 00000000 		.4byte	_ZL11s_delay_ram
 3513 00c7 9F       		.byte	0x9f
 3514 00c8 1C000000 		.4byte	.LVL4
 3515 00cc 20000000 		.4byte	.LVL5
 3516 00d0 0300     		.2byte	0x3
 3517 00d2 73       		.byte	0x73
 3518 00d3 74       		.sleb128 -12
 3519 00d4 9F       		.byte	0x9f
 3520 00d5 20000000 		.4byte	.LVL5
 3521 00d9 24000000 		.4byte	.LVL6
 3522 00dd 0300     		.2byte	0x3
 3523 00df 73       		.byte	0x73
 3524 00e0 78       		.sleb128 -8
 3525 00e1 9F       		.byte	0x9f
ARM GAS  C:\msys64\tmp\ccLgZ92a.s 			page 63


 3526 00e2 24000000 		.4byte	.LVL6
 3527 00e6 28000000 		.4byte	.LVL7
 3528 00ea 0300     		.2byte	0x3
 3529 00ec 73       		.byte	0x73
 3530 00ed 7C       		.sleb128 -4
 3531 00ee 9F       		.byte	0x9f
 3532 00ef 28000000 		.4byte	.LVL7
 3533 00f3 2E000000 		.4byte	.LVL8
 3534 00f7 0100     		.2byte	0x1
 3535 00f9 53       		.byte	0x53
 3536 00fa 2E000000 		.4byte	.LVL8
 3537 00fe 32000000 		.4byte	.LVL9
 3538 0102 0300     		.2byte	0x3
 3539 0104 73       		.byte	0x73
 3540 0105 70       		.sleb128 -16
 3541 0106 9F       		.byte	0x9f
 3542 0107 00000000 		.4byte	0
 3543 010b 00000000 		.4byte	0
 3544              	.LLST8:
 3545 010f 16000000 		.4byte	.LVL2
 3546 0113 32000000 		.4byte	.LVL9
 3547 0117 0600     		.2byte	0x6
 3548 0119 03       		.byte	0x3
 3549 011a 00002000 		.4byte	_ZL11s_delay_ram+2097152
 3550 011e 9F       		.byte	0x9f
 3551 011f 00000000 		.4byte	0
 3552 0123 00000000 		.4byte	0
 3553              	.LLST9:
 3554 0127 32000000 		.4byte	.LVL9
 3555 012b 38000000 		.4byte	.LVL10
 3556 012f 0600     		.2byte	0x6
 3557 0131 03       		.byte	0x3
 3558 0132 18000000 		.4byte	_ZL5s_lfo
 3559 0136 9F       		.byte	0x9f
 3560 0137 00000000 		.4byte	0
 3561 013b 00000000 		.4byte	0
 3562              	.LLST10:
 3563 013f 3E000000 		.4byte	.LVL11
 3564 0143 54000000 		.4byte	.LVL12
 3565 0147 0600     		.2byte	0x6
 3566 0149 9E       		.byte	0x9e
 3567 014a 04       		.uleb128 0x4
 3568 014b 3EC3AE37 		.4byte	0x37aec33e
 3569 014f 00000000 		.4byte	0
 3570 0153 00000000 		.4byte	0
 3571              	.LLST11:
 3572 0157 3E000000 		.4byte	.LVL11
 3573 015b 54000000 		.4byte	.LVL12
 3574 015f 0500     		.2byte	0x5
 3575 0161 03       		.byte	0x3
 3576 0162 00000000 		.4byte	lfo_speed
 3577 0166 00000000 		.4byte	0
 3578 016a 00000000 		.4byte	0
 3579              	.LLST12:
 3580 016e 3E000000 		.4byte	.LVL11
 3581 0172 54000000 		.4byte	.LVL12
 3582 0176 0600     		.2byte	0x6
ARM GAS  C:\msys64\tmp\ccLgZ92a.s 			page 64


 3583 0178 03       		.byte	0x3
 3584 0179 18000000 		.4byte	_ZL5s_lfo
 3585 017d 9F       		.byte	0x9f
 3586 017e 00000000 		.4byte	0
 3587 0182 00000000 		.4byte	0
 3588              	.LLST13:
 3589 0186 68000000 		.4byte	.LVL13
 3590 018a B0000000 		.4byte	.LVL16
 3591 018e 0100     		.2byte	0x1
 3592 0190 50       		.byte	0x50
 3593 0191 B0000000 		.4byte	.LVL16
 3594 0195 A4020000 		.4byte	.LFE317
 3595 0199 0400     		.2byte	0x4
 3596 019b F3       		.byte	0xf3
 3597 019c 01       		.uleb128 0x1
 3598 019d 50       		.byte	0x50
 3599 019e 9F       		.byte	0x9f
 3600 019f 00000000 		.4byte	0
 3601 01a3 00000000 		.4byte	0
 3602              	.LLST14:
 3603 01a7 68000000 		.4byte	.LVL13
 3604 01ab A8000000 		.4byte	.LVL14
 3605 01af 0100     		.2byte	0x1
 3606 01b1 51       		.byte	0x51
 3607 01b2 A8000000 		.4byte	.LVL14
 3608 01b6 A4020000 		.4byte	.LFE317
 3609 01ba 0400     		.2byte	0x4
 3610 01bc F3       		.byte	0xf3
 3611 01bd 01       		.uleb128 0x1
 3612 01be 51       		.byte	0x51
 3613 01bf 9F       		.byte	0x9f
 3614 01c0 00000000 		.4byte	0
 3615 01c4 00000000 		.4byte	0
 3616              	.LLST15:
 3617 01c8 68000000 		.4byte	.LVL13
 3618 01cc 0A010000 		.4byte	.LVL23
 3619 01d0 0100     		.2byte	0x1
 3620 01d2 50       		.byte	0x50
 3621 01d3 0A010000 		.4byte	.LVL23
 3622 01d7 54020000 		.4byte	.LVL42
 3623 01db 0300     		.2byte	0x3
 3624 01dd 75       		.byte	0x75
 3625 01de 78       		.sleb128 -8
 3626 01df 9F       		.byte	0x9f
 3627 01e0 54020000 		.4byte	.LVL42
 3628 01e4 56020000 		.4byte	.LVL43
 3629 01e8 0100     		.2byte	0x1
 3630 01ea 55       		.byte	0x55
 3631 01eb 56020000 		.4byte	.LVL43
 3632 01ef A4020000 		.4byte	.LFE317
 3633 01f3 0100     		.2byte	0x1
 3634 01f5 50       		.byte	0x50
 3635 01f6 00000000 		.4byte	0
 3636 01fa 00000000 		.4byte	0
 3637              	.LLST16:
 3638 01fe AC000000 		.4byte	.LVL15
 3639 0202 6E020000 		.4byte	.LVL44
ARM GAS  C:\msys64\tmp\ccLgZ92a.s 			page 65


 3640 0206 0100     		.2byte	0x1
 3641 0208 5A       		.byte	0x5a
 3642 0209 6E020000 		.4byte	.LVL44
 3643 020d A4020000 		.4byte	.LFE317
 3644 0211 0A00     		.2byte	0xa
 3645 0213 F3       		.byte	0xf3
 3646 0214 01       		.uleb128 0x1
 3647 0215 51       		.byte	0x51
 3648 0216 33       		.byte	0x33
 3649 0217 24       		.byte	0x24
 3650 0218 F3       		.byte	0xf3
 3651 0219 01       		.uleb128 0x1
 3652 021a 50       		.byte	0x50
 3653 021b 22       		.byte	0x22
 3654 021c 9F       		.byte	0x9f
 3655 021d 00000000 		.4byte	0
 3656 0221 00000000 		.4byte	0
 3657              	.LLST17:
 3658 0225 9A010000 		.4byte	.LVL34
 3659 0229 A6010000 		.4byte	.LVL35
 3660 022d 1200     		.2byte	0x12
 3661 022f 90       		.byte	0x90
 3662 0230 4F       		.uleb128 0x4f
 3663 0231 93       		.byte	0x93
 3664 0232 04       		.uleb128 0x4
 3665 0233 F5       		.byte	0xf5
 3666 0234 4F       		.uleb128 0x4f
 3667 0235 25       		.uleb128 0x25
 3668 0236 F4       		.byte	0xf4
 3669 0237 25       		.uleb128 0x25
 3670 0238 04       		.byte	0x4
 3671 0239 0000803F 		.4byte	0x3f800000
 3672 023d 22       		.byte	0x22
 3673 023e 9F       		.byte	0x9f
 3674 023f 93       		.byte	0x93
 3675 0240 04       		.uleb128 0x4
 3676 0241 A6010000 		.4byte	.LVL35
 3677 0245 B2010000 		.4byte	.LVL37
 3678 0249 0800     		.2byte	0x8
 3679 024b 72       		.byte	0x72
 3680 024c 00       		.sleb128 0
 3681 024d 93       		.byte	0x93
 3682 024e 04       		.uleb128 0x4
 3683 024f 90       		.byte	0x90
 3684 0250 4F       		.uleb128 0x4f
 3685 0251 93       		.byte	0x93
 3686 0252 04       		.uleb128 0x4
 3687 0253 B2010000 		.4byte	.LVL37
 3688 0257 08020000 		.4byte	.LVL39
 3689 025b 0800     		.2byte	0x8
 3690 025d 72       		.byte	0x72
 3691 025e 00       		.sleb128 0
 3692 025f 93       		.byte	0x93
 3693 0260 04       		.uleb128 0x4
 3694 0261 72       		.byte	0x72
 3695 0262 04       		.sleb128 4
 3696 0263 93       		.byte	0x93
ARM GAS  C:\msys64\tmp\ccLgZ92a.s 			page 66


 3697 0264 04       		.uleb128 0x4
 3698 0265 00000000 		.4byte	0
 3699 0269 00000000 		.4byte	0
 3700              	.LLST18:
 3701 026d 72010000 		.4byte	.LVL32
 3702 0271 82010000 		.4byte	.LVL33
 3703 0275 0200     		.2byte	0x2
 3704 0277 90       		.byte	0x90
 3705 0278 4F       		.uleb128 0x4f
 3706 0279 00000000 		.4byte	0
 3707 027d 00000000 		.4byte	0
 3708              	.LLST19:
 3709 0281 C0000000 		.4byte	.LVL17
 3710 0285 F0000000 		.4byte	.LVL20
 3711 0289 0600     		.2byte	0x6
 3712 028b 03       		.byte	0x3
 3713 028c 18000000 		.4byte	_ZL5s_lfo
 3714 0290 9F       		.byte	0x9f
 3715 0291 00000000 		.4byte	0
 3716 0295 00000000 		.4byte	0
 3717              	.LLST20:
 3718 0299 CC000000 		.4byte	.LVL18
 3719 029d EC000000 		.4byte	.LVL19
 3720 02a1 0200     		.2byte	0x2
 3721 02a3 90       		.byte	0x90
 3722 02a4 4E       		.uleb128 0x4e
 3723 02a5 00000000 		.4byte	0
 3724 02a9 00000000 		.4byte	0
 3725              	.LLST21:
 3726 02ad F8000000 		.4byte	.LVL21
 3727 02b1 14010000 		.4byte	.LVL24
 3728 02b5 0200     		.2byte	0x2
 3729 02b7 90       		.byte	0x90
 3730 02b8 4D       		.uleb128 0x4d
 3731 02b9 00000000 		.4byte	0
 3732 02bd 00000000 		.4byte	0
 3733              	.LLST22:
 3734 02c1 F8000000 		.4byte	.LVL21
 3735 02c5 14010000 		.4byte	.LVL24
 3736 02c9 0600     		.2byte	0x6
 3737 02cb 03       		.byte	0x3
 3738 02cc 00000000 		.4byte	_ZL7s_delay
 3739 02d0 9F       		.byte	0x9f
 3740 02d1 00000000 		.4byte	0
 3741 02d5 00000000 		.4byte	0
 3742              	.LLST23:
 3743 02d9 08010000 		.4byte	.LVL22
 3744 02dd 14010000 		.4byte	.LVL24
 3745 02e1 0100     		.2byte	0x1
 3746 02e3 52       		.byte	0x52
 3747 02e4 00000000 		.4byte	0
 3748 02e8 00000000 		.4byte	0
 3749              	.LLST24:
 3750 02ec 08010000 		.4byte	.LVL22
 3751 02f0 14010000 		.4byte	.LVL24
 3752 02f4 0B00     		.2byte	0xb
 3753 02f6 F5       		.byte	0xf5
ARM GAS  C:\msys64\tmp\ccLgZ92a.s 			page 67


 3754 02f7 4D       		.uleb128 0x4d
 3755 02f8 25       		.uleb128 0x25
 3756 02f9 72       		.byte	0x72
 3757 02fa 00       		.sleb128 0
 3758 02fb F7       		.byte	0xf7
 3759 02fc 2C       		.uleb128 0x2c
 3760 02fd F7       		.byte	0xf7
 3761 02fe 25       		.uleb128 0x25
 3762 02ff 1C       		.byte	0x1c
 3763 0300 9F       		.byte	0x9f
 3764 0301 00000000 		.4byte	0
 3765 0305 00000000 		.4byte	0
 3766              	.LLST26:
 3767 0309 08010000 		.4byte	.LVL22
 3768 030d 14010000 		.4byte	.LVL24
 3769 0311 0600     		.2byte	0x6
 3770 0313 03       		.byte	0x3
 3771 0314 00000000 		.4byte	_ZL7s_delay
 3772 0318 9F       		.byte	0x9f
 3773 0319 00000000 		.4byte	0
 3774 031d 00000000 		.4byte	0
 3775              	.LLST27:
 3776 0321 14010000 		.4byte	.LVL24
 3777 0325 3A010000 		.4byte	.LVL28
 3778 0329 0200     		.2byte	0x2
 3779 032b 90       		.byte	0x90
 3780 032c 43       		.uleb128 0x43
 3781 032d 00000000 		.4byte	0
 3782 0331 00000000 		.4byte	0
 3783              	.LLST28:
 3784 0335 14010000 		.4byte	.LVL24
 3785 0339 3A010000 		.4byte	.LVL28
 3786 033d 0600     		.2byte	0x6
 3787 033f 03       		.byte	0x3
 3788 0340 00000000 		.4byte	_ZL7s_delay
 3789 0344 9F       		.byte	0x9f
 3790 0345 00000000 		.4byte	0
 3791 0349 00000000 		.4byte	0
 3792              	.LLST29:
 3793 034d 18010000 		.4byte	.LVL25
 3794 0351 22010000 		.4byte	.LVL26
 3795 0355 0100     		.2byte	0x1
 3796 0357 50       		.byte	0x50
 3797 0358 22010000 		.4byte	.LVL26
 3798 035c 28010000 		.4byte	.LVL27
 3799 0360 0200     		.2byte	0x2
 3800 0362 90       		.byte	0x90
 3801 0363 41       		.uleb128 0x41
 3802 0364 28010000 		.4byte	.LVL27
 3803 0368 3A010000 		.4byte	.LVL28
 3804 036c 0200     		.2byte	0x2
 3805 036e 90       		.byte	0x90
 3806 036f 4F       		.uleb128 0x4f
 3807 0370 00000000 		.4byte	0
 3808 0374 00000000 		.4byte	0
 3809              	.LLST30:
 3810 0378 18010000 		.4byte	.LVL25
ARM GAS  C:\msys64\tmp\ccLgZ92a.s 			page 68


 3811 037c 22010000 		.4byte	.LVL26
 3812 0380 0B00     		.2byte	0xb
 3813 0382 F5       		.byte	0xf5
 3814 0383 43       		.uleb128 0x43
 3815 0384 25       		.uleb128 0x25
 3816 0385 70       		.byte	0x70
 3817 0386 00       		.sleb128 0
 3818 0387 F7       		.byte	0xf7
 3819 0388 2C       		.uleb128 0x2c
 3820 0389 F7       		.byte	0xf7
 3821 038a 25       		.uleb128 0x25
 3822 038b 1C       		.byte	0x1c
 3823 038c 9F       		.byte	0x9f
 3824 038d 22010000 		.4byte	.LVL26
 3825 0391 28010000 		.4byte	.LVL27
 3826 0395 0C00     		.2byte	0xc
 3827 0397 F5       		.byte	0xf5
 3828 0398 43       		.uleb128 0x43
 3829 0399 25       		.uleb128 0x25
 3830 039a 92       		.byte	0x92
 3831 039b 41       		.uleb128 0x41
 3832 039c 00       		.sleb128 0
 3833 039d F7       		.byte	0xf7
 3834 039e 2C       		.uleb128 0x2c
 3835 039f F7       		.byte	0xf7
 3836 03a0 25       		.uleb128 0x25
 3837 03a1 1C       		.byte	0x1c
 3838 03a2 9F       		.byte	0x9f
 3839 03a3 28010000 		.4byte	.LVL27
 3840 03a7 3A010000 		.4byte	.LVL28
 3841 03ab 0C00     		.2byte	0xc
 3842 03ad F5       		.byte	0xf5
 3843 03ae 43       		.uleb128 0x43
 3844 03af 25       		.uleb128 0x25
 3845 03b0 92       		.byte	0x92
 3846 03b1 4F       		.uleb128 0x4f
 3847 03b2 00       		.sleb128 0
 3848 03b3 F7       		.byte	0xf7
 3849 03b4 2C       		.uleb128 0x2c
 3850 03b5 F7       		.byte	0xf7
 3851 03b6 25       		.uleb128 0x25
 3852 03b7 1C       		.byte	0x1c
 3853 03b8 9F       		.byte	0x9f
 3854 03b9 00000000 		.4byte	0
 3855 03bd 00000000 		.4byte	0
 3856              	.LLST32:
 3857 03c1 18010000 		.4byte	.LVL25
 3858 03c5 3A010000 		.4byte	.LVL28
 3859 03c9 0600     		.2byte	0x6
 3860 03cb 03       		.byte	0x3
 3861 03cc 00000000 		.4byte	_ZL7s_delay
 3862 03d0 9F       		.byte	0x9f
 3863 03d1 00000000 		.4byte	0
 3864 03d5 00000000 		.4byte	0
 3865              	.LLST33:
 3866 03d9 AE010000 		.4byte	.LVL36
 3867 03dd C8010000 		.4byte	.LVL38
ARM GAS  C:\msys64\tmp\ccLgZ92a.s 			page 69


 3868 03e1 0200     		.2byte	0x2
 3869 03e3 90       		.byte	0x90
 3870 03e4 4E       		.uleb128 0x4e
 3871 03e5 00000000 		.4byte	0
 3872 03e9 00000000 		.4byte	0
 3873              	.LLST34:
 3874 03ed 9A010000 		.4byte	.LVL34
 3875 03f1 AE010000 		.4byte	.LVL36
 3876 03f5 0600     		.2byte	0x6
 3877 03f7 F2       		.byte	0xf2
 3878 03f8 370B0000 		.4byte	.Ldebug_info0+2871
 3879 03fc 00       		.sleb128 0
 3880 03fd 00000000 		.4byte	0
 3881 0401 00000000 		.4byte	0
 3882              	.LLST35:
 3883 0405 9A010000 		.4byte	.LVL34
 3884 0409 AE010000 		.4byte	.LVL36
 3885 040d 0600     		.2byte	0x6
 3886 040f 03       		.byte	0x3
 3887 0410 00000000 		.4byte	_ZL7s_delay
 3888 0414 9F       		.byte	0x9f
 3889 0415 00000000 		.4byte	0
 3890 0419 00000000 		.4byte	0
 3891              	.LLST36:
 3892 041d 0C020000 		.4byte	.LVL40
 3893 0421 20020000 		.4byte	.LVL41
 3894 0425 0200     		.2byte	0x2
 3895 0427 90       		.byte	0x90
 3896 0428 41       		.uleb128 0x41
 3897 0429 00000000 		.4byte	0
 3898 042d 00000000 		.4byte	0
 3899              	.LLST37:
 3900 0431 AE020000 		.4byte	.LVL46
 3901 0435 C4020000 		.4byte	.LVL47
 3902 0439 0200     		.2byte	0x2
 3903 043b 90       		.byte	0x90
 3904 043c 4F       		.uleb128 0x4f
 3905 043d C4020000 		.4byte	.LVL47
 3906 0441 DE020000 		.4byte	.LVL50
 3907 0445 0F00     		.2byte	0xf
 3908 0447 71       		.byte	0x71
 3909 0448 00       		.sleb128 0
 3910 0449 F7       		.byte	0xf7
 3911 044a 2C       		.uleb128 0x2c
 3912 044b F7       		.byte	0xf7
 3913 044c 25       		.uleb128 0x25
 3914 044d F4       		.byte	0xf4
 3915 044e 25       		.uleb128 0x25
 3916 044f 04       		.byte	0x4
 3917 0450 00000030 		.4byte	0x30000000
 3918 0454 1E       		.byte	0x1e
 3919 0455 9F       		.byte	0x9f
 3920 0456 DE020000 		.4byte	.LVL50
 3921 045a F4020000 		.4byte	.LFE318
 3922 045e 0200     		.2byte	0x2
 3923 0460 90       		.byte	0x90
 3924 0461 4F       		.uleb128 0x4f
ARM GAS  C:\msys64\tmp\ccLgZ92a.s 			page 70


 3925 0462 00000000 		.4byte	0
 3926 0466 00000000 		.4byte	0
 3927              	.LLST38:
 3928 046a CE020000 		.4byte	.LVL48
 3929 046e DE020000 		.4byte	.LVL50
 3930 0472 0600     		.2byte	0x6
 3931 0474 9E       		.byte	0x9e
 3932 0475 04       		.uleb128 0x4
 3933 0476 3EC3AE37 		.4byte	0x37aec33e
 3934 047a 00000000 		.4byte	0
 3935 047e 00000000 		.4byte	0
 3936              	.LLST39:
 3937 0482 CE020000 		.4byte	.LVL48
 3938 0486 D2020000 		.4byte	.LVL49
 3939 048a 0200     		.2byte	0x2
 3940 048c 90       		.byte	0x90
 3941 048d 4F       		.uleb128 0x4f
 3942 048e D2020000 		.4byte	.LVL49
 3943 0492 DE020000 		.4byte	.LVL50
 3944 0496 0500     		.2byte	0x5
 3945 0498 03       		.byte	0x3
 3946 0499 00000000 		.4byte	lfo_speed
 3947 049d 00000000 		.4byte	0
 3948 04a1 00000000 		.4byte	0
 3949              	.LLST40:
 3950 04a5 CE020000 		.4byte	.LVL48
 3951 04a9 DE020000 		.4byte	.LVL50
 3952 04ad 0600     		.2byte	0x6
 3953 04af 03       		.byte	0x3
 3954 04b0 18000000 		.4byte	_ZL5s_lfo
 3955 04b4 9F       		.byte	0x9f
 3956 04b5 00000000 		.4byte	0
 3957 04b9 00000000 		.4byte	0
 3958              	.LLST41:
 3959 04bd 00000000 		.4byte	.LVL51
 3960 04c1 14000000 		.4byte	.LVL53
 3961 04c5 0200     		.2byte	0x2
 3962 04c7 31       		.byte	0x31
 3963 04c8 9F       		.byte	0x9f
 3964 04c9 00000000 		.4byte	0
 3965 04cd 00000000 		.4byte	0
 3966              	.LLST42:
 3967 04d1 00000000 		.4byte	.LVL51
 3968 04d5 14000000 		.4byte	.LVL53
 3969 04d9 0400     		.2byte	0x4
 3970 04db 0A       		.byte	0xa
 3971 04dc FFFF     		.2byte	0xffff
 3972 04de 9F       		.byte	0x9f
 3973 04df 00000000 		.4byte	0
 3974 04e3 00000000 		.4byte	0
 3975              	.LLST43:
 3976 04e7 00000000 		.4byte	.LVL51
 3977 04eb 10000000 		.4byte	.LVL52
 3978 04ef 0600     		.2byte	0x6
 3979 04f1 03       		.byte	0x3
 3980 04f2 00000000 		.4byte	_ZL7s_delay
 3981 04f6 9F       		.byte	0x9f
ARM GAS  C:\msys64\tmp\ccLgZ92a.s 			page 71


 3982 04f7 00000000 		.4byte	0
 3983 04fb 00000000 		.4byte	0
 3984              		.section	.debug_aranges,"",%progbits
 3985 0000 24000000 		.4byte	0x24
 3986 0004 0200     		.2byte	0x2
 3987 0006 00000000 		.4byte	.Ldebug_info0
 3988 000a 04       		.byte	0x4
 3989 000b 00       		.byte	0
 3990 000c 0000     		.2byte	0
 3991 000e 0000     		.2byte	0
 3992 0010 00000000 		.4byte	.Ltext0
 3993 0014 F4020000 		.4byte	.Letext0-.Ltext0
 3994 0018 00000000 		.4byte	.LFB320
 3995 001c 1C000000 		.4byte	.LFE320-.LFB320
 3996 0020 00000000 		.4byte	0
 3997 0024 00000000 		.4byte	0
 3998              		.section	.debug_ranges,"",%progbits
 3999              	.Ldebug_ranges0:
 4000 0000 6E000000 		.4byte	.LBB88
 4001 0004 7A000000 		.4byte	.LBE88
 4002 0008 7E000000 		.4byte	.LBB163
 4003 000c A2000000 		.4byte	.LBE163
 4004 0010 AE000000 		.4byte	.LBB164
 4005 0014 B0000000 		.4byte	.LBE164
 4006 0018 C0000000 		.4byte	.LBB165
 4007 001c 4E010000 		.4byte	.LBE165
 4008 0020 50010000 		.4byte	.LBB166
 4009 0024 54020000 		.4byte	.LBE166
 4010 0028 00000000 		.4byte	0
 4011 002c 00000000 		.4byte	0
 4012 0030 6E000000 		.4byte	.LBB89
 4013 0034 7A000000 		.4byte	.LBE89
 4014 0038 C0000000 		.4byte	.LBB114
 4015 003c CC000000 		.4byte	.LBE114
 4016 0040 D0000000 		.4byte	.LBB115
 4017 0044 E0000000 		.4byte	.LBE115
 4018 0048 E4000000 		.4byte	.LBB116
 4019 004c F0000000 		.4byte	.LBE116
 4020 0050 00000000 		.4byte	0
 4021 0054 00000000 		.4byte	0
 4022 0058 7E000000 		.4byte	.LBB96
 4023 005c 82000000 		.4byte	.LBE96
 4024 0060 FC000000 		.4byte	.LBB117
 4025 0064 00010000 		.4byte	.LBE117
 4026 0068 04010000 		.4byte	.LBB133
 4027 006c 14010000 		.4byte	.LBE133
 4028 0070 54010000 		.4byte	.LBB144
 4029 0074 58010000 		.4byte	.LBE144
 4030 0078 5C010000 		.4byte	.LBB145
 4031 007c 62010000 		.4byte	.LBE145
 4032 0080 00000000 		.4byte	0
 4033 0084 00000000 		.4byte	0
 4034 0088 7E000000 		.4byte	.LBB98
 4035 008c 82000000 		.4byte	.LBE98
 4036 0090 08010000 		.4byte	.LBB101
 4037 0094 14010000 		.4byte	.LBE101
 4038 0098 00000000 		.4byte	0
ARM GAS  C:\msys64\tmp\ccLgZ92a.s 			page 72


 4039 009c 00000000 		.4byte	0
 4040 00a0 82000000 		.4byte	.LBB110
 4041 00a4 86000000 		.4byte	.LBE110
 4042 00a8 AE000000 		.4byte	.LBB113
 4043 00ac B0000000 		.4byte	.LBE113
 4044 00b0 00000000 		.4byte	0
 4045 00b4 00000000 		.4byte	0
 4046 00b8 00010000 		.4byte	.LBB118
 4047 00bc 04010000 		.4byte	.LBE118
 4048 00c0 14010000 		.4byte	.LBB134
 4049 00c4 1C010000 		.4byte	.LBE134
 4050 00c8 20010000 		.4byte	.LBB135
 4051 00cc 24010000 		.4byte	.LBE135
 4052 00d0 28010000 		.4byte	.LBB136
 4053 00d4 3A010000 		.4byte	.LBE136
 4054 00d8 00000000 		.4byte	0
 4055 00dc 00000000 		.4byte	0
 4056 00e0 18010000 		.4byte	.LBB120
 4057 00e4 1C010000 		.4byte	.LBE120
 4058 00e8 28010000 		.4byte	.LBB127
 4059 00ec 2C010000 		.4byte	.LBE127
 4060 00f0 32010000 		.4byte	.LBB129
 4061 00f4 3A010000 		.4byte	.LBE129
 4062 00f8 00000000 		.4byte	0
 4063 00fc 00000000 		.4byte	0
 4064 0100 20010000 		.4byte	.LBB124
 4065 0104 24010000 		.4byte	.LBE124
 4066 0108 2C010000 		.4byte	.LBB128
 4067 010c 32010000 		.4byte	.LBE128
 4068 0110 00000000 		.4byte	0
 4069 0114 00000000 		.4byte	0
 4070 0118 46010000 		.4byte	.LBB137
 4071 011c 4A010000 		.4byte	.LBE137
 4072 0120 8E010000 		.4byte	.LBB151
 4073 0124 92010000 		.4byte	.LBE151
 4074 0128 AE010000 		.4byte	.LBB154
 4075 012c B2010000 		.4byte	.LBE154
 4076 0130 B6010000 		.4byte	.LBB155
 4077 0134 BA010000 		.4byte	.LBE155
 4078 0138 BE010000 		.4byte	.LBB156
 4079 013c C2010000 		.4byte	.LBE156
 4080 0140 C4010000 		.4byte	.LBB158
 4081 0144 C8010000 		.4byte	.LBE158
 4082 0148 00000000 		.4byte	0
 4083 014c 00000000 		.4byte	0
 4084 0150 76010000 		.4byte	.LBB146
 4085 0154 7E010000 		.4byte	.LBE146
 4086 0158 9E010000 		.4byte	.LBB152
 4087 015c A6010000 		.4byte	.LBE152
 4088 0160 AA010000 		.4byte	.LBB153
 4089 0164 AE010000 		.4byte	.LBE153
 4090 0168 C2010000 		.4byte	.LBB157
 4091 016c C4010000 		.4byte	.LBE157
 4092 0170 00000000 		.4byte	0
 4093 0174 00000000 		.4byte	0
 4094 0178 0C020000 		.4byte	.LBB159
 4095 017c 18020000 		.4byte	.LBE159
ARM GAS  C:\msys64\tmp\ccLgZ92a.s 			page 73


 4096 0180 1C020000 		.4byte	.LBB162
 4097 0184 20020000 		.4byte	.LBE162
 4098 0188 00000000 		.4byte	0
 4099 018c 00000000 		.4byte	0
 4100 0190 C6020000 		.4byte	.LBB169
 4101 0194 CA020000 		.4byte	.LBE169
 4102 0198 CE020000 		.4byte	.LBB172
 4103 019c DE020000 		.4byte	.LBE172
 4104 01a0 00000000 		.4byte	0
 4105 01a4 00000000 		.4byte	0
 4106 01a8 00000000 		.4byte	.LBB180
 4107 01ac 04000000 		.4byte	.LBE180
 4108 01b0 08000000 		.4byte	.LBB186
 4109 01b4 10000000 		.4byte	.LBE186
 4110 01b8 00000000 		.4byte	0
 4111 01bc 00000000 		.4byte	0
 4112 01c0 04000000 		.4byte	.LBB183
 4113 01c4 08000000 		.4byte	.LBE183
 4114 01c8 10000000 		.4byte	.LBB187
 4115 01cc 1C000000 		.4byte	.LBE187
 4116 01d0 00000000 		.4byte	0
 4117 01d4 00000000 		.4byte	0
 4118 01d8 00000000 		.4byte	.Ltext0
 4119 01dc F4020000 		.4byte	.Letext0
 4120 01e0 00000000 		.4byte	.LFB320
 4121 01e4 1C000000 		.4byte	.LFE320
 4122 01e8 00000000 		.4byte	0
 4123 01ec 00000000 		.4byte	0
 4124              		.section	.debug_line,"",%progbits
 4125              	.Ldebug_line0:
 4126 0000 54040000 		.section	.debug_str,"MS",%progbits,1
 4126      0200BB02 
 4126      00000201 
 4126      FB0E0D00 
 4126      01010101 
 4127              	.LASF21:
 4128 0000 6633325F 		.ascii	"f32_t\000"
 4128      7400
 4129              	.LASF58:
 4130 0006 5F5A4E33 		.ascii	"_ZN3dsp9SimpleLFO12triangle_uniEv\000"
 4130      64737039 
 4130      53696D70 
 4130      6C654C46 
 4130      4F313274 
 4131              	.LASF132:
 4132 0028 5F686F6F 		.ascii	"_hook_param\000"
 4132      6B5F7061 
 4132      72616D00 
 4133              	.LASF151:
 4134 0034 77745F70 		.ascii	"wt_par_lut_f\000"
 4134      61725F6C 
 4134      75745F66 
 4134      00
 4135              	.LASF106:
 4136 0041 72656164 		.ascii	"read1Frac\000"
 4136      31467261 
 4136      6300
ARM GAS  C:\msys64\tmp\ccLgZ92a.s 			page 74


 4137              	.LASF56:
 4138 004b 5F5A4E33 		.ascii	"_ZN3dsp9SimpleLFO11triangle_biEv\000"
 4138      64737039 
 4138      53696D70 
 4138      6C654C46 
 4138      4F313174 
 4139              	.LASF153:
 4140 006c 735F6465 		.ascii	"s_delay_ram\000"
 4140      6C61795F 
 4140      72616D00 
 4141              	.LASF161:
 4142 0078 474E5520 		.ascii	"GNU C++11 5.4.1 20160919 (release) [ARM/embedded-5-"
 4142      432B2B31 
 4142      3120352E 
 4142      342E3120 
 4142      32303136 
 4143 00ab 6272616E 		.ascii	"branch revision 240496] -mcpu=cortex-m4 -mthumb -mn"
 4143      63682072 
 4143      65766973 
 4143      696F6E20 
 4143      32343034 
 4144 00de 6F2D7468 		.ascii	"o-thumb-interwork -mlittle-endian -mfloat-abi=hard "
 4144      756D622D 
 4144      696E7465 
 4144      72776F72 
 4144      6B202D6D 
 4145 0111 2D6D6670 		.ascii	"-mfpu=fpv4-sp-d16 -g -Os -std=c++11 -fsingle-precis"
 4145      753D6670 
 4145      76342D73 
 4145      702D6431 
 4145      36202D67 
 4146 0144 696F6E2D 		.ascii	"ion-constant -fcheck-new -fno-rtti -fno-exceptions "
 4146      636F6E73 
 4146      74616E74 
 4146      202D6663 
 4146      6865636B 
 4147 0177 2D666E6F 		.ascii	"-fno-non-call-exceptions\000"
 4147      2D6E6F6E 
 4147      2D63616C 
 4147      6C2D6578 
 4147      63657074 
 4148              	.LASF12:
 4149 0190 756E7369 		.ascii	"unsigned int\000"
 4149      676E6564 
 4149      20696E74 
 4149      00
 4150              	.LASF94:
 4151 019d 72656164 		.ascii	"readFrac\000"
 4151      46726163 
 4151      00
 4152              	.LASF170:
 4153 01a6 5F474C4F 		.ascii	"_GLOBAL__sub_I_lfo_speed\000"
 4153      42414C5F 
 4153      5F737562 
 4153      5F495F6C 
 4153      666F5F73 
 4154              	.LASF120:
ARM GAS  C:\msys64\tmp\ccLgZ92a.s 			page 75


 4155 01bf 66726163 		.ascii	"frac\000"
 4155      00
 4156              	.LASF6:
 4157 01c4 5F5F696E 		.ascii	"__int32_t\000"
 4157      7433325F 
 4157      7400
 4158              	.LASF147:
 4159 01ce 6B5F6F73 		.ascii	"k_osc_api_version\000"
 4159      635F6170 
 4159      695F7665 
 4159      7273696F 
 4159      6E00
 4160              	.LASF125:
 4161 01e0 706C6174 		.ascii	"platform\000"
 4161      666F726D 
 4161      00
 4162              	.LASF135:
 4163 01e9 76616C66 		.ascii	"valf\000"
 4163      00
 4164              	.LASF112:
 4165 01ee 73695F66 		.ascii	"si_fabsf\000"
 4165      61627366 
 4165      00
 4166              	.LASF140:
 4167 01f7 74616E70 		.ascii	"tanpi_lut_f\000"
 4167      695F6C75 
 4167      745F6600 
 4168              	.LASF63:
 4169 0203 7361775F 		.ascii	"saw_bi\000"
 4169      626900
 4170              	.LASF137:
 4171 020a 6B5F6678 		.ascii	"k_fx_api_version\000"
 4171      5F617069 
 4171      5F766572 
 4171      73696F6E 
 4171      00
 4172              	.LASF15:
 4173 021b 75696E74 		.ascii	"uint32_t\000"
 4173      33325F74 
 4173      00
 4174              	.LASF118:
 4175 0224 77617665 		.ascii	"waveshape\000"
 4175      73686170 
 4175      6500
 4176              	.LASF93:
 4177 022e 5F5A4E33 		.ascii	"_ZN3dsp13DualDelayLine4readEm\000"
 4177      64737031 
 4177      33447561 
 4177      6C44656C 
 4177      61794C69 
 4178              	.LASF50:
 4179 024c 5F5A4E33 		.ascii	"_ZN3dsp9SimpleLFO8sine_uniEv\000"
 4179      64737039 
 4179      53696D70 
 4179      6C654C46 
 4179      4F387369 
 4180              	.LASF128:
ARM GAS  C:\msys64\tmp\ccLgZ92a.s 			page 76


 4181 0269 76616C70 		.ascii	"valp\000"
 4181      00
 4182              	.LASF154:
 4183 026e 735F6C66 		.ascii	"s_lfo\000"
 4183      6F00
 4184              	.LASF148:
 4185 0274 6D696469 		.ascii	"midi_to_hz_lut_f\000"
 4185      5F746F5F 
 4185      687A5F6C 
 4185      75745F66 
 4185      00
 4186              	.LASF75:
 4187 0285 73717561 		.ascii	"square_bi_off\000"
 4187      72655F62 
 4187      695F6F66 
 4187      6600
 4188              	.LASF0:
 4189 0293 666C6F61 		.ascii	"float\000"
 4189      7400
 4190              	.LASF119:
 4191 0299 62617365 		.ascii	"base\000"
 4191      00
 4192              	.LASF133:
 4193 029e 696E6465 		.ascii	"index\000"
 4193      7800
 4194              	.LASF26:
 4195 02a4 6B5F7573 		.ascii	"k_user_module_delfx\000"
 4195      65725F6D 
 4195      6F64756C 
 4195      655F6465 
 4195      6C667800 
 4196              	.LASF40:
 4197 02b8 5F5A4E33 		.ascii	"_ZN3dsp9SimpleLFO5resetEv\000"
 4197      64737039 
 4197      53696D70 
 4197      6C654C46 
 4197      4F357265 
 4198              	.LASF11:
 4199 02d2 6C6F6E67 		.ascii	"long long unsigned int\000"
 4199      206C6F6E 
 4199      6720756E 
 4199      7369676E 
 4199      65642069 
 4200              	.LASF71:
 4201 02e9 73717561 		.ascii	"square_bi\000"
 4201      72655F62 
 4201      6900
 4202              	.LASF129:
 4203 02f3 6C666F5F 		.ascii	"lfo_cycle\000"
 4203      6379636C 
 4203      6500
 4204              	.LASF48:
 4205 02fd 5F5A4E33 		.ascii	"_ZN3dsp9SimpleLFO7sine_biEv\000"
 4205      64737039 
 4205      53696D70 
 4205      6C654C46 
 4205      4F377369 
ARM GAS  C:\msys64\tmp\ccLgZ92a.s 			page 77


 4206              	.LASF86:
 4207 0319 636C6561 		.ascii	"clear\000"
 4207      7200
 4208              	.LASF88:
 4209 031f 7365744D 		.ascii	"setMemory\000"
 4209      656D6F72 
 4209      7900
 4210              	.LASF122:
 4211 0329 5F5F696E 		.ascii	"__initialize_p\000"
 4211      69746961 
 4211      6C697A65 
 4211      5F7000
 4212              	.LASF51:
 4213 0338 73696E65 		.ascii	"sine_bi_off\000"
 4213      5F62695F 
 4213      6F666600 
 4214              	.LASF167:
 4215 0344 32317573 		.ascii	"21user_delfx_param_id_t\000"
 4215      65725F64 
 4215      656C6678 
 4215      5F706172 
 4215      616D5F69 
 4216              	.LASF16:
 4217 035c 73697A65 		.ascii	"size_t\000"
 4217      5F7400
 4218              	.LASF27:
 4219 0363 6B5F7573 		.ascii	"k_user_module_revfx\000"
 4219      65725F6D 
 4219      6F64756C 
 4219      655F7265 
 4219      76667800 
 4220              	.LASF46:
 4221 0377 73696E65 		.ascii	"sine_bi\000"
 4221      5F626900 
 4222              	.LASF34:
 4223 037f 6B5F6E75 		.ascii	"k_num_user_delfx_param_id\000"
 4223      6D5F7573 
 4223      65725F64 
 4223      656C6678 
 4223      5F706172 
 4224              	.LASF130:
 4225 0399 64656C53 		.ascii	"delSampleL\000"
 4225      616D706C 
 4225      654C00
 4226              	.LASF123:
 4227 03a4 5F5F7072 		.ascii	"__priority\000"
 4227      696F7269 
 4227      747900
 4228              	.LASF91:
 4229 03af 5F5A4E33 		.ascii	"_ZN3dsp13DualDelayLine5writeERK9f32pair_t\000"
 4229      64737031 
 4229      33447561 
 4229      6C44656C 
 4229      61794C69 
 4230              	.LASF65:
 4231 03d9 7361775F 		.ascii	"saw_uni\000"
 4231      756E6900 
ARM GAS  C:\msys64\tmp\ccLgZ92a.s 			page 78


 4232              	.LASF89:
 4233 03e1 5F5A4E33 		.ascii	"_ZN3dsp13DualDelayLine9setMemoryEP9f32pair_tj\000"
 4233      64737031 
 4233      33447561 
 4233      6C44656C 
 4233      61794C69 
 4234              	.LASF131:
 4235 040f 64656C53 		.ascii	"delSampleR\000"
 4235      616D706C 
 4235      655200
 4236              	.LASF47:
 4237 041a 5F5A4E33 		.ascii	"_ZN3dsp9SimpleLFOC4Ev\000"
 4237      64737039 
 4237      53696D70 
 4237      6C654C46 
 4237      4F433445 
 4238              	.LASF36:
 4239 0430 70686930 		.ascii	"phi0\000"
 4239      00
 4240              	.LASF69:
 4241 0435 7361775F 		.ascii	"saw_uni_off\000"
 4241      756E695F 
 4241      6F666600 
 4242              	.LASF31:
 4243 0441 6B5F7573 		.ascii	"k_user_delfx_param_depth\000"
 4243      65725F64 
 4243      656C6678 
 4243      5F706172 
 4243      616D5F64 
 4244              	.LASF102:
 4245 045a 72656164 		.ascii	"read0Frac\000"
 4245      30467261 
 4245      6300
 4246              	.LASF70:
 4247 0464 5F5A4E33 		.ascii	"_ZN3dsp9SimpleLFO11saw_uni_offEf\000"
 4247      64737039 
 4247      53696D70 
 4247      6C654C46 
 4247      4F313173 
 4248              	.LASF44:
 4249 0485 5F5A4E33 		.ascii	"_ZN3dsp9SimpleLFO5setW0Ef\000"
 4249      64737039 
 4249      53696D70 
 4249      6C654C46 
 4249      4F357365 
 4250              	.LASF107:
 4251 049f 5F5A4E33 		.ascii	"_ZN3dsp13DualDelayLine9read1FracEf\000"
 4251      64737031 
 4251      33447561 
 4251      6C44656C 
 4251      61794C69 
 4252              	.LASF19:
 4253 04c2 63686172 		.ascii	"char\000"
 4253      00
 4254              	.LASF142:
 4255 04c7 706F7732 		.ascii	"pow2_lut_f\000"
 4255      5F6C7574 
ARM GAS  C:\msys64\tmp\ccLgZ92a.s 			page 79


 4255      5F6600
 4256              	.LASF59:
 4257 04d2 74726961 		.ascii	"triangle_bi_off\000"
 4257      6E676C65 
 4257      5F62695F 
 4257      6F666600 
 4258              	.LASF136:
 4259 04e2 6B5F6678 		.ascii	"k_fx_api_platform\000"
 4259      5F617069 
 4259      5F706C61 
 4259      74666F72 
 4259      6D00
 4260              	.LASF76:
 4261 04f4 5F5A4E33 		.ascii	"_ZN3dsp9SimpleLFO13square_bi_offEf\000"
 4261      64737039 
 4261      53696D70 
 4261      6C654C46 
 4261      4F313373 
 4262              	.LASF168:
 4263 0517 6275665F 		.ascii	"buf_clr_f32\000"
 4263      636C725F 
 4263      66333200 
 4264              	.LASF108:
 4265 0523 72656164 		.ascii	"read1Fracz\000"
 4265      31467261 
 4265      637A00
 4266              	.LASF127:
 4267 052e 6672616D 		.ascii	"frames\000"
 4267      657300
 4268              	.LASF144:
 4269 0535 73636865 		.ascii	"schetzen_lut_f\000"
 4269      747A656E 
 4269      5F6C7574 
 4269      5F6600
 4270              	.LASF13:
 4271 0544 75696E74 		.ascii	"uint8_t\000"
 4271      385F7400 
 4272              	.LASF145:
 4273 054c 62697472 		.ascii	"bitres_lut_f\000"
 4273      65735F6C 
 4273      75745F66 
 4273      00
 4274              	.LASF157:
 4275 0559 6761696E 		.ascii	"gain\000"
 4275      00
 4276              	.LASF42:
 4277 055e 5F5A4E33 		.ascii	"_ZN3dsp9SimpleLFO5setF0Eff\000"
 4277      64737039 
 4277      53696D70 
 4277      6C654C46 
 4277      4F357365 
 4278              	.LASF54:
 4279 0579 5F5A4E33 		.ascii	"_ZN3dsp9SimpleLFO12sine_uni_offEf\000"
 4279      64737039 
 4279      53696D70 
 4279      6C654C46 
 4279      4F313273 
ARM GAS  C:\msys64\tmp\ccLgZ92a.s 			page 80


 4280              	.LASF100:
 4281 059b 72656164 		.ascii	"read1\000"
 4281      3100
 4282              	.LASF139:
 4283 05a1 6C6F675F 		.ascii	"log_lut_f\000"
 4283      6C75745F 
 4283      6600
 4284              	.LASF87:
 4285 05ab 5F5A4E33 		.ascii	"_ZN3dsp13DualDelayLine5clearEv\000"
 4285      64737031 
 4285      33447561 
 4285      6C44656C 
 4285      61794C69 
 4286              	.LASF10:
 4287 05ca 6C6F6E67 		.ascii	"long long int\000"
 4287      206C6F6E 
 4287      6720696E 
 4287      7400
 4288              	.LASF90:
 4289 05d8 77726974 		.ascii	"write\000"
 4289      6500
 4290              	.LASF82:
 4291 05de 6D577269 		.ascii	"mWriteIdx\000"
 4291      74654964 
 4291      7800
 4292              	.LASF81:
 4293 05e8 6D4D6173 		.ascii	"mMask\000"
 4293      6B00
 4294              	.LASF99:
 4295 05ee 5F5A4E33 		.ascii	"_ZN3dsp13DualDelayLine5read0Em\000"
 4295      64737031 
 4295      33447561 
 4295      6C44656C 
 4295      61794C69 
 4296              	.LASF95:
 4297 060d 5F5A4E33 		.ascii	"_ZN3dsp13DualDelayLine8readFracEf\000"
 4297      64737031 
 4297      33447561 
 4297      6C44656C 
 4297      61794C69 
 4298              	.LASF78:
 4299 062f 6D4C696E 		.ascii	"mLine\000"
 4299      6500
 4300              	.LASF158:
 4301 0635 77657458 		.ascii	"wetXNL\000"
 4301      4E4C00
 4302              	.LASF105:
 4303 063c 5F5A4E33 		.ascii	"_ZN3dsp13DualDelayLine10read0FraczEmf\000"
 4303      64737031 
 4303      33447561 
 4303      6C44656C 
 4303      61794C69 
 4304              	.LASF159:
 4305 0662 77657458 		.ascii	"wetXNR\000"
 4305      4E5200
 4306              	.LASF74:
 4307 0669 5F5A4E33 		.ascii	"_ZN3dsp9SimpleLFO10square_uniEv\000"
ARM GAS  C:\msys64\tmp\ccLgZ92a.s 			page 81


 4307      64737039 
 4307      53696D70 
 4307      6C654C46 
 4307      4F313073 
 4308              	.LASF29:
 4309 0689 6B5F6E75 		.ascii	"k_num_user_modules\000"
 4309      6D5F7573 
 4309      65725F6D 
 4309      6F64756C 
 4309      657300
 4310              	.LASF32:
 4311 069c 6B5F7573 		.ascii	"k_user_delfx_param_reserved0\000"
 4311      65725F64 
 4311      656C6678 
 4311      5F706172 
 4311      616D5F72 
 4312              	.LASF96:
 4313 06b9 72656164 		.ascii	"readFracz\000"
 4313      46726163 
 4313      7A00
 4314              	.LASF64:
 4315 06c3 5F5A4E33 		.ascii	"_ZN3dsp9SimpleLFO6saw_biEv\000"
 4315      64737039 
 4315      53696D70 
 4315      6C654C46 
 4315      4F367361 
 4316              	.LASF116:
 4317 06de 6C696E65 		.ascii	"line_size\000"
 4317      5F73697A 
 4317      6500
 4318              	.LASF52:
 4319 06e8 5F5A4E33 		.ascii	"_ZN3dsp9SimpleLFO11sine_bi_offEf\000"
 4319      64737039 
 4319      53696D70 
 4319      6C654C46 
 4319      4F313173 
 4320              	.LASF98:
 4321 0709 72656164 		.ascii	"read0\000"
 4321      3000
 4322              	.LASF165:
 4323 070f 35663332 		.ascii	"5f32_t\000"
 4323      5F7400
 4324              	.LASF80:
 4325 0716 6D53697A 		.ascii	"mSize\000"
 4325      6500
 4326              	.LASF166:
 4327 071c 39663332 		.ascii	"9f32pair_t\000"
 4327      70616972 
 4327      5F7400
 4328              	.LASF149:
 4329 0727 77745F73 		.ascii	"wt_saw_lut_f\000"
 4329      61775F6C 
 4329      75745F66 
 4329      00
 4330              	.LASF28:
 4331 0734 6B5F7573 		.ascii	"k_user_module_osc\000"
 4331      65725F6D 
ARM GAS  C:\msys64\tmp\ccLgZ92a.s 			page 82


 4331      6F64756C 
 4331      655F6F73 
 4331      6300
 4332              	.LASF17:
 4333 0746 6C6F6E67 		.ascii	"long double\000"
 4333      20646F75 
 4333      626C6500 
 4334              	.LASF111:
 4335 0752 74686973 		.ascii	"this\000"
 4335      00
 4336              	.LASF103:
 4337 0757 5F5A4E33 		.ascii	"_ZN3dsp13DualDelayLine9read0FracEf\000"
 4337      64737031 
 4337      33447561 
 4337      6C44656C 
 4337      61794C69 
 4338              	.LASF169:
 4339 077a 5F5F7374 		.ascii	"__static_initialization_and_destruction_0\000"
 4339      61746963 
 4339      5F696E69 
 4339      7469616C 
 4339      697A6174 
 4340              	.LASF55:
 4341 07a4 74726961 		.ascii	"triangle_bi\000"
 4341      6E676C65 
 4341      5F626900 
 4342              	.LASF126:
 4343 07b0 5F686F6F 		.ascii	"_hook_process\000"
 4343      6B5F7072 
 4343      6F636573 
 4343      7300
 4344              	.LASF62:
 4345 07be 5F5A4E33 		.ascii	"_ZN3dsp9SimpleLFO16triangle_uni_offEf\000"
 4345      64737039 
 4345      53696D70 
 4345      6C654C46 
 4345      4F313674 
 4346              	.LASF124:
 4347 07e4 5F686F6F 		.ascii	"_hook_init\000"
 4347      6B5F696E 
 4347      697400
 4348              	.LASF3:
 4349 07ef 73686F72 		.ascii	"short int\000"
 4349      7420696E 
 4349      7400
 4350              	.LASF141:
 4351 07f9 73717274 		.ascii	"sqrtm2log_lut_f\000"
 4351      6D326C6F 
 4351      675F6C75 
 4351      745F6600 
 4352              	.LASF143:
 4353 0809 63756269 		.ascii	"cubicsat_lut_f\000"
 4353      63736174 
 4353      5F6C7574 
 4353      5F6600
 4354              	.LASF150:
 4355 0818 77745F73 		.ascii	"wt_sqr_lut_f\000"
ARM GAS  C:\msys64\tmp\ccLgZ92a.s 			page 83


 4355      71725F6C 
 4355      75745F66 
 4355      00
 4356              	.LASF7:
 4357 0825 6C6F6E67 		.ascii	"long int\000"
 4357      20696E74 
 4357      00
 4358              	.LASF41:
 4359 082e 73657446 		.ascii	"setF0\000"
 4359      3000
 4360              	.LASF97:
 4361 0834 5F5A4E33 		.ascii	"_ZN3dsp13DualDelayLine9readFraczEmf\000"
 4361      64737031 
 4361      33447561 
 4361      6C44656C 
 4361      61794C69 
 4362              	.LASF39:
 4363 0858 5F5A4E33 		.ascii	"_ZN3dsp9SimpleLFO5cycleEv\000"
 4363      64737039 
 4363      53696D70 
 4363      6C654C46 
 4363      4F356379 
 4364              	.LASF83:
 4365 0872 4475616C 		.ascii	"DualDelayLine\000"
 4365      44656C61 
 4365      794C696E 
 4365      6500
 4366              	.LASF25:
 4367 0880 6B5F7573 		.ascii	"k_user_module_modfx\000"
 4367      65725F6D 
 4367      6F64756C 
 4367      655F6D6F 
 4367      64667800 
 4368              	.LASF35:
 4369 0894 75736572 		.ascii	"user_delfx_param_id_t\000"
 4369      5F64656C 
 4369      66785F70 
 4369      6172616D 
 4369      5F69645F 
 4370              	.LASF49:
 4371 08aa 73696E65 		.ascii	"sine_uni\000"
 4371      5F756E69 
 4371      00
 4372              	.LASF60:
 4373 08b3 5F5A4E33 		.ascii	"_ZN3dsp9SimpleLFO15triangle_bi_offEf\000"
 4373      64737039 
 4373      53696D70 
 4373      6C654C46 
 4373      4F313574 
 4374              	.LASF121:
 4375 08d8 70686966 		.ascii	"phif\000"
 4375      00
 4376              	.LASF117:
 4377 08dd 66617374 		.ascii	"fastertanhf\000"
 4377      65727461 
 4377      6E686600 
 4378              	.LASF38:
ARM GAS  C:\msys64\tmp\ccLgZ92a.s 			page 84


 4379 08e9 72657365 		.ascii	"reset\000"
 4379      7400
 4380              	.LASF5:
 4381 08ef 5F5F7569 		.ascii	"__uint8_t\000"
 4381      6E74385F 
 4381      7400
 4382              	.LASF92:
 4383 08f9 72656164 		.ascii	"read\000"
 4383      00
 4384              	.LASF84:
 4385 08fe 5F5A4E33 		.ascii	"_ZN3dsp13DualDelayLineC4Ev\000"
 4385      64737031 
 4385      33447561 
 4385      6C44656C 
 4385      61794C69 
 4386              	.LASF53:
 4387 0919 73696E65 		.ascii	"sine_uni_off\000"
 4387      5F756E69 
 4387      5F6F6666 
 4387      00
 4388              	.LASF30:
 4389 0926 6B5F7573 		.ascii	"k_user_delfx_param_time\000"
 4389      65725F64 
 4389      656C6678 
 4389      5F706172 
 4389      616D5F74 
 4390              	.LASF23:
 4391 093e 7133315F 		.ascii	"q31_t\000"
 4391      7400
 4392              	.LASF18:
 4393 0944 73697A65 		.ascii	"sizetype\000"
 4393      74797065 
 4393      00
 4394              	.LASF9:
 4395 094d 6C6F6E67 		.ascii	"long unsigned int\000"
 4395      20756E73 
 4395      69676E65 
 4395      6420696E 
 4395      7400
 4396              	.LASF104:
 4397 095f 72656164 		.ascii	"read0Fracz\000"
 4397      30467261 
 4397      637A00
 4398              	.LASF138:
 4399 096a 77745F73 		.ascii	"wt_sine_lut_f\000"
 4399      696E655F 
 4399      6C75745F 
 4399      6600
 4400              	.LASF43:
 4401 0978 73657457 		.ascii	"setW0\000"
 4401      3000
 4402              	.LASF14:
 4403 097e 696E7433 		.ascii	"int32_t\000"
 4403      325F7400 
 4404              	.LASF77:
 4405 0986 73717561 		.ascii	"square_uni_off\000"
 4405      72655F75 
ARM GAS  C:\msys64\tmp\ccLgZ92a.s 			page 85


 4405      6E695F6F 
 4405      666600
 4406              	.LASF156:
 4407 0995 735F6D69 		.ascii	"s_mix\000"
 4407      7800
 4408              	.LASF114:
 4409 099b 6C696E69 		.ascii	"linintf\000"
 4409      6E746600 
 4410              	.LASF110:
 4411 09a3 5F5A4E33 		.ascii	"_ZN3dsp13DualDelayLine10read1FraczEmf\000"
 4411      64737031 
 4411      33447561 
 4411      6C44656C 
 4411      61794C69 
 4412              	.LASF115:
 4413 09c9 66737265 		.ascii	"fsrecip\000"
 4413      63697000 
 4414              	.LASF155:
 4415 09d1 6C666F5F 		.ascii	"lfo_speed\000"
 4415      73706565 
 4415      6400
 4416              	.LASF2:
 4417 09db 756E7369 		.ascii	"unsigned char\000"
 4417      676E6564 
 4417      20636861 
 4417      7200
 4418              	.LASF8:
 4419 09e9 5F5F7569 		.ascii	"__uint32_t\000"
 4419      6E743332 
 4419      5F7400
 4420              	.LASF61:
 4421 09f4 74726961 		.ascii	"triangle_uni_off\000"
 4421      6E676C65 
 4421      5F756E69 
 4421      5F6F6666 
 4421      00
 4422              	.LASF113:
 4423 0a05 6E657874 		.ascii	"nextpow2_u32\000"
 4423      706F7732 
 4423      5F753332 
 4423      00
 4424              	.LASF24:
 4425 0a12 6B5F7573 		.ascii	"k_user_module_global\000"
 4425      65725F6D 
 4425      6F64756C 
 4425      655F676C 
 4425      6F62616C 
 4426              	.LASF33:
 4427 0a27 6B5F7573 		.ascii	"k_user_delfx_param_shift_depth\000"
 4427      65725F64 
 4427      656C6678 
 4427      5F706172 
 4427      616D5F73 
 4428              	.LASF152:
 4429 0a46 735F6465 		.ascii	"s_delay\000"
 4429      6C617900 
 4430              	.LASF164:
ARM GAS  C:\msys64\tmp\ccLgZ92a.s 			page 86


 4431 0a4e 6465636C 		.ascii	"decltype(nullptr)\000"
 4431      74797065 
 4431      286E756C 
 4431      6C707472 
 4431      2900
 4432              	.LASF72:
 4433 0a60 73717561 		.ascii	"square_uni\000"
 4433      72655F75 
 4433      6E6900
 4434              	.LASF109:
 4435 0a6b 5F5A4E33 		.ascii	"_ZN3dsp9SimpleLFO14square_uni_offEf\000"
 4435      64737039 
 4435      53696D70 
 4435      6C654C46 
 4435      4F313473 
 4436              	.LASF22:
 4437 0a8f 66333270 		.ascii	"f32pair_t\000"
 4437      6169725F 
 4437      7400
 4438              	.LASF160:
 4439 0a99 62706D5F 		.ascii	"bpm_valf\000"
 4439      76616C66 
 4439      00
 4440              	.LASF67:
 4441 0aa2 7361775F 		.ascii	"saw_bi_off\000"
 4441      62695F6F 
 4441      666600
 4442              	.LASF1:
 4443 0aad 7369676E 		.ascii	"signed char\000"
 4443      65642063 
 4443      68617200 
 4444              	.LASF101:
 4445 0ab9 5F5A4E33 		.ascii	"_ZN3dsp13DualDelayLine5read1Em\000"
 4445      64737031 
 4445      33447561 
 4445      6C44656C 
 4445      61794C69 
 4446              	.LASF85:
 4447 0ad8 5F5A4E33 		.ascii	"_ZN3dsp13DualDelayLineC4EP9f32pair_tj\000"
 4447      64737031 
 4447      33447561 
 4447      6C44656C 
 4447      61794C69 
 4448              	.LASF4:
 4449 0afe 73686F72 		.ascii	"short unsigned int\000"
 4449      7420756E 
 4449      7369676E 
 4449      65642069 
 4449      6E7400
 4450              	.LASF73:
 4451 0b11 5F5A4E33 		.ascii	"_ZN3dsp9SimpleLFO9square_biEv\000"
 4451      64737039 
 4451      53696D70 
 4451      6C654C46 
 4451      4F397371 
 4452              	.LASF79:
 4453 0b2f 6D467261 		.ascii	"mFracZ\000"
ARM GAS  C:\msys64\tmp\ccLgZ92a.s 			page 87


 4453      635A00
 4454              	.LASF20:
 4455 0b36 646F7562 		.ascii	"double\000"
 4455      6C6500
 4456              	.LASF68:
 4457 0b3d 5F5A4E33 		.ascii	"_ZN3dsp9SimpleLFO10saw_bi_offEf\000"
 4457      64737039 
 4457      53696D70 
 4457      6C654C46 
 4457      4F313073 
 4458              	.LASF163:
 4459 0b5d 433A5C75 		.ascii	"C:\\users\\bradl\\Desktop\\Code Projects\\KorgFX\\K"
 4459      73657273 
 4459      5C627261 
 4459      646C5C44 
 4459      65736B74 
 4460 0b8a 6F726744 		.ascii	"orgDelayFXSet\\Delays\\platform\\minilogue-xd\\chor"
 4460      656C6179 
 4460      46585365 
 4460      745C4465 
 4460      6C617973 
 4461 0bb9 757300   		.ascii	"us\000"
 4462              	.LASF162:
 4463 0bbc 2E2F7372 		.ascii	"./src/chorus.cpp\000"
 4463      632F6368 
 4463      6F727573 
 4463      2E637070 
 4463      00
 4464              	.LASF57:
 4465 0bcd 74726961 		.ascii	"triangle_uni\000"
 4465      6E676C65 
 4465      5F756E69 
 4465      00
 4466              	.LASF134:
 4467 0bda 76616C75 		.ascii	"value\000"
 4467      6500
 4468              	.LASF66:
 4469 0be0 5F5A4E33 		.ascii	"_ZN3dsp9SimpleLFO7saw_uniEv\000"
 4469      64737039 
 4469      53696D70 
 4469      6C654C46 
 4469      4F377361 
 4470              	.LASF37:
 4471 0bfc 6379636C 		.ascii	"cycle\000"
 4471      6500
 4472              	.LASF45:
 4473 0c02 53696D70 		.ascii	"SimpleLFO\000"
 4473      6C654C46 
 4473      4F00
 4474              	.LASF146:
 4475 0c0c 6B5F6F73 		.ascii	"k_osc_api_platform\000"
 4475      635F6170 
 4475      695F706C 
 4475      6174666F 
 4475      726D00
 4476              		.ident	"GCC: (GNU Tools for ARM Embedded Processors) 5.4.1 20160919 (release) [ARM/embedded-5-bran
ARM GAS  C:\msys64\tmp\ccLgZ92a.s 			page 88


DEFINED SYMBOLS
                            *ABS*:00000000 chorus.cpp
C:\msys64\tmp\ccLgZ92a.s:21     .text:00000000 $t
C:\msys64\tmp\ccLgZ92a.s:26     .text:00000000 _hook_init
C:\msys64\tmp\ccLgZ92a.s:110    .text:00000058 $d
C:\msys64\tmp\ccLgZ92a.s:119    .text:00000068 $t
C:\msys64\tmp\ccLgZ92a.s:124    .text:00000068 _hook_process
C:\msys64\tmp\ccLgZ92a.s:563    .text:00000270 $d
C:\msys64\tmp\ccLgZ92a.s:579    .text:000002a4 $t
C:\msys64\tmp\ccLgZ92a.s:584    .text:000002a4 _hook_param
C:\msys64\tmp\ccLgZ92a.s:645    .text:000002e8 $d
C:\msys64\tmp\ccLgZ92a.s:652    .text.startup:00000000 $t
C:\msys64\tmp\ccLgZ92a.s:656    .text.startup:00000000 _GLOBAL__sub_I_lfo_speed
C:\msys64\tmp\ccLgZ92a.s:698    .text.startup:00000018 $d
C:\msys64\tmp\ccLgZ92a.s:706    .init_array:00000000 $d
C:\msys64\tmp\ccLgZ92a.s:750    .bss:00000030 bpm_valf
C:\msys64\tmp\ccLgZ92a.s:746    .bss:0000002c wetXNR
C:\msys64\tmp\ccLgZ92a.s:742    .bss:00000028 wetXNL
C:\msys64\tmp\ccLgZ92a.s:738    .bss:00000024 gain
C:\msys64\tmp\ccLgZ92a.s:734    .bss:00000020 s_mix
C:\msys64\tmp\ccLgZ92a.s:719    .data:00000000 lfo_speed
C:\msys64\tmp\ccLgZ92a.s:715    .data:00000000 $d
C:\msys64\tmp\ccLgZ92a.s:722    .bss:00000000 $d
C:\msys64\tmp\ccLgZ92a.s:726    .bss:00000000 _ZL7s_delay
C:\msys64\tmp\ccLgZ92a.s:730    .bss:00000018 _ZL5s_lfo
C:\msys64\tmp\ccLgZ92a.s:753    .sdram:00000000 $d
C:\msys64\tmp\ccLgZ92a.s:757    .sdram:00000000 _ZL11s_delay_ram
                     .debug_frame:00000010 $d

NO UNDEFINED SYMBOLS
