ARM GAS  C:\msys64\tmp\ccCuMzT2.s 			page 1


   1              		.syntax unified
   2              		.cpu cortex-m4
   3              		.eabi_attribute 27, 1
   4              		.eabi_attribute 28, 1
   5              		.fpu fpv4-sp-d16
   6              		.eabi_attribute 20, 1
   7              		.eabi_attribute 21, 1
   8              		.eabi_attribute 23, 3
   9              		.eabi_attribute 24, 1
  10              		.eabi_attribute 25, 1
  11              		.eabi_attribute 26, 1
  12              		.eabi_attribute 30, 4
  13              		.eabi_attribute 34, 1
  14              		.eabi_attribute 18, 4
  15              		.thumb
  16              		.syntax unified
  17              		.file	"simpledelay.cpp"
  18              		.text
  19              	.Ltext0:
  20              		.cfi_sections	.debug_frame
  21              		.align	1
  22              		.global	_hook_init
  23              		.thumb
  24              		.thumb_func
  25              		.type	_hook_init, %function
  26              	_hook_init:
  27              	.LFB264:
  28              		.file 1 "./src/simpledelay.cpp"
  29              		.loc 1 20 0
  30              		.cfi_startproc
  31              		@ args = 0, pretend = 0, frame = 0
  32              		@ frame_needed = 0, uses_anonymous_args = 0
  33              	.LVL0:
  34              	.LBB22:
  35              	.LBB23:
  36              		.file 2 "../inc/dsp/delayline.hpp"
  37              		.loc 2 114 0
  38 0000 194A     		ldr	r2, .L5
  39 0002 1A4B     		ldr	r3, .L5+4
  40              		.loc 2 115 0
  41 0004 4FF48031 		mov	r1, #65536
  42              	.LVL1:
  43              	.LBE23:
  44              	.LBE22:
  45              		.loc 1 20 0
  46 0008 10B5     		push	{r4, lr}
  47              		.cfi_def_cfa_offset 8
  48              		.cfi_offset 4, -8
  49              		.cfi_offset 14, -4
  50              	.LBB25:
  51              	.LBB24:
  52              		.loc 2 115 0
  53 000a 9160     		str	r1, [r2, #8]
  54              		.loc 2 116 0
  55 000c 4FF6FF71 		movw	r1, #65535
  56              		.loc 2 114 0
  57 0010 1360     		str	r3, [r2]
ARM GAS  C:\msys64\tmp\ccCuMzT2.s 			page 2


  58              		.loc 2 116 0
  59 0012 D160     		str	r1, [r2, #12]
  60 0014 1033     		adds	r3, r3, #16
  61              		.loc 2 117 0
  62 0016 0021     		movs	r1, #0
  63 0018 1161     		str	r1, [r2, #16]
  64              	.LVL2:
  65 001a 1446     		mov	r4, r2
  66 001c 03F58021 		add	r1, r3, #262144
  67              	.LBE24:
  68              	.LBE25:
  69              	.LBB26:
  70              	.LBB27:
  71              	.LBB28:
  72              		.file 3 "../inc/utils/buffer_ops.h"
  73              		.loc 3 109 0
  74 0020 0022     		movs	r2, #0
  75              	.LVL3:
  76              	.L2:
  77 0022 43F8102C 		str	r2, [r3, #-16]	@ float
  78              	.LVL4:
  79 0026 43F80C2C 		str	r2, [r3, #-12]	@ float
  80              	.LVL5:
  81 002a 43F8082C 		str	r2, [r3, #-8]	@ float
  82              	.LVL6:
  83 002e 43F8042C 		str	r2, [r3, #-4]	@ float
  84 0032 1033     		adds	r3, r3, #16
  85              	.LVL7:
  86              		.loc 3 108 0
  87 0034 9942     		cmp	r1, r3
  88 0036 F4D1     		bne	.L2
  89              	.LVL8:
  90              	.LBE28:
  91              	.LBE27:
  92              	.LBE26:
  93              		.loc 1 23 0
  94 0038 FFF7FEFF 		bl	_fx_get_bpmf
  95              	.LVL9:
  96              		.loc 1 24 0
  97 003c 9FED0C7A 		vldr.32	s14, .L5+8
  98              		.loc 1 23 0
  99 0040 84ED050A 		vstr.32	s0, [r4, #20]
 100              		.loc 1 24 0
 101 0044 C7EE007A 		vdiv.f32	s15, s14, s0
 102              		.loc 1 25 0
 103 0048 4FF07C53 		mov	r3, #1056964608
 104 004c E361     		str	r3, [r4, #28]	@ float
 105              		.loc 1 24 0
 106 004e 9FED097A 		vldr.32	s14, .L5+12
 107 0052 67EE877A 		vmul.f32	s15, s15, s14
 108 0056 9FED087A 		vldr.32	s14, .L5+16
 109 005a 67EE877A 		vmul.f32	s15, s15, s14
 110 005e FCEEE77A 		vcvt.u32.f32	s15, s15
 111 0062 C4ED067A 		vstr.32	s15, [r4, #24]	@ int
 112              		.loc 1 25 0
 113 0066 10BD     		pop	{r4, pc}
 114              	.L6:
ARM GAS  C:\msys64\tmp\ccCuMzT2.s 			page 3


 115              		.align	2
 116              	.L5:
 117 0068 00000000 		.word	.LANCHOR0
 118 006c 00000000 		.word	.LANCHOR1
 119 0070 00007042 		.word	1114636288
 120 0074 00803B47 		.word	1195081728
 121 0078 00000042 		.word	1107296256
 122              		.cfi_endproc
 123              	.LFE264:
 124              		.size	_hook_init, .-_hook_init
 125              		.align	1
 126              		.global	_hook_process
 127              		.thumb
 128              		.thumb_func
 129              		.type	_hook_process, %function
 130              	_hook_process:
 131              	.LFB265:
 132              		.loc 1 29 0
 133              		.cfi_startproc
 134              		@ args = 0, pretend = 0, frame = 0
 135              		@ frame_needed = 0, uses_anonymous_args = 0
 136              	.LVL10:
 137              		.loc 1 30 0
 138 007c 1B4B     		ldr	r3, .L11
 139              		.loc 1 29 0
 140 007e F0B5     		push	{r4, r5, r6, r7, lr}
 141              		.cfi_def_cfa_offset 20
 142              		.cfi_offset 4, -20
 143              		.cfi_offset 5, -16
 144              		.cfi_offset 6, -12
 145              		.cfi_offset 7, -8
 146              		.cfi_offset 14, -4
 147              	.LBB29:
 148              	.LBB30:
 149              		.loc 1 36 0
 150 0080 9A69     		ldr	r2, [r3, #24]
 151              	.LBE30:
 152              	.LBE29:
 153              		.loc 1 30 0
 154 0082 D3ED076A 		vldr.32	s13, [r3, #28]
 155              	.LVL11:
 156              	.LBB49:
 157              	.LBB45:
 158              	.LBB31:
 159              	.LBB32:
 160              		.loc 2 138 0
 161 0086 1E68     		ldr	r6, [r3]
 162 0088 DF68     		ldr	r7, [r3, #12]
 163              	.LBE32:
 164              	.LBE31:
 165              		.loc 1 36 0
 166 008a 93ED086A 		vldr.32	s12, [r3, #32]
 167              	.LBE45:
 168              		.loc 1 34 0
 169 008e 4FEA410E 		lsl	lr, r1, #1
 170 0092 1969     		ldr	r1, [r3, #16]
 171              	.LVL12:
ARM GAS  C:\msys64\tmp\ccCuMzT2.s 			page 4


 172 0094 0024     		movs	r4, #0
 173              	.LBB46:
 174              	.LBB35:
 175              	.LBB33:
 176              		.loc 2 138 0
 177 0096 02EB010C 		add	ip, r2, r1
 178              	.LVL13:
 179              	.L9:
 180              	.LBE33:
 181              	.LBE35:
 182              	.LBE46:
 183              		.loc 1 34 0 discriminator 3
 184 009a 7445     		cmp	r4, lr
 185 009c A1EB0402 		sub	r2, r1, r4
 186              	.LVL14:
 187 00a0 21D0     		beq	.L8
 188              	.LBB47:
 189              	.LBB36:
 190              	.LBB34:
 191              		.loc 2 138 0 discriminator 2
 192 00a2 C4EB0C05 		rsb	r5, r4, ip
 193 00a6 3D40     		ands	r5, r5, r7
 194 00a8 06EB8505 		add	r5, r6, r5, lsl #2
 195              	.LBE34:
 196              	.LBE36:
 197              		.loc 1 36 0 discriminator 2
 198 00ac D5ED007A 		vldr.32	s15, [r5]
 199              		.loc 1 37 0 discriminator 2
 200 00b0 90ED007A 		vldr.32	s14, [r0]
 201              		.loc 1 36 0 discriminator 2
 202 00b4 66EE277A 		vmul.f32	s15, s12, s15
 203              	.LVL15:
 204              		.loc 1 37 0 discriminator 2
 205 00b8 83ED097A 		vstr.32	s14, [r3, #36]
 206              		.loc 1 38 0 discriminator 2
 207 00bc 66EEA77A 		vmul.f32	s15, s13, s15
 208              	.LVL16:
 209              	.LBB37:
 210              	.LBB38:
 211              		.loc 2 127 0 discriminator 2
 212 00c0 3A40     		ands	r2, r2, r7
 213              	.LBE38:
 214              	.LBE37:
 215              		.loc 1 38 0 discriminator 2
 216 00c2 C3ED0A7A 		vstr.32	s15, [r3, #40]
 217              		.loc 1 39 0 discriminator 2
 218 00c6 77EE277A 		vadd.f32	s15, s14, s15
 219              	.LBB42:
 220              	.LBB39:
 221              		.loc 2 127 0 discriminator 2
 222 00ca 06EB8202 		add	r2, r6, r2, lsl #2
 223              	.LBE39:
 224              	.LBE42:
 225              		.loc 1 39 0 discriminator 2
 226 00ce E0EC017A 		vstmia.32	r0!, {s15}
 227              	.LVL17:
 228              	.LBB43:
ARM GAS  C:\msys64\tmp\ccCuMzT2.s 			page 5


 229              	.LBB40:
 230              		.loc 2 127 0 discriminator 2
 231 00d2 D3ED097A 		vldr.32	s15, [r3, #36]
 232 00d6 93ED0A7A 		vldr.32	s14, [r3, #40]
 233 00da 77EE877A 		vadd.f32	s15, s15, s14
 234              	.LVL18:
 235              	.LBE40:
 236              	.LBE43:
 237              	.LBE47:
 238              		.loc 1 34 0 discriminator 2
 239 00de 0134     		adds	r4, r4, #1
 240              	.LVL19:
 241              	.LBB48:
 242              	.LBB44:
 243              	.LBB41:
 244              		.loc 2 127 0 discriminator 2
 245 00e0 C2ED007A 		vstr.32	s15, [r2]
 246              	.LVL20:
 247              	.LBE41:
 248              	.LBE44:
 249              	.LBE48:
 250              		.loc 1 34 0 discriminator 2
 251 00e4 D9E7     		b	.L9
 252              	.L8:
 253 00e6 1A61     		str	r2, [r3, #16]
 254 00e8 F0BD     		pop	{r4, r5, r6, r7, pc}
 255              	.LVL21:
 256              	.L12:
 257 00ea 00BF     		.align	2
 258              	.L11:
 259 00ec 00000000 		.word	.LANCHOR0
 260              	.LBE49:
 261              		.cfi_endproc
 262              	.LFE265:
 263              		.size	_hook_process, .-_hook_process
 264              		.align	1
 265              		.global	_hook_param
 266              		.thumb
 267              		.thumb_func
 268              		.type	_hook_param, %function
 269              	_hook_param:
 270              	.LFB266:
 271              		.loc 1 45 0
 272              		.cfi_startproc
 273              		@ args = 0, pretend = 0, frame = 0
 274              		@ frame_needed = 0, uses_anonymous_args = 0
 275              	.LVL22:
 276 00f0 08B5     		push	{r3, lr}
 277              		.cfi_def_cfa_offset 8
 278              		.cfi_offset 3, -8
 279              		.cfi_offset 14, -4
 280 00f2 2DED028B 		vpush.64	{d8}
 281              		.cfi_def_cfa_offset 16
 282              		.cfi_offset 80, -16
 283              		.cfi_offset 81, -12
 284              		.loc 1 46 0
 285 00f6 08EE101A 		vmov	s16, r1	@ int
ARM GAS  C:\msys64\tmp\ccCuMzT2.s 			page 6


 286              		.loc 1 47 0
 287 00fa 0128     		cmp	r0, #1
 288              		.loc 1 46 0
 289 00fc BAEEE08A 		vcvt.f32.s32	s16, s16, #31
 290              	.LVL23:
 291              		.loc 1 47 0
 292 0100 11D0     		beq	.L15
 293 0102 05D3     		bcc	.L16
 294 0104 0328     		cmp	r0, #3
 295 0106 58D1     		bne	.L13
 296              		.loc 1 74 0
 297 0108 2D4B     		ldr	r3, .L31
 298 010a 83ED078A 		vstr.32	s16, [r3, #28]
 299              		.loc 1 79 0
 300 010e 54E0     		b	.L13
 301              	.L16:
 302              		.loc 1 49 0
 303 0110 B5EE408A 		vcmp.f32	s16, #0
 304 0114 F1EE10FA 		vmrs	APSR_nzcv, FPSCR
 305 0118 294B     		ldr	r3, .L31
 306 011a 06BF     		itte	eq
 307 011c 294A     		ldreq	r2, .L31+4
 308 011e 1A62     		streq	r2, [r3, #32]	@ float
 309              		.loc 1 50 0
 310 0120 83ED088A 		vstrne.32	s16, [r3, #32]
 311 0124 49E0     		b	.L13
 312              	.L15:
 313              		.loc 1 54 0
 314 0126 FFF7FEFF 		bl	_fx_get_bpm
 315              	.LVL24:
 316 012a 07EE900A 		vmov	s15, r0	@ int
 317 012e F8EE676A 		vcvt.f32.u32	s13, s15
 318              		.loc 1 55 0
 319 0132 F5EE007A 		vmov.f32	s15, #2.5e-1
 320 0136 B4EEE78A 		vcmpe.f32	s16, s15
 321              		.loc 1 54 0
 322 013a 214B     		ldr	r3, .L31
 323 013c 9FED226A 		vldr.32	s12, .L31+8
 324 0140 C3ED056A 		vstr.32	s13, [r3, #20]
 325              		.loc 1 55 0
 326 0144 F1EE10FA 		vmrs	APSR_nzcv, FPSCR
 327 0148 DFED207A 		vldr.32	s15, .L31+12
 328 014c 0CD5     		bpl	.L28
 329              		.loc 1 57 0
 330 014e 86EE267A 		vdiv.f32	s14, s12, s13
 331 0152 67EE277A 		vmul.f32	s15, s14, s15
 332 0156 9FED1E7A 		vldr.32	s14, .L31+16
 333 015a 67EE877A 		vmul.f32	s15, s15, s14
 334 015e FCEEE77A 		vcvt.u32.f32	s15, s15
 335 0162 C3ED067A 		vstr.32	s15, [r3, #24]	@ int
 336 0166 28E0     		b	.L13
 337              	.L28:
 338              		.loc 1 59 0
 339 0168 B6EE007A 		vmov.f32	s14, #5.0e-1
 340 016c B4EEC78A 		vcmpe.f32	s16, s14
 341 0170 F1EE10FA 		vmrs	APSR_nzcv, FPSCR
 342 0174 0CD5     		bpl	.L29
ARM GAS  C:\msys64\tmp\ccCuMzT2.s 			page 7


 343              		.loc 1 61 0
 344 0176 86EE267A 		vdiv.f32	s14, s12, s13
 345 017a 67EE277A 		vmul.f32	s15, s14, s15
 346 017e B3EE007A 		vmov.f32	s14, #1.6e+1
 347 0182 67EE877A 		vmul.f32	s15, s15, s14
 348 0186 FCEEE77A 		vcvt.u32.f32	s15, s15
 349 018a C3ED067A 		vstr.32	s15, [r3, #24]	@ int
 350 018e 14E0     		b	.L13
 351              	.L29:
 352              		.loc 1 63 0
 353 0190 B6EE087A 		vmov.f32	s14, #7.5e-1
 354 0194 B4EEC78A 		vcmpe.f32	s16, s14
 355              		.loc 1 65 0
 356 0198 86EE267A 		vdiv.f32	s14, s12, s13
 357              		.loc 1 63 0
 358 019c F1EE10FA 		vmrs	APSR_nzcv, FPSCR
 359              		.loc 1 65 0
 360 01a0 67EE277A 		vmul.f32	s15, s14, s15
 361 01a4 4CBF     		ite	mi
 362 01a6 B2EE007A 		vmovmi.f32	s14, #8.0e+0
 363              		.loc 1 69 0
 364 01aa B1EE007A 		vmovpl.f32	s14, #4.0e+0
 365 01ae 67EE877A 		vmul.f32	s15, s15, s14
 366 01b2 FCEEE77A 		vcvt.u32.f32	s15, s15
 367 01b6 C3ED067A 		vstr.32	s15, [r3, #24]	@ int
 368              	.L13:
 369              		.loc 1 79 0
 370 01ba BDEC028B 		vldm	sp!, {d8}
 371              		.cfi_restore 80
 372              		.cfi_restore 81
 373              		.cfi_def_cfa_offset 8
 374              	.LVL25:
 375 01be 08BD     		pop	{r3, pc}
 376              	.L32:
 377              		.align	2
 378              	.L31:
 379 01c0 00000000 		.word	.LANCHOR0
 380 01c4 CDCCCC3D 		.word	1036831949
 381 01c8 00007042 		.word	1114636288
 382 01cc 00803B47 		.word	1195081728
 383 01d0 00000042 		.word	1107296256
 384              		.cfi_endproc
 385              	.LFE266:
 386              		.size	_hook_param, .-_hook_param
 387              		.section	.text.startup,"ax",%progbits
 388              		.align	1
 389              		.thumb
 390              		.thumb_func
 391              		.type	_GLOBAL__sub_I_s_len, %function
 392              	_GLOBAL__sub_I_s_len:
 393              	.LFB268:
 394              		.loc 1 79 0
 395              		.cfi_startproc
 396              		@ args = 0, pretend = 0, frame = 0
 397              		@ frame_needed = 0, uses_anonymous_args = 0
 398              		@ link register save eliminated.
 399              	.LVL26:
ARM GAS  C:\msys64\tmp\ccCuMzT2.s 			page 8


 400              	.LBB55:
 401              	.LBB56:
 402              	.LBB57:
 403              		.loc 2 74 0
 404 0000 044B     		ldr	r3, .L34
 405 0002 0022     		movs	r2, #0
 406 0004 0021     		movs	r1, #0
 407 0006 1A60     		str	r2, [r3]
 408 0008 5960     		str	r1, [r3, #4]	@ float
 409 000a 9A60     		str	r2, [r3, #8]
 410 000c DA60     		str	r2, [r3, #12]
 411 000e 1A61     		str	r2, [r3, #16]
 412              	.LVL27:
 413 0010 7047     		bx	lr
 414              	.L35:
 415 0012 00BF     		.align	2
 416              	.L34:
 417 0014 00000000 		.word	.LANCHOR0
 418              	.LBE57:
 419              	.LBE56:
 420              	.LBE55:
 421              		.cfi_endproc
 422              	.LFE268:
 423              		.size	_GLOBAL__sub_I_s_len, .-_GLOBAL__sub_I_s_len
 424              		.section	.init_array,"aw",%init_array
 425              		.align	2
 426 0000 00000000 		.word	_GLOBAL__sub_I_s_len(target1)
 427              		.global	bpm
 428              		.global	wetXN
 429              		.global	dryXN
 430              		.global	s_len
 431              		.bss
 432              		.align	2
 433              		.set	.LANCHOR0,. + 0
 434              		.type	_ZL7s_delay, %object
 435              		.size	_ZL7s_delay, 20
 436              	_ZL7s_delay:
 437 0000 00000000 		.space	20
 437      00000000 
 437      00000000 
 437      00000000 
 437      00000000 
 438              		.type	bpm, %object
 439              		.size	bpm, 4
 440              	bpm:
 441 0014 00000000 		.space	4
 442              		.type	s_len, %object
 443              		.size	s_len, 4
 444              	s_len:
 445 0018 00000000 		.space	4
 446              		.type	_ZL5s_mix, %object
 447              		.size	_ZL5s_mix, 4
 448              	_ZL5s_mix:
 449 001c 00000000 		.space	4
 450              		.type	_ZL4gain, %object
 451              		.size	_ZL4gain, 4
 452              	_ZL4gain:
ARM GAS  C:\msys64\tmp\ccCuMzT2.s 			page 9


 453 0020 00000000 		.space	4
 454              		.type	dryXN, %object
 455              		.size	dryXN, 4
 456              	dryXN:
 457 0024 00000000 		.space	4
 458              		.type	wetXN, %object
 459              		.size	wetXN, 4
 460              	wetXN:
 461 0028 00000000 		.space	4
 462              		.section	.sdram,"aw",%progbits
 463              		.align	2
 464              		.set	.LANCHOR1,. + 0
 465              		.type	_ZL11s_delay_ram, %object
 466              		.size	_ZL11s_delay_ram, 192000
 467              	_ZL11s_delay_ram:
 468 0000 00000000 		.space	192000
 468      00000000 
 468      00000000 
 468      00000000 
 468      00000000 
 469              		.text
 470              	.Letext0:
 471              		.file 4 "c:\\users\\bradl\\desktop\\code projects\\korgfx\\korgdelayfx\\tools\\gcc\\gcc-arm-none-e
 472              		.file 5 "c:\\users\\bradl\\desktop\\code projects\\korgfx\\korgdelayfx\\tools\\gcc\\gcc-arm-none-e
 473              		.file 6 "c:\\users\\bradl\\desktop\\code projects\\korgfx\\korgdelayfx\\tools\\gcc\\gcc-arm-none-e
 474              		.file 7 "../inc/utils/int_math.h"
 475              		.file 8 "../inc/fx_api.h"
 476              		.file 9 "../inc/userprg.h"
 477              		.section	.debug_info,"",%progbits
 478              	.Ldebug_info0:
 479 0000 24070000 		.4byte	0x724
 480 0004 0400     		.2byte	0x4
 481 0006 00000000 		.4byte	.Ldebug_abbrev0
 482 000a 04       		.byte	0x4
 483 000b 01       		.uleb128 0x1
 484 000c 78020000 		.4byte	.LASF80
 485 0010 04       		.byte	0x4
 486 0011 FA000000 		.4byte	.LASF81
 487 0015 7B010000 		.4byte	.LASF82
 488 0019 A8000000 		.4byte	.Ldebug_ranges0+0xa8
 489 001d 00000000 		.4byte	0
 490 0021 00000000 		.4byte	.Ldebug_line0
 491 0025 02       		.uleb128 0x2
 492 0026 04       		.byte	0x4
 493 0027 04       		.byte	0x4
 494 0028 10010000 		.4byte	.LASF0
 495 002c 03       		.uleb128 0x3
 496 002d 04       		.byte	0x4
 497 002e 05       		.byte	0x5
 498 002f 696E7400 		.ascii	"int\000"
 499 0033 02       		.uleb128 0x2
 500 0034 01       		.byte	0x1
 501 0035 06       		.byte	0x6
 502 0036 EE000000 		.4byte	.LASF1
 503 003a 04       		.uleb128 0x4
 504 003b BD030000 		.4byte	.LASF5
 505 003f 04       		.byte	0x4
ARM GAS  C:\msys64\tmp\ccCuMzT2.s 			page 10


 506 0040 1D       		.byte	0x1d
 507 0041 45000000 		.4byte	0x45
 508 0045 02       		.uleb128 0x2
 509 0046 01       		.byte	0x1
 510 0047 08       		.byte	0x8
 511 0048 60020000 		.4byte	.LASF2
 512 004c 02       		.uleb128 0x2
 513 004d 02       		.byte	0x2
 514 004e 05       		.byte	0x5
 515 004f 8D000000 		.4byte	.LASF3
 516 0053 02       		.uleb128 0x2
 517 0054 02       		.byte	0x2
 518 0055 07       		.byte	0x7
 519 0056 0B040000 		.4byte	.LASF4
 520 005a 04       		.uleb128 0x4
 521 005b F3040000 		.4byte	.LASF6
 522 005f 04       		.byte	0x4
 523 0060 3F       		.byte	0x3f
 524 0061 65000000 		.4byte	0x65
 525 0065 02       		.uleb128 0x2
 526 0066 04       		.byte	0x4
 527 0067 05       		.byte	0x5
 528 0068 44010000 		.4byte	.LASF7
 529 006c 04       		.uleb128 0x4
 530 006d 75000000 		.4byte	.LASF8
 531 0071 04       		.byte	0x4
 532 0072 41       		.byte	0x41
 533 0073 77000000 		.4byte	0x77
 534 0077 02       		.uleb128 0x2
 535 0078 04       		.byte	0x4
 536 0079 07       		.byte	0x7
 537 007a CE040000 		.4byte	.LASF9
 538 007e 02       		.uleb128 0x2
 539 007f 08       		.byte	0x8
 540 0080 05       		.byte	0x5
 541 0081 36010000 		.4byte	.LASF10
 542 0085 02       		.uleb128 0x2
 543 0086 08       		.byte	0x8
 544 0087 07       		.byte	0x7
 545 0088 90030000 		.4byte	.LASF11
 546 008c 02       		.uleb128 0x2
 547 008d 04       		.byte	0x4
 548 008e 07       		.byte	0x7
 549 008f B0030000 		.4byte	.LASF12
 550 0093 04       		.uleb128 0x4
 551 0094 03050000 		.4byte	.LASF13
 552 0098 05       		.byte	0x5
 553 0099 18       		.byte	0x18
 554 009a 3A000000 		.4byte	0x3a
 555 009e 04       		.uleb128 0x4
 556 009f 51040000 		.4byte	.LASF14
 557 00a3 05       		.byte	0x5
 558 00a4 2C       		.byte	0x2c
 559 00a5 5A000000 		.4byte	0x5a
 560 00a9 04       		.uleb128 0x4
 561 00aa A7030000 		.4byte	.LASF15
 562 00ae 05       		.byte	0x5
ARM GAS  C:\msys64\tmp\ccCuMzT2.s 			page 11


 563 00af 30       		.byte	0x30
 564 00b0 6C000000 		.4byte	0x6c
 565 00b4 04       		.uleb128 0x4
 566 00b5 4B000000 		.4byte	.LASF16
 567 00b9 06       		.byte	0x6
 568 00ba D8       		.byte	0xd8
 569 00bb 8C000000 		.4byte	0x8c
 570 00bf 02       		.uleb128 0x2
 571 00c0 08       		.byte	0x8
 572 00c1 04       		.byte	0x4
 573 00c2 20020000 		.4byte	.LASF17
 574 00c6 05       		.uleb128 0x5
 575 00c7 1E000000 		.4byte	.LASF83
 576 00cb 02       		.uleb128 0x2
 577 00cc 04       		.byte	0x4
 578 00cd 07       		.byte	0x7
 579 00ce 52000000 		.4byte	.LASF18
 580 00d2 02       		.uleb128 0x2
 581 00d3 01       		.byte	0x1
 582 00d4 08       		.byte	0x8
 583 00d5 42040000 		.4byte	.LASF19
 584 00d9 02       		.uleb128 0x2
 585 00da 08       		.byte	0x8
 586 00db 04       		.byte	0x4
 587 00dc 52050000 		.4byte	.LASF20
 588 00e0 06       		.uleb128 0x6
 589 00e1 01       		.byte	0x1
 590 00e2 45000000 		.4byte	0x45
 591 00e6 09       		.byte	0x9
 592 00e7 35       		.byte	0x35
 593 00e8 11010000 		.4byte	0x111
 594 00ec 07       		.uleb128 0x7
 595 00ed 97000000 		.4byte	.LASF21
 596 00f1 00       		.byte	0
 597 00f2 07       		.uleb128 0x7
 598 00f3 2C020000 		.4byte	.LASF22
 599 00f7 01       		.byte	0x1
 600 00f8 07       		.uleb128 0x7
 601 00f9 9E050000 		.4byte	.LASF23
 602 00fd 02       		.byte	0x2
 603 00fe 07       		.uleb128 0x7
 604 00ff B1040000 		.4byte	.LASF24
 605 0103 03       		.byte	0x3
 606 0104 07       		.uleb128 0x7
 607 0105 D2000000 		.4byte	.LASF25
 608 0109 04       		.byte	0x4
 609 010a 07       		.uleb128 0x7
 610 010b AC000000 		.4byte	.LASF26
 611 010f 05       		.byte	0x5
 612 0110 00       		.byte	0
 613 0111 08       		.uleb128 0x8
 614 0112 04       		.byte	0x4
 615 0113 25000000 		.4byte	0x25
 616 0117 09       		.uleb128 0x9
 617 0118 64737000 		.ascii	"dsp\000"
 618 011c 02       		.byte	0x2
 619 011d 33       		.byte	0x33
ARM GAS  C:\msys64\tmp\ccCuMzT2.s 			page 12


 620 011e 6D020000 		.4byte	0x26d
 621 0122 0A       		.uleb128 0xa
 622 0123 E4000000 		.4byte	.LASF32
 623 0127 14       		.byte	0x14
 624 0128 02       		.byte	0x2
 625 0129 38       		.byte	0x38
 626 012a 0B       		.uleb128 0xb
 627 012b C7030000 		.4byte	.LASF27
 628 012f 02       		.byte	0x2
 629 0130 B0       		.byte	0xb0
 630 0131 11010000 		.4byte	0x111
 631 0135 00       		.byte	0
 632 0136 0B       		.uleb128 0xb
 633 0137 BF000000 		.4byte	.LASF28
 634 013b 02       		.byte	0x2
 635 013c B1       		.byte	0xb1
 636 013d 25000000 		.4byte	0x25
 637 0141 04       		.byte	0x4
 638 0142 0B       		.uleb128 0xb
 639 0143 45000000 		.4byte	.LASF29
 640 0147 02       		.byte	0x2
 641 0148 B2       		.byte	0xb2
 642 0149 B4000000 		.4byte	0xb4
 643 014d 08       		.byte	0x8
 644 014e 0B       		.uleb128 0xb
 645 014f CC000000 		.4byte	.LASF30
 646 0153 02       		.byte	0x2
 647 0154 B3       		.byte	0xb3
 648 0155 B4000000 		.4byte	0xb4
 649 0159 0C       		.byte	0xc
 650 015a 0B       		.uleb128 0xb
 651 015b 38040000 		.4byte	.LASF31
 652 015f 02       		.byte	0x2
 653 0160 B4       		.byte	0xb4
 654 0161 A9000000 		.4byte	0xa9
 655 0165 10       		.byte	0x10
 656 0166 0C       		.uleb128 0xc
 657 0167 E4000000 		.4byte	.LASF32
 658 016b 02       		.byte	0x2
 659 016c 45       		.byte	0x45
 660 016d 0B050000 		.4byte	.LASF33
 661 0171 6D020000 		.4byte	0x26d
 662 0175 7D010000 		.4byte	0x17d
 663 0179 83010000 		.4byte	0x183
 664 017d 0D       		.uleb128 0xd
 665 017e 6D020000 		.4byte	0x26d
 666 0182 00       		.byte	0
 667 0183 0C       		.uleb128 0xc
 668 0184 E4000000 		.4byte	.LASF32
 669 0188 02       		.byte	0x2
 670 0189 54       		.byte	0x54
 671 018a BC050000 		.4byte	.LASF34
 672 018e 6D020000 		.4byte	0x26d
 673 0192 9A010000 		.4byte	0x19a
 674 0196 AA010000 		.4byte	0x1aa
 675 019a 0D       		.uleb128 0xd
 676 019b 6D020000 		.4byte	0x26d
ARM GAS  C:\msys64\tmp\ccCuMzT2.s 			page 13


 677 019f 0E       		.uleb128 0xe
 678 01a0 11010000 		.4byte	0x111
 679 01a4 0E       		.uleb128 0xe
 680 01a5 B4000000 		.4byte	0xb4
 681 01a9 00       		.byte	0
 682 01aa 0F       		.uleb128 0xf
 683 01ab 59010000 		.4byte	.LASF35
 684 01af 02       		.byte	0x2
 685 01b0 64       		.byte	0x64
 686 01b1 E7030000 		.4byte	.LASF37
 687 01b5 BD010000 		.4byte	0x1bd
 688 01b9 C3010000 		.4byte	0x1c3
 689 01bd 0D       		.uleb128 0xd
 690 01be 6D020000 		.4byte	0x26d
 691 01c2 00       		.byte	0
 692 01c3 0F       		.uleb128 0xf
 693 01c4 01040000 		.4byte	.LASF36
 694 01c8 02       		.byte	0x2
 695 01c9 71       		.byte	0x71
 696 01ca 40020000 		.4byte	.LASF38
 697 01ce D6010000 		.4byte	0x1d6
 698 01d2 E6010000 		.4byte	0x1e6
 699 01d6 0D       		.uleb128 0xd
 700 01d7 6D020000 		.4byte	0x26d
 701 01db 0E       		.uleb128 0xe
 702 01dc 11010000 		.4byte	0x111
 703 01e0 0E       		.uleb128 0xe
 704 01e1 B4000000 		.4byte	0xb4
 705 01e5 00       		.byte	0
 706 01e6 0F       		.uleb128 0xf
 707 01e7 06000000 		.4byte	.LASF39
 708 01eb 02       		.byte	0x2
 709 01ec 7E       		.byte	0x7e
 710 01ed CD030000 		.4byte	.LASF40
 711 01f1 F9010000 		.4byte	0x1f9
 712 01f5 04020000 		.4byte	0x204
 713 01f9 0D       		.uleb128 0xd
 714 01fa 6D020000 		.4byte	0x26d
 715 01fe 0E       		.uleb128 0xe
 716 01ff 25000000 		.4byte	0x25
 717 0203 00       		.byte	0
 718 0204 0C       		.uleb128 0xc
 719 0205 25010000 		.4byte	.LASF41
 720 0209 02       		.byte	0x2
 721 020a 89       		.byte	0x89
 722 020b 59050000 		.4byte	.LASF42
 723 020f 25000000 		.4byte	0x25
 724 0213 1B020000 		.4byte	0x21b
 725 0217 26020000 		.4byte	0x226
 726 021b 0D       		.uleb128 0xd
 727 021c 6D020000 		.4byte	0x26d
 728 0220 0E       		.uleb128 0xe
 729 0221 A9000000 		.4byte	0xa9
 730 0225 00       		.byte	0
 731 0226 0C       		.uleb128 0xc
 732 0227 EA040000 		.4byte	.LASF43
 733 022b 02       		.byte	0x2
ARM GAS  C:\msys64\tmp\ccCuMzT2.s 			page 14


 734 022c 94       		.byte	0x94
 735 022d DE010000 		.4byte	.LASF44
 736 0231 25000000 		.4byte	0x25
 737 0235 3D020000 		.4byte	0x23d
 738 0239 48020000 		.4byte	0x248
 739 023d 0D       		.uleb128 0xd
 740 023e 6D020000 		.4byte	0x26d
 741 0242 0E       		.uleb128 0xe
 742 0243 25000000 		.4byte	0x25
 743 0247 00       		.byte	0
 744 0248 10       		.uleb128 0x10
 745 0249 47040000 		.4byte	.LASF45
 746 024d 02       		.byte	0x2
 747 024e A4       		.byte	0xa4
 748 024f 01020000 		.4byte	.LASF46
 749 0253 25000000 		.4byte	0x25
 750 0257 5B020000 		.4byte	0x25b
 751 025b 0D       		.uleb128 0xd
 752 025c 6D020000 		.4byte	0x26d
 753 0260 0E       		.uleb128 0xe
 754 0261 A9000000 		.4byte	0xa9
 755 0265 0E       		.uleb128 0xe
 756 0266 25000000 		.4byte	0x25
 757 026a 00       		.byte	0
 758 026b 00       		.byte	0
 759 026c 00       		.byte	0
 760 026d 08       		.uleb128 0x8
 761 026e 04       		.byte	0x4
 762 026f 22010000 		.4byte	0x122
 763 0273 11       		.uleb128 0x11
 764 0274 59040000 		.4byte	.LASF84
 765 0278 03       		.byte	0x3
 766 0279 68       		.byte	0x68
 767 027a 03       		.byte	0x3
 768 027b A1020000 		.4byte	0x2a1
 769 027f 12       		.uleb128 0x12
 770 0280 70747200 		.ascii	"ptr\000"
 771 0284 03       		.byte	0x3
 772 0285 68       		.byte	0x68
 773 0286 A1020000 		.4byte	0x2a1
 774 028a 12       		.uleb128 0x12
 775 028b 6C656E00 		.ascii	"len\000"
 776 028f 03       		.byte	0x3
 777 0290 69       		.byte	0x69
 778 0291 A6020000 		.4byte	0x2a6
 779 0295 13       		.uleb128 0x13
 780 0296 656E6400 		.ascii	"end\000"
 781 029a 03       		.byte	0x3
 782 029b 6B       		.byte	0x6b
 783 029c AB020000 		.4byte	0x2ab
 784 02a0 00       		.byte	0
 785 02a1 14       		.uleb128 0x14
 786 02a2 11010000 		.4byte	0x111
 787 02a6 15       		.uleb128 0x15
 788 02a7 A9000000 		.4byte	0xa9
 789 02ab 08       		.uleb128 0x8
 790 02ac 04       		.byte	0x4
ARM GAS  C:\msys64\tmp\ccCuMzT2.s 			page 15


 791 02ad B1020000 		.4byte	0x2b1
 792 02b1 15       		.uleb128 0x15
 793 02b2 25000000 		.4byte	0x25
 794 02b6 16       		.uleb128 0x16
 795 02b7 45050000 		.4byte	.LASF85
 796 02bb 07       		.byte	0x7
 797 02bc 75       		.byte	0x75
 798 02bd A9000000 		.4byte	0xa9
 799 02c1 03       		.byte	0x3
 800 02c2 D0020000 		.4byte	0x2d0
 801 02c6 12       		.uleb128 0x12
 802 02c7 7800     		.ascii	"x\000"
 803 02c9 07       		.byte	0x7
 804 02ca 75       		.byte	0x75
 805 02cb A9000000 		.4byte	0xa9
 806 02cf 00       		.byte	0
 807 02d0 17       		.uleb128 0x17
 808 02d1 AA010000 		.4byte	0x1aa
 809 02d5 03       		.byte	0x3
 810 02d6 DE020000 		.4byte	0x2de
 811 02da E8020000 		.4byte	0x2e8
 812 02de 18       		.uleb128 0x18
 813 02df A0040000 		.4byte	.LASF47
 814 02e3 E8020000 		.4byte	0x2e8
 815 02e7 00       		.byte	0
 816 02e8 15       		.uleb128 0x15
 817 02e9 6D020000 		.4byte	0x26d
 818 02ed 17       		.uleb128 0x17
 819 02ee C3010000 		.4byte	0x1c3
 820 02f2 03       		.byte	0x3
 821 02f3 FB020000 		.4byte	0x2fb
 822 02f7 1B030000 		.4byte	0x31b
 823 02fb 18       		.uleb128 0x18
 824 02fc A0040000 		.4byte	.LASF47
 825 0300 E8020000 		.4byte	0x2e8
 826 0304 12       		.uleb128 0x12
 827 0305 72616D00 		.ascii	"ram\000"
 828 0309 02       		.byte	0x2
 829 030a 71       		.byte	0x71
 830 030b 11010000 		.4byte	0x111
 831 030f 19       		.uleb128 0x19
 832 0310 6E020000 		.4byte	.LASF48
 833 0314 02       		.byte	0x2
 834 0315 71       		.byte	0x71
 835 0316 B4000000 		.4byte	0xb4
 836 031a 00       		.byte	0
 837 031b 17       		.uleb128 0x17
 838 031c E6010000 		.4byte	0x1e6
 839 0320 03       		.byte	0x3
 840 0321 29030000 		.4byte	0x329
 841 0325 3C030000 		.4byte	0x33c
 842 0329 18       		.uleb128 0x18
 843 032a A0040000 		.4byte	.LASF47
 844 032e E8020000 		.4byte	0x2e8
 845 0332 12       		.uleb128 0x12
 846 0333 7300     		.ascii	"s\000"
 847 0335 02       		.byte	0x2
ARM GAS  C:\msys64\tmp\ccCuMzT2.s 			page 16


 848 0336 7E       		.byte	0x7e
 849 0337 B1020000 		.4byte	0x2b1
 850 033b 00       		.byte	0
 851 033c 17       		.uleb128 0x17
 852 033d 04020000 		.4byte	0x204
 853 0341 03       		.byte	0x3
 854 0342 4A030000 		.4byte	0x34a
 855 0346 5F030000 		.4byte	0x35f
 856 034a 18       		.uleb128 0x18
 857 034b A0040000 		.4byte	.LASF47
 858 034f E8020000 		.4byte	0x2e8
 859 0353 12       		.uleb128 0x12
 860 0354 706F7300 		.ascii	"pos\000"
 861 0358 02       		.byte	0x2
 862 0359 89       		.byte	0x89
 863 035a A6020000 		.4byte	0x2a6
 864 035e 00       		.byte	0
 865 035f 1A       		.uleb128 0x1a
 866 0360 6B040000 		.4byte	.LASF86
 867 0364 01       		.byte	0x1
 868 0365 80030000 		.4byte	0x380
 869 0369 19       		.uleb128 0x19
 870 036a CF010000 		.4byte	.LASF49
 871 036e 01       		.byte	0x1
 872 036f 4F       		.byte	0x4f
 873 0370 2C000000 		.4byte	0x2c
 874 0374 19       		.uleb128 0x19
 875 0375 95040000 		.4byte	.LASF50
 876 0379 01       		.byte	0x1
 877 037a 4F       		.byte	0x4f
 878 037b 2C000000 		.4byte	0x2c
 879 037f 00       		.byte	0
 880 0380 1B       		.uleb128 0x1b
 881 0381 13000000 		.4byte	.LASF51
 882 0385 01       		.byte	0x1
 883 0386 13       		.byte	0x13
 884 0387 00000000 		.4byte	.LFB264
 885 038b 7C000000 		.4byte	.LFE264-.LFB264
 886 038f 01       		.uleb128 0x1
 887 0390 9C       		.byte	0x9c
 888 0391 3E040000 		.4byte	0x43e
 889 0395 1C       		.uleb128 0x1c
 890 0396 C5040000 		.4byte	.LASF52
 891 039a 01       		.byte	0x1
 892 039b 13       		.byte	0x13
 893 039c A9000000 		.4byte	0xa9
 894 03a0 00000000 		.4byte	.LLST0
 895 03a4 1D       		.uleb128 0x1d
 896 03a5 61706900 		.ascii	"api\000"
 897 03a9 01       		.byte	0x1
 898 03aa 13       		.byte	0x13
 899 03ab A9000000 		.4byte	0xa9
 900 03af 21000000 		.4byte	.LLST1
 901 03b3 1E       		.uleb128 0x1e
 902 03b4 ED020000 		.4byte	0x2ed
 903 03b8 00000000 		.4byte	.LBB22
 904 03bc 00000000 		.4byte	.Ldebug_ranges0+0
ARM GAS  C:\msys64\tmp\ccCuMzT2.s 			page 17


 905 03c0 01       		.byte	0x1
 906 03c1 15       		.byte	0x15
 907 03c2 E2030000 		.4byte	0x3e2
 908 03c6 1F       		.uleb128 0x1f
 909 03c7 0F030000 		.4byte	0x30f
 910 03cb 42000000 		.4byte	.LLST2
 911 03cf 1F       		.uleb128 0x1f
 912 03d0 04030000 		.4byte	0x304
 913 03d4 58000000 		.4byte	.LLST3
 914 03d8 1F       		.uleb128 0x1f
 915 03d9 FB020000 		.4byte	0x2fb
 916 03dd 70000000 		.4byte	.LLST4
 917 03e1 00       		.byte	0
 918 03e2 20       		.uleb128 0x20
 919 03e3 D0020000 		.4byte	0x2d0
 920 03e7 20000000 		.4byte	.LBB26
 921 03eb 18000000 		.4byte	.LBE26-.LBB26
 922 03ef 01       		.byte	0x1
 923 03f0 16       		.byte	0x16
 924 03f1 34040000 		.4byte	0x434
 925 03f5 1F       		.uleb128 0x1f
 926 03f6 DE020000 		.4byte	0x2de
 927 03fa 88000000 		.4byte	.LLST5
 928 03fe 21       		.uleb128 0x21
 929 03ff 73020000 		.4byte	0x273
 930 0403 20000000 		.4byte	.LBB27
 931 0407 18000000 		.4byte	.LBE27-.LBB27
 932 040b 02       		.byte	0x2
 933 040c 65       		.byte	0x65
 934 040d 1F       		.uleb128 0x1f
 935 040e 8A020000 		.4byte	0x28a
 936 0412 A0000000 		.4byte	.LLST6
 937 0416 1F       		.uleb128 0x1f
 938 0417 7F020000 		.4byte	0x27f
 939 041b B6000000 		.4byte	.LLST7
 940 041f 22       		.uleb128 0x22
 941 0420 20000000 		.4byte	.LBB28
 942 0424 18000000 		.4byte	.LBE28-.LBB28
 943 0428 23       		.uleb128 0x23
 944 0429 95020000 		.4byte	0x295
 945 042d 0D010000 		.4byte	.LLST8
 946 0431 00       		.byte	0
 947 0432 00       		.byte	0
 948 0433 00       		.byte	0
 949 0434 24       		.uleb128 0x24
 950 0435 3C000000 		.4byte	.LVL9
 951 0439 11070000 		.4byte	0x711
 952 043d 00       		.byte	0
 953 043e 1B       		.uleb128 0x1b
 954 043f 83050000 		.4byte	.LASF53
 955 0443 01       		.byte	0x1
 956 0444 1C       		.byte	0x1c
 957 0445 7C000000 		.4byte	.LFB265
 958 0449 74000000 		.4byte	.LFE265-.LFB265
 959 044d 01       		.uleb128 0x1
 960 044e 9C       		.byte	0x9c
 961 044f FF040000 		.4byte	0x4ff
ARM GAS  C:\msys64\tmp\ccCuMzT2.s 			page 18


 962 0453 1D       		.uleb128 0x1d
 963 0454 786E00   		.ascii	"xn\000"
 964 0457 01       		.byte	0x1
 965 0458 1C       		.byte	0x1c
 966 0459 11010000 		.4byte	0x111
 967 045d 25010000 		.4byte	.LLST9
 968 0461 1C       		.uleb128 0x1c
 969 0462 0C000000 		.4byte	.LASF54
 970 0466 01       		.byte	0x1
 971 0467 1C       		.byte	0x1c
 972 0468 A9000000 		.4byte	0xa9
 973 046c 46010000 		.4byte	.LLST10
 974 0470 25       		.uleb128 0x25
 975 0471 64727900 		.ascii	"dry\000"
 976 0475 01       		.byte	0x1
 977 0476 1E       		.byte	0x1e
 978 0477 B1020000 		.4byte	0x2b1
 979 047b 0C       		.uleb128 0xc
 980 047c F4       		.byte	0xf4
 981 047d 25       		.uleb128 0x25
 982 047e 04       		.byte	0x4
 983 047f 0000803F 		.4byte	0x3f800000
 984 0483 F5       		.byte	0xf5
 985 0484 4D       		.uleb128 0x4d
 986 0485 25       		.uleb128 0x25
 987 0486 1C       		.byte	0x1c
 988 0487 9F       		.byte	0x9f
 989 0488 25       		.uleb128 0x25
 990 0489 77657400 		.ascii	"wet\000"
 991 048d 01       		.byte	0x1
 992 048e 1F       		.byte	0x1f
 993 048f B1020000 		.4byte	0x2b1
 994 0493 02       		.uleb128 0x2
 995 0494 90       		.byte	0x90
 996 0495 4D       		.uleb128 0x4d
 997 0496 26       		.uleb128 0x26
 998 0497 18000000 		.4byte	.Ldebug_ranges0+0x18
 999 049b 27       		.uleb128 0x27
 1000 049c 6900     		.ascii	"i\000"
 1001 049e 01       		.byte	0x1
 1002 049f 22       		.byte	0x22
 1003 04a0 2C000000 		.4byte	0x2c
 1004 04a4 67010000 		.4byte	.LLST11
 1005 04a8 26       		.uleb128 0x26
 1006 04a9 30000000 		.4byte	.Ldebug_ranges0+0x30
 1007 04ad 28       		.uleb128 0x28
 1008 04ae B2050000 		.4byte	.LASF55
 1009 04b2 01       		.byte	0x1
 1010 04b3 24       		.byte	0x24
 1011 04b4 B1020000 		.4byte	0x2b1
 1012 04b8 9E010000 		.4byte	.LLST12
 1013 04bc 1E       		.uleb128 0x1e
 1014 04bd 3C030000 		.4byte	0x33c
 1015 04c1 86000000 		.4byte	.LBB31
 1016 04c5 60000000 		.4byte	.Ldebug_ranges0+0x60
 1017 04c9 01       		.byte	0x1
 1018 04ca 24       		.byte	0x24
ARM GAS  C:\msys64\tmp\ccCuMzT2.s 			page 19


 1019 04cb DA040000 		.4byte	0x4da
 1020 04cf 29       		.uleb128 0x29
 1021 04d0 53030000 		.4byte	0x353
 1022 04d4 29       		.uleb128 0x29
 1023 04d5 4A030000 		.4byte	0x34a
 1024 04d9 00       		.byte	0
 1025 04da 2A       		.uleb128 0x2a
 1026 04db 1B030000 		.4byte	0x31b
 1027 04df C0000000 		.4byte	.LBB37
 1028 04e3 80000000 		.4byte	.Ldebug_ranges0+0x80
 1029 04e7 01       		.byte	0x1
 1030 04e8 28       		.byte	0x28
 1031 04e9 1F       		.uleb128 0x1f
 1032 04ea 32030000 		.4byte	0x332
 1033 04ee B2010000 		.4byte	.LLST13
 1034 04f2 1F       		.uleb128 0x1f
 1035 04f3 29030000 		.4byte	0x329
 1036 04f7 E2010000 		.4byte	.LLST14
 1037 04fb 00       		.byte	0
 1038 04fc 00       		.byte	0
 1039 04fd 00       		.byte	0
 1040 04fe 00       		.byte	0
 1041 04ff 1B       		.uleb128 0x1b
 1042 0500 2A010000 		.4byte	.LASF56
 1043 0504 01       		.byte	0x1
 1044 0505 2C       		.byte	0x2c
 1045 0506 F0000000 		.4byte	.LFB266
 1046 050a E4000000 		.4byte	.LFE266-.LFB266
 1047 050e 01       		.uleb128 0x1
 1048 050f 9C       		.byte	0x9c
 1049 0510 4B050000 		.4byte	0x54b
 1050 0514 1C       		.uleb128 0x1c
 1051 0515 C6000000 		.4byte	.LASF57
 1052 0519 01       		.byte	0x1
 1053 051a 2C       		.byte	0x2c
 1054 051b 93000000 		.4byte	0x93
 1055 051f FA010000 		.4byte	.LLST15
 1056 0523 1C       		.uleb128 0x1c
 1057 0524 65040000 		.4byte	.LASF58
 1058 0528 01       		.byte	0x1
 1059 0529 2C       		.byte	0x2c
 1060 052a 9E000000 		.4byte	0x9e
 1061 052e 1B020000 		.4byte	.LLST16
 1062 0532 28       		.uleb128 0x28
 1063 0533 E0040000 		.4byte	.LASF59
 1064 0537 01       		.byte	0x1
 1065 0538 2E       		.byte	0x2e
 1066 0539 B1020000 		.4byte	0x2b1
 1067 053d 3C020000 		.4byte	.LLST17
 1068 0541 24       		.uleb128 0x24
 1069 0542 2A010000 		.4byte	.LVL24
 1070 0546 1C070000 		.4byte	0x71c
 1071 054a 00       		.byte	0
 1072 054b 17       		.uleb128 0x17
 1073 054c 66010000 		.4byte	0x166
 1074 0550 02       		.byte	0x2
 1075 0551 59050000 		.4byte	0x559
ARM GAS  C:\msys64\tmp\ccCuMzT2.s 			page 20


 1076 0555 63050000 		.4byte	0x563
 1077 0559 18       		.uleb128 0x18
 1078 055a A0040000 		.4byte	.LASF47
 1079 055e E8020000 		.4byte	0x2e8
 1080 0562 00       		.byte	0
 1081 0563 2B       		.uleb128 0x2b
 1082 0564 30000000 		.4byte	.LASF87
 1083 0568 00000000 		.4byte	.LFB268
 1084 056c 18000000 		.4byte	.LFE268-.LFB268
 1085 0570 01       		.uleb128 0x1
 1086 0571 9C       		.byte	0x9c
 1087 0572 B2050000 		.4byte	0x5b2
 1088 0576 21       		.uleb128 0x21
 1089 0577 5F030000 		.4byte	0x35f
 1090 057b 00000000 		.4byte	.LBB55
 1091 057f 18000000 		.4byte	.LBE55-.LBB55
 1092 0583 01       		.byte	0x1
 1093 0584 4F       		.byte	0x4f
 1094 0585 1F       		.uleb128 0x1f
 1095 0586 74030000 		.4byte	0x374
 1096 058a 6A020000 		.4byte	.LLST18
 1097 058e 1F       		.uleb128 0x1f
 1098 058f 69030000 		.4byte	0x369
 1099 0593 80020000 		.4byte	.LLST19
 1100 0597 21       		.uleb128 0x21
 1101 0598 4B050000 		.4byte	0x54b
 1102 059c 00000000 		.4byte	.LBB56
 1103 05a0 18000000 		.4byte	.LBE56-.LBB56
 1104 05a4 01       		.byte	0x1
 1105 05a5 06       		.byte	0x6
 1106 05a6 1F       		.uleb128 0x1f
 1107 05a7 59050000 		.4byte	0x559
 1108 05ab 94020000 		.4byte	.LLST20
 1109 05af 00       		.byte	0
 1110 05b0 00       		.byte	0
 1111 05b1 00       		.byte	0
 1112 05b2 2C       		.uleb128 0x2c
 1113 05b3 69010000 		.4byte	.LASF60
 1114 05b7 08       		.byte	0x8
 1115 05b8 46       		.byte	0x46
 1116 05b9 A6020000 		.4byte	0x2a6
 1117 05bd 2C       		.uleb128 0x2c
 1118 05be 72050000 		.4byte	.LASF61
 1119 05c2 08       		.byte	0x8
 1120 05c3 4B       		.byte	0x4b
 1121 05c4 A6020000 		.4byte	0x2a6
 1122 05c8 2D       		.uleb128 0x2d
 1123 05c9 B1020000 		.4byte	0x2b1
 1124 05cd D8050000 		.4byte	0x5d8
 1125 05d1 2E       		.uleb128 0x2e
 1126 05d2 CB000000 		.4byte	0xcb
 1127 05d6 80       		.byte	0x80
 1128 05d7 00       		.byte	0
 1129 05d8 2C       		.uleb128 0x2c
 1130 05d9 1E040000 		.4byte	.LASF62
 1131 05dd 08       		.byte	0x8
 1132 05de 82       		.byte	0x82
ARM GAS  C:\msys64\tmp\ccCuMzT2.s 			page 21


 1133 05df E3050000 		.4byte	0x5e3
 1134 05e3 15       		.uleb128 0x15
 1135 05e4 C8050000 		.4byte	0x5c8
 1136 05e8 2D       		.uleb128 0x2d
 1137 05e9 B1020000 		.4byte	0x2b1
 1138 05ed F9050000 		.4byte	0x5f9
 1139 05f1 2F       		.uleb128 0x2f
 1140 05f2 CB000000 		.4byte	0xcb
 1141 05f6 0001     		.2byte	0x100
 1142 05f8 00       		.byte	0
 1143 05f9 2C       		.uleb128 0x2c
 1144 05fa 5F010000 		.4byte	.LASF63
 1145 05fe 08       		.byte	0x8
 1146 05ff C9       		.byte	0xc9
 1147 0600 04060000 		.4byte	0x604
 1148 0604 15       		.uleb128 0x15
 1149 0605 E8050000 		.4byte	0x5e8
 1150 0609 2C       		.uleb128 0x2c
 1151 060a A5040000 		.4byte	.LASF64
 1152 060e 08       		.byte	0x8
 1153 060f E0       		.byte	0xe0
 1154 0610 14060000 		.4byte	0x614
 1155 0614 15       		.uleb128 0x15
 1156 0615 E8050000 		.4byte	0x5e8
 1157 0619 2C       		.uleb128 0x2c
 1158 061a 35050000 		.4byte	.LASF65
 1159 061e 08       		.byte	0x8
 1160 061f F8       		.byte	0xf8
 1161 0620 24060000 		.4byte	0x624
 1162 0624 15       		.uleb128 0x15
 1163 0625 E8050000 		.4byte	0x5e8
 1164 0629 30       		.uleb128 0x30
 1165 062a 5B000000 		.4byte	.LASF66
 1166 062e 08       		.byte	0x8
 1167 062f 0F01     		.2byte	0x10f
 1168 0631 35060000 		.4byte	0x635
 1169 0635 15       		.uleb128 0x15
 1170 0636 E8050000 		.4byte	0x5e8
 1171 063a 30       		.uleb128 0x30
 1172 063b 66000000 		.4byte	.LASF67
 1173 063f 08       		.byte	0x8
 1174 0640 3E01     		.2byte	0x13e
 1175 0642 46060000 		.4byte	0x646
 1176 0646 15       		.uleb128 0x15
 1177 0647 C8050000 		.4byte	0x5c8
 1178 064b 30       		.uleb128 0x30
 1179 064c 16010000 		.4byte	.LASF68
 1180 0650 08       		.byte	0x8
 1181 0651 5301     		.2byte	0x153
 1182 0653 57060000 		.4byte	0x657
 1183 0657 15       		.uleb128 0x15
 1184 0658 C8050000 		.4byte	0x5c8
 1185 065c 30       		.uleb128 0x30
 1186 065d 80000000 		.4byte	.LASF69
 1187 0661 08       		.byte	0x8
 1188 0662 7001     		.2byte	0x170
 1189 0664 68060000 		.4byte	0x668
ARM GAS  C:\msys64\tmp\ccCuMzT2.s 			page 22


 1190 0668 15       		.uleb128 0x15
 1191 0669 C8050000 		.4byte	0x5c8
 1192 066d 31       		.uleb128 0x31
 1193 066e 2D050000 		.4byte	.LASF70
 1194 0672 01       		.byte	0x1
 1195 0673 06       		.byte	0x6
 1196 0674 22010000 		.4byte	0x122
 1197 0678 05       		.uleb128 0x5
 1198 0679 03       		.byte	0x3
 1199 067a 00000000 		.4byte	_ZL7s_delay
 1200 067e 2D       		.uleb128 0x2d
 1201 067f 25000000 		.4byte	0x25
 1202 0683 8F060000 		.4byte	0x68f
 1203 0687 2F       		.uleb128 0x2f
 1204 0688 CB000000 		.4byte	0xcb
 1205 068c 7FBB     		.2byte	0xbb7f
 1206 068e 00       		.byte	0
 1207 068f 31       		.uleb128 0x31
 1208 0690 2C040000 		.4byte	.LASF71
 1209 0694 01       		.byte	0x1
 1210 0695 07       		.byte	0x7
 1211 0696 7E060000 		.4byte	0x67e
 1212 069a 05       		.uleb128 0x5
 1213 069b 03       		.byte	0x3
 1214 069c 00000000 		.4byte	_ZL11s_delay_ram
 1215 06a0 32       		.uleb128 0x32
 1216 06a1 53010000 		.4byte	.LASF72
 1217 06a5 01       		.byte	0x1
 1218 06a6 09       		.byte	0x9
 1219 06a7 A9000000 		.4byte	0xa9
 1220 06ab 05       		.uleb128 0x5
 1221 06ac 03       		.byte	0x3
 1222 06ad 00000000 		.4byte	s_len
 1223 06b1 31       		.uleb128 0x31
 1224 06b2 4D010000 		.4byte	.LASF73
 1225 06b6 01       		.byte	0x1
 1226 06b7 0B       		.byte	0xb
 1227 06b8 25000000 		.4byte	0x25
 1228 06bc 05       		.uleb128 0x5
 1229 06bd 03       		.byte	0x3
 1230 06be 1C000000 		.4byte	_ZL5s_mix
 1231 06c2 31       		.uleb128 0x31
 1232 06c3 E5040000 		.4byte	.LASF74
 1233 06c7 01       		.byte	0x1
 1234 06c8 0C       		.byte	0xc
 1235 06c9 25000000 		.4byte	0x25
 1236 06cd 05       		.uleb128 0x5
 1237 06ce 03       		.byte	0x3
 1238 06cf 20000000 		.4byte	_ZL4gain
 1239 06d3 33       		.uleb128 0x33
 1240 06d4 00000000 		.4byte	.LASF75
 1241 06d8 01       		.byte	0x1
 1242 06d9 0D       		.byte	0xd
 1243 06da 2C000000 		.4byte	0x2c
 1244 06de 32       		.uleb128 0x32
 1245 06df FB010000 		.4byte	.LASF76
 1246 06e3 01       		.byte	0x1
ARM GAS  C:\msys64\tmp\ccCuMzT2.s 			page 23


 1247 06e4 0F       		.byte	0xf
 1248 06e5 25000000 		.4byte	0x25
 1249 06e9 05       		.uleb128 0x5
 1250 06ea 03       		.byte	0x3
 1251 06eb 00000000 		.4byte	dryXN
 1252 06ef 32       		.uleb128 0x32
 1253 06f0 FD040000 		.4byte	.LASF77
 1254 06f4 01       		.byte	0x1
 1255 06f5 0F       		.byte	0xf
 1256 06f6 25000000 		.4byte	0x25
 1257 06fa 05       		.uleb128 0x5
 1258 06fb 03       		.byte	0x3
 1259 06fc 00000000 		.4byte	wetXN
 1260 0700 34       		.uleb128 0x34
 1261 0701 62706D00 		.ascii	"bpm\000"
 1262 0705 01       		.byte	0x1
 1263 0706 11       		.byte	0x11
 1264 0707 25000000 		.4byte	0x25
 1265 070b 05       		.uleb128 0x5
 1266 070c 03       		.byte	0x3
 1267 070d 00000000 		.4byte	bpm
 1268 0711 35       		.uleb128 0x35
 1269 0712 91050000 		.4byte	.LASF78
 1270 0716 91050000 		.4byte	.LASF78
 1271 071a 08       		.byte	0x8
 1272 071b 68       		.byte	0x68
 1273 071c 35       		.uleb128 0x35
 1274 071d 21050000 		.4byte	.LASF79
 1275 0721 21050000 		.4byte	.LASF79
 1276 0725 08       		.byte	0x8
 1277 0726 5D       		.byte	0x5d
 1278 0727 00       		.byte	0
 1279              		.section	.debug_abbrev,"",%progbits
 1280              	.Ldebug_abbrev0:
 1281 0000 01       		.uleb128 0x1
 1282 0001 11       		.uleb128 0x11
 1283 0002 01       		.byte	0x1
 1284 0003 25       		.uleb128 0x25
 1285 0004 0E       		.uleb128 0xe
 1286 0005 13       		.uleb128 0x13
 1287 0006 0B       		.uleb128 0xb
 1288 0007 03       		.uleb128 0x3
 1289 0008 0E       		.uleb128 0xe
 1290 0009 1B       		.uleb128 0x1b
 1291 000a 0E       		.uleb128 0xe
 1292 000b 55       		.uleb128 0x55
 1293 000c 17       		.uleb128 0x17
 1294 000d 11       		.uleb128 0x11
 1295 000e 01       		.uleb128 0x1
 1296 000f 10       		.uleb128 0x10
 1297 0010 17       		.uleb128 0x17
 1298 0011 00       		.byte	0
 1299 0012 00       		.byte	0
 1300 0013 02       		.uleb128 0x2
 1301 0014 24       		.uleb128 0x24
 1302 0015 00       		.byte	0
 1303 0016 0B       		.uleb128 0xb
ARM GAS  C:\msys64\tmp\ccCuMzT2.s 			page 24


 1304 0017 0B       		.uleb128 0xb
 1305 0018 3E       		.uleb128 0x3e
 1306 0019 0B       		.uleb128 0xb
 1307 001a 03       		.uleb128 0x3
 1308 001b 0E       		.uleb128 0xe
 1309 001c 00       		.byte	0
 1310 001d 00       		.byte	0
 1311 001e 03       		.uleb128 0x3
 1312 001f 24       		.uleb128 0x24
 1313 0020 00       		.byte	0
 1314 0021 0B       		.uleb128 0xb
 1315 0022 0B       		.uleb128 0xb
 1316 0023 3E       		.uleb128 0x3e
 1317 0024 0B       		.uleb128 0xb
 1318 0025 03       		.uleb128 0x3
 1319 0026 08       		.uleb128 0x8
 1320 0027 00       		.byte	0
 1321 0028 00       		.byte	0
 1322 0029 04       		.uleb128 0x4
 1323 002a 16       		.uleb128 0x16
 1324 002b 00       		.byte	0
 1325 002c 03       		.uleb128 0x3
 1326 002d 0E       		.uleb128 0xe
 1327 002e 3A       		.uleb128 0x3a
 1328 002f 0B       		.uleb128 0xb
 1329 0030 3B       		.uleb128 0x3b
 1330 0031 0B       		.uleb128 0xb
 1331 0032 49       		.uleb128 0x49
 1332 0033 13       		.uleb128 0x13
 1333 0034 00       		.byte	0
 1334 0035 00       		.byte	0
 1335 0036 05       		.uleb128 0x5
 1336 0037 3B       		.uleb128 0x3b
 1337 0038 00       		.byte	0
 1338 0039 03       		.uleb128 0x3
 1339 003a 0E       		.uleb128 0xe
 1340 003b 00       		.byte	0
 1341 003c 00       		.byte	0
 1342 003d 06       		.uleb128 0x6
 1343 003e 04       		.uleb128 0x4
 1344 003f 01       		.byte	0x1
 1345 0040 0B       		.uleb128 0xb
 1346 0041 0B       		.uleb128 0xb
 1347 0042 49       		.uleb128 0x49
 1348 0043 13       		.uleb128 0x13
 1349 0044 3A       		.uleb128 0x3a
 1350 0045 0B       		.uleb128 0xb
 1351 0046 3B       		.uleb128 0x3b
 1352 0047 0B       		.uleb128 0xb
 1353 0048 01       		.uleb128 0x1
 1354 0049 13       		.uleb128 0x13
 1355 004a 00       		.byte	0
 1356 004b 00       		.byte	0
 1357 004c 07       		.uleb128 0x7
 1358 004d 28       		.uleb128 0x28
 1359 004e 00       		.byte	0
 1360 004f 03       		.uleb128 0x3
ARM GAS  C:\msys64\tmp\ccCuMzT2.s 			page 25


 1361 0050 0E       		.uleb128 0xe
 1362 0051 1C       		.uleb128 0x1c
 1363 0052 0B       		.uleb128 0xb
 1364 0053 00       		.byte	0
 1365 0054 00       		.byte	0
 1366 0055 08       		.uleb128 0x8
 1367 0056 0F       		.uleb128 0xf
 1368 0057 00       		.byte	0
 1369 0058 0B       		.uleb128 0xb
 1370 0059 0B       		.uleb128 0xb
 1371 005a 49       		.uleb128 0x49
 1372 005b 13       		.uleb128 0x13
 1373 005c 00       		.byte	0
 1374 005d 00       		.byte	0
 1375 005e 09       		.uleb128 0x9
 1376 005f 39       		.uleb128 0x39
 1377 0060 01       		.byte	0x1
 1378 0061 03       		.uleb128 0x3
 1379 0062 08       		.uleb128 0x8
 1380 0063 3A       		.uleb128 0x3a
 1381 0064 0B       		.uleb128 0xb
 1382 0065 3B       		.uleb128 0x3b
 1383 0066 0B       		.uleb128 0xb
 1384 0067 01       		.uleb128 0x1
 1385 0068 13       		.uleb128 0x13
 1386 0069 00       		.byte	0
 1387 006a 00       		.byte	0
 1388 006b 0A       		.uleb128 0xa
 1389 006c 13       		.uleb128 0x13
 1390 006d 01       		.byte	0x1
 1391 006e 03       		.uleb128 0x3
 1392 006f 0E       		.uleb128 0xe
 1393 0070 0B       		.uleb128 0xb
 1394 0071 0B       		.uleb128 0xb
 1395 0072 3A       		.uleb128 0x3a
 1396 0073 0B       		.uleb128 0xb
 1397 0074 3B       		.uleb128 0x3b
 1398 0075 0B       		.uleb128 0xb
 1399 0076 00       		.byte	0
 1400 0077 00       		.byte	0
 1401 0078 0B       		.uleb128 0xb
 1402 0079 0D       		.uleb128 0xd
 1403 007a 00       		.byte	0
 1404 007b 03       		.uleb128 0x3
 1405 007c 0E       		.uleb128 0xe
 1406 007d 3A       		.uleb128 0x3a
 1407 007e 0B       		.uleb128 0xb
 1408 007f 3B       		.uleb128 0x3b
 1409 0080 0B       		.uleb128 0xb
 1410 0081 49       		.uleb128 0x49
 1411 0082 13       		.uleb128 0x13
 1412 0083 38       		.uleb128 0x38
 1413 0084 0B       		.uleb128 0xb
 1414 0085 00       		.byte	0
 1415 0086 00       		.byte	0
 1416 0087 0C       		.uleb128 0xc
 1417 0088 2E       		.uleb128 0x2e
ARM GAS  C:\msys64\tmp\ccCuMzT2.s 			page 26


 1418 0089 01       		.byte	0x1
 1419 008a 3F       		.uleb128 0x3f
 1420 008b 19       		.uleb128 0x19
 1421 008c 03       		.uleb128 0x3
 1422 008d 0E       		.uleb128 0xe
 1423 008e 3A       		.uleb128 0x3a
 1424 008f 0B       		.uleb128 0xb
 1425 0090 3B       		.uleb128 0x3b
 1426 0091 0B       		.uleb128 0xb
 1427 0092 6E       		.uleb128 0x6e
 1428 0093 0E       		.uleb128 0xe
 1429 0094 49       		.uleb128 0x49
 1430 0095 13       		.uleb128 0x13
 1431 0096 3C       		.uleb128 0x3c
 1432 0097 19       		.uleb128 0x19
 1433 0098 64       		.uleb128 0x64
 1434 0099 13       		.uleb128 0x13
 1435 009a 01       		.uleb128 0x1
 1436 009b 13       		.uleb128 0x13
 1437 009c 00       		.byte	0
 1438 009d 00       		.byte	0
 1439 009e 0D       		.uleb128 0xd
 1440 009f 05       		.uleb128 0x5
 1441 00a0 00       		.byte	0
 1442 00a1 49       		.uleb128 0x49
 1443 00a2 13       		.uleb128 0x13
 1444 00a3 34       		.uleb128 0x34
 1445 00a4 19       		.uleb128 0x19
 1446 00a5 00       		.byte	0
 1447 00a6 00       		.byte	0
 1448 00a7 0E       		.uleb128 0xe
 1449 00a8 05       		.uleb128 0x5
 1450 00a9 00       		.byte	0
 1451 00aa 49       		.uleb128 0x49
 1452 00ab 13       		.uleb128 0x13
 1453 00ac 00       		.byte	0
 1454 00ad 00       		.byte	0
 1455 00ae 0F       		.uleb128 0xf
 1456 00af 2E       		.uleb128 0x2e
 1457 00b0 01       		.byte	0x1
 1458 00b1 3F       		.uleb128 0x3f
 1459 00b2 19       		.uleb128 0x19
 1460 00b3 03       		.uleb128 0x3
 1461 00b4 0E       		.uleb128 0xe
 1462 00b5 3A       		.uleb128 0x3a
 1463 00b6 0B       		.uleb128 0xb
 1464 00b7 3B       		.uleb128 0x3b
 1465 00b8 0B       		.uleb128 0xb
 1466 00b9 6E       		.uleb128 0x6e
 1467 00ba 0E       		.uleb128 0xe
 1468 00bb 3C       		.uleb128 0x3c
 1469 00bc 19       		.uleb128 0x19
 1470 00bd 64       		.uleb128 0x64
 1471 00be 13       		.uleb128 0x13
 1472 00bf 01       		.uleb128 0x1
 1473 00c0 13       		.uleb128 0x13
 1474 00c1 00       		.byte	0
ARM GAS  C:\msys64\tmp\ccCuMzT2.s 			page 27


 1475 00c2 00       		.byte	0
 1476 00c3 10       		.uleb128 0x10
 1477 00c4 2E       		.uleb128 0x2e
 1478 00c5 01       		.byte	0x1
 1479 00c6 3F       		.uleb128 0x3f
 1480 00c7 19       		.uleb128 0x19
 1481 00c8 03       		.uleb128 0x3
 1482 00c9 0E       		.uleb128 0xe
 1483 00ca 3A       		.uleb128 0x3a
 1484 00cb 0B       		.uleb128 0xb
 1485 00cc 3B       		.uleb128 0x3b
 1486 00cd 0B       		.uleb128 0xb
 1487 00ce 6E       		.uleb128 0x6e
 1488 00cf 0E       		.uleb128 0xe
 1489 00d0 49       		.uleb128 0x49
 1490 00d1 13       		.uleb128 0x13
 1491 00d2 3C       		.uleb128 0x3c
 1492 00d3 19       		.uleb128 0x19
 1493 00d4 64       		.uleb128 0x64
 1494 00d5 13       		.uleb128 0x13
 1495 00d6 00       		.byte	0
 1496 00d7 00       		.byte	0
 1497 00d8 11       		.uleb128 0x11
 1498 00d9 2E       		.uleb128 0x2e
 1499 00da 01       		.byte	0x1
 1500 00db 03       		.uleb128 0x3
 1501 00dc 0E       		.uleb128 0xe
 1502 00dd 3A       		.uleb128 0x3a
 1503 00de 0B       		.uleb128 0xb
 1504 00df 3B       		.uleb128 0x3b
 1505 00e0 0B       		.uleb128 0xb
 1506 00e1 20       		.uleb128 0x20
 1507 00e2 0B       		.uleb128 0xb
 1508 00e3 01       		.uleb128 0x1
 1509 00e4 13       		.uleb128 0x13
 1510 00e5 00       		.byte	0
 1511 00e6 00       		.byte	0
 1512 00e7 12       		.uleb128 0x12
 1513 00e8 05       		.uleb128 0x5
 1514 00e9 00       		.byte	0
 1515 00ea 03       		.uleb128 0x3
 1516 00eb 08       		.uleb128 0x8
 1517 00ec 3A       		.uleb128 0x3a
 1518 00ed 0B       		.uleb128 0xb
 1519 00ee 3B       		.uleb128 0x3b
 1520 00ef 0B       		.uleb128 0xb
 1521 00f0 49       		.uleb128 0x49
 1522 00f1 13       		.uleb128 0x13
 1523 00f2 00       		.byte	0
 1524 00f3 00       		.byte	0
 1525 00f4 13       		.uleb128 0x13
 1526 00f5 34       		.uleb128 0x34
 1527 00f6 00       		.byte	0
 1528 00f7 03       		.uleb128 0x3
 1529 00f8 08       		.uleb128 0x8
 1530 00f9 3A       		.uleb128 0x3a
 1531 00fa 0B       		.uleb128 0xb
ARM GAS  C:\msys64\tmp\ccCuMzT2.s 			page 28


 1532 00fb 3B       		.uleb128 0x3b
 1533 00fc 0B       		.uleb128 0xb
 1534 00fd 49       		.uleb128 0x49
 1535 00fe 13       		.uleb128 0x13
 1536 00ff 00       		.byte	0
 1537 0100 00       		.byte	0
 1538 0101 14       		.uleb128 0x14
 1539 0102 37       		.uleb128 0x37
 1540 0103 00       		.byte	0
 1541 0104 49       		.uleb128 0x49
 1542 0105 13       		.uleb128 0x13
 1543 0106 00       		.byte	0
 1544 0107 00       		.byte	0
 1545 0108 15       		.uleb128 0x15
 1546 0109 26       		.uleb128 0x26
 1547 010a 00       		.byte	0
 1548 010b 49       		.uleb128 0x49
 1549 010c 13       		.uleb128 0x13
 1550 010d 00       		.byte	0
 1551 010e 00       		.byte	0
 1552 010f 16       		.uleb128 0x16
 1553 0110 2E       		.uleb128 0x2e
 1554 0111 01       		.byte	0x1
 1555 0112 03       		.uleb128 0x3
 1556 0113 0E       		.uleb128 0xe
 1557 0114 3A       		.uleb128 0x3a
 1558 0115 0B       		.uleb128 0xb
 1559 0116 3B       		.uleb128 0x3b
 1560 0117 0B       		.uleb128 0xb
 1561 0118 49       		.uleb128 0x49
 1562 0119 13       		.uleb128 0x13
 1563 011a 20       		.uleb128 0x20
 1564 011b 0B       		.uleb128 0xb
 1565 011c 01       		.uleb128 0x1
 1566 011d 13       		.uleb128 0x13
 1567 011e 00       		.byte	0
 1568 011f 00       		.byte	0
 1569 0120 17       		.uleb128 0x17
 1570 0121 2E       		.uleb128 0x2e
 1571 0122 01       		.byte	0x1
 1572 0123 47       		.uleb128 0x47
 1573 0124 13       		.uleb128 0x13
 1574 0125 20       		.uleb128 0x20
 1575 0126 0B       		.uleb128 0xb
 1576 0127 64       		.uleb128 0x64
 1577 0128 13       		.uleb128 0x13
 1578 0129 01       		.uleb128 0x1
 1579 012a 13       		.uleb128 0x13
 1580 012b 00       		.byte	0
 1581 012c 00       		.byte	0
 1582 012d 18       		.uleb128 0x18
 1583 012e 05       		.uleb128 0x5
 1584 012f 00       		.byte	0
 1585 0130 03       		.uleb128 0x3
 1586 0131 0E       		.uleb128 0xe
 1587 0132 49       		.uleb128 0x49
 1588 0133 13       		.uleb128 0x13
ARM GAS  C:\msys64\tmp\ccCuMzT2.s 			page 29


 1589 0134 34       		.uleb128 0x34
 1590 0135 19       		.uleb128 0x19
 1591 0136 00       		.byte	0
 1592 0137 00       		.byte	0
 1593 0138 19       		.uleb128 0x19
 1594 0139 05       		.uleb128 0x5
 1595 013a 00       		.byte	0
 1596 013b 03       		.uleb128 0x3
 1597 013c 0E       		.uleb128 0xe
 1598 013d 3A       		.uleb128 0x3a
 1599 013e 0B       		.uleb128 0xb
 1600 013f 3B       		.uleb128 0x3b
 1601 0140 0B       		.uleb128 0xb
 1602 0141 49       		.uleb128 0x49
 1603 0142 13       		.uleb128 0x13
 1604 0143 00       		.byte	0
 1605 0144 00       		.byte	0
 1606 0145 1A       		.uleb128 0x1a
 1607 0146 2E       		.uleb128 0x2e
 1608 0147 01       		.byte	0x1
 1609 0148 03       		.uleb128 0x3
 1610 0149 0E       		.uleb128 0xe
 1611 014a 34       		.uleb128 0x34
 1612 014b 19       		.uleb128 0x19
 1613 014c 20       		.uleb128 0x20
 1614 014d 0B       		.uleb128 0xb
 1615 014e 01       		.uleb128 0x1
 1616 014f 13       		.uleb128 0x13
 1617 0150 00       		.byte	0
 1618 0151 00       		.byte	0
 1619 0152 1B       		.uleb128 0x1b
 1620 0153 2E       		.uleb128 0x2e
 1621 0154 01       		.byte	0x1
 1622 0155 3F       		.uleb128 0x3f
 1623 0156 19       		.uleb128 0x19
 1624 0157 03       		.uleb128 0x3
 1625 0158 0E       		.uleb128 0xe
 1626 0159 3A       		.uleb128 0x3a
 1627 015a 0B       		.uleb128 0xb
 1628 015b 3B       		.uleb128 0x3b
 1629 015c 0B       		.uleb128 0xb
 1630 015d 11       		.uleb128 0x11
 1631 015e 01       		.uleb128 0x1
 1632 015f 12       		.uleb128 0x12
 1633 0160 06       		.uleb128 0x6
 1634 0161 40       		.uleb128 0x40
 1635 0162 18       		.uleb128 0x18
 1636 0163 9742     		.uleb128 0x2117
 1637 0165 19       		.uleb128 0x19
 1638 0166 01       		.uleb128 0x1
 1639 0167 13       		.uleb128 0x13
 1640 0168 00       		.byte	0
 1641 0169 00       		.byte	0
 1642 016a 1C       		.uleb128 0x1c
 1643 016b 05       		.uleb128 0x5
 1644 016c 00       		.byte	0
 1645 016d 03       		.uleb128 0x3
ARM GAS  C:\msys64\tmp\ccCuMzT2.s 			page 30


 1646 016e 0E       		.uleb128 0xe
 1647 016f 3A       		.uleb128 0x3a
 1648 0170 0B       		.uleb128 0xb
 1649 0171 3B       		.uleb128 0x3b
 1650 0172 0B       		.uleb128 0xb
 1651 0173 49       		.uleb128 0x49
 1652 0174 13       		.uleb128 0x13
 1653 0175 02       		.uleb128 0x2
 1654 0176 17       		.uleb128 0x17
 1655 0177 00       		.byte	0
 1656 0178 00       		.byte	0
 1657 0179 1D       		.uleb128 0x1d
 1658 017a 05       		.uleb128 0x5
 1659 017b 00       		.byte	0
 1660 017c 03       		.uleb128 0x3
 1661 017d 08       		.uleb128 0x8
 1662 017e 3A       		.uleb128 0x3a
 1663 017f 0B       		.uleb128 0xb
 1664 0180 3B       		.uleb128 0x3b
 1665 0181 0B       		.uleb128 0xb
 1666 0182 49       		.uleb128 0x49
 1667 0183 13       		.uleb128 0x13
 1668 0184 02       		.uleb128 0x2
 1669 0185 17       		.uleb128 0x17
 1670 0186 00       		.byte	0
 1671 0187 00       		.byte	0
 1672 0188 1E       		.uleb128 0x1e
 1673 0189 1D       		.uleb128 0x1d
 1674 018a 01       		.byte	0x1
 1675 018b 31       		.uleb128 0x31
 1676 018c 13       		.uleb128 0x13
 1677 018d 52       		.uleb128 0x52
 1678 018e 01       		.uleb128 0x1
 1679 018f 55       		.uleb128 0x55
 1680 0190 17       		.uleb128 0x17
 1681 0191 58       		.uleb128 0x58
 1682 0192 0B       		.uleb128 0xb
 1683 0193 59       		.uleb128 0x59
 1684 0194 0B       		.uleb128 0xb
 1685 0195 01       		.uleb128 0x1
 1686 0196 13       		.uleb128 0x13
 1687 0197 00       		.byte	0
 1688 0198 00       		.byte	0
 1689 0199 1F       		.uleb128 0x1f
 1690 019a 05       		.uleb128 0x5
 1691 019b 00       		.byte	0
 1692 019c 31       		.uleb128 0x31
 1693 019d 13       		.uleb128 0x13
 1694 019e 02       		.uleb128 0x2
 1695 019f 17       		.uleb128 0x17
 1696 01a0 00       		.byte	0
 1697 01a1 00       		.byte	0
 1698 01a2 20       		.uleb128 0x20
 1699 01a3 1D       		.uleb128 0x1d
 1700 01a4 01       		.byte	0x1
 1701 01a5 31       		.uleb128 0x31
 1702 01a6 13       		.uleb128 0x13
ARM GAS  C:\msys64\tmp\ccCuMzT2.s 			page 31


 1703 01a7 11       		.uleb128 0x11
 1704 01a8 01       		.uleb128 0x1
 1705 01a9 12       		.uleb128 0x12
 1706 01aa 06       		.uleb128 0x6
 1707 01ab 58       		.uleb128 0x58
 1708 01ac 0B       		.uleb128 0xb
 1709 01ad 59       		.uleb128 0x59
 1710 01ae 0B       		.uleb128 0xb
 1711 01af 01       		.uleb128 0x1
 1712 01b0 13       		.uleb128 0x13
 1713 01b1 00       		.byte	0
 1714 01b2 00       		.byte	0
 1715 01b3 21       		.uleb128 0x21
 1716 01b4 1D       		.uleb128 0x1d
 1717 01b5 01       		.byte	0x1
 1718 01b6 31       		.uleb128 0x31
 1719 01b7 13       		.uleb128 0x13
 1720 01b8 11       		.uleb128 0x11
 1721 01b9 01       		.uleb128 0x1
 1722 01ba 12       		.uleb128 0x12
 1723 01bb 06       		.uleb128 0x6
 1724 01bc 58       		.uleb128 0x58
 1725 01bd 0B       		.uleb128 0xb
 1726 01be 59       		.uleb128 0x59
 1727 01bf 0B       		.uleb128 0xb
 1728 01c0 00       		.byte	0
 1729 01c1 00       		.byte	0
 1730 01c2 22       		.uleb128 0x22
 1731 01c3 0B       		.uleb128 0xb
 1732 01c4 01       		.byte	0x1
 1733 01c5 11       		.uleb128 0x11
 1734 01c6 01       		.uleb128 0x1
 1735 01c7 12       		.uleb128 0x12
 1736 01c8 06       		.uleb128 0x6
 1737 01c9 00       		.byte	0
 1738 01ca 00       		.byte	0
 1739 01cb 23       		.uleb128 0x23
 1740 01cc 34       		.uleb128 0x34
 1741 01cd 00       		.byte	0
 1742 01ce 31       		.uleb128 0x31
 1743 01cf 13       		.uleb128 0x13
 1744 01d0 02       		.uleb128 0x2
 1745 01d1 17       		.uleb128 0x17
 1746 01d2 00       		.byte	0
 1747 01d3 00       		.byte	0
 1748 01d4 24       		.uleb128 0x24
 1749 01d5 898201   		.uleb128 0x4109
 1750 01d8 00       		.byte	0
 1751 01d9 11       		.uleb128 0x11
 1752 01da 01       		.uleb128 0x1
 1753 01db 31       		.uleb128 0x31
 1754 01dc 13       		.uleb128 0x13
 1755 01dd 00       		.byte	0
 1756 01de 00       		.byte	0
 1757 01df 25       		.uleb128 0x25
 1758 01e0 34       		.uleb128 0x34
 1759 01e1 00       		.byte	0
ARM GAS  C:\msys64\tmp\ccCuMzT2.s 			page 32


 1760 01e2 03       		.uleb128 0x3
 1761 01e3 08       		.uleb128 0x8
 1762 01e4 3A       		.uleb128 0x3a
 1763 01e5 0B       		.uleb128 0xb
 1764 01e6 3B       		.uleb128 0x3b
 1765 01e7 0B       		.uleb128 0xb
 1766 01e8 49       		.uleb128 0x49
 1767 01e9 13       		.uleb128 0x13
 1768 01ea 02       		.uleb128 0x2
 1769 01eb 18       		.uleb128 0x18
 1770 01ec 00       		.byte	0
 1771 01ed 00       		.byte	0
 1772 01ee 26       		.uleb128 0x26
 1773 01ef 0B       		.uleb128 0xb
 1774 01f0 01       		.byte	0x1
 1775 01f1 55       		.uleb128 0x55
 1776 01f2 17       		.uleb128 0x17
 1777 01f3 00       		.byte	0
 1778 01f4 00       		.byte	0
 1779 01f5 27       		.uleb128 0x27
 1780 01f6 34       		.uleb128 0x34
 1781 01f7 00       		.byte	0
 1782 01f8 03       		.uleb128 0x3
 1783 01f9 08       		.uleb128 0x8
 1784 01fa 3A       		.uleb128 0x3a
 1785 01fb 0B       		.uleb128 0xb
 1786 01fc 3B       		.uleb128 0x3b
 1787 01fd 0B       		.uleb128 0xb
 1788 01fe 49       		.uleb128 0x49
 1789 01ff 13       		.uleb128 0x13
 1790 0200 02       		.uleb128 0x2
 1791 0201 17       		.uleb128 0x17
 1792 0202 00       		.byte	0
 1793 0203 00       		.byte	0
 1794 0204 28       		.uleb128 0x28
 1795 0205 34       		.uleb128 0x34
 1796 0206 00       		.byte	0
 1797 0207 03       		.uleb128 0x3
 1798 0208 0E       		.uleb128 0xe
 1799 0209 3A       		.uleb128 0x3a
 1800 020a 0B       		.uleb128 0xb
 1801 020b 3B       		.uleb128 0x3b
 1802 020c 0B       		.uleb128 0xb
 1803 020d 49       		.uleb128 0x49
 1804 020e 13       		.uleb128 0x13
 1805 020f 02       		.uleb128 0x2
 1806 0210 17       		.uleb128 0x17
 1807 0211 00       		.byte	0
 1808 0212 00       		.byte	0
 1809 0213 29       		.uleb128 0x29
 1810 0214 05       		.uleb128 0x5
 1811 0215 00       		.byte	0
 1812 0216 31       		.uleb128 0x31
 1813 0217 13       		.uleb128 0x13
 1814 0218 00       		.byte	0
 1815 0219 00       		.byte	0
 1816 021a 2A       		.uleb128 0x2a
ARM GAS  C:\msys64\tmp\ccCuMzT2.s 			page 33


 1817 021b 1D       		.uleb128 0x1d
 1818 021c 01       		.byte	0x1
 1819 021d 31       		.uleb128 0x31
 1820 021e 13       		.uleb128 0x13
 1821 021f 52       		.uleb128 0x52
 1822 0220 01       		.uleb128 0x1
 1823 0221 55       		.uleb128 0x55
 1824 0222 17       		.uleb128 0x17
 1825 0223 58       		.uleb128 0x58
 1826 0224 0B       		.uleb128 0xb
 1827 0225 59       		.uleb128 0x59
 1828 0226 0B       		.uleb128 0xb
 1829 0227 00       		.byte	0
 1830 0228 00       		.byte	0
 1831 0229 2B       		.uleb128 0x2b
 1832 022a 2E       		.uleb128 0x2e
 1833 022b 01       		.byte	0x1
 1834 022c 03       		.uleb128 0x3
 1835 022d 0E       		.uleb128 0xe
 1836 022e 34       		.uleb128 0x34
 1837 022f 19       		.uleb128 0x19
 1838 0230 11       		.uleb128 0x11
 1839 0231 01       		.uleb128 0x1
 1840 0232 12       		.uleb128 0x12
 1841 0233 06       		.uleb128 0x6
 1842 0234 40       		.uleb128 0x40
 1843 0235 18       		.uleb128 0x18
 1844 0236 9742     		.uleb128 0x2117
 1845 0238 19       		.uleb128 0x19
 1846 0239 01       		.uleb128 0x1
 1847 023a 13       		.uleb128 0x13
 1848 023b 00       		.byte	0
 1849 023c 00       		.byte	0
 1850 023d 2C       		.uleb128 0x2c
 1851 023e 34       		.uleb128 0x34
 1852 023f 00       		.byte	0
 1853 0240 03       		.uleb128 0x3
 1854 0241 0E       		.uleb128 0xe
 1855 0242 3A       		.uleb128 0x3a
 1856 0243 0B       		.uleb128 0xb
 1857 0244 3B       		.uleb128 0x3b
 1858 0245 0B       		.uleb128 0xb
 1859 0246 49       		.uleb128 0x49
 1860 0247 13       		.uleb128 0x13
 1861 0248 3F       		.uleb128 0x3f
 1862 0249 19       		.uleb128 0x19
 1863 024a 3C       		.uleb128 0x3c
 1864 024b 19       		.uleb128 0x19
 1865 024c 00       		.byte	0
 1866 024d 00       		.byte	0
 1867 024e 2D       		.uleb128 0x2d
 1868 024f 01       		.uleb128 0x1
 1869 0250 01       		.byte	0x1
 1870 0251 49       		.uleb128 0x49
 1871 0252 13       		.uleb128 0x13
 1872 0253 01       		.uleb128 0x1
 1873 0254 13       		.uleb128 0x13
ARM GAS  C:\msys64\tmp\ccCuMzT2.s 			page 34


 1874 0255 00       		.byte	0
 1875 0256 00       		.byte	0
 1876 0257 2E       		.uleb128 0x2e
 1877 0258 21       		.uleb128 0x21
 1878 0259 00       		.byte	0
 1879 025a 49       		.uleb128 0x49
 1880 025b 13       		.uleb128 0x13
 1881 025c 2F       		.uleb128 0x2f
 1882 025d 0B       		.uleb128 0xb
 1883 025e 00       		.byte	0
 1884 025f 00       		.byte	0
 1885 0260 2F       		.uleb128 0x2f
 1886 0261 21       		.uleb128 0x21
 1887 0262 00       		.byte	0
 1888 0263 49       		.uleb128 0x49
 1889 0264 13       		.uleb128 0x13
 1890 0265 2F       		.uleb128 0x2f
 1891 0266 05       		.uleb128 0x5
 1892 0267 00       		.byte	0
 1893 0268 00       		.byte	0
 1894 0269 30       		.uleb128 0x30
 1895 026a 34       		.uleb128 0x34
 1896 026b 00       		.byte	0
 1897 026c 03       		.uleb128 0x3
 1898 026d 0E       		.uleb128 0xe
 1899 026e 3A       		.uleb128 0x3a
 1900 026f 0B       		.uleb128 0xb
 1901 0270 3B       		.uleb128 0x3b
 1902 0271 05       		.uleb128 0x5
 1903 0272 49       		.uleb128 0x49
 1904 0273 13       		.uleb128 0x13
 1905 0274 3F       		.uleb128 0x3f
 1906 0275 19       		.uleb128 0x19
 1907 0276 3C       		.uleb128 0x3c
 1908 0277 19       		.uleb128 0x19
 1909 0278 00       		.byte	0
 1910 0279 00       		.byte	0
 1911 027a 31       		.uleb128 0x31
 1912 027b 34       		.uleb128 0x34
 1913 027c 00       		.byte	0
 1914 027d 03       		.uleb128 0x3
 1915 027e 0E       		.uleb128 0xe
 1916 027f 3A       		.uleb128 0x3a
 1917 0280 0B       		.uleb128 0xb
 1918 0281 3B       		.uleb128 0x3b
 1919 0282 0B       		.uleb128 0xb
 1920 0283 49       		.uleb128 0x49
 1921 0284 13       		.uleb128 0x13
 1922 0285 02       		.uleb128 0x2
 1923 0286 18       		.uleb128 0x18
 1924 0287 00       		.byte	0
 1925 0288 00       		.byte	0
 1926 0289 32       		.uleb128 0x32
 1927 028a 34       		.uleb128 0x34
 1928 028b 00       		.byte	0
 1929 028c 03       		.uleb128 0x3
 1930 028d 0E       		.uleb128 0xe
ARM GAS  C:\msys64\tmp\ccCuMzT2.s 			page 35


 1931 028e 3A       		.uleb128 0x3a
 1932 028f 0B       		.uleb128 0xb
 1933 0290 3B       		.uleb128 0x3b
 1934 0291 0B       		.uleb128 0xb
 1935 0292 49       		.uleb128 0x49
 1936 0293 13       		.uleb128 0x13
 1937 0294 3F       		.uleb128 0x3f
 1938 0295 19       		.uleb128 0x19
 1939 0296 02       		.uleb128 0x2
 1940 0297 18       		.uleb128 0x18
 1941 0298 00       		.byte	0
 1942 0299 00       		.byte	0
 1943 029a 33       		.uleb128 0x33
 1944 029b 34       		.uleb128 0x34
 1945 029c 00       		.byte	0
 1946 029d 03       		.uleb128 0x3
 1947 029e 0E       		.uleb128 0xe
 1948 029f 3A       		.uleb128 0x3a
 1949 02a0 0B       		.uleb128 0xb
 1950 02a1 3B       		.uleb128 0x3b
 1951 02a2 0B       		.uleb128 0xb
 1952 02a3 49       		.uleb128 0x49
 1953 02a4 13       		.uleb128 0x13
 1954 02a5 00       		.byte	0
 1955 02a6 00       		.byte	0
 1956 02a7 34       		.uleb128 0x34
 1957 02a8 34       		.uleb128 0x34
 1958 02a9 00       		.byte	0
 1959 02aa 03       		.uleb128 0x3
 1960 02ab 08       		.uleb128 0x8
 1961 02ac 3A       		.uleb128 0x3a
 1962 02ad 0B       		.uleb128 0xb
 1963 02ae 3B       		.uleb128 0x3b
 1964 02af 0B       		.uleb128 0xb
 1965 02b0 49       		.uleb128 0x49
 1966 02b1 13       		.uleb128 0x13
 1967 02b2 3F       		.uleb128 0x3f
 1968 02b3 19       		.uleb128 0x19
 1969 02b4 02       		.uleb128 0x2
 1970 02b5 18       		.uleb128 0x18
 1971 02b6 00       		.byte	0
 1972 02b7 00       		.byte	0
 1973 02b8 35       		.uleb128 0x35
 1974 02b9 2E       		.uleb128 0x2e
 1975 02ba 00       		.byte	0
 1976 02bb 3F       		.uleb128 0x3f
 1977 02bc 19       		.uleb128 0x19
 1978 02bd 3C       		.uleb128 0x3c
 1979 02be 19       		.uleb128 0x19
 1980 02bf 6E       		.uleb128 0x6e
 1981 02c0 0E       		.uleb128 0xe
 1982 02c1 03       		.uleb128 0x3
 1983 02c2 0E       		.uleb128 0xe
 1984 02c3 3A       		.uleb128 0x3a
 1985 02c4 0B       		.uleb128 0xb
 1986 02c5 3B       		.uleb128 0x3b
 1987 02c6 0B       		.uleb128 0xb
ARM GAS  C:\msys64\tmp\ccCuMzT2.s 			page 36


 1988 02c7 00       		.byte	0
 1989 02c8 00       		.byte	0
 1990 02c9 00       		.byte	0
 1991              		.section	.debug_loc,"",%progbits
 1992              	.Ldebug_loc0:
 1993              	.LLST0:
 1994 0000 00000000 		.4byte	.LVL0
 1995 0004 3B000000 		.4byte	.LVL9-1
 1996 0008 0100     		.2byte	0x1
 1997 000a 50       		.byte	0x50
 1998 000b 3B000000 		.4byte	.LVL9-1
 1999 000f 7C000000 		.4byte	.LFE264
 2000 0013 0400     		.2byte	0x4
 2001 0015 F3       		.byte	0xf3
 2002 0016 01       		.uleb128 0x1
 2003 0017 50       		.byte	0x50
 2004 0018 9F       		.byte	0x9f
 2005 0019 00000000 		.4byte	0
 2006 001d 00000000 		.4byte	0
 2007              	.LLST1:
 2008 0021 00000000 		.4byte	.LVL0
 2009 0025 08000000 		.4byte	.LVL1
 2010 0029 0100     		.2byte	0x1
 2011 002b 51       		.byte	0x51
 2012 002c 08000000 		.4byte	.LVL1
 2013 0030 7C000000 		.4byte	.LFE264
 2014 0034 0400     		.2byte	0x4
 2015 0036 F3       		.byte	0xf3
 2016 0037 01       		.uleb128 0x1
 2017 0038 51       		.byte	0x51
 2018 0039 9F       		.byte	0x9f
 2019 003a 00000000 		.4byte	0
 2020 003e 00000000 		.4byte	0
 2021              	.LLST2:
 2022 0042 00000000 		.4byte	.LVL0
 2023 0046 1A000000 		.4byte	.LVL2
 2024 004a 0400     		.2byte	0x4
 2025 004c 0A       		.byte	0xa
 2026 004d 80BB     		.2byte	0xbb80
 2027 004f 9F       		.byte	0x9f
 2028 0050 00000000 		.4byte	0
 2029 0054 00000000 		.4byte	0
 2030              	.LLST3:
 2031 0058 00000000 		.4byte	.LVL0
 2032 005c 1A000000 		.4byte	.LVL2
 2033 0060 0600     		.2byte	0x6
 2034 0062 03       		.byte	0x3
 2035 0063 00000000 		.4byte	_ZL11s_delay_ram
 2036 0067 9F       		.byte	0x9f
 2037 0068 00000000 		.4byte	0
 2038 006c 00000000 		.4byte	0
 2039              	.LLST4:
 2040 0070 00000000 		.4byte	.LVL0
 2041 0074 1A000000 		.4byte	.LVL2
 2042 0078 0600     		.2byte	0x6
 2043 007a 03       		.byte	0x3
 2044 007b 00000000 		.4byte	_ZL7s_delay
ARM GAS  C:\msys64\tmp\ccCuMzT2.s 			page 37


 2045 007f 9F       		.byte	0x9f
 2046 0080 00000000 		.4byte	0
 2047 0084 00000000 		.4byte	0
 2048              	.LLST5:
 2049 0088 1A000000 		.4byte	.LVL2
 2050 008c 38000000 		.4byte	.LVL8
 2051 0090 0600     		.2byte	0x6
 2052 0092 03       		.byte	0x3
 2053 0093 00000000 		.4byte	_ZL7s_delay
 2054 0097 9F       		.byte	0x9f
 2055 0098 00000000 		.4byte	0
 2056 009c 00000000 		.4byte	0
 2057              	.LLST6:
 2058 00a0 1A000000 		.4byte	.LVL2
 2059 00a4 38000000 		.4byte	.LVL8
 2060 00a8 0400     		.2byte	0x4
 2061 00aa 40       		.byte	0x40
 2062 00ab 3C       		.byte	0x3c
 2063 00ac 24       		.byte	0x24
 2064 00ad 9F       		.byte	0x9f
 2065 00ae 00000000 		.4byte	0
 2066 00b2 00000000 		.4byte	0
 2067              	.LLST7:
 2068 00b6 1A000000 		.4byte	.LVL2
 2069 00ba 22000000 		.4byte	.LVL3
 2070 00be 0600     		.2byte	0x6
 2071 00c0 03       		.byte	0x3
 2072 00c1 00000000 		.4byte	_ZL11s_delay_ram
 2073 00c5 9F       		.byte	0x9f
 2074 00c6 22000000 		.4byte	.LVL3
 2075 00ca 26000000 		.4byte	.LVL4
 2076 00ce 0300     		.2byte	0x3
 2077 00d0 73       		.byte	0x73
 2078 00d1 74       		.sleb128 -12
 2079 00d2 9F       		.byte	0x9f
 2080 00d3 26000000 		.4byte	.LVL4
 2081 00d7 2A000000 		.4byte	.LVL5
 2082 00db 0300     		.2byte	0x3
 2083 00dd 73       		.byte	0x73
 2084 00de 78       		.sleb128 -8
 2085 00df 9F       		.byte	0x9f
 2086 00e0 2A000000 		.4byte	.LVL5
 2087 00e4 2E000000 		.4byte	.LVL6
 2088 00e8 0300     		.2byte	0x3
 2089 00ea 73       		.byte	0x73
 2090 00eb 7C       		.sleb128 -4
 2091 00ec 9F       		.byte	0x9f
 2092 00ed 2E000000 		.4byte	.LVL6
 2093 00f1 34000000 		.4byte	.LVL7
 2094 00f5 0100     		.2byte	0x1
 2095 00f7 53       		.byte	0x53
 2096 00f8 34000000 		.4byte	.LVL7
 2097 00fc 38000000 		.4byte	.LVL8
 2098 0100 0300     		.2byte	0x3
 2099 0102 73       		.byte	0x73
 2100 0103 70       		.sleb128 -16
 2101 0104 9F       		.byte	0x9f
ARM GAS  C:\msys64\tmp\ccCuMzT2.s 			page 38


 2102 0105 00000000 		.4byte	0
 2103 0109 00000000 		.4byte	0
 2104              	.LLST8:
 2105 010d 1A000000 		.4byte	.LVL2
 2106 0111 38000000 		.4byte	.LVL8
 2107 0115 0600     		.2byte	0x6
 2108 0117 03       		.byte	0x3
 2109 0118 00000400 		.4byte	_ZL11s_delay_ram+262144
 2110 011c 9F       		.byte	0x9f
 2111 011d 00000000 		.4byte	0
 2112 0121 00000000 		.4byte	0
 2113              	.LLST9:
 2114 0125 7C000000 		.4byte	.LVL10
 2115 0129 9A000000 		.4byte	.LVL13
 2116 012d 0100     		.2byte	0x1
 2117 012f 50       		.byte	0x50
 2118 0130 9A000000 		.4byte	.LVL13
 2119 0134 F0000000 		.4byte	.LFE265
 2120 0138 0400     		.2byte	0x4
 2121 013a F3       		.byte	0xf3
 2122 013b 01       		.uleb128 0x1
 2123 013c 50       		.byte	0x50
 2124 013d 9F       		.byte	0x9f
 2125 013e 00000000 		.4byte	0
 2126 0142 00000000 		.4byte	0
 2127              	.LLST10:
 2128 0146 7C000000 		.4byte	.LVL10
 2129 014a 94000000 		.4byte	.LVL12
 2130 014e 0100     		.2byte	0x1
 2131 0150 51       		.byte	0x51
 2132 0151 94000000 		.4byte	.LVL12
 2133 0155 F0000000 		.4byte	.LFE265
 2134 0159 0400     		.2byte	0x4
 2135 015b F3       		.byte	0xf3
 2136 015c 01       		.uleb128 0x1
 2137 015d 51       		.byte	0x51
 2138 015e 9F       		.byte	0x9f
 2139 015f 00000000 		.4byte	0
 2140 0163 00000000 		.4byte	0
 2141              	.LLST11:
 2142 0167 86000000 		.4byte	.LVL11
 2143 016b 9A000000 		.4byte	.LVL13
 2144 016f 0200     		.2byte	0x2
 2145 0171 30       		.byte	0x30
 2146 0172 9F       		.byte	0x9f
 2147 0173 A0000000 		.4byte	.LVL14
 2148 0177 E0000000 		.4byte	.LVL19
 2149 017b 0100     		.2byte	0x1
 2150 017d 54       		.byte	0x54
 2151 017e E0000000 		.4byte	.LVL19
 2152 0182 E4000000 		.4byte	.LVL20
 2153 0186 0300     		.2byte	0x3
 2154 0188 74       		.byte	0x74
 2155 0189 7F       		.sleb128 -1
 2156 018a 9F       		.byte	0x9f
 2157 018b E4000000 		.4byte	.LVL20
 2158 018f EA000000 		.4byte	.LVL21
ARM GAS  C:\msys64\tmp\ccCuMzT2.s 			page 39


 2159 0193 0100     		.2byte	0x1
 2160 0195 54       		.byte	0x54
 2161 0196 00000000 		.4byte	0
 2162 019a 00000000 		.4byte	0
 2163              	.LLST12:
 2164 019e B8000000 		.4byte	.LVL15
 2165 01a2 C0000000 		.4byte	.LVL16
 2166 01a6 0200     		.2byte	0x2
 2167 01a8 90       		.byte	0x90
 2168 01a9 4F       		.uleb128 0x4f
 2169 01aa 00000000 		.4byte	0
 2170 01ae 00000000 		.4byte	0
 2171              	.LLST13:
 2172 01b2 D2000000 		.4byte	.LVL17
 2173 01b6 DE000000 		.4byte	.LVL18
 2174 01ba 1200     		.2byte	0x12
 2175 01bc 03       		.byte	0x3
 2176 01bd 00000000 		.4byte	dryXN
 2177 01c1 F6       		.byte	0xf6
 2178 01c2 04       		.byte	0x4
 2179 01c3 25       		.uleb128 0x25
 2180 01c4 03       		.byte	0x3
 2181 01c5 00000000 		.4byte	wetXN
 2182 01c9 F6       		.byte	0xf6
 2183 01ca 04       		.byte	0x4
 2184 01cb 25       		.uleb128 0x25
 2185 01cc 22       		.byte	0x22
 2186 01cd 9F       		.byte	0x9f
 2187 01ce DE000000 		.4byte	.LVL18
 2188 01d2 E4000000 		.4byte	.LVL20
 2189 01d6 0200     		.2byte	0x2
 2190 01d8 90       		.byte	0x90
 2191 01d9 4F       		.uleb128 0x4f
 2192 01da 00000000 		.4byte	0
 2193 01de 00000000 		.4byte	0
 2194              	.LLST14:
 2195 01e2 D2000000 		.4byte	.LVL17
 2196 01e6 E4000000 		.4byte	.LVL20
 2197 01ea 0600     		.2byte	0x6
 2198 01ec 03       		.byte	0x3
 2199 01ed 00000000 		.4byte	_ZL7s_delay
 2200 01f1 9F       		.byte	0x9f
 2201 01f2 00000000 		.4byte	0
 2202 01f6 00000000 		.4byte	0
 2203              	.LLST15:
 2204 01fa F0000000 		.4byte	.LVL22
 2205 01fe 29010000 		.4byte	.LVL24-1
 2206 0202 0100     		.2byte	0x1
 2207 0204 50       		.byte	0x50
 2208 0205 29010000 		.4byte	.LVL24-1
 2209 0209 D4010000 		.4byte	.LFE266
 2210 020d 0400     		.2byte	0x4
 2211 020f F3       		.byte	0xf3
 2212 0210 01       		.uleb128 0x1
 2213 0211 50       		.byte	0x50
 2214 0212 9F       		.byte	0x9f
 2215 0213 00000000 		.4byte	0
ARM GAS  C:\msys64\tmp\ccCuMzT2.s 			page 40


 2216 0217 00000000 		.4byte	0
 2217              	.LLST16:
 2218 021b F0000000 		.4byte	.LVL22
 2219 021f 29010000 		.4byte	.LVL24-1
 2220 0223 0100     		.2byte	0x1
 2221 0225 51       		.byte	0x51
 2222 0226 29010000 		.4byte	.LVL24-1
 2223 022a D4010000 		.4byte	.LFE266
 2224 022e 0400     		.2byte	0x4
 2225 0230 F3       		.byte	0xf3
 2226 0231 01       		.uleb128 0x1
 2227 0232 51       		.byte	0x51
 2228 0233 9F       		.byte	0x9f
 2229 0234 00000000 		.4byte	0
 2230 0238 00000000 		.4byte	0
 2231              	.LLST17:
 2232 023c 00010000 		.4byte	.LVL23
 2233 0240 BE010000 		.4byte	.LVL25
 2234 0244 0200     		.2byte	0x2
 2235 0246 90       		.byte	0x90
 2236 0247 50       		.uleb128 0x50
 2237 0248 BE010000 		.4byte	.LVL25
 2238 024c D4010000 		.4byte	.LFE266
 2239 0250 1000     		.2byte	0x10
 2240 0252 F3       		.byte	0xf3
 2241 0253 01       		.uleb128 0x1
 2242 0254 51       		.byte	0x51
 2243 0255 F7       		.byte	0xf7
 2244 0256 2C       		.uleb128 0x2c
 2245 0257 F7       		.byte	0xf7
 2246 0258 25       		.uleb128 0x25
 2247 0259 F4       		.byte	0xf4
 2248 025a 25       		.uleb128 0x25
 2249 025b 04       		.byte	0x4
 2250 025c 00000030 		.4byte	0x30000000
 2251 0260 1E       		.byte	0x1e
 2252 0261 9F       		.byte	0x9f
 2253 0262 00000000 		.4byte	0
 2254 0266 00000000 		.4byte	0
 2255              	.LLST18:
 2256 026a 00000000 		.4byte	.LVL26
 2257 026e 10000000 		.4byte	.LVL27
 2258 0272 0400     		.2byte	0x4
 2259 0274 0A       		.byte	0xa
 2260 0275 FFFF     		.2byte	0xffff
 2261 0277 9F       		.byte	0x9f
 2262 0278 00000000 		.4byte	0
 2263 027c 00000000 		.4byte	0
 2264              	.LLST19:
 2265 0280 00000000 		.4byte	.LVL26
 2266 0284 10000000 		.4byte	.LVL27
 2267 0288 0200     		.2byte	0x2
 2268 028a 31       		.byte	0x31
 2269 028b 9F       		.byte	0x9f
 2270 028c 00000000 		.4byte	0
 2271 0290 00000000 		.4byte	0
 2272              	.LLST20:
ARM GAS  C:\msys64\tmp\ccCuMzT2.s 			page 41


 2273 0294 00000000 		.4byte	.LVL26
 2274 0298 10000000 		.4byte	.LVL27
 2275 029c 0600     		.2byte	0x6
 2276 029e 03       		.byte	0x3
 2277 029f 00000000 		.4byte	_ZL7s_delay
 2278 02a3 9F       		.byte	0x9f
 2279 02a4 00000000 		.4byte	0
 2280 02a8 00000000 		.4byte	0
 2281              		.section	.debug_aranges,"",%progbits
 2282 0000 24000000 		.4byte	0x24
 2283 0004 0200     		.2byte	0x2
 2284 0006 00000000 		.4byte	.Ldebug_info0
 2285 000a 04       		.byte	0x4
 2286 000b 00       		.byte	0
 2287 000c 0000     		.2byte	0
 2288 000e 0000     		.2byte	0
 2289 0010 00000000 		.4byte	.Ltext0
 2290 0014 D4010000 		.4byte	.Letext0-.Ltext0
 2291 0018 00000000 		.4byte	.LFB268
 2292 001c 18000000 		.4byte	.LFE268-.LFB268
 2293 0020 00000000 		.4byte	0
 2294 0024 00000000 		.4byte	0
 2295              		.section	.debug_ranges,"",%progbits
 2296              	.Ldebug_ranges0:
 2297 0000 00000000 		.4byte	.LBB22
 2298 0004 08000000 		.4byte	.LBE22
 2299 0008 0A000000 		.4byte	.LBB25
 2300 000c 20000000 		.4byte	.LBE25
 2301 0010 00000000 		.4byte	0
 2302 0014 00000000 		.4byte	0
 2303 0018 80000000 		.4byte	.LBB29
 2304 001c 82000000 		.4byte	.LBE29
 2305 0020 86000000 		.4byte	.LBB49
 2306 0024 F0000000 		.4byte	.LBE49
 2307 0028 00000000 		.4byte	0
 2308 002c 00000000 		.4byte	0
 2309 0030 80000000 		.4byte	.LBB30
 2310 0034 82000000 		.4byte	.LBE30
 2311 0038 86000000 		.4byte	.LBB45
 2312 003c 8E000000 		.4byte	.LBE45
 2313 0040 96000000 		.4byte	.LBB46
 2314 0044 9A000000 		.4byte	.LBE46
 2315 0048 A2000000 		.4byte	.LBB47
 2316 004c DE000000 		.4byte	.LBE47
 2317 0050 E0000000 		.4byte	.LBB48
 2318 0054 E4000000 		.4byte	.LBE48
 2319 0058 00000000 		.4byte	0
 2320 005c 00000000 		.4byte	0
 2321 0060 86000000 		.4byte	.LBB31
 2322 0064 8A000000 		.4byte	.LBE31
 2323 0068 96000000 		.4byte	.LBB35
 2324 006c 9A000000 		.4byte	.LBE35
 2325 0070 A2000000 		.4byte	.LBB36
 2326 0074 AC000000 		.4byte	.LBE36
 2327 0078 00000000 		.4byte	0
 2328 007c 00000000 		.4byte	0
 2329 0080 C0000000 		.4byte	.LBB37
ARM GAS  C:\msys64\tmp\ccCuMzT2.s 			page 42


 2330 0084 C2000000 		.4byte	.LBE37
 2331 0088 CA000000 		.4byte	.LBB42
 2332 008c CE000000 		.4byte	.LBE42
 2333 0090 D2000000 		.4byte	.LBB43
 2334 0094 DE000000 		.4byte	.LBE43
 2335 0098 E0000000 		.4byte	.LBB44
 2336 009c E4000000 		.4byte	.LBE44
 2337 00a0 00000000 		.4byte	0
 2338 00a4 00000000 		.4byte	0
 2339 00a8 00000000 		.4byte	.Ltext0
 2340 00ac D4010000 		.4byte	.Letext0
 2341 00b0 00000000 		.4byte	.LFB268
 2342 00b4 18000000 		.4byte	.LFE268
 2343 00b8 00000000 		.4byte	0
 2344 00bc 00000000 		.4byte	0
 2345              		.section	.debug_line,"",%progbits
 2346              	.Ldebug_line0:
 2347 0000 49030000 		.section	.debug_str,"MS",%progbits,1
 2347      02003902 
 2347      00000201 
 2347      FB0E0D00 
 2347      01010101 
 2348              	.LASF75:
 2349 0000 775F706F 		.ascii	"w_pos\000"
 2349      7300
 2350              	.LASF39:
 2351 0006 77726974 		.ascii	"write\000"
 2351      6500
 2352              	.LASF54:
 2353 000c 6672616D 		.ascii	"frames\000"
 2353      657300
 2354              	.LASF51:
 2355 0013 5F686F6F 		.ascii	"_hook_init\000"
 2355      6B5F696E 
 2355      697400
 2356              	.LASF83:
 2357 001e 6465636C 		.ascii	"decltype(nullptr)\000"
 2357      74797065 
 2357      286E756C 
 2357      6C707472 
 2357      2900
 2358              	.LASF87:
 2359 0030 5F474C4F 		.ascii	"_GLOBAL__sub_I_s_len\000"
 2359      42414C5F 
 2359      5F737562 
 2359      5F495F73 
 2359      5F6C656E 
 2360              	.LASF29:
 2361 0045 6D53697A 		.ascii	"mSize\000"
 2361      6500
 2362              	.LASF16:
 2363 004b 73697A65 		.ascii	"size_t\000"
 2363      5F7400
 2364              	.LASF18:
 2365 0052 73697A65 		.ascii	"sizetype\000"
 2365      74797065 
 2365      00
ARM GAS  C:\msys64\tmp\ccCuMzT2.s 			page 43


 2366              	.LASF66:
 2367 005b 706F7732 		.ascii	"pow2_lut_f\000"
 2367      5F6C7574 
 2367      5F6600
 2368              	.LASF67:
 2369 0066 63756269 		.ascii	"cubicsat_lut_f\000"
 2369      63736174 
 2369      5F6C7574 
 2369      5F6600
 2370              	.LASF8:
 2371 0075 5F5F7569 		.ascii	"__uint32_t\000"
 2371      6E743332 
 2371      5F7400
 2372              	.LASF69:
 2373 0080 62697472 		.ascii	"bitres_lut_f\000"
 2373      65735F6C 
 2373      75745F66 
 2373      00
 2374              	.LASF3:
 2375 008d 73686F72 		.ascii	"short int\000"
 2375      7420696E 
 2375      7400
 2376              	.LASF21:
 2377 0097 6B5F7573 		.ascii	"k_user_module_global\000"
 2377      65725F6D 
 2377      6F64756C 
 2377      655F676C 
 2377      6F62616C 
 2378              	.LASF26:
 2379 00ac 6B5F6E75 		.ascii	"k_num_user_modules\000"
 2379      6D5F7573 
 2379      65725F6D 
 2379      6F64756C 
 2379      657300
 2380              	.LASF28:
 2381 00bf 6D467261 		.ascii	"mFracZ\000"
 2381      635A00
 2382              	.LASF57:
 2383 00c6 696E6465 		.ascii	"index\000"
 2383      7800
 2384              	.LASF30:
 2385 00cc 6D4D6173 		.ascii	"mMask\000"
 2385      6B00
 2386              	.LASF25:
 2387 00d2 6B5F7573 		.ascii	"k_user_module_osc\000"
 2387      65725F6D 
 2387      6F64756C 
 2387      655F6F73 
 2387      6300
 2388              	.LASF32:
 2389 00e4 44656C61 		.ascii	"DelayLine\000"
 2389      794C696E 
 2389      6500
 2390              	.LASF1:
 2391 00ee 7369676E 		.ascii	"signed char\000"
 2391      65642063 
 2391      68617200 
ARM GAS  C:\msys64\tmp\ccCuMzT2.s 			page 44


 2392              	.LASF81:
 2393 00fa 2E2F7372 		.ascii	"./src/simpledelay.cpp\000"
 2393      632F7369 
 2393      6D706C65 
 2393      64656C61 
 2393      792E6370 
 2394              	.LASF0:
 2395 0110 666C6F61 		.ascii	"float\000"
 2395      7400
 2396              	.LASF68:
 2397 0116 73636865 		.ascii	"schetzen_lut_f\000"
 2397      747A656E 
 2397      5F6C7574 
 2397      5F6600
 2398              	.LASF41:
 2399 0125 72656164 		.ascii	"read\000"
 2399      00
 2400              	.LASF56:
 2401 012a 5F686F6F 		.ascii	"_hook_param\000"
 2401      6B5F7061 
 2401      72616D00 
 2402              	.LASF10:
 2403 0136 6C6F6E67 		.ascii	"long long int\000"
 2403      206C6F6E 
 2403      6720696E 
 2403      7400
 2404              	.LASF7:
 2405 0144 6C6F6E67 		.ascii	"long int\000"
 2405      20696E74 
 2405      00
 2406              	.LASF73:
 2407 014d 735F6D69 		.ascii	"s_mix\000"
 2407      7800
 2408              	.LASF72:
 2409 0153 735F6C65 		.ascii	"s_len\000"
 2409      6E00
 2410              	.LASF35:
 2411 0159 636C6561 		.ascii	"clear\000"
 2411      7200
 2412              	.LASF63:
 2413 015f 6C6F675F 		.ascii	"log_lut_f\000"
 2413      6C75745F 
 2413      6600
 2414              	.LASF60:
 2415 0169 6B5F6678 		.ascii	"k_fx_api_platform\000"
 2415      5F617069 
 2415      5F706C61 
 2415      74666F72 
 2415      6D00
 2416              	.LASF82:
 2417 017b 433A5C75 		.ascii	"C:\\users\\bradl\\desktop\\Code Projects\\KorgFX\\K"
 2417      73657273 
 2417      5C627261 
 2417      646C5C64 
 2417      65736B74 
 2418 01a8 6F726744 		.ascii	"orgDelayFX\\platform\\minilogue-xd\\delay\000"
 2418      656C6179 
ARM GAS  C:\msys64\tmp\ccCuMzT2.s 			page 45


 2418      46585C70 
 2418      6C617466 
 2418      6F726D5C 
 2419              	.LASF49:
 2420 01cf 5F5F696E 		.ascii	"__initialize_p\000"
 2420      69746961 
 2420      6C697A65 
 2420      5F7000
 2421              	.LASF44:
 2422 01de 5F5A4E33 		.ascii	"_ZN3dsp9DelayLine8readFracEf\000"
 2422      64737039 
 2422      44656C61 
 2422      794C696E 
 2422      65387265 
 2423              	.LASF76:
 2424 01fb 64727958 		.ascii	"dryXN\000"
 2424      4E00
 2425              	.LASF46:
 2426 0201 5F5A4E33 		.ascii	"_ZN3dsp9DelayLine9readFraczEmf\000"
 2426      64737039 
 2426      44656C61 
 2426      794C696E 
 2426      65397265 
 2427              	.LASF17:
 2428 0220 6C6F6E67 		.ascii	"long double\000"
 2428      20646F75 
 2428      626C6500 
 2429              	.LASF22:
 2430 022c 6B5F7573 		.ascii	"k_user_module_modfx\000"
 2430      65725F6D 
 2430      6F64756C 
 2430      655F6D6F 
 2430      64667800 
 2431              	.LASF38:
 2432 0240 5F5A4E33 		.ascii	"_ZN3dsp9DelayLine9setMemoryEPfj\000"
 2432      64737039 
 2432      44656C61 
 2432      794C696E 
 2432      65397365 
 2433              	.LASF2:
 2434 0260 756E7369 		.ascii	"unsigned char\000"
 2434      676E6564 
 2434      20636861 
 2434      7200
 2435              	.LASF48:
 2436 026e 6C696E65 		.ascii	"line_size\000"
 2436      5F73697A 
 2436      6500
 2437              	.LASF80:
 2438 0278 474E5520 		.ascii	"GNU C++11 5.4.1 20160919 (release) [ARM/embedded-5-"
 2438      432B2B31 
 2438      3120352E 
 2438      342E3120 
 2438      32303136 
 2439 02ab 6272616E 		.ascii	"branch revision 240496] -mcpu=cortex-m4 -mthumb -mn"
 2439      63682072 
 2439      65766973 
ARM GAS  C:\msys64\tmp\ccCuMzT2.s 			page 46


 2439      696F6E20 
 2439      32343034 
 2440 02de 6F2D7468 		.ascii	"o-thumb-interwork -mlittle-endian -mfloat-abi=hard "
 2440      756D622D 
 2440      696E7465 
 2440      72776F72 
 2440      6B202D6D 
 2441 0311 2D6D6670 		.ascii	"-mfpu=fpv4-sp-d16 -g -Os -std=c++11 -fsingle-precis"
 2441      753D6670 
 2441      76342D73 
 2441      702D6431 
 2441      36202D67 
 2442 0344 696F6E2D 		.ascii	"ion-constant -fcheck-new -fno-rtti -fno-exceptions "
 2442      636F6E73 
 2442      74616E74 
 2442      202D6663 
 2442      6865636B 
 2443 0377 2D666E6F 		.ascii	"-fno-non-call-exceptions\000"
 2443      2D6E6F6E 
 2443      2D63616C 
 2443      6C2D6578 
 2443      63657074 
 2444              	.LASF11:
 2445 0390 6C6F6E67 		.ascii	"long long unsigned int\000"
 2445      206C6F6E 
 2445      6720756E 
 2445      7369676E 
 2445      65642069 
 2446              	.LASF15:
 2447 03a7 75696E74 		.ascii	"uint32_t\000"
 2447      33325F74 
 2447      00
 2448              	.LASF12:
 2449 03b0 756E7369 		.ascii	"unsigned int\000"
 2449      676E6564 
 2449      20696E74 
 2449      00
 2450              	.LASF5:
 2451 03bd 5F5F7569 		.ascii	"__uint8_t\000"
 2451      6E74385F 
 2451      7400
 2452              	.LASF27:
 2453 03c7 6D4C696E 		.ascii	"mLine\000"
 2453      6500
 2454              	.LASF40:
 2455 03cd 5F5A4E33 		.ascii	"_ZN3dsp9DelayLine5writeEf\000"
 2455      64737039 
 2455      44656C61 
 2455      794C696E 
 2455      65357772 
 2456              	.LASF37:
 2457 03e7 5F5A4E33 		.ascii	"_ZN3dsp9DelayLine5clearEv\000"
 2457      64737039 
 2457      44656C61 
 2457      794C696E 
 2457      6535636C 
 2458              	.LASF36:
ARM GAS  C:\msys64\tmp\ccCuMzT2.s 			page 47


 2459 0401 7365744D 		.ascii	"setMemory\000"
 2459      656D6F72 
 2459      7900
 2460              	.LASF4:
 2461 040b 73686F72 		.ascii	"short unsigned int\000"
 2461      7420756E 
 2461      7369676E 
 2461      65642069 
 2461      6E7400
 2462              	.LASF62:
 2463 041e 77745F73 		.ascii	"wt_sine_lut_f\000"
 2463      696E655F 
 2463      6C75745F 
 2463      6600
 2464              	.LASF71:
 2465 042c 735F6465 		.ascii	"s_delay_ram\000"
 2465      6C61795F 
 2465      72616D00 
 2466              	.LASF31:
 2467 0438 6D577269 		.ascii	"mWriteIdx\000"
 2467      74654964 
 2467      7800
 2468              	.LASF19:
 2469 0442 63686172 		.ascii	"char\000"
 2469      00
 2470              	.LASF45:
 2471 0447 72656164 		.ascii	"readFracz\000"
 2471      46726163 
 2471      7A00
 2472              	.LASF14:
 2473 0451 696E7433 		.ascii	"int32_t\000"
 2473      325F7400 
 2474              	.LASF84:
 2475 0459 6275665F 		.ascii	"buf_clr_f32\000"
 2475      636C725F 
 2475      66333200 
 2476              	.LASF58:
 2477 0465 76616C75 		.ascii	"value\000"
 2477      6500
 2478              	.LASF86:
 2479 046b 5F5F7374 		.ascii	"__static_initialization_and_destruction_0\000"
 2479      61746963 
 2479      5F696E69 
 2479      7469616C 
 2479      697A6174 
 2480              	.LASF50:
 2481 0495 5F5F7072 		.ascii	"__priority\000"
 2481      696F7269 
 2481      747900
 2482              	.LASF47:
 2483 04a0 74686973 		.ascii	"this\000"
 2483      00
 2484              	.LASF64:
 2485 04a5 74616E70 		.ascii	"tanpi_lut_f\000"
 2485      695F6C75 
 2485      745F6600 
 2486              	.LASF24:
ARM GAS  C:\msys64\tmp\ccCuMzT2.s 			page 48


 2487 04b1 6B5F7573 		.ascii	"k_user_module_revfx\000"
 2487      65725F6D 
 2487      6F64756C 
 2487      655F7265 
 2487      76667800 
 2488              	.LASF52:
 2489 04c5 706C6174 		.ascii	"platform\000"
 2489      666F726D 
 2489      00
 2490              	.LASF9:
 2491 04ce 6C6F6E67 		.ascii	"long unsigned int\000"
 2491      20756E73 
 2491      69676E65 
 2491      6420696E 
 2491      7400
 2492              	.LASF59:
 2493 04e0 76616C66 		.ascii	"valf\000"
 2493      00
 2494              	.LASF74:
 2495 04e5 6761696E 		.ascii	"gain\000"
 2495      00
 2496              	.LASF43:
 2497 04ea 72656164 		.ascii	"readFrac\000"
 2497      46726163 
 2497      00
 2498              	.LASF6:
 2499 04f3 5F5F696E 		.ascii	"__int32_t\000"
 2499      7433325F 
 2499      7400
 2500              	.LASF77:
 2501 04fd 77657458 		.ascii	"wetXN\000"
 2501      4E00
 2502              	.LASF13:
 2503 0503 75696E74 		.ascii	"uint8_t\000"
 2503      385F7400 
 2504              	.LASF33:
 2505 050b 5F5A4E33 		.ascii	"_ZN3dsp9DelayLineC4Ev\000"
 2505      64737039 
 2505      44656C61 
 2505      794C696E 
 2505      65433445 
 2506              	.LASF79:
 2507 0521 5F66785F 		.ascii	"_fx_get_bpm\000"
 2507      6765745F 
 2507      62706D00 
 2508              	.LASF70:
 2509 052d 735F6465 		.ascii	"s_delay\000"
 2509      6C617900 
 2510              	.LASF65:
 2511 0535 73717274 		.ascii	"sqrtm2log_lut_f\000"
 2511      6D326C6F 
 2511      675F6C75 
 2511      745F6600 
 2512              	.LASF85:
 2513 0545 6E657874 		.ascii	"nextpow2_u32\000"
 2513      706F7732 
 2513      5F753332 
ARM GAS  C:\msys64\tmp\ccCuMzT2.s 			page 49


 2513      00
 2514              	.LASF20:
 2515 0552 646F7562 		.ascii	"double\000"
 2515      6C6500
 2516              	.LASF42:
 2517 0559 5F5A4E33 		.ascii	"_ZN3dsp9DelayLine4readEm\000"
 2517      64737039 
 2517      44656C61 
 2517      794C696E 
 2517      65347265 
 2518              	.LASF61:
 2519 0572 6B5F6678 		.ascii	"k_fx_api_version\000"
 2519      5F617069 
 2519      5F766572 
 2519      73696F6E 
 2519      00
 2520              	.LASF53:
 2521 0583 5F686F6F 		.ascii	"_hook_process\000"
 2521      6B5F7072 
 2521      6F636573 
 2521      7300
 2522              	.LASF78:
 2523 0591 5F66785F 		.ascii	"_fx_get_bpmf\000"
 2523      6765745F 
 2523      62706D66 
 2523      00
 2524              	.LASF23:
 2525 059e 6B5F7573 		.ascii	"k_user_module_delfx\000"
 2525      65725F6D 
 2525      6F64756C 
 2525      655F6465 
 2525      6C667800 
 2526              	.LASF55:
 2527 05b2 64656C53 		.ascii	"delSample\000"
 2527      616D706C 
 2527      6500
 2528              	.LASF34:
 2529 05bc 5F5A4E33 		.ascii	"_ZN3dsp9DelayLineC4EPfj\000"
 2529      64737039 
 2529      44656C61 
 2529      794C696E 
 2529      65433445 
 2530              		.ident	"GCC: (GNU Tools for ARM Embedded Processors) 5.4.1 20160919 (release) [ARM/embedded-5-bran
ARM GAS  C:\msys64\tmp\ccCuMzT2.s 			page 50


DEFINED SYMBOLS
                            *ABS*:00000000 simpledelay.cpp
C:\msys64\tmp\ccCuMzT2.s:21     .text:00000000 $t
C:\msys64\tmp\ccCuMzT2.s:26     .text:00000000 _hook_init
C:\msys64\tmp\ccCuMzT2.s:117    .text:00000068 $d
C:\msys64\tmp\ccCuMzT2.s:125    .text:0000007c $t
C:\msys64\tmp\ccCuMzT2.s:130    .text:0000007c _hook_process
C:\msys64\tmp\ccCuMzT2.s:259    .text:000000ec $d
C:\msys64\tmp\ccCuMzT2.s:264    .text:000000f0 $t
C:\msys64\tmp\ccCuMzT2.s:269    .text:000000f0 _hook_param
C:\msys64\tmp\ccCuMzT2.s:379    .text:000001c0 $d
C:\msys64\tmp\ccCuMzT2.s:388    .text.startup:00000000 $t
C:\msys64\tmp\ccCuMzT2.s:392    .text.startup:00000000 _GLOBAL__sub_I_s_len
C:\msys64\tmp\ccCuMzT2.s:417    .text.startup:00000014 $d
C:\msys64\tmp\ccCuMzT2.s:425    .init_array:00000000 $d
C:\msys64\tmp\ccCuMzT2.s:440    .bss:00000014 bpm
C:\msys64\tmp\ccCuMzT2.s:460    .bss:00000028 wetXN
C:\msys64\tmp\ccCuMzT2.s:456    .bss:00000024 dryXN
C:\msys64\tmp\ccCuMzT2.s:444    .bss:00000018 s_len
C:\msys64\tmp\ccCuMzT2.s:432    .bss:00000000 $d
C:\msys64\tmp\ccCuMzT2.s:436    .bss:00000000 _ZL7s_delay
C:\msys64\tmp\ccCuMzT2.s:448    .bss:0000001c _ZL5s_mix
C:\msys64\tmp\ccCuMzT2.s:452    .bss:00000020 _ZL4gain
C:\msys64\tmp\ccCuMzT2.s:463    .sdram:00000000 $d
C:\msys64\tmp\ccCuMzT2.s:467    .sdram:00000000 _ZL11s_delay_ram
                     .debug_frame:00000010 $d

UNDEFINED SYMBOLS
_fx_get_bpmf
_fx_get_bpm
