ARM GAS  C:\msys64\tmp\ccWR8q5t.s 			page 1


   1              		.syntax unified
   2              		.cpu cortex-m4
   3              		.eabi_attribute 27, 1
   4              		.eabi_attribute 28, 1
   5              		.fpu fpv4-sp-d16
   6              		.eabi_attribute 20, 1
   7              		.eabi_attribute 21, 1
   8              		.eabi_attribute 23, 3
   9              		.eabi_attribute 24, 1
  10              		.eabi_attribute 25, 1
  11              		.eabi_attribute 26, 1
  12              		.eabi_attribute 30, 4
  13              		.eabi_attribute 34, 1
  14              		.eabi_attribute 18, 4
  15              		.thumb
  16              		.syntax unified
  17              		.file	"simpledelay.cpp"
  18              		.text
  19              	.Ltext0:
  20              		.cfi_sections	.debug_frame
  21              		.align	1
  22              		.global	_hook_init
  23              		.thumb
  24              		.thumb_func
  25              		.type	_hook_init, %function
  26              	_hook_init:
  27              	.LFB264:
  28              		.file 1 "./src/simpledelay.cpp"
  29              		.loc 1 20 0
  30              		.cfi_startproc
  31              		@ args = 0, pretend = 0, frame = 0
  32              		@ frame_needed = 0, uses_anonymous_args = 0
  33              	.LVL0:
  34              	.LBB22:
  35              	.LBB23:
  36              		.file 2 "../inc/dsp/delayline.hpp"
  37              		.loc 2 114 0
  38 0000 154A     		ldr	r2, .L5
  39 0002 164B     		ldr	r3, .L5+4
  40              		.loc 2 115 0
  41 0004 4FF40031 		mov	r1, #131072
  42              	.LVL1:
  43              	.LBE23:
  44              	.LBE22:
  45              		.loc 1 20 0
  46 0008 10B5     		push	{r4, lr}
  47              		.cfi_def_cfa_offset 8
  48              		.cfi_offset 4, -8
  49              		.cfi_offset 14, -4
  50              	.LBB25:
  51              	.LBB24:
  52              		.loc 2 115 0
  53 000a 9160     		str	r1, [r2, #8]
  54              		.loc 2 116 0
  55 000c 0139     		subs	r1, r1, #1
  56              		.loc 2 114 0
  57 000e 1360     		str	r3, [r2]
ARM GAS  C:\msys64\tmp\ccWR8q5t.s 			page 2


  58              		.loc 2 116 0
  59 0010 D160     		str	r1, [r2, #12]
  60 0012 1033     		adds	r3, r3, #16
  61              		.loc 2 117 0
  62 0014 0021     		movs	r1, #0
  63 0016 1161     		str	r1, [r2, #16]
  64              	.LVL2:
  65 0018 1446     		mov	r4, r2
  66 001a 03F50021 		add	r1, r3, #524288
  67              	.LBE24:
  68              	.LBE25:
  69              	.LBB26:
  70              	.LBB27:
  71              	.LBB28:
  72              		.file 3 "../inc/utils/buffer_ops.h"
  73              		.loc 3 109 0
  74 001e 0022     		movs	r2, #0
  75              	.LVL3:
  76              	.L2:
  77 0020 43F8102C 		str	r2, [r3, #-16]	@ float
  78              	.LVL4:
  79 0024 43F80C2C 		str	r2, [r3, #-12]	@ float
  80              	.LVL5:
  81 0028 43F8082C 		str	r2, [r3, #-8]	@ float
  82              	.LVL6:
  83 002c 43F8042C 		str	r2, [r3, #-4]	@ float
  84 0030 1033     		adds	r3, r3, #16
  85              	.LVL7:
  86              		.loc 3 108 0
  87 0032 9942     		cmp	r1, r3
  88 0034 F4D1     		bne	.L2
  89              	.LVL8:
  90              	.LBE28:
  91              	.LBE27:
  92              	.LBE26:
  93              		.loc 1 23 0
  94 0036 FFF7FEFF 		bl	_fx_get_bpm
  95              	.LVL9:
  96              		.loc 1 24 0
  97 003a 0A23     		movs	r3, #10
  98              		.loc 1 23 0
  99 003c 6061     		str	r0, [r4, #20]
 100              		.loc 1 24 0
 101 003e 90FBF3F0 		sdiv	r0, r0, r3
 102 0042 3C23     		movs	r3, #60
 103 0044 93FBF0F0 		sdiv	r0, r3, r0
 104 0048 054B     		ldr	r3, .L5+8
 105 004a 5843     		muls	r0, r3, r0
 106              		.loc 1 25 0
 107 004c 4FF07C53 		mov	r3, #1056964608
 108              		.loc 1 24 0
 109 0050 A061     		str	r0, [r4, #24]
 110              		.loc 1 25 0
 111 0052 E361     		str	r3, [r4, #28]	@ float
 112 0054 10BD     		pop	{r4, pc}
 113              	.L6:
 114 0056 00BF     		.align	2
ARM GAS  C:\msys64\tmp\ccWR8q5t.s 			page 3


 115              	.L5:
 116 0058 00000000 		.word	.LANCHOR0
 117 005c 00000000 		.word	.LANCHOR1
 118 0060 00E02E00 		.word	3072000
 119              		.cfi_endproc
 120              	.LFE264:
 121              		.size	_hook_init, .-_hook_init
 122              		.align	1
 123              		.global	_hook_process
 124              		.thumb
 125              		.thumb_func
 126              		.type	_hook_process, %function
 127              	_hook_process:
 128              	.LFB265:
 129              		.loc 1 29 0
 130              		.cfi_startproc
 131              		@ args = 0, pretend = 0, frame = 0
 132              		@ frame_needed = 0, uses_anonymous_args = 0
 133              	.LVL10:
 134              		.loc 1 30 0
 135 0064 194B     		ldr	r3, .L11
 136              		.loc 1 29 0
 137 0066 F0B5     		push	{r4, r5, r6, r7, lr}
 138              		.cfi_def_cfa_offset 20
 139              		.cfi_offset 4, -20
 140              		.cfi_offset 5, -16
 141              		.cfi_offset 6, -12
 142              		.cfi_offset 7, -8
 143              		.cfi_offset 14, -4
 144              	.LBB29:
 145              	.LBB30:
 146              		.loc 1 36 0
 147 0068 9A69     		ldr	r2, [r3, #24]
 148              	.LBE30:
 149              	.LBE29:
 150              		.loc 1 30 0
 151 006a D3ED076A 		vldr.32	s13, [r3, #28]
 152              	.LVL11:
 153              	.LBB47:
 154              	.LBB43:
 155              	.LBB31:
 156              	.LBB32:
 157              		.loc 2 138 0
 158 006e 1E68     		ldr	r6, [r3]
 159 0070 DF68     		ldr	r7, [r3, #12]
 160              	.LBE32:
 161              	.LBE31:
 162              		.loc 1 36 0
 163 0072 93ED086A 		vldr.32	s12, [r3, #32]
 164              	.LBE43:
 165              		.loc 1 34 0
 166 0076 4FEA410E 		lsl	lr, r1, #1
 167 007a 1969     		ldr	r1, [r3, #16]
 168              	.LVL12:
 169 007c 0024     		movs	r4, #0
 170              	.LBB44:
 171              	.LBB35:
ARM GAS  C:\msys64\tmp\ccWR8q5t.s 			page 4


 172              	.LBB33:
 173              		.loc 2 138 0
 174 007e 02EB010C 		add	ip, r2, r1
 175              	.LVL13:
 176              	.L9:
 177              	.LBE33:
 178              	.LBE35:
 179              	.LBE44:
 180              		.loc 1 34 0 discriminator 3
 181 0082 7445     		cmp	r4, lr
 182 0084 A1EB0402 		sub	r2, r1, r4
 183              	.LVL14:
 184 0088 1DD0     		beq	.L8
 185              	.LVL15:
 186              	.LBB45:
 187              	.LBB36:
 188              	.LBB34:
 189              		.loc 2 138 0 discriminator 2
 190 008a C4EB0C05 		rsb	r5, r4, ip
 191 008e 3D40     		ands	r5, r5, r7
 192 0090 06EB8505 		add	r5, r6, r5, lsl #2
 193              	.LBE34:
 194              	.LBE36:
 195              		.loc 1 37 0 discriminator 2
 196 0094 D5ED007A 		vldr.32	s15, [r5]
 197 0098 66EE277A 		vmul.f32	s15, s12, s15
 198              	.LBB37:
 199              	.LBB38:
 200              		.loc 2 127 0 discriminator 2
 201 009c 3A40     		ands	r2, r2, r7
 202              	.LBE38:
 203              	.LBE37:
 204              		.loc 1 37 0 discriminator 2
 205 009e 67EEA67A 		vmul.f32	s15, s15, s13
 206              	.LBB41:
 207              	.LBB39:
 208              		.loc 2 127 0 discriminator 2
 209 00a2 06EB8202 		add	r2, r6, r2, lsl #2
 210              	.LBE39:
 211              	.LBE41:
 212              		.loc 1 37 0 discriminator 2
 213 00a6 C3ED097A 		vstr.32	s15, [r3, #36]
 214              		.loc 1 38 0 discriminator 2
 215 00aa 90ED007A 		vldr.32	s14, [r0]
 216 00ae 77EE877A 		vadd.f32	s15, s15, s14
 217              	.LBE45:
 218              		.loc 1 34 0 discriminator 2
 219 00b2 0134     		adds	r4, r4, #1
 220              	.LVL16:
 221              	.LBB46:
 222              		.loc 1 38 0 discriminator 2
 223 00b4 E0EC017A 		vstmia.32	r0!, {s15}
 224              	.LVL17:
 225              	.LBB42:
 226              	.LBB40:
 227              		.loc 2 127 0 discriminator 2
 228 00b8 93ED097A 		vldr.32	s14, [r3, #36]
ARM GAS  C:\msys64\tmp\ccWR8q5t.s 			page 5


 229 00bc 77EE277A 		vadd.f32	s15, s14, s15
 230              	.LVL18:
 231 00c0 C2ED007A 		vstr.32	s15, [r2]
 232              	.LVL19:
 233              	.LBE40:
 234              	.LBE42:
 235              	.LBE46:
 236              		.loc 1 34 0 discriminator 2
 237 00c4 DDE7     		b	.L9
 238              	.L8:
 239 00c6 1A61     		str	r2, [r3, #16]
 240 00c8 F0BD     		pop	{r4, r5, r6, r7, pc}
 241              	.LVL20:
 242              	.L12:
 243 00ca 00BF     		.align	2
 244              	.L11:
 245 00cc 00000000 		.word	.LANCHOR0
 246              	.LBE47:
 247              		.cfi_endproc
 248              	.LFE265:
 249              		.size	_hook_process, .-_hook_process
 250              		.align	1
 251              		.global	_hook_param
 252              		.thumb
 253              		.thumb_func
 254              		.type	_hook_param, %function
 255              	_hook_param:
 256              	.LFB266:
 257              		.loc 1 44 0
 258              		.cfi_startproc
 259              		@ args = 0, pretend = 0, frame = 0
 260              		@ frame_needed = 0, uses_anonymous_args = 0
 261              	.LVL21:
 262 00d0 08B5     		push	{r3, lr}
 263              		.cfi_def_cfa_offset 8
 264              		.cfi_offset 3, -8
 265              		.cfi_offset 14, -4
 266 00d2 2DED028B 		vpush.64	{d8}
 267              		.cfi_def_cfa_offset 16
 268              		.cfi_offset 80, -16
 269              		.cfi_offset 81, -12
 270              		.loc 1 45 0
 271 00d6 08EE101A 		vmov	s16, r1	@ int
 272              		.loc 1 46 0
 273 00da 0128     		cmp	r0, #1
 274              		.loc 1 45 0
 275 00dc BAEEE08A 		vcvt.f32.s32	s16, s16, #31
 276              	.LVL22:
 277              		.loc 1 46 0
 278 00e0 11D0     		beq	.L15
 279 00e2 05D3     		bcc	.L16
 280 00e4 0328     		cmp	r0, #3
 281 00e6 4FD1     		bne	.L13
 282              		.loc 1 76 0
 283 00e8 294B     		ldr	r3, .L31
 284 00ea 83ED078A 		vstr.32	s16, [r3, #28]
 285              		.loc 1 81 0
ARM GAS  C:\msys64\tmp\ccWR8q5t.s 			page 6


 286 00ee 4BE0     		b	.L13
 287              	.L16:
 288              		.loc 1 49 0
 289 00f0 B5EE408A 		vcmp.f32	s16, #0
 290 00f4 F1EE10FA 		vmrs	APSR_nzcv, FPSCR
 291 00f8 254B     		ldr	r3, .L31
 292 00fa 06BF     		itte	eq
 293 00fc 254A     		ldreq	r2, .L31+4
 294 00fe 1A62     		streq	r2, [r3, #32]	@ float
 295              		.loc 1 50 0
 296 0100 83ED088A 		vstrne.32	s16, [r3, #32]
 297 0104 40E0     		b	.L13
 298              	.L15:
 299              		.loc 1 54 0
 300 0106 FFF7FEFF 		bl	_fx_get_bpm
 301              	.LVL23:
 302              		.loc 1 56 0
 303 010a F5EE007A 		vmov.f32	s15, #2.5e-1
 304              		.loc 1 54 0
 305 010e 204A     		ldr	r2, .L31
 306              		.loc 1 56 0
 307 0110 B4EEE78A 		vcmpe.f32	s16, s15
 308              		.loc 1 54 0
 309 0114 0A23     		movs	r3, #10
 310              		.loc 1 56 0
 311 0116 F1EE10FA 		vmrs	APSR_nzcv, FPSCR
 312              		.loc 1 54 0
 313 011a B0FBF3F0 		udiv	r0, r0, r3
 314 011e 80B2     		uxth	r0, r0
 315 0120 5061     		str	r0, [r2, #20]
 316 0122 4FF03C01 		mov	r1, #60
 317 0126 B6EE007A 		vmov.f32	s14, #5.0e-1
 318              		.loc 1 56 0
 319 012a 10D5     		bpl	.L28
 320              		.loc 1 58 0
 321 012c 90FBF1F0 		sdiv	r0, r0, r1
 322 0130 07EE900A 		vmov	s15, r0	@ int
 323 0134 F8EEE77A 		vcvt.f32.s32	s15, s15
 324 0138 DFED176A 		vldr.32	s13, .L31+8
 325 013c 67EE877A 		vmul.f32	s15, s15, s14
 326 0140 86EEA77A 		vdiv.f32	s14, s13, s15
 327 0144 BCEEC77A 		vcvt.u32.f32	s14, s14
 328 0148 82ED067A 		vstr.32	s14, [r2, #24]	@ int
 329 014c 1CE0     		b	.L13
 330              	.L28:
 331              		.loc 1 60 0
 332 014e B4EEC78A 		vcmpe.f32	s16, s14
 333 0152 F1EE10FA 		vmrs	APSR_nzcv, FPSCR
 334 0156 07D5     		bpl	.L29
 335              		.loc 1 62 0
 336 0158 90FBF1F0 		sdiv	r0, r0, r1
 337 015c 4BF68033 		movw	r3, #48000
 338 0160 93FBF0F0 		sdiv	r0, r3, r0
 339 0164 9061     		str	r0, [r2, #24]
 340 0166 0FE0     		b	.L13
 341              	.L29:
 342              		.loc 1 64 0
ARM GAS  C:\msys64\tmp\ccWR8q5t.s 			page 7


 343 0168 F6EE087A 		vmov.f32	s15, #7.5e-1
 344 016c B4EEE78A 		vcmpe.f32	s16, s15
 345 0170 F1EE10FA 		vmrs	APSR_nzcv, FPSCR
 346              		.loc 1 66 0
 347 0174 90FBF1F0 		sdiv	r0, r0, r1
 348 0178 4BF68033 		movw	r3, #48000
 349 017c 4CBF     		ite	mi
 350 017e 4000     		lslmi	r0, r0, #1
 351              		.loc 1 70 0
 352 0180 8000     		lslpl	r0, r0, #2
 353 0182 93FBF0F0 		sdiv	r0, r3, r0
 354 0186 9061     		str	r0, [r2, #24]
 355              	.L13:
 356              		.loc 1 81 0
 357 0188 BDEC028B 		vldm	sp!, {d8}
 358              		.cfi_restore 80
 359              		.cfi_restore 81
 360              		.cfi_def_cfa_offset 8
 361              	.LVL24:
 362 018c 08BD     		pop	{r3, pc}
 363              	.L32:
 364 018e 00BF     		.align	2
 365              	.L31:
 366 0190 00000000 		.word	.LANCHOR0
 367 0194 CDCCCC3D 		.word	1036831949
 368 0198 00803B47 		.word	1195081728
 369              		.cfi_endproc
 370              	.LFE266:
 371              		.size	_hook_param, .-_hook_param
 372              		.section	.text.startup,"ax",%progbits
 373              		.align	1
 374              		.thumb
 375              		.thumb_func
 376              		.type	_GLOBAL__sub_I_s_len, %function
 377              	_GLOBAL__sub_I_s_len:
 378              	.LFB268:
 379              		.loc 1 81 0
 380              		.cfi_startproc
 381              		@ args = 0, pretend = 0, frame = 0
 382              		@ frame_needed = 0, uses_anonymous_args = 0
 383              		@ link register save eliminated.
 384              	.LVL25:
 385              	.LBB53:
 386              	.LBB54:
 387              	.LBB55:
 388              		.loc 2 74 0
 389 0000 044B     		ldr	r3, .L34
 390 0002 0022     		movs	r2, #0
 391 0004 0021     		movs	r1, #0
 392 0006 1A60     		str	r2, [r3]
 393 0008 5960     		str	r1, [r3, #4]	@ float
 394 000a 9A60     		str	r2, [r3, #8]
 395 000c DA60     		str	r2, [r3, #12]
 396 000e 1A61     		str	r2, [r3, #16]
 397              	.LVL26:
 398 0010 7047     		bx	lr
 399              	.L35:
ARM GAS  C:\msys64\tmp\ccWR8q5t.s 			page 8


 400 0012 00BF     		.align	2
 401              	.L34:
 402 0014 00000000 		.word	.LANCHOR0
 403              	.LBE55:
 404              	.LBE54:
 405              	.LBE53:
 406              		.cfi_endproc
 407              	.LFE268:
 408              		.size	_GLOBAL__sub_I_s_len, .-_GLOBAL__sub_I_s_len
 409              		.section	.init_array,"aw",%init_array
 410              		.align	2
 411 0000 00000000 		.word	_GLOBAL__sub_I_s_len(target1)
 412              		.global	bpm
 413              		.global	wetXN
 414              		.global	s_len
 415              		.bss
 416              		.align	2
 417              		.set	.LANCHOR0,. + 0
 418              		.type	_ZL7s_delay, %object
 419              		.size	_ZL7s_delay, 20
 420              	_ZL7s_delay:
 421 0000 00000000 		.space	20
 421      00000000 
 421      00000000 
 421      00000000 
 421      00000000 
 422              		.type	bpm, %object
 423              		.size	bpm, 4
 424              	bpm:
 425 0014 00000000 		.space	4
 426              		.type	s_len, %object
 427              		.size	s_len, 4
 428              	s_len:
 429 0018 00000000 		.space	4
 430              		.type	_ZL5s_mix, %object
 431              		.size	_ZL5s_mix, 4
 432              	_ZL5s_mix:
 433 001c 00000000 		.space	4
 434              		.type	_ZL4gain, %object
 435              		.size	_ZL4gain, 4
 436              	_ZL4gain:
 437 0020 00000000 		.space	4
 438              		.type	wetXN, %object
 439              		.size	wetXN, 4
 440              	wetXN:
 441 0024 00000000 		.space	4
 442              		.section	.sdram,"aw",%progbits
 443              		.align	2
 444              		.set	.LANCHOR1,. + 0
 445              		.type	_ZL11s_delay_ram, %object
 446              		.size	_ZL11s_delay_ram, 384000
 447              	_ZL11s_delay_ram:
 448 0000 00000000 		.space	384000
 448      00000000 
 448      00000000 
 448      00000000 
 448      00000000 
ARM GAS  C:\msys64\tmp\ccWR8q5t.s 			page 9


 449              		.text
 450              	.Letext0:
 451              		.file 4 "c:\\users\\bradl\\desktop\\code projects\\korgfx\\korgdelayfx\\tools\\gcc\\gcc-arm-none-e
 452              		.file 5 "c:\\users\\bradl\\desktop\\code projects\\korgfx\\korgdelayfx\\tools\\gcc\\gcc-arm-none-e
 453              		.file 6 "c:\\users\\bradl\\desktop\\code projects\\korgfx\\korgdelayfx\\tools\\gcc\\gcc-arm-none-e
 454              		.file 7 "../inc/utils/int_math.h"
 455              		.file 8 "../inc/fx_api.h"
 456              		.file 9 "../inc/userprg.h"