ARM GAS  C:\msys64\tmp\ccqivHJo.s 			page 1


   1              		.syntax unified
   2              		.cpu cortex-m4
   3              		.eabi_attribute 27, 1
   4              		.eabi_attribute 28, 1
   5              		.fpu fpv4-sp-d16
   6              		.eabi_attribute 20, 1
   7              		.eabi_attribute 21, 1
   8              		.eabi_attribute 23, 3
   9              		.eabi_attribute 24, 1
  10              		.eabi_attribute 25, 1
  11              		.eabi_attribute 26, 1
  12              		.eabi_attribute 30, 4
  13              		.eabi_attribute 34, 1
  14              		.eabi_attribute 18, 4
  15              		.thumb
  16              		.syntax unified
  17              		.file	"pingpong.cpp"
  18              		.text
  19              	.Ltext0:
  20              		.cfi_sections	.debug_frame
  21              		.align	1
  22              		.global	_hook_init
  23              		.thumb
  24              		.thumb_func
  25              		.type	_hook_init, %function
  26              	_hook_init:
  27              	.LFB264:
  28              		.file 1 "./src/pingpong.cpp"
  29              		.loc 1 22 0
  30              		.cfi_startproc
  31              		@ args = 0, pretend = 0, frame = 0
  32              		@ frame_needed = 0, uses_anonymous_args = 0
  33              	.LVL0:
  34              	.LBB35:
  35              	.LBB36:
  36              		.file 2 "../inc/dsp/delayline.hpp"
  37              		.loc 2 243 0
  38 0000 154A     		ldr	r2, .L5
  39 0002 164B     		ldr	r3, .L5+4
  40              		.loc 2 244 0
  41 0004 4FF48021 		mov	r1, #262144
  42              	.LVL1:
  43              	.LBE36:
  44              	.LBE35:
  45              		.loc 1 22 0
  46 0008 10B5     		push	{r4, lr}
  47              		.cfi_def_cfa_offset 8
  48              		.cfi_offset 4, -8
  49              		.cfi_offset 14, -4
  50              	.LBB38:
  51              	.LBB37:
  52              		.loc 2 244 0
  53 000a D160     		str	r1, [r2, #12]
  54              		.loc 2 245 0
  55 000c 0139     		subs	r1, r1, #1
  56              		.loc 2 243 0
  57 000e 1360     		str	r3, [r2]
ARM GAS  C:\msys64\tmp\ccqivHJo.s 			page 2


  58              		.loc 2 245 0
  59 0010 1161     		str	r1, [r2, #16]
  60 0012 1033     		adds	r3, r3, #16
  61              		.loc 2 246 0
  62 0014 0021     		movs	r1, #0
  63 0016 5161     		str	r1, [r2, #20]
  64              	.LVL2:
  65 0018 1446     		mov	r4, r2
  66 001a 03F50011 		add	r1, r3, #2097152
  67              	.LBE37:
  68              	.LBE38:
  69              	.LBB39:
  70              	.LBB40:
  71              	.LBB41:
  72              		.file 3 "../inc/utils/buffer_ops.h"
  73              		.loc 3 109 0
  74 001e 0022     		movs	r2, #0
  75              	.LVL3:
  76              	.L2:
  77 0020 43F8102C 		str	r2, [r3, #-16]	@ float
  78              	.LVL4:
  79 0024 43F80C2C 		str	r2, [r3, #-12]	@ float
  80              	.LVL5:
  81 0028 43F8082C 		str	r2, [r3, #-8]	@ float
  82              	.LVL6:
  83 002c 43F8042C 		str	r2, [r3, #-4]	@ float
  84 0030 1033     		adds	r3, r3, #16
  85              	.LVL7:
  86              		.loc 3 108 0
  87 0032 9942     		cmp	r1, r3
  88 0034 F4D1     		bne	.L2
  89              	.LVL8:
  90              	.LBE41:
  91              	.LBE40:
  92              	.LBE39:
  93              		.loc 1 25 0
  94 0036 FFF7FEFF 		bl	_fx_get_bpm
  95              	.LVL9:
  96              		.loc 1 26 0
  97 003a 0A23     		movs	r3, #10
  98              		.loc 1 25 0
  99 003c A061     		str	r0, [r4, #24]
 100              		.loc 1 26 0
 101 003e 90FBF3F0 		sdiv	r0, r0, r3
 102 0042 3C23     		movs	r3, #60
 103 0044 93FBF0F0 		sdiv	r0, r3, r0
 104 0048 054B     		ldr	r3, .L5+8
 105 004a 5843     		muls	r0, r3, r0
 106              		.loc 1 27 0
 107 004c 4FF07C53 		mov	r3, #1056964608
 108              		.loc 1 26 0
 109 0050 E061     		str	r0, [r4, #28]
 110              		.loc 1 27 0
 111 0052 2362     		str	r3, [r4, #32]	@ float
 112 0054 10BD     		pop	{r4, pc}
 113              	.L6:
 114 0056 00BF     		.align	2
ARM GAS  C:\msys64\tmp\ccqivHJo.s 			page 3


 115              	.L5:
 116 0058 00000000 		.word	.LANCHOR0
 117 005c 00000000 		.word	.LANCHOR1
 118 0060 008A6600 		.word	6720000
 119              		.cfi_endproc
 120              	.LFE264:
 121              		.size	_hook_init, .-_hook_init
 122              		.align	1
 123              		.global	_hook_process
 124              		.thumb
 125              		.thumb_func
 126              		.type	_hook_process, %function
 127              	_hook_process:
 128              	.LFB266:
 129              		.loc 1 36 0
 130              		.cfi_startproc
 131              		@ args = 0, pretend = 0, frame = 0
 132              		@ frame_needed = 0, uses_anonymous_args = 0
 133              	.LVL10:
 134              		.loc 1 40 0
 135 0064 594B     		ldr	r3, .L11
 136              	.LBB42:
 137              	.LBB43:
 138              		.loc 1 49 0
 139 0066 DFED5A2A 		vldr.32	s5, .L11+4
 140              	.LBE43:
 141              	.LBE42:
 142              		.loc 1 40 0
 143 006a 93ED081A 		vldr.32	s2, [r3, #32]
 144              	.LBB70:
 145              	.LBB66:
 146              		.loc 1 45 0
 147 006e D3ED090A 		vldr.32	s1, [r3, #36]
 148              		.loc 1 49 0
 149 0072 9FED583A 		vldr.32	s6, .L11+8
 150 0076 DFED583A 		vldr.32	s7, .L11+12
 151 007a 9FED584A 		vldr.32	s8, .L11+16
 152 007e DFED584A 		vldr.32	s9, .L11+20
 153 0082 9FED585A 		vldr.32	s10, .L11+24
 154 0086 DFED585A 		vldr.32	s11, .L11+28
 155 008a 9FED586A 		vldr.32	s12, .L11+32
 156              	.LBE66:
 157              	.LBE70:
 158              		.loc 1 36 0
 159 008e 2DE9F041 		push	{r4, r5, r6, r7, r8, lr}
 160              		.cfi_def_cfa_offset 24
 161              		.cfi_offset 4, -24
 162              		.cfi_offset 5, -20
 163              		.cfi_offset 6, -16
 164              		.cfi_offset 7, -12
 165              		.cfi_offset 8, -8
 166              		.cfi_offset 14, -4
 167              	.LBB71:
 168              	.LBB67:
 169              		.loc 1 45 0
 170 0092 D3F81CE0 		ldr	lr, [r3, #28]
 171 0096 5D69     		ldr	r5, [r3, #20]
ARM GAS  C:\msys64\tmp\ccqivHJo.s 			page 4


 172              	.LBB44:
 173              	.LBB45:
 174              		.loc 2 309 0
 175 0098 1E68     		ldr	r6, [r3]
 176 009a 1F69     		ldr	r7, [r3, #16]
 177              	.LBE45:
 178              	.LBE44:
 179              	.LBE67:
 180              	.LBE71:
 181              		.loc 1 38 0
 182 009c C900     		lsls	r1, r1, #3
 183              	.LVL11:
 184 009e 00EB0108 		add	r8, r0, r1
 185              	.LVL12:
 186              	.LBB72:
 187              	.LBB68:
 188              		.loc 1 46 0
 189 00a2 4FEA5E0C 		lsr	ip, lr, #1
 190 00a6 2A46     		mov	r2, r5
 191              	.LBB47:
 192              	.LBB48:
 193              		.loc 1 32 0
 194 00a8 F6EE001A 		vmov.f32	s3, #5.0e-1
 195              	.LVL13:
 196              	.L9:
 197              	.LBE48:
 198              	.LBE47:
 199              	.LBE68:
 200              		.loc 1 43 0 discriminator 2
 201 00ac 8045     		cmp	r8, r0
 202 00ae 00F10804 		add	r4, r0, #8
 203 00b2 00F08580 		beq	.L8
 204              	.LVL14:
 205              	.LBB69:
 206              	.LBB52:
 207              	.LBB53:
 208              		.loc 2 320 0 discriminator 1
 209 00b6 0CEB0200 		add	r0, ip, r2
 210              	.LVL15:
 211 00ba 3840     		ands	r0, r0, r7
 212 00bc 06EBC000 		add	r0, r6, r0, lsl #3
 213              	.LBE53:
 214              	.LBE52:
 215              		.loc 1 46 0 discriminator 1
 216 00c0 D0ED017A 		vldr.32	s15, [r0, #4]
 217              	.LBB54:
 218              	.LBB46:
 219              		.loc 2 309 0 discriminator 1
 220 00c4 0EEB0200 		add	r0, lr, r2
 221 00c8 3840     		ands	r0, r0, r7
 222              	.LVL16:
 223 00ca 06EBC000 		add	r0, r6, r0, lsl #3
 224              	.LVL17:
 225              	.LBE46:
 226              	.LBE54:
 227              		.loc 1 47 0 discriminator 1
 228 00ce 90ED007A 		vldr.32	s14, [r0]
ARM GAS  C:\msys64\tmp\ccqivHJo.s 			page 5


 229              		.loc 1 46 0 discriminator 1
 230 00d2 60EEA77A 		vmul.f32	s15, s1, s15
 231              	.LVL18:
 232              		.loc 1 47 0 discriminator 1
 233 00d6 20EE877A 		vmul.f32	s14, s1, s14
 234              		.loc 1 48 0 discriminator 1
 235 00da 61EE277A 		vmul.f32	s15, s2, s15
 236              	.LVL19:
 237              		.loc 1 47 0 discriminator 1
 238 00de 27EE017A 		vmul.f32	s14, s14, s2
 239              		.loc 1 48 0 discriminator 1
 240 00e2 C3ED0B7A 		vstr.32	s15, [r3, #44]
 241              	.LVL20:
 242              	.LBB55:
 243              	.LBB49:
 244              		.loc 1 32 0 discriminator 1
 245 00e6 67EE077A 		vmul.f32	s15, s14, s14
 246 00ea B7EE082A 		vmov.f32	s4, #1.5e+0
 247 00ee 67EE877A 		vmul.f32	s15, s15, s14
 248              	.LBE49:
 249              	.LBE55:
 250              		.loc 1 47 0 discriminator 1
 251 00f2 83ED0A7A 		vstr.32	s14, [r3, #40]
 252              	.LBB56:
 253              	.LBB50:
 254              		.loc 1 32 0 discriminator 1
 255 00f6 61EEE77A 		vnmul.f32	s15, s3, s15
 256              	.LBE50:
 257              	.LBE56:
 258              		.loc 1 49 0 discriminator 1
 259 00fa F0EE636A 		vmov.f32	s13, s7
 260              	.LBB57:
 261              	.LBB51:
 262              		.loc 1 32 0 discriminator 1
 263 00fe E7EE027A 		vfma.f32	s15, s14, s4
 264              	.LVL21:
 265              	.LBE51:
 266              	.LBE57:
 267              	.LBB58:
 268              	.LBB59:
 269              		.loc 2 256 0 discriminator 1
 270 0102 07EA0200 		and	r0, r7, r2
 271 0106 06EBC000 		add	r0, r6, r0, lsl #3
 272              	.LBE59:
 273              	.LBE58:
 274              		.loc 1 49 0 discriminator 1
 275 010a B0EE437A 		vmov.f32	s14, s6
 276 010e A7EEA27A 		vfma.f32	s14, s15, s5
 277              	.LBB62:
 278              	.LBB60:
 279              		.loc 2 256 0 discriminator 1
 280 0112 013A     		subs	r2, r2, #1
 281              	.LVL22:
 282              	.LBE60:
 283              	.LBE62:
 284              		.loc 1 49 0 discriminator 1
 285 0114 B0EE650A 		vmov.f32	s0, s11
ARM GAS  C:\msys64\tmp\ccqivHJo.s 			page 6


 286 0118 E7EE276A 		vfma.f32	s13, s14, s15
 287 011c B0EE667A 		vmov.f32	s14, s13
 288 0120 F0EE446A 		vmov.f32	s13, s8
 289 0124 E7EE276A 		vfma.f32	s13, s14, s15
 290 0128 B0EE457A 		vmov.f32	s14, s10
 291 012c A7EEA47A 		vfma.f32	s14, s15, s9
 292 0130 A7EE270A 		vfma.f32	s0, s14, s15
 293 0134 B0EE407A 		vmov.f32	s14, s0
 294 0138 B0EE460A 		vmov.f32	s0, s12
 295 013c A7EE270A 		vfma.f32	s0, s14, s15
 296 0140 14ED027A 		vldr.32	s14, [r4, #-8]
 297 0144 C6EE807A 		vdiv.f32	s15, s13, s0
 298              		.loc 1 50 0 discriminator 1
 299 0148 B0EE650A 		vmov.f32	s0, s11
 300              		.loc 1 49 0 discriminator 1
 301 014c 37EE877A 		vadd.f32	s14, s15, s14
 302 0150 04ED027A 		vstr.32	s14, [r4, #-8]
 303              	.LVL23:
 304              		.loc 1 50 0 discriminator 1
 305 0154 D3ED0B6A 		vldr.32	s13, [r3, #44]
 306              	.LVL24:
 307              	.LBB63:
 308              	.LBB64:
 309              		.loc 1 32 0 discriminator 1
 310 0158 66EEA67A 		vmul.f32	s15, s13, s13
 311 015c 67EEA67A 		vmul.f32	s15, s15, s13
 312 0160 61EEE77A 		vnmul.f32	s15, s3, s15
 313 0164 E6EE827A 		vfma.f32	s15, s13, s4
 314              	.LVL25:
 315              	.LBE64:
 316              	.LBE63:
 317              		.loc 1 50 0 discriminator 1
 318 0168 F0EE436A 		vmov.f32	s13, s6
 319 016c E7EEA26A 		vfma.f32	s13, s15, s5
 320 0170 B0EE632A 		vmov.f32	s4, s7
 321 0174 A6EEA72A 		vfma.f32	s4, s13, s15
 322 0178 F0EE426A 		vmov.f32	s13, s4
 323 017c B0EE442A 		vmov.f32	s4, s8
 324 0180 A6EEA72A 		vfma.f32	s4, s13, s15
 325 0184 F0EE456A 		vmov.f32	s13, s10
 326 0188 E7EEA46A 		vfma.f32	s13, s15, s9
 327 018c A6EEA70A 		vfma.f32	s0, s13, s15
 328 0190 F0EE406A 		vmov.f32	s13, s0
 329 0194 B0EE460A 		vmov.f32	s0, s12
 330 0198 A6EEA70A 		vfma.f32	s0, s13, s15
 331 019c 54ED017A 		vldr.32	s15, [r4, #-4]
 332 01a0 C2EE006A 		vdiv.f32	s13, s4, s0
 333 01a4 77EEA67A 		vadd.f32	s15, s15, s13
 334 01a8 44ED017A 		vstr.32	s15, [r4, #-4]
 335              	.LVL26:
 336              	.LBB65:
 337              	.LBB61:
 338              		.loc 2 256 0 discriminator 1
 339 01ac F7EE007A 		vmov.f32	s15, #1.0e+0
 340 01b0 80ED007A 		vstr.32	s14, [r0]
 341 01b4 37EE277A 		vadd.f32	s14, s14, s15
 342              	.LVL27:
ARM GAS  C:\msys64\tmp\ccqivHJo.s 			page 7


 343 01b8 80ED017A 		vstr.32	s14, [r0, #4]
 344              	.LVL28:
 345              	.LBE61:
 346              	.LBE65:
 347              	.LBE69:
 348              		.loc 1 43 0 discriminator 1
 349 01bc 2046     		mov	r0, r4
 350              	.LVL29:
 351 01be 75E7     		b	.L9
 352              	.LVL30:
 353              	.L8:
 354 01c0 A5EBD101 		sub	r1, r5, r1, lsr #3
 355 01c4 5961     		str	r1, [r3, #20]
 356 01c6 BDE8F081 		pop	{r4, r5, r6, r7, r8, pc}
 357              	.LVL31:
 358              	.L12:
 359 01ca 00BF     		.align	2
 360              	.L11:
 361 01cc 00000000 		.word	.LANCHOR0
 362 01d0 3684093D 		.word	1024033846
 363 01d4 72146F3D 		.word	1030689906
 364 01d8 0CBD7C3E 		.word	1048362252
 365 01dc C847E2B6 		.word	-1226684472
 366 01e0 FF7EEB3C 		.word	1022066431
 367 01e4 4D74DE3D 		.word	1037988941
 368 01e8 AF96793D 		.word	1031378607
 369 01ec 75667C3E 		.word	1048340085
 370              	.LBE72:
 371              		.cfi_endproc
 372              	.LFE266:
 373              		.size	_hook_process, .-_hook_process
 374              		.align	1
 375              		.global	_hook_param
 376              		.thumb
 377              		.thumb_func
 378              		.type	_hook_param, %function
 379              	_hook_param:
 380              	.LFB267:
 381              		.loc 1 58 0
 382              		.cfi_startproc
 383              		@ args = 0, pretend = 0, frame = 0
 384              		@ frame_needed = 0, uses_anonymous_args = 0
 385              	.LVL32:
 386 01f0 08B5     		push	{r3, lr}
 387              		.cfi_def_cfa_offset 8
 388              		.cfi_offset 3, -8
 389              		.cfi_offset 14, -4
 390 01f2 2DED028B 		vpush.64	{d8}
 391              		.cfi_def_cfa_offset 16
 392              		.cfi_offset 80, -16
 393              		.cfi_offset 81, -12
 394              		.loc 1 59 0
 395 01f6 08EE101A 		vmov	s16, r1	@ int
 396              		.loc 1 60 0
 397 01fa 0128     		cmp	r0, #1
 398              		.loc 1 59 0
 399 01fc BAEEE08A 		vcvt.f32.s32	s16, s16, #31
ARM GAS  C:\msys64\tmp\ccqivHJo.s 			page 8


 400              	.LVL33:
 401              		.loc 1 60 0
 402 0200 0AD0     		beq	.L15
 403 0202 05D3     		bcc	.L16
 404 0204 0328     		cmp	r0, #3
 405 0206 35D1     		bne	.L13
 406              		.loc 1 92 0
 407 0208 1C4B     		ldr	r3, .L30
 408 020a 83ED088A 		vstr.32	s16, [r3, #32]
 409              		.loc 1 97 0
 410 020e 31E0     		b	.L13
 411              	.L16:
 412              		.loc 1 64 0
 413 0210 1A4B     		ldr	r3, .L30
 414 0212 83ED098A 		vstr.32	s16, [r3, #36]
 415              		.loc 1 65 0
 416 0216 2DE0     		b	.L13
 417              	.L15:
 418              		.loc 1 67 0
 419 0218 FFF7FEFF 		bl	_fx_get_bpm
 420              	.LVL34:
 421              		.loc 1 69 0
 422 021c F5EE007A 		vmov.f32	s15, #2.5e-1
 423              		.loc 1 67 0
 424 0220 0A23     		movs	r3, #10
 425              		.loc 1 69 0
 426 0222 B4EEE78A 		vcmpe.f32	s16, s15
 427              		.loc 1 67 0
 428 0226 B0FBF3F0 		udiv	r0, r0, r3
 429 022a 144B     		ldr	r3, .L30
 430 022c 80B2     		uxth	r0, r0
 431              		.loc 1 69 0
 432 022e F1EE10FA 		vmrs	APSR_nzcv, FPSCR
 433              		.loc 1 67 0
 434 0232 9861     		str	r0, [r3, #24]
 435              		.loc 1 69 0
 436 0234 05D5     		bpl	.L27
 437              		.loc 1 72 0
 438 0236 124A     		ldr	r2, .L30+4
 439 0238 92FBF0F0 		sdiv	r0, r2, r0
 440 023c 8000     		lsls	r0, r0, #2
 441 023e D861     		str	r0, [r3, #28]
 442 0240 18E0     		b	.L13
 443              	.L27:
 444              		.loc 1 74 0
 445 0242 F6EE007A 		vmov.f32	s15, #5.0e-1
 446 0246 B4EEE78A 		vcmpe.f32	s16, s15
 447 024a F1EE10FA 		vmrs	APSR_nzcv, FPSCR
 448 024e 05D5     		bpl	.L28
 449              		.loc 1 77 0
 450 0250 0B4A     		ldr	r2, .L30+4
 451 0252 92FBF0F0 		sdiv	r0, r2, r0
 452 0256 4000     		lsls	r0, r0, #1
 453 0258 D861     		str	r0, [r3, #28]
 454 025a 0BE0     		b	.L13
 455              	.L28:
 456              		.loc 1 79 0
ARM GAS  C:\msys64\tmp\ccqivHJo.s 			page 9


 457 025c F6EE087A 		vmov.f32	s15, #7.5e-1
 458 0260 B4EEE78A 		vcmpe.f32	s16, s15
 459 0264 F1EE10FA 		vmrs	APSR_nzcv, FPSCR
 460              		.loc 1 82 0
 461 0268 4CBF     		ite	mi
 462 026a 054A     		ldrmi	r2, .L30+4
 463              		.loc 1 87 0
 464 026c 054A     		ldrpl	r2, .L30+8
 465 026e 92FBF0F0 		sdiv	r0, r2, r0
 466 0272 D861     		str	r0, [r3, #28]
 467              	.L13:
 468              		.loc 1 97 0
 469 0274 BDEC028B 		vldm	sp!, {d8}
 470              		.cfi_restore 80
 471              		.cfi_restore 81
 472              		.cfi_def_cfa_offset 8
 473              	.LVL35:
 474 0278 08BD     		pop	{r3, pc}
 475              	.L31:
 476 027a 00BF     		.align	2
 477              	.L30:
 478 027c 00000000 		.word	.LANCHOR0
 479 0280 00F22B00 		.word	2880000
 480 0284 00F91500 		.word	1440000
 481              		.cfi_endproc
 482              	.LFE267:
 483              		.size	_hook_param, .-_hook_param
 484              		.section	.text.startup,"ax",%progbits
 485              		.align	1
 486              		.thumb
 487              		.thumb_func
 488              		.type	_GLOBAL__sub_I_s_len, %function
 489              	_GLOBAL__sub_I_s_len:
 490              	.LFB269:
 491              		.loc 1 97 0
 492              		.cfi_startproc
 493              		@ args = 0, pretend = 0, frame = 0
 494              		@ frame_needed = 0, uses_anonymous_args = 0
 495              		@ link register save eliminated.
 496              	.LVL36:
 497              	.LBB77:
 498              	.LBB78:
 499              	.LBB79:
 500              		.loc 2 204 0
 501 0000 034B     		ldr	r3, .L33
 502 0002 0022     		movs	r2, #0
 503 0004 1A60     		str	r2, [r3]
 504 0006 DA60     		str	r2, [r3, #12]
 505 0008 1A61     		str	r2, [r3, #16]
 506 000a 5A61     		str	r2, [r3, #20]
 507              	.LVL37:
 508 000c 7047     		bx	lr
 509              	.L34:
 510 000e 00BF     		.align	2
 511              	.L33:
 512 0010 00000000 		.word	.LANCHOR0
 513              	.LBE79:
ARM GAS  C:\msys64\tmp\ccqivHJo.s 			page 10


 514              	.LBE78:
 515              	.LBE77:
 516              		.cfi_endproc
 517              	.LFE269:
 518              		.size	_GLOBAL__sub_I_s_len, .-_GLOBAL__sub_I_s_len
 519              		.section	.init_array,"aw",%init_array
 520              		.align	2
 521 0000 00000000 		.word	_GLOBAL__sub_I_s_len(target1)
 522              		.global	bpm
 523              		.global	wetXNR
 524              		.global	wetXNL
 525              		.global	s_len
 526              		.bss
 527              		.align	2
 528              		.set	.LANCHOR0,. + 0
 529              		.type	_ZL7s_delay, %object
 530              		.size	_ZL7s_delay, 24
 531              	_ZL7s_delay:
 532 0000 00000000 		.space	24
 532      00000000 
 532      00000000 
 532      00000000 
 532      00000000 
 533              		.type	bpm, %object
 534              		.size	bpm, 4
 535              	bpm:
 536 0018 00000000 		.space	4
 537              		.type	s_len, %object
 538              		.size	s_len, 4
 539              	s_len:
 540 001c 00000000 		.space	4
 541              		.type	_ZL5s_mix, %object
 542              		.size	_ZL5s_mix, 4
 543              	_ZL5s_mix:
 544 0020 00000000 		.space	4
 545              		.type	_ZL4gain, %object
 546              		.size	_ZL4gain, 4
 547              	_ZL4gain:
 548 0024 00000000 		.space	4
 549              		.type	wetXNL, %object
 550              		.size	wetXNL, 4
 551              	wetXNL:
 552 0028 00000000 		.space	4
 553              		.type	wetXNR, %object
 554              		.size	wetXNR, 4
 555              	wetXNR:
 556 002c 00000000 		.space	4
 557              		.section	.sdram,"aw",%progbits
 558              		.align	2
 559              		.set	.LANCHOR1,. + 0
 560              		.type	_ZL11s_delay_ram, %object
 561              		.size	_ZL11s_delay_ram, 1680000
 562              	_ZL11s_delay_ram:
 563 0000 00000000 		.space	1680000
 563      00000000 
 563      00000000 
 563      00000000 
ARM GAS  C:\msys64\tmp\ccqivHJo.s 			page 11


 563      00000000 
 564              		.text
 565              	.Letext0:
 566              		.file 4 "c:\\users\\bradl\\desktop\\code projects\\korgfx\\korgdelayfxset\\delays\\tools\\gcc\\gcc
 567              		.file 5 "c:\\users\\bradl\\desktop\\code projects\\korgfx\\korgdelayfxset\\delays\\tools\\gcc\\gcc
 568              		.file 6 "c:\\users\\bradl\\desktop\\code projects\\korgfx\\korgdelayfxset\\delays\\tools\\gcc\\gcc
 569              		.file 7 "../inc/utils/float_math.h"
 570              		.file 8 "../inc/utils/int_math.h"
 571              		.file 9 "../inc/fx_api.h"
 572              		.file 10 "../inc/userprg.h"