ARM GAS  C:\msys64\tmp\ccdqUJ8y.s 			page 1


   1              		.syntax unified
   2              		.cpu cortex-m4
   3              		.eabi_attribute 27, 1
   4              		.eabi_attribute 28, 1
   5              		.fpu fpv4-sp-d16
   6              		.eabi_attribute 20, 1
   7              		.eabi_attribute 21, 1
   8              		.eabi_attribute 23, 3
   9              		.eabi_attribute 24, 1
  10              		.eabi_attribute 25, 1
  11              		.eabi_attribute 26, 1
  12              		.eabi_attribute 30, 4
  13              		.eabi_attribute 34, 1
  14              		.eabi_attribute 18, 4
  15              		.thumb
  16              		.syntax unified
  17              		.file	"pingpong.cpp"
  18              		.text
  19              	.Ltext0:
  20              		.cfi_sections	.debug_frame
  21              		.align	1
  22              		.global	_hook_init
  23              		.thumb
  24              		.thumb_func
  25              		.type	_hook_init, %function
  26              	_hook_init:
  27              	.LFB264:
  28              		.file 1 "./src/pingpong.cpp"
  29              		.loc 1 22 0
  30              		.cfi_startproc
  31              		@ args = 0, pretend = 0, frame = 0
  32              		@ frame_needed = 0, uses_anonymous_args = 0
  33              	.LVL0:
  34              	.LBB35:
  35              	.LBB36:
  36              		.file 2 "../inc/dsp/delayline.hpp"
  37              		.loc 2 243 0
  38 0000 154A     		ldr	r2, .L5
  39 0002 164B     		ldr	r3, .L5+4
  40              		.loc 2 244 0
  41 0004 4FF48021 		mov	r1, #262144
  42              	.LVL1:
  43              	.LBE36:
  44              	.LBE35:
  45              		.loc 1 22 0
  46 0008 10B5     		push	{r4, lr}
  47              		.cfi_def_cfa_offset 8
  48              		.cfi_offset 4, -8
  49              		.cfi_offset 14, -4
  50              	.LBB38:
  51              	.LBB37:
  52              		.loc 2 244 0
  53 000a D160     		str	r1, [r2, #12]
  54              		.loc 2 245 0
  55 000c 0139     		subs	r1, r1, #1
  56              		.loc 2 243 0
  57 000e 1360     		str	r3, [r2]
ARM GAS  C:\msys64\tmp\ccdqUJ8y.s 			page 2


  58              		.loc 2 245 0
  59 0010 1161     		str	r1, [r2, #16]
  60 0012 1033     		adds	r3, r3, #16
  61              		.loc 2 246 0
  62 0014 0021     		movs	r1, #0
  63 0016 5161     		str	r1, [r2, #20]
  64              	.LVL2:
  65 0018 1446     		mov	r4, r2
  66 001a 03F50011 		add	r1, r3, #2097152
  67              	.LBE37:
  68              	.LBE38:
  69              	.LBB39:
  70              	.LBB40:
  71              	.LBB41:
  72              		.file 3 "../inc/utils/buffer_ops.h"
  73              		.loc 3 109 0
  74 001e 0022     		movs	r2, #0
  75              	.LVL3:
  76              	.L2:
  77 0020 43F8102C 		str	r2, [r3, #-16]	@ float
  78              	.LVL4:
  79 0024 43F80C2C 		str	r2, [r3, #-12]	@ float
  80              	.LVL5:
  81 0028 43F8082C 		str	r2, [r3, #-8]	@ float
  82              	.LVL6:
  83 002c 43F8042C 		str	r2, [r3, #-4]	@ float
  84 0030 1033     		adds	r3, r3, #16
  85              	.LVL7:
  86              		.loc 3 108 0
  87 0032 9942     		cmp	r1, r3
  88 0034 F4D1     		bne	.L2
  89              	.LVL8:
  90              	.LBE41:
  91              	.LBE40:
  92              	.LBE39:
  93              		.loc 1 25 0
  94 0036 FFF7FEFF 		bl	_fx_get_bpm
  95              	.LVL9:
  96              		.loc 1 26 0
  97 003a 0A23     		movs	r3, #10
  98              		.loc 1 25 0
  99 003c A061     		str	r0, [r4, #24]
 100              		.loc 1 26 0
 101 003e 90FBF3F0 		sdiv	r0, r0, r3
 102 0042 3C23     		movs	r3, #60
 103 0044 93FBF0F0 		sdiv	r0, r3, r0
 104 0048 054B     		ldr	r3, .L5+8
 105 004a 5843     		muls	r0, r3, r0
 106              		.loc 1 27 0
 107 004c 4FF07C53 		mov	r3, #1056964608
 108              		.loc 1 26 0
 109 0050 E061     		str	r0, [r4, #28]
 110              		.loc 1 27 0
 111 0052 2362     		str	r3, [r4, #32]	@ float
 112 0054 10BD     		pop	{r4, pc}
 113              	.L6:
 114 0056 00BF     		.align	2
ARM GAS  C:\msys64\tmp\ccdqUJ8y.s 			page 3


 115              	.L5:
 116 0058 00000000 		.word	.LANCHOR0
 117 005c 00000000 		.word	.LANCHOR1
 118 0060 008A6600 		.word	6720000
 119              		.cfi_endproc
 120              	.LFE264:
 121              		.size	_hook_init, .-_hook_init
 122              		.align	1
 123              		.global	_hook_process
 124              		.thumb
 125              		.thumb_func
 126              		.type	_hook_process, %function
 127              	_hook_process:
 128              	.LFB266:
 129              		.loc 1 36 0
 130              		.cfi_startproc
 131              		@ args = 0, pretend = 0, frame = 0
 132              		@ frame_needed = 0, uses_anonymous_args = 0
 133              	.LVL10:
 134              		.loc 1 40 0
 135 0064 574B     		ldr	r3, .L11
 136              	.LBB42:
 137              	.LBB43:
 138              		.loc 1 49 0
 139 0066 DFED582A 		vldr.32	s5, .L11+4
 140              	.LBE43:
 141              	.LBE42:
 142              		.loc 1 40 0
 143 006a D3ED081A 		vldr.32	s3, [r3, #32]
 144              	.LBB75:
 145              	.LBB70:
 146              		.loc 1 45 0
 147 006e 93ED091A 		vldr.32	s2, [r3, #36]
 148              		.loc 1 49 0
 149 0072 9FED563A 		vldr.32	s6, .L11+8
 150 0076 DFED563A 		vldr.32	s7, .L11+12
 151 007a 9FED564A 		vldr.32	s8, .L11+16
 152 007e DFED564A 		vldr.32	s9, .L11+20
 153 0082 9FED565A 		vldr.32	s10, .L11+24
 154 0086 DFED565A 		vldr.32	s11, .L11+28
 155 008a 9FED566A 		vldr.32	s12, .L11+32
 156              	.LBE70:
 157              	.LBE75:
 158              		.loc 1 36 0
 159 008e F0B5     		push	{r4, r5, r6, r7, lr}
 160              		.cfi_def_cfa_offset 20
 161              		.cfi_offset 4, -20
 162              		.cfi_offset 5, -16
 163              		.cfi_offset 6, -12
 164              		.cfi_offset 7, -8
 165              		.cfi_offset 14, -4
 166 0090 5D69     		ldr	r5, [r3, #20]
 167              	.LBB76:
 168              	.LBB71:
 169              	.LBB44:
 170              	.LBB45:
 171              		.loc 2 309 0
ARM GAS  C:\msys64\tmp\ccdqUJ8y.s 			page 4


 172 0092 1F68     		ldr	r7, [r3]
 173 0094 D3F810E0 		ldr	lr, [r3, #16]
 174              	.LBE45:
 175              	.LBE44:
 176              	.LBE71:
 177              	.LBE76:
 178              		.loc 1 38 0
 179 0098 C900     		lsls	r1, r1, #3
 180              	.LVL11:
 181 009a 00EB010C 		add	ip, r0, r1
 182              	.LVL12:
 183              	.LBB77:
 184              	.LBB72:
 185              		.loc 1 45 0
 186 009e 2E46     		mov	r6, r5
 187              	.LBB47:
 188              	.LBB48:
 189              		.loc 1 32 0
 190 00a0 B6EE002A 		vmov.f32	s4, #5.0e-1
 191              	.LVL13:
 192              	.L9:
 193              	.LBE48:
 194              	.LBE47:
 195              	.LBE72:
 196              		.loc 1 43 0 discriminator 2
 197 00a4 8445     		cmp	ip, r0
 198 00a6 00F10804 		add	r4, r0, #8
 199 00aa 00F08780 		beq	.L8
 200              	.LVL14:
 201              	.LBB73:
 202              	.LBB54:
 203              	.LBB46:
 204              		.loc 2 309 0
 205 00ae 06F57A42 		add	r2, r6, #64000
 206 00b2 02EA0E02 		and	r2, r2, lr
 207 00b6 07EBC202 		add	r2, r7, r2, lsl #3
 208              	.LVL15:
 209              	.LBE46:
 210              	.LBE54:
 211              		.loc 1 47 0
 212 00ba 92ED007A 		vldr.32	s14, [r2]
 213              		.loc 1 46 0
 214 00be D2ED017A 		vldr.32	s15, [r2, #4]
 215              		.loc 1 47 0
 216 00c2 21EE077A 		vmul.f32	s14, s2, s14
 217              	.LVL16:
 218              		.loc 1 46 0
 219 00c6 61EE277A 		vmul.f32	s15, s2, s15
 220              	.LVL17:
 221              		.loc 1 47 0
 222 00ca 27EE217A 		vmul.f32	s14, s14, s3
 223              	.LVL18:
 224              		.loc 1 48 0
 225 00ce 61EEA77A 		vmul.f32	s15, s3, s15
 226              	.LVL19:
 227              	.LBB55:
 228              	.LBB49:
ARM GAS  C:\msys64\tmp\ccdqUJ8y.s 			page 5


 229              		.loc 1 32 0
 230 00d2 F7EE080A 		vmov.f32	s1, #1.5e+0
 231              	.LBE49:
 232              	.LBE55:
 233              		.loc 1 48 0
 234 00d6 C3ED0B7A 		vstr.32	s15, [r3, #44]
 235              	.LVL20:
 236              	.LBB56:
 237              	.LBB50:
 238              		.loc 1 32 0
 239 00da 67EE077A 		vmul.f32	s15, s14, s14
 240              	.LBE50:
 241              	.LBE56:
 242              		.loc 1 47 0
 243 00de 83ED0A7A 		vstr.32	s14, [r3, #40]
 244              	.LBB57:
 245              	.LBB51:
 246              		.loc 1 32 0
 247 00e2 67EE877A 		vmul.f32	s15, s15, s14
 248              	.LBE51:
 249              	.LBE57:
 250              		.loc 1 49 0
 251 00e6 F0EE636A 		vmov.f32	s13, s7
 252              	.LBB58:
 253              	.LBB52:
 254              		.loc 1 32 0
 255 00ea 62EE677A 		vnmul.f32	s15, s4, s15
 256              	.LBE52:
 257              	.LBE58:
 258              		.loc 1 49 0
 259 00ee B0EE650A 		vmov.f32	s0, s11
 260              	.LBB59:
 261              	.LBB53:
 262              		.loc 1 32 0
 263 00f2 E7EE207A 		vfma.f32	s15, s14, s1
 264              	.LVL21:
 265              	.LBE53:
 266              	.LBE59:
 267              	.LBB60:
 268              	.LBB61:
 269              		.loc 2 256 0
 270 00f6 0EEA0602 		and	r2, lr, r6
 271              	.LVL22:
 272 00fa 07EBC202 		add	r2, r7, r2, lsl #3
 273              	.LBE61:
 274              	.LBE60:
 275              		.loc 1 49 0
 276 00fe B0EE437A 		vmov.f32	s14, s6
 277 0102 A7EEA27A 		vfma.f32	s14, s15, s5
 278              	.LBB65:
 279              	.LBB62:
 280              		.loc 2 256 0
 281 0106 013E     		subs	r6, r6, #1
 282              	.LVL23:
 283              	.LBE62:
 284              	.LBE65:
 285              		.loc 1 49 0
ARM GAS  C:\msys64\tmp\ccdqUJ8y.s 			page 6


 286 0108 E7EE276A 		vfma.f32	s13, s14, s15
 287 010c B0EE667A 		vmov.f32	s14, s13
 288 0110 F0EE446A 		vmov.f32	s13, s8
 289 0114 E7EE276A 		vfma.f32	s13, s14, s15
 290 0118 B0EE457A 		vmov.f32	s14, s10
 291 011c A7EEA47A 		vfma.f32	s14, s15, s9
 292 0120 A7EE270A 		vfma.f32	s0, s14, s15
 293 0124 B0EE407A 		vmov.f32	s14, s0
 294 0128 B0EE460A 		vmov.f32	s0, s12
 295 012c A7EE270A 		vfma.f32	s0, s14, s15
 296 0130 14ED027A 		vldr.32	s14, [r4, #-8]
 297 0134 C6EE807A 		vdiv.f32	s15, s13, s0
 298 0138 D3ED0C6A 		vldr.32	s13, [r3, #48]
 299 013c A6EEA77A 		vfma.f32	s14, s13, s15
 300              		.loc 1 50 0
 301 0140 B0EE650A 		vmov.f32	s0, s11
 302              		.loc 1 49 0
 303 0144 04ED027A 		vstr.32	s14, [r4, #-8]
 304              	.LVL24:
 305              		.loc 1 50 0
 306 0148 D3ED0B6A 		vldr.32	s13, [r3, #44]
 307              	.LVL25:
 308              	.LBB66:
 309              	.LBB67:
 310              		.loc 1 32 0
 311 014c 66EEA67A 		vmul.f32	s15, s13, s13
 312 0150 67EEA67A 		vmul.f32	s15, s15, s13
 313 0154 62EE677A 		vnmul.f32	s15, s4, s15
 314 0158 E6EEA07A 		vfma.f32	s15, s13, s1
 315              	.LVL26:
 316              	.LBE67:
 317              	.LBE66:
 318              		.loc 1 50 0
 319 015c F0EE436A 		vmov.f32	s13, s6
 320 0160 E7EEA26A 		vfma.f32	s13, s15, s5
 321 0164 F0EE630A 		vmov.f32	s1, s7
 322 0168 E6EEA70A 		vfma.f32	s1, s13, s15
 323 016c F0EE606A 		vmov.f32	s13, s1
 324 0170 F0EE440A 		vmov.f32	s1, s8
 325 0174 E6EEA70A 		vfma.f32	s1, s13, s15
 326 0178 F0EE456A 		vmov.f32	s13, s10
 327 017c E7EEA46A 		vfma.f32	s13, s15, s9
 328 0180 A6EEA70A 		vfma.f32	s0, s13, s15
 329 0184 F0EE406A 		vmov.f32	s13, s0
 330 0188 B0EE460A 		vmov.f32	s0, s12
 331 018c A6EEA70A 		vfma.f32	s0, s13, s15
 332 0190 D0ED016A 		vldr.32	s13, [r0, #4]
 333 0194 C0EE807A 		vdiv.f32	s15, s1, s0
 334 0198 77EEA67A 		vadd.f32	s15, s15, s13
 335 019c D3ED0D6A 		vldr.32	s13, [r3, #52]
 336 01a0 67EEA67A 		vmul.f32	s15, s15, s13
 337 01a4 C0ED017A 		vstr.32	s15, [r0, #4]
 338              	.LVL27:
 339              	.LBB68:
 340              	.LBB63:
 341              		.loc 2 256 0
 342 01a8 F7EE007A 		vmov.f32	s15, #1.0e+0
ARM GAS  C:\msys64\tmp\ccdqUJ8y.s 			page 7


 343 01ac 82ED007A 		vstr.32	s14, [r2]
 344 01b0 37EE277A 		vadd.f32	s14, s14, s15
 345              	.LVL28:
 346              	.LBE63:
 347              	.LBE68:
 348              	.LBE73:
 349              		.loc 1 43 0
 350 01b4 2046     		mov	r0, r4
 351              	.LVL29:
 352              	.LBB74:
 353              	.LBB69:
 354              	.LBB64:
 355              		.loc 2 256 0
 356 01b6 82ED017A 		vstr.32	s14, [r2, #4]
 357              	.LVL30:
 358              	.LBE64:
 359              	.LBE69:
 360              	.LBE74:
 361              		.loc 1 43 0
 362 01ba 73E7     		b	.L9
 363              	.LVL31:
 364              	.L8:
 365 01bc A5EBD105 		sub	r5, r5, r1, lsr #3
 366 01c0 5D61     		str	r5, [r3, #20]
 367 01c2 F0BD     		pop	{r4, r5, r6, r7, pc}
 368              	.L12:
 369              		.align	2
 370              	.L11:
 371 01c4 00000000 		.word	.LANCHOR0
 372 01c8 3684093D 		.word	1024033846
 373 01cc 72146F3D 		.word	1030689906
 374 01d0 0CBD7C3E 		.word	1048362252
 375 01d4 C847E2B6 		.word	-1226684472
 376 01d8 FF7EEB3C 		.word	1022066431
 377 01dc 4D74DE3D 		.word	1037988941
 378 01e0 AF96793D 		.word	1031378607
 379 01e4 75667C3E 		.word	1048340085
 380              	.LBE77:
 381              		.cfi_endproc
 382              	.LFE266:
 383              		.size	_hook_process, .-_hook_process
 384              		.align	1
 385              		.global	_hook_param
 386              		.thumb
 387              		.thumb_func
 388              		.type	_hook_param, %function
 389              	_hook_param:
 390              	.LFB267:
 391              		.loc 1 58 0
 392              		.cfi_startproc
 393              		@ args = 0, pretend = 0, frame = 0
 394              		@ frame_needed = 0, uses_anonymous_args = 0
 395              	.LVL32:
 396 01e8 08B5     		push	{r3, lr}
 397              		.cfi_def_cfa_offset 8
 398              		.cfi_offset 3, -8
 399              		.cfi_offset 14, -4
ARM GAS  C:\msys64\tmp\ccdqUJ8y.s 			page 8


 400 01ea 2DED028B 		vpush.64	{d8}
 401              		.cfi_def_cfa_offset 16
 402              		.cfi_offset 80, -16
 403              		.cfi_offset 81, -12
 404              		.loc 1 59 0
 405 01ee 08EE101A 		vmov	s16, r1	@ int
 406              		.loc 1 60 0
 407 01f2 0128     		cmp	r0, #1
 408              		.loc 1 59 0
 409 01f4 BAEEE08A 		vcvt.f32.s32	s16, s16, #31
 410              	.LVL33:
 411              		.loc 1 60 0
 412 01f8 0AD0     		beq	.L15
 413 01fa 05D3     		bcc	.L16
 414 01fc 0328     		cmp	r0, #3
 415 01fe 35D1     		bne	.L13
 416              		.loc 1 92 0
 417 0200 1C4B     		ldr	r3, .L30
 418 0202 83ED088A 		vstr.32	s16, [r3, #32]
 419              		.loc 1 97 0
 420 0206 31E0     		b	.L13
 421              	.L16:
 422              		.loc 1 64 0
 423 0208 1A4B     		ldr	r3, .L30
 424 020a 83ED098A 		vstr.32	s16, [r3, #36]
 425              		.loc 1 65 0
 426 020e 2DE0     		b	.L13
 427              	.L15:
 428              		.loc 1 67 0
 429 0210 FFF7FEFF 		bl	_fx_get_bpm
 430              	.LVL34:
 431              		.loc 1 69 0
 432 0214 F5EE007A 		vmov.f32	s15, #2.5e-1
 433              		.loc 1 67 0
 434 0218 0A23     		movs	r3, #10
 435              		.loc 1 69 0
 436 021a B4EEE78A 		vcmpe.f32	s16, s15
 437              		.loc 1 67 0
 438 021e B0FBF3F0 		udiv	r0, r0, r3
 439 0222 144B     		ldr	r3, .L30
 440 0224 80B2     		uxth	r0, r0
 441              		.loc 1 69 0
 442 0226 F1EE10FA 		vmrs	APSR_nzcv, FPSCR
 443              		.loc 1 67 0
 444 022a 9861     		str	r0, [r3, #24]
 445              		.loc 1 69 0
 446 022c 05D5     		bpl	.L27
 447              		.loc 1 72 0
 448 022e 124A     		ldr	r2, .L30+4
 449 0230 92FBF0F0 		sdiv	r0, r2, r0
 450 0234 8000     		lsls	r0, r0, #2
 451 0236 D861     		str	r0, [r3, #28]
 452 0238 18E0     		b	.L13
 453              	.L27:
 454              		.loc 1 74 0
 455 023a F6EE007A 		vmov.f32	s15, #5.0e-1
 456 023e B4EEE78A 		vcmpe.f32	s16, s15
ARM GAS  C:\msys64\tmp\ccdqUJ8y.s 			page 9


 457 0242 F1EE10FA 		vmrs	APSR_nzcv, FPSCR
 458 0246 05D5     		bpl	.L28
 459              		.loc 1 77 0
 460 0248 0B4A     		ldr	r2, .L30+4
 461 024a 92FBF0F0 		sdiv	r0, r2, r0
 462 024e 4000     		lsls	r0, r0, #1
 463 0250 D861     		str	r0, [r3, #28]
 464 0252 0BE0     		b	.L13
 465              	.L28:
 466              		.loc 1 79 0
 467 0254 F6EE087A 		vmov.f32	s15, #7.5e-1
 468 0258 B4EEE78A 		vcmpe.f32	s16, s15
 469 025c F1EE10FA 		vmrs	APSR_nzcv, FPSCR
 470              		.loc 1 82 0
 471 0260 4CBF     		ite	mi
 472 0262 054A     		ldrmi	r2, .L30+4
 473              		.loc 1 87 0
 474 0264 054A     		ldrpl	r2, .L30+8
 475 0266 92FBF0F0 		sdiv	r0, r2, r0
 476 026a D861     		str	r0, [r3, #28]
 477              	.L13:
 478              		.loc 1 97 0
 479 026c BDEC028B 		vldm	sp!, {d8}
 480              		.cfi_restore 80
 481              		.cfi_restore 81
 482              		.cfi_def_cfa_offset 8
 483              	.LVL35:
 484 0270 08BD     		pop	{r3, pc}
 485              	.L31:
 486 0272 00BF     		.align	2
 487              	.L30:
 488 0274 00000000 		.word	.LANCHOR0
 489 0278 00F22B00 		.word	2880000
 490 027c 00F91500 		.word	1440000
 491              		.cfi_endproc
 492              	.LFE267:
 493              		.size	_hook_param, .-_hook_param
 494              		.section	.text.startup,"ax",%progbits
 495              		.align	1
 496              		.thumb
 497              		.thumb_func
 498              		.type	_GLOBAL__sub_I_s_len, %function
 499              	_GLOBAL__sub_I_s_len:
 500              	.LFB269:
 501              		.loc 1 97 0
 502              		.cfi_startproc
 503              		@ args = 0, pretend = 0, frame = 0
 504              		@ frame_needed = 0, uses_anonymous_args = 0
 505              		@ link register save eliminated.
 506              	.LVL36:
 507              	.LBB82:
 508              	.LBB83:
 509              	.LBB84:
 510              		.loc 2 204 0
 511 0000 034B     		ldr	r3, .L33
 512 0002 0022     		movs	r2, #0
 513 0004 1A60     		str	r2, [r3]
ARM GAS  C:\msys64\tmp\ccdqUJ8y.s 			page 10


 514 0006 DA60     		str	r2, [r3, #12]
 515 0008 1A61     		str	r2, [r3, #16]
 516 000a 5A61     		str	r2, [r3, #20]
 517              	.LVL37:
 518 000c 7047     		bx	lr
 519              	.L34:
 520 000e 00BF     		.align	2
 521              	.L33:
 522 0010 00000000 		.word	.LANCHOR0
 523              	.LBE84:
 524              	.LBE83:
 525              	.LBE82:
 526              		.cfi_endproc
 527              	.LFE269:
 528              		.size	_GLOBAL__sub_I_s_len, .-_GLOBAL__sub_I_s_len
 529              		.section	.init_array,"aw",%init_array
 530              		.align	2
 531 0000 00000000 		.word	_GLOBAL__sub_I_s_len(target1)
 532              		.global	bpm
 533              		.global	autopanvalR
 534              		.global	autopanvalL
 535              		.global	wetXNR
 536              		.global	wetXNL
 537              		.global	s_len
 538              		.bss
 539              		.align	2
 540              		.set	.LANCHOR0,. + 0
 541              		.type	_ZL7s_delay, %object
 542              		.size	_ZL7s_delay, 24
 543              	_ZL7s_delay:
 544 0000 00000000 		.space	24
 544      00000000 
 544      00000000 
 544      00000000 
 544      00000000 
 545              		.type	bpm, %object
 546              		.size	bpm, 4
 547              	bpm:
 548 0018 00000000 		.space	4
 549              		.type	s_len, %object
 550              		.size	s_len, 4
 551              	s_len:
 552 001c 00000000 		.space	4
 553              		.type	_ZL5s_mix, %object
 554              		.size	_ZL5s_mix, 4
 555              	_ZL5s_mix:
 556 0020 00000000 		.space	4
 557              		.type	_ZL4gain, %object
 558              		.size	_ZL4gain, 4
 559              	_ZL4gain:
 560 0024 00000000 		.space	4
 561              		.type	wetXNL, %object
 562              		.size	wetXNL, 4
 563              	wetXNL:
 564 0028 00000000 		.space	4
 565              		.type	wetXNR, %object
 566              		.size	wetXNR, 4
ARM GAS  C:\msys64\tmp\ccdqUJ8y.s 			page 11


 567              	wetXNR:
 568 002c 00000000 		.space	4
 569              		.type	autopanvalL, %object
 570              		.size	autopanvalL, 4
 571              	autopanvalL:
 572 0030 00000000 		.space	4
 573              		.type	autopanvalR, %object
 574              		.size	autopanvalR, 4
 575              	autopanvalR:
 576 0034 00000000 		.space	4
 577              		.section	.sdram,"aw",%progbits
 578              		.align	2
 579              		.set	.LANCHOR1,. + 0
 580              		.type	_ZL11s_delay_ram, %object
 581              		.size	_ZL11s_delay_ram, 1680000
 582              	_ZL11s_delay_ram:
 583 0000 00000000 		.space	1680000
 583      00000000 
 583      00000000 
 583      00000000 
 583      00000000 
 584              		.text
 585              	.Letext0:
 586              		.file 4 "c:\\users\\bradl\\desktop\\code projects\\korgfx\\korgdelayfxset\\delays\\tools\\gcc\\gcc
 587              		.file 5 "c:\\users\\bradl\\desktop\\code projects\\korgfx\\korgdelayfxset\\delays\\tools\\gcc\\gcc
 588              		.file 6 "c:\\users\\bradl\\desktop\\code projects\\korgfx\\korgdelayfxset\\delays\\tools\\gcc\\gcc
 589              		.file 7 "../inc/utils/float_math.h"
 590              		.file 8 "../inc/utils/int_math.h"
 591              		.file 9 "../inc/fx_api.h"
 592              		.file 10 "../inc/userprg.h"
 593              		.section	.debug_info,"",%progbits
 594              	.Ldebug_info0:
 595 0000 06090000 		.4byte	0x906
 596 0004 0400     		.2byte	0x4
 597 0006 00000000 		.4byte	.Ldebug_abbrev0
 598 000a 04       		.byte	0x4
 599 000b 01       		.uleb128 0x1
 600 000c 67030000 		.4byte	.LASF95
 601 0010 04       		.byte	0x4
 602 0011 51050000 		.4byte	.LASF96
 603 0015 00000000 		.4byte	.LASF97
 604 0019 C8000000 		.4byte	.Ldebug_ranges0+0xc8
 605 001d 00000000 		.4byte	0
 606 0021 00000000 		.4byte	.Ldebug_line0
 607 0025 02       		.uleb128 0x2
 608 0026 04       		.byte	0x4
 609 0027 04       		.byte	0x4
 610 0028 84020000 		.4byte	.LASF0
 611 002c 03       		.uleb128 0x3
 612 002d 04       		.byte	0x4
 613 002e 05       		.byte	0x5
 614 002f 696E7400 		.ascii	"int\000"
 615 0033 02       		.uleb128 0x2
 616 0034 01       		.byte	0x1
 617 0035 06       		.byte	0x6
 618 0036 6E020000 		.4byte	.LASF1
 619 003a 04       		.uleb128 0x4
ARM GAS  C:\msys64\tmp\ccdqUJ8y.s 			page 12


 620 003b 66070000 		.4byte	.LASF5
 621 003f 04       		.byte	0x4
 622 0040 1D       		.byte	0x1d
 623 0041 45000000 		.4byte	0x45
 624 0045 02       		.uleb128 0x2
 625 0046 01       		.byte	0x1
 626 0047 08       		.byte	0x8
 627 0048 11030000 		.4byte	.LASF2
 628 004c 02       		.uleb128 0x2
 629 004d 02       		.byte	0x2
 630 004e 05       		.byte	0x5
 631 004f 7B010000 		.4byte	.LASF3
 632 0053 02       		.uleb128 0x2
 633 0054 02       		.byte	0x2
 634 0055 07       		.byte	0x7
 635 0056 30050000 		.4byte	.LASF4
 636 005a 04       		.uleb128 0x4
 637 005b 73060000 		.4byte	.LASF6
 638 005f 04       		.byte	0x4
 639 0060 3F       		.byte	0x3f
 640 0061 65000000 		.4byte	0x65
 641 0065 02       		.uleb128 0x2
 642 0066 04       		.byte	0x4
 643 0067 05       		.byte	0x5
 644 0068 85010000 		.4byte	.LASF7
 645 006c 04       		.uleb128 0x4
 646 006d 51010000 		.4byte	.LASF8
 647 0071 04       		.byte	0x4
 648 0072 41       		.byte	0x41
 649 0073 77000000 		.4byte	0x77
 650 0077 02       		.uleb128 0x2
 651 0078 04       		.byte	0x4
 652 0079 07       		.byte	0x7
 653 007a 2C060000 		.4byte	.LASF9
 654 007e 02       		.uleb128 0x2
 655 007f 08       		.byte	0x8
 656 0080 05       		.byte	0x5
 657 0081 B2020000 		.4byte	.LASF10
 658 0085 02       		.uleb128 0x2
 659 0086 08       		.byte	0x8
 660 0087 07       		.byte	0x7
 661 0088 7F040000 		.4byte	.LASF11
 662 008c 02       		.uleb128 0x2
 663 008d 04       		.byte	0x4
 664 008e 07       		.byte	0x7
 665 008f BA040000 		.4byte	.LASF12
 666 0093 04       		.uleb128 0x4
 667 0094 C0060000 		.4byte	.LASF13
 668 0098 05       		.byte	0x5
 669 0099 18       		.byte	0x18
 670 009a 3A000000 		.4byte	0x3a
 671 009e 04       		.uleb128 0x4
 672 009f 89050000 		.4byte	.LASF14
 673 00a3 05       		.byte	0x5
 674 00a4 2C       		.byte	0x2c
 675 00a5 5A000000 		.4byte	0x5a
 676 00a9 04       		.uleb128 0x4
ARM GAS  C:\msys64\tmp\ccdqUJ8y.s 			page 13


 677 00aa B1040000 		.4byte	.LASF15
 678 00ae 05       		.byte	0x5
 679 00af 30       		.byte	0x30
 680 00b0 6C000000 		.4byte	0x6c
 681 00b4 04       		.uleb128 0x4
 682 00b5 07010000 		.4byte	.LASF16
 683 00b9 06       		.byte	0x6
 684 00ba D8       		.byte	0xd8
 685 00bb 8C000000 		.4byte	0x8c
 686 00bf 02       		.uleb128 0x2
 687 00c0 08       		.byte	0x8
 688 00c1 04       		.byte	0x4
 689 00c2 1F030000 		.4byte	.LASF17
 690 00c6 05       		.uleb128 0x5
 691 00c7 BB000000 		.4byte	.LASF98
 692 00cb 02       		.uleb128 0x2
 693 00cc 04       		.byte	0x4
 694 00cd 07       		.byte	0x7
 695 00ce 20010000 		.4byte	.LASF18
 696 00d2 02       		.uleb128 0x2
 697 00d3 01       		.byte	0x1
 698 00d4 08       		.byte	0x8
 699 00d5 7A050000 		.4byte	.LASF19
 700 00d9 02       		.uleb128 0x2
 701 00da 08       		.byte	0x8
 702 00db 04       		.byte	0x4
 703 00dc 74010000 		.4byte	.LASF20
 704 00e0 06       		.uleb128 0x6
 705 00e1 08       		.byte	0x8
 706 00e2 07       		.byte	0x7
 707 00e3 A6       		.byte	0xa6
 708 00e4 B5060000 		.4byte	.LASF99
 709 00e8 01010000 		.4byte	0x101
 710 00ec 07       		.uleb128 0x7
 711 00ed 6100     		.ascii	"a\000"
 712 00ef 07       		.byte	0x7
 713 00f0 A7       		.byte	0xa7
 714 00f1 25000000 		.4byte	0x25
 715 00f5 00       		.byte	0
 716 00f6 07       		.uleb128 0x7
 717 00f7 6200     		.ascii	"b\000"
 718 00f9 07       		.byte	0x7
 719 00fa A8       		.byte	0xa8
 720 00fb 25000000 		.4byte	0x25
 721 00ff 04       		.byte	0x4
 722 0100 00       		.byte	0
 723 0101 04       		.uleb128 0x4
 724 0102 AB060000 		.4byte	.LASF21
 725 0106 07       		.byte	0x7
 726 0107 A9       		.byte	0xa9
 727 0108 E0000000 		.4byte	0xe0
 728 010c 08       		.uleb128 0x8
 729 010d 01       		.byte	0x1
 730 010e 45000000 		.4byte	0x45
 731 0112 0A       		.byte	0xa
 732 0113 35       		.byte	0x35
 733 0114 3D010000 		.4byte	0x13d
ARM GAS  C:\msys64\tmp\ccdqUJ8y.s 			page 14


 734 0118 09       		.uleb128 0x9
 735 0119 06070000 		.4byte	.LASF22
 736 011d 00       		.byte	0
 737 011e 09       		.uleb128 0x9
 738 011f 2B030000 		.4byte	.LASF23
 739 0123 01       		.byte	0x1
 740 0124 09       		.uleb128 0x9
 741 0125 52070000 		.4byte	.LASF24
 742 0129 02       		.byte	0x2
 743 012a 09       		.uleb128 0x9
 744 012b 0F060000 		.4byte	.LASF25
 745 012f 03       		.byte	0x3
 746 0130 09       		.uleb128 0x9
 747 0131 DF010000 		.4byte	.LASF26
 748 0135 04       		.byte	0x4
 749 0136 09       		.uleb128 0x9
 750 0137 AD010000 		.4byte	.LASF27
 751 013b 05       		.byte	0x5
 752 013c 00       		.byte	0
 753 013d 0A       		.uleb128 0xa
 754 013e 04       		.byte	0x4
 755 013f 25000000 		.4byte	0x25
 756 0143 0B       		.uleb128 0xb
 757 0144 64737000 		.ascii	"dsp\000"
 758 0148 02       		.byte	0x2
 759 0149 33       		.byte	0x33
 760 014a 7D030000 		.4byte	0x37d
 761 014e 0C       		.uleb128 0xc
 762 014f 34010000 		.4byte	.LASF33
 763 0153 18       		.byte	0x18
 764 0154 02       		.byte	0x2
 765 0155 BB       		.byte	0xbb
 766 0156 0D       		.uleb128 0xd
 767 0157 20050000 		.4byte	.LASF28
 768 015b 02       		.byte	0x2
 769 015c 8301     		.2byte	0x183
 770 015e 7D030000 		.4byte	0x37d
 771 0162 00       		.byte	0
 772 0163 0D       		.uleb128 0xd
 773 0164 C0010000 		.4byte	.LASF29
 774 0168 02       		.byte	0x2
 775 0169 8401     		.2byte	0x184
 776 016b 01010000 		.4byte	0x101
 777 016f 04       		.byte	0x4
 778 0170 0D       		.uleb128 0xd
 779 0171 01010000 		.4byte	.LASF30
 780 0175 02       		.byte	0x2
 781 0176 8501     		.2byte	0x185
 782 0178 B4000000 		.4byte	0xb4
 783 017c 0C       		.byte	0xc
 784 017d 0D       		.uleb128 0xd
 785 017e CD010000 		.4byte	.LASF31
 786 0182 02       		.byte	0x2
 787 0183 8601     		.2byte	0x186
 788 0185 B4000000 		.4byte	0xb4
 789 0189 10       		.byte	0x10
 790 018a 0D       		.uleb128 0xd
ARM GAS  C:\msys64\tmp\ccdqUJ8y.s 			page 15


 791 018b 70050000 		.4byte	.LASF32
 792 018f 02       		.byte	0x2
 793 0190 8701     		.2byte	0x187
 794 0192 A9000000 		.4byte	0xa9
 795 0196 14       		.byte	0x14
 796 0197 0E       		.uleb128 0xe
 797 0198 34010000 		.4byte	.LASF33
 798 019c 02       		.byte	0x2
 799 019d C8       		.byte	0xc8
 800 019e 96040000 		.4byte	.LASF34
 801 01a2 83030000 		.4byte	0x383
 802 01a6 AE010000 		.4byte	0x1ae
 803 01aa B4010000 		.4byte	0x1b4
 804 01ae 0F       		.uleb128 0xf
 805 01af 83030000 		.4byte	0x383
 806 01b3 00       		.byte	0
 807 01b4 0E       		.uleb128 0xe
 808 01b5 34010000 		.4byte	.LASF33
 809 01b9 02       		.byte	0x2
 810 01ba D7       		.byte	0xd7
 811 01bb C7040000 		.4byte	.LASF35
 812 01bf 83030000 		.4byte	0x383
 813 01c3 CB010000 		.4byte	0x1cb
 814 01c7 DB010000 		.4byte	0x1db
 815 01cb 0F       		.uleb128 0xf
 816 01cc 83030000 		.4byte	0x383
 817 01d0 10       		.uleb128 0x10
 818 01d1 7D030000 		.4byte	0x37d
 819 01d5 10       		.uleb128 0x10
 820 01d6 B4000000 		.4byte	0xb4
 821 01da 00       		.byte	0
 822 01db 11       		.uleb128 0x11
 823 01dc B5000000 		.4byte	.LASF36
 824 01e0 02       		.byte	0x2
 825 01e1 E5       		.byte	0xe5
 826 01e2 96000000 		.4byte	.LASF38
 827 01e6 EE010000 		.4byte	0x1ee
 828 01ea F4010000 		.4byte	0x1f4
 829 01ee 0F       		.uleb128 0xf
 830 01ef 83030000 		.4byte	0x383
 831 01f3 00       		.byte	0
 832 01f4 11       		.uleb128 0x11
 833 01f5 26050000 		.4byte	.LASF37
 834 01f9 02       		.byte	0x2
 835 01fa F2       		.byte	0xf2
 836 01fb 7D060000 		.4byte	.LASF39
 837 01ff 07020000 		.4byte	0x207
 838 0203 17020000 		.4byte	0x217
 839 0207 0F       		.uleb128 0xf
 840 0208 83030000 		.4byte	0x383
 841 020c 10       		.uleb128 0x10
 842 020d 7D030000 		.4byte	0x37d
 843 0211 10       		.uleb128 0x10
 844 0212 B4000000 		.4byte	0xb4
 845 0216 00       		.byte	0
 846 0217 11       		.uleb128 0x11
 847 0218 89000000 		.4byte	.LASF40
ARM GAS  C:\msys64\tmp\ccdqUJ8y.s 			page 16


 848 021c 02       		.byte	0x2
 849 021d FF       		.byte	0xff
 850 021e F1010000 		.4byte	.LASF41
 851 0222 2A020000 		.4byte	0x22a
 852 0226 35020000 		.4byte	0x235
 853 022a 0F       		.uleb128 0xf
 854 022b 83030000 		.4byte	0x383
 855 022f 10       		.uleb128 0x10
 856 0230 89030000 		.4byte	0x389
 857 0234 00       		.byte	0
 858 0235 12       		.uleb128 0x12
 859 0236 A1020000 		.4byte	.LASF42
 860 023a 02       		.byte	0x2
 861 023b 0A01     		.2byte	0x10a
 862 023d 3F030000 		.4byte	.LASF44
 863 0241 01010000 		.4byte	0x101
 864 0245 4D020000 		.4byte	0x24d
 865 0249 58020000 		.4byte	0x258
 866 024d 0F       		.uleb128 0xf
 867 024e 83030000 		.4byte	0x383
 868 0252 10       		.uleb128 0x10
 869 0253 A9000000 		.4byte	0xa9
 870 0257 00       		.byte	0
 871 0258 12       		.uleb128 0x12
 872 0259 6A060000 		.4byte	.LASF43
 873 025d 02       		.byte	0x2
 874 025e 1501     		.2byte	0x115
 875 0260 D4060000 		.4byte	.LASF45
 876 0264 01010000 		.4byte	0x101
 877 0268 70020000 		.4byte	0x270
 878 026c 7B020000 		.4byte	0x27b
 879 0270 0F       		.uleb128 0xf
 880 0271 83030000 		.4byte	0x383
 881 0275 10       		.uleb128 0x10
 882 0276 25000000 		.4byte	0x25
 883 027a 00       		.byte	0
 884 027b 12       		.uleb128 0x12
 885 027c 7F050000 		.4byte	.LASF46
 886 0280 02       		.byte	0x2
 887 0281 2601     		.2byte	0x126
 888 0283 4A020000 		.4byte	.LASF47
 889 0287 01010000 		.4byte	0x101
 890 028b 93020000 		.4byte	0x293
 891 028f A3020000 		.4byte	0x2a3
 892 0293 0F       		.uleb128 0xf
 893 0294 83030000 		.4byte	0x383
 894 0298 10       		.uleb128 0x10
 895 0299 A9000000 		.4byte	0xa9
 896 029d 10       		.uleb128 0x10
 897 029e 25000000 		.4byte	0x25
 898 02a2 00       		.byte	0
 899 02a3 12       		.uleb128 0x12
 900 02a4 C0020000 		.4byte	.LASF48
 901 02a8 02       		.byte	0x2
 902 02a9 3401     		.2byte	0x134
 903 02ab 8E010000 		.4byte	.LASF49
 904 02af 25000000 		.4byte	0x25
ARM GAS  C:\msys64\tmp\ccdqUJ8y.s 			page 17


 905 02b3 BB020000 		.4byte	0x2bb
 906 02b7 C6020000 		.4byte	0x2c6
 907 02bb 0F       		.uleb128 0xf
 908 02bc 83030000 		.4byte	0x383
 909 02c0 10       		.uleb128 0x10
 910 02c1 A9000000 		.4byte	0xa9
 911 02c5 00       		.byte	0
 912 02c6 12       		.uleb128 0x12
 913 02c7 C6020000 		.4byte	.LASF50
 914 02cb 02       		.byte	0x2
 915 02cc 3F01     		.2byte	0x13f
 916 02ce E2000000 		.4byte	.LASF51
 917 02d2 25000000 		.4byte	0x25
 918 02d6 DE020000 		.4byte	0x2de
 919 02da E9020000 		.4byte	0x2e9
 920 02de 0F       		.uleb128 0xf
 921 02df 83030000 		.4byte	0x383
 922 02e3 10       		.uleb128 0x10
 923 02e4 A9000000 		.4byte	0xa9
 924 02e8 00       		.byte	0
 925 02e9 12       		.uleb128 0x12
 926 02ea 41070000 		.4byte	.LASF52
 927 02ee 02       		.byte	0x2
 928 02ef 4A01     		.2byte	0x14a
 929 02f1 27020000 		.4byte	.LASF53
 930 02f5 25000000 		.4byte	0x25
 931 02f9 01030000 		.4byte	0x301
 932 02fd 0C030000 		.4byte	0x30c
 933 0301 0F       		.uleb128 0xf
 934 0302 83030000 		.4byte	0x383
 935 0306 10       		.uleb128 0x10
 936 0307 25000000 		.4byte	0x25
 937 030b 00       		.byte	0
 938 030c 12       		.uleb128 0x12
 939 030d 4F060000 		.4byte	.LASF54
 940 0311 02       		.byte	0x2
 941 0312 5A01     		.2byte	0x15a
 942 0314 E9050000 		.4byte	.LASF55
 943 0318 25000000 		.4byte	0x25
 944 031c 24030000 		.4byte	0x324
 945 0320 34030000 		.4byte	0x334
 946 0324 0F       		.uleb128 0xf
 947 0325 83030000 		.4byte	0x383
 948 0329 10       		.uleb128 0x10
 949 032a A9000000 		.4byte	0xa9
 950 032e 10       		.uleb128 0x10
 951 032f 25000000 		.4byte	0x25
 952 0333 00       		.byte	0
 953 0334 12       		.uleb128 0x12
 954 0335 7A020000 		.4byte	.LASF56
 955 0339 02       		.byte	0x2
 956 033a 6801     		.2byte	0x168
 957 033c 66000000 		.4byte	.LASF57
 958 0340 25000000 		.4byte	0x25
 959 0344 4C030000 		.4byte	0x34c
 960 0348 57030000 		.4byte	0x357
 961 034c 0F       		.uleb128 0xf
ARM GAS  C:\msys64\tmp\ccdqUJ8y.s 			page 18


 962 034d 83030000 		.4byte	0x383
 963 0351 10       		.uleb128 0x10
 964 0352 25000000 		.4byte	0x25
 965 0356 00       		.byte	0
 966 0357 13       		.uleb128 0x13
 967 0358 69010000 		.4byte	.LASF58
 968 035c 02       		.byte	0x2
 969 035d 7801     		.2byte	0x178
 970 035f ED040000 		.4byte	.LASF100
 971 0363 25000000 		.4byte	0x25
 972 0367 6B030000 		.4byte	0x36b
 973 036b 0F       		.uleb128 0xf
 974 036c 83030000 		.4byte	0x383
 975 0370 10       		.uleb128 0x10
 976 0371 A9000000 		.4byte	0xa9
 977 0375 10       		.uleb128 0x10
 978 0376 25000000 		.4byte	0x25
 979 037a 00       		.byte	0
 980 037b 00       		.byte	0
 981 037c 00       		.byte	0
 982 037d 0A       		.uleb128 0xa
 983 037e 04       		.byte	0x4
 984 037f 01010000 		.4byte	0x101
 985 0383 0A       		.uleb128 0xa
 986 0384 04       		.byte	0x4
 987 0385 4E010000 		.4byte	0x14e
 988 0389 14       		.uleb128 0x14
 989 038a 04       		.byte	0x4
 990 038b 8F030000 		.4byte	0x38f
 991 038f 15       		.uleb128 0x15
 992 0390 01010000 		.4byte	0x101
 993 0394 16       		.uleb128 0x16
 994 0395 97010000 		.4byte	0x197
 995 0399 03       		.byte	0x3
 996 039a A2030000 		.4byte	0x3a2
 997 039e AC030000 		.4byte	0x3ac
 998 03a2 17       		.uleb128 0x17
 999 03a3 D8050000 		.4byte	.LASF59
 1000 03a7 AC030000 		.4byte	0x3ac
 1001 03ab 00       		.byte	0
 1002 03ac 15       		.uleb128 0x15
 1003 03ad 83030000 		.4byte	0x383
 1004 03b1 18       		.uleb128 0x18
 1005 03b2 91050000 		.4byte	.LASF101
 1006 03b6 03       		.byte	0x3
 1007 03b7 68       		.byte	0x68
 1008 03b8 03       		.byte	0x3
 1009 03b9 DF030000 		.4byte	0x3df
 1010 03bd 19       		.uleb128 0x19
 1011 03be 70747200 		.ascii	"ptr\000"
 1012 03c2 03       		.byte	0x3
 1013 03c3 68       		.byte	0x68
 1014 03c4 DF030000 		.4byte	0x3df
 1015 03c8 19       		.uleb128 0x19
 1016 03c9 6C656E00 		.ascii	"len\000"
 1017 03cd 03       		.byte	0x3
 1018 03ce 69       		.byte	0x69
ARM GAS  C:\msys64\tmp\ccdqUJ8y.s 			page 19


 1019 03cf E4030000 		.4byte	0x3e4
 1020 03d3 1A       		.uleb128 0x1a
 1021 03d4 656E6400 		.ascii	"end\000"
 1022 03d8 03       		.byte	0x3
 1023 03d9 6B       		.byte	0x6b
 1024 03da E9030000 		.4byte	0x3e9
 1025 03de 00       		.byte	0
 1026 03df 1B       		.uleb128 0x1b
 1027 03e0 3D010000 		.4byte	0x13d
 1028 03e4 15       		.uleb128 0x15
 1029 03e5 A9000000 		.4byte	0xa9
 1030 03e9 0A       		.uleb128 0xa
 1031 03ea 04       		.byte	0x4
 1032 03eb EF030000 		.4byte	0x3ef
 1033 03ef 15       		.uleb128 0x15
 1034 03f0 25000000 		.4byte	0x25
 1035 03f4 1C       		.uleb128 0x1c
 1036 03f5 13050000 		.4byte	.LASF61
 1037 03f9 08       		.byte	0x8
 1038 03fa 75       		.byte	0x75
 1039 03fb A9000000 		.4byte	0xa9
 1040 03ff 03       		.byte	0x3
 1041 0400 0E040000 		.4byte	0x40e
 1042 0404 19       		.uleb128 0x19
 1043 0405 7800     		.ascii	"x\000"
 1044 0407 08       		.byte	0x8
 1045 0408 75       		.byte	0x75
 1046 0409 A9000000 		.4byte	0xa9
 1047 040d 00       		.byte	0
 1048 040e 16       		.uleb128 0x16
 1049 040f DB010000 		.4byte	0x1db
 1050 0413 03       		.byte	0x3
 1051 0414 1C040000 		.4byte	0x41c
 1052 0418 26040000 		.4byte	0x426
 1053 041c 17       		.uleb128 0x17
 1054 041d D8050000 		.4byte	.LASF59
 1055 0421 AC030000 		.4byte	0x3ac
 1056 0425 00       		.byte	0
 1057 0426 16       		.uleb128 0x16
 1058 0427 F4010000 		.4byte	0x1f4
 1059 042b 03       		.byte	0x3
 1060 042c 34040000 		.4byte	0x434
 1061 0430 54040000 		.4byte	0x454
 1062 0434 17       		.uleb128 0x17
 1063 0435 D8050000 		.4byte	.LASF59
 1064 0439 AC030000 		.4byte	0x3ac
 1065 043d 19       		.uleb128 0x19
 1066 043e 72616D00 		.ascii	"ram\000"
 1067 0442 02       		.byte	0x2
 1068 0443 F2       		.byte	0xf2
 1069 0444 7D030000 		.4byte	0x37d
 1070 0448 1D       		.uleb128 0x1d
 1071 0449 5D030000 		.4byte	.LASF60
 1072 044d 02       		.byte	0x2
 1073 044e F2       		.byte	0xf2
 1074 044f B4000000 		.4byte	0xb4
 1075 0453 00       		.byte	0
ARM GAS  C:\msys64\tmp\ccdqUJ8y.s 			page 20


 1076 0454 16       		.uleb128 0x16
 1077 0455 17020000 		.4byte	0x217
 1078 0459 03       		.byte	0x3
 1079 045a 62040000 		.4byte	0x462
 1080 045e 75040000 		.4byte	0x475
 1081 0462 17       		.uleb128 0x17
 1082 0463 D8050000 		.4byte	.LASF59
 1083 0467 AC030000 		.4byte	0x3ac
 1084 046b 19       		.uleb128 0x19
 1085 046c 7000     		.ascii	"p\000"
 1086 046e 02       		.byte	0x2
 1087 046f FF       		.byte	0xff
 1088 0470 75040000 		.4byte	0x475
 1089 0474 00       		.byte	0
 1090 0475 15       		.uleb128 0x15
 1091 0476 89030000 		.4byte	0x389
 1092 047a 1E       		.uleb128 0x1e
 1093 047b 43060000 		.4byte	.LASF62
 1094 047f 07       		.byte	0x7
 1095 0480 F702     		.2byte	0x2f7
 1096 0482 25000000 		.4byte	0x25
 1097 0486 03       		.byte	0x3
 1098 0487 96040000 		.4byte	0x496
 1099 048b 1F       		.uleb128 0x1f
 1100 048c 7800     		.ascii	"x\000"
 1101 048e 07       		.byte	0x7
 1102 048f F702     		.2byte	0x2f7
 1103 0491 25000000 		.4byte	0x25
 1104 0495 00       		.byte	0
 1105 0496 1C       		.uleb128 0x1c
 1106 0497 D8020000 		.4byte	.LASF63
 1107 049b 01       		.byte	0x1
 1108 049c 1E       		.byte	0x1e
 1109 049d 25000000 		.4byte	0x25
 1110 04a1 03       		.byte	0x3
 1111 04a2 B1040000 		.4byte	0x4b1
 1112 04a6 19       		.uleb128 0x19
 1113 04a7 696E00   		.ascii	"in\000"
 1114 04aa 01       		.byte	0x1
 1115 04ab 1E       		.byte	0x1e
 1116 04ac 25000000 		.4byte	0x25
 1117 04b0 00       		.byte	0
 1118 04b1 16       		.uleb128 0x16
 1119 04b2 C6020000 		.4byte	0x2c6
 1120 04b6 03       		.byte	0x3
 1121 04b7 BF040000 		.4byte	0x4bf
 1122 04bb D5040000 		.4byte	0x4d5
 1123 04bf 17       		.uleb128 0x17
 1124 04c0 D8050000 		.4byte	.LASF59
 1125 04c4 AC030000 		.4byte	0x3ac
 1126 04c8 1F       		.uleb128 0x1f
 1127 04c9 706F7300 		.ascii	"pos\000"
 1128 04cd 02       		.byte	0x2
 1129 04ce 3F01     		.2byte	0x13f
 1130 04d0 E4030000 		.4byte	0x3e4
 1131 04d4 00       		.byte	0
 1132 04d5 16       		.uleb128 0x16
ARM GAS  C:\msys64\tmp\ccdqUJ8y.s 			page 21


 1133 04d6 A3020000 		.4byte	0x2a3
 1134 04da 03       		.byte	0x3
 1135 04db E3040000 		.4byte	0x4e3
 1136 04df F9040000 		.4byte	0x4f9
 1137 04e3 17       		.uleb128 0x17
 1138 04e4 D8050000 		.4byte	.LASF59
 1139 04e8 AC030000 		.4byte	0x3ac
 1140 04ec 1F       		.uleb128 0x1f
 1141 04ed 706F7300 		.ascii	"pos\000"
 1142 04f1 02       		.byte	0x2
 1143 04f2 3401     		.2byte	0x134
 1144 04f4 E4030000 		.4byte	0x3e4
 1145 04f8 00       		.byte	0
 1146 04f9 20       		.uleb128 0x20
 1147 04fa A3050000 		.4byte	.LASF102
 1148 04fe 01       		.byte	0x1
 1149 04ff 1A050000 		.4byte	0x51a
 1150 0503 1D       		.uleb128 0x1d
 1151 0504 02030000 		.4byte	.LASF64
 1152 0508 01       		.byte	0x1
 1153 0509 61       		.byte	0x61
 1154 050a 2C000000 		.4byte	0x2c
 1155 050e 1D       		.uleb128 0x1d
 1156 050f CD050000 		.4byte	.LASF65
 1157 0513 01       		.byte	0x1
 1158 0514 61       		.byte	0x61
 1159 0515 2C000000 		.4byte	0x2c
 1160 0519 00       		.byte	0
 1161 051a 21       		.uleb128 0x21
 1162 051b 5A060000 		.4byte	.LASF66
 1163 051f 01       		.byte	0x1
 1164 0520 15       		.byte	0x15
 1165 0521 00000000 		.4byte	.LFB264
 1166 0525 64000000 		.4byte	.LFE264-.LFB264
 1167 0529 01       		.uleb128 0x1
 1168 052a 9C       		.byte	0x9c
 1169 052b D8050000 		.4byte	0x5d8
 1170 052f 22       		.uleb128 0x22
 1171 0530 23060000 		.4byte	.LASF67
 1172 0534 01       		.byte	0x1
 1173 0535 15       		.byte	0x15
 1174 0536 A9000000 		.4byte	0xa9
 1175 053a 00000000 		.4byte	.LLST0
 1176 053e 23       		.uleb128 0x23
 1177 053f 61706900 		.ascii	"api\000"
 1178 0543 01       		.byte	0x1
 1179 0544 15       		.byte	0x15
 1180 0545 A9000000 		.4byte	0xa9
 1181 0549 21000000 		.4byte	.LLST1
 1182 054d 24       		.uleb128 0x24
 1183 054e 26040000 		.4byte	0x426
 1184 0552 00000000 		.4byte	.LBB35
 1185 0556 00000000 		.4byte	.Ldebug_ranges0+0
 1186 055a 01       		.byte	0x1
 1187 055b 17       		.byte	0x17
 1188 055c 7C050000 		.4byte	0x57c
 1189 0560 25       		.uleb128 0x25
ARM GAS  C:\msys64\tmp\ccdqUJ8y.s 			page 22


 1190 0561 48040000 		.4byte	0x448
 1191 0565 42000000 		.4byte	.LLST2
 1192 0569 25       		.uleb128 0x25
 1193 056a 3D040000 		.4byte	0x43d
 1194 056e 5A000000 		.4byte	.LLST3
 1195 0572 25       		.uleb128 0x25
 1196 0573 34040000 		.4byte	0x434
 1197 0577 72000000 		.4byte	.LLST4
 1198 057b 00       		.byte	0
 1199 057c 26       		.uleb128 0x26
 1200 057d 0E040000 		.4byte	0x40e
 1201 0581 1E000000 		.4byte	.LBB39
 1202 0585 18000000 		.4byte	.LBE39-.LBB39
 1203 0589 01       		.byte	0x1
 1204 058a 18       		.byte	0x18
 1205 058b CE050000 		.4byte	0x5ce
 1206 058f 25       		.uleb128 0x25
 1207 0590 1C040000 		.4byte	0x41c
 1208 0594 8A000000 		.4byte	.LLST5
 1209 0598 27       		.uleb128 0x27
 1210 0599 B1030000 		.4byte	0x3b1
 1211 059d 1E000000 		.4byte	.LBB40
 1212 05a1 18000000 		.4byte	.LBE40-.LBB40
 1213 05a5 02       		.byte	0x2
 1214 05a6 E6       		.byte	0xe6
 1215 05a7 25       		.uleb128 0x25
 1216 05a8 C8030000 		.4byte	0x3c8
 1217 05ac A2000000 		.4byte	.LLST6
 1218 05b0 25       		.uleb128 0x25
 1219 05b1 BD030000 		.4byte	0x3bd
 1220 05b5 B8000000 		.4byte	.LLST7
 1221 05b9 28       		.uleb128 0x28
 1222 05ba 1E000000 		.4byte	.LBB41
 1223 05be 18000000 		.4byte	.LBE41-.LBB41
 1224 05c2 29       		.uleb128 0x29
 1225 05c3 D3030000 		.4byte	0x3d3
 1226 05c7 0F010000 		.4byte	.LLST8
 1227 05cb 00       		.byte	0
 1228 05cc 00       		.byte	0
 1229 05cd 00       		.byte	0
 1230 05ce 2A       		.uleb128 0x2a
 1231 05cf 3A000000 		.4byte	.LVL9
 1232 05d3 FE080000 		.4byte	0x8fe
 1233 05d7 00       		.byte	0
 1234 05d8 21       		.uleb128 0x21
 1235 05d9 33070000 		.4byte	.LASF68
 1236 05dd 01       		.byte	0x1
 1237 05de 23       		.byte	0x23
 1238 05df 64000000 		.4byte	.LFB266
 1239 05e3 84010000 		.4byte	.LFE266-.LFB266
 1240 05e7 01       		.uleb128 0x1
 1241 05e8 9C       		.byte	0x9c
 1242 05e9 E8060000 		.4byte	0x6e8
 1243 05ed 23       		.uleb128 0x23
 1244 05ee 786E00   		.ascii	"xn\000"
 1245 05f1 01       		.byte	0x1
 1246 05f2 23       		.byte	0x23
ARM GAS  C:\msys64\tmp\ccdqUJ8y.s 			page 23


 1247 05f3 3D010000 		.4byte	0x13d
 1248 05f7 27010000 		.4byte	.LLST9
 1249 05fb 22       		.uleb128 0x22
 1250 05fc 8F000000 		.4byte	.LASF69
 1251 0600 01       		.byte	0x1
 1252 0601 23       		.byte	0x23
 1253 0602 A9000000 		.4byte	0xa9
 1254 0606 48010000 		.4byte	.LLST10
 1255 060a 2B       		.uleb128 0x2b
 1256 060b 7800     		.ascii	"x\000"
 1257 060d 01       		.byte	0x1
 1258 060e 25       		.byte	0x25
 1259 060f 3D010000 		.4byte	0x13d
 1260 0613 69010000 		.4byte	.LLST11
 1261 0617 2C       		.uleb128 0x2c
 1262 0618 785F6500 		.ascii	"x_e\000"
 1263 061c 01       		.byte	0x1
 1264 061d 26       		.byte	0x26
 1265 061e E9030000 		.4byte	0x3e9
 1266 0622 01       		.uleb128 0x1
 1267 0623 5C       		.byte	0x5c
 1268 0624 2C       		.uleb128 0x2c
 1269 0625 77657400 		.ascii	"wet\000"
 1270 0629 01       		.byte	0x1
 1271 062a 28       		.byte	0x28
 1272 062b EF030000 		.4byte	0x3ef
 1273 062f 02       		.uleb128 0x2
 1274 0630 90       		.byte	0x90
 1275 0631 43       		.uleb128 0x43
 1276 0632 2D       		.uleb128 0x2d
 1277 0633 3E060000 		.4byte	.LASF70
 1278 0637 01       		.byte	0x1
 1279 0638 29       		.byte	0x29
 1280 0639 01010000 		.4byte	0x101
 1281 063d 94010000 		.4byte	.LLST12
 1282 0641 2E       		.uleb128 0x2e
 1283 0642 18000000 		.4byte	.Ldebug_ranges0+0x18
 1284 0646 2D       		.uleb128 0x2d
 1285 0647 EC020000 		.4byte	.LASF71
 1286 064b 01       		.byte	0x1
 1287 064c 2D       		.byte	0x2d
 1288 064d EF030000 		.4byte	0x3ef
 1289 0651 CA010000 		.4byte	.LLST13
 1290 0655 2D       		.uleb128 0x2d
 1291 0656 F7020000 		.4byte	.LASF72
 1292 065a 01       		.byte	0x1
 1293 065b 2E       		.byte	0x2e
 1294 065c EF030000 		.4byte	0x3ef
 1295 0660 06020000 		.4byte	.LLST14
 1296 0664 24       		.uleb128 0x24
 1297 0665 D5040000 		.4byte	0x4d5
 1298 0669 92000000 		.4byte	.LBB44
 1299 066d 50000000 		.4byte	.Ldebug_ranges0+0x50
 1300 0671 01       		.byte	0x1
 1301 0672 2D       		.byte	0x2d
 1302 0673 8A060000 		.4byte	0x68a
 1303 0677 25       		.uleb128 0x25
ARM GAS  C:\msys64\tmp\ccdqUJ8y.s 			page 24


 1304 0678 EC040000 		.4byte	0x4ec
 1305 067c 6E020000 		.4byte	.LLST15
 1306 0680 25       		.uleb128 0x25
 1307 0681 E3040000 		.4byte	0x4e3
 1308 0685 84020000 		.4byte	.LLST16
 1309 0689 00       		.byte	0
 1310 068a 24       		.uleb128 0x24
 1311 068b 96040000 		.4byte	0x496
 1312 068f A0000000 		.4byte	.LBB47
 1313 0693 68000000 		.4byte	.Ldebug_ranges0+0x68
 1314 0697 01       		.byte	0x1
 1315 0698 31       		.byte	0x31
 1316 0699 A7060000 		.4byte	0x6a7
 1317 069d 25       		.uleb128 0x25
 1318 069e A6040000 		.4byte	0x4a6
 1319 06a2 9C020000 		.4byte	.LLST17
 1320 06a6 00       		.byte	0
 1321 06a7 24       		.uleb128 0x24
 1322 06a8 54040000 		.4byte	0x454
 1323 06ac F6000000 		.4byte	.LBB60
 1324 06b0 A0000000 		.4byte	.Ldebug_ranges0+0xa0
 1325 06b4 01       		.byte	0x1
 1326 06b5 35       		.byte	0x35
 1327 06b6 CD060000 		.4byte	0x6cd
 1328 06ba 25       		.uleb128 0x25
 1329 06bb 6B040000 		.4byte	0x46b
 1330 06bf B0020000 		.4byte	.LLST18
 1331 06c3 25       		.uleb128 0x25
 1332 06c4 62040000 		.4byte	0x462
 1333 06c8 C8020000 		.4byte	.LLST19
 1334 06cc 00       		.byte	0
 1335 06cd 27       		.uleb128 0x27
 1336 06ce 96040000 		.4byte	0x496
 1337 06d2 4C010000 		.4byte	.LBB66
 1338 06d6 10000000 		.4byte	.LBE66-.LBB66
 1339 06da 01       		.byte	0x1
 1340 06db 32       		.byte	0x32
 1341 06dc 25       		.uleb128 0x25
 1342 06dd A6040000 		.4byte	0x4a6
 1343 06e1 E0020000 		.4byte	.LLST20
 1344 06e5 00       		.byte	0
 1345 06e6 00       		.byte	0
 1346 06e7 00       		.byte	0
 1347 06e8 21       		.uleb128 0x21
 1348 06e9 A6020000 		.4byte	.LASF73
 1349 06ed 01       		.byte	0x1
 1350 06ee 39       		.byte	0x39
 1351 06ef E8010000 		.4byte	.LFB267
 1352 06f3 98000000 		.4byte	.LFE267-.LFB267
 1353 06f7 01       		.uleb128 0x1
 1354 06f8 9C       		.byte	0x9c
 1355 06f9 34070000 		.4byte	0x734
 1356 06fd 22       		.uleb128 0x22
 1357 06fe C7010000 		.4byte	.LASF74
 1358 0702 01       		.byte	0x1
 1359 0703 39       		.byte	0x39
 1360 0704 93000000 		.4byte	0x93
ARM GAS  C:\msys64\tmp\ccdqUJ8y.s 			page 25


 1361 0708 F4020000 		.4byte	.LLST21
 1362 070c 22       		.uleb128 0x22
 1363 070d 9D050000 		.4byte	.LASF75
 1364 0711 01       		.byte	0x1
 1365 0712 39       		.byte	0x39
 1366 0713 9E000000 		.4byte	0x9e
 1367 0717 15030000 		.4byte	.LLST22
 1368 071b 2D       		.uleb128 0x2d
 1369 071c 3E060000 		.4byte	.LASF70
 1370 0720 01       		.byte	0x1
 1371 0721 3B       		.byte	0x3b
 1372 0722 EF030000 		.4byte	0x3ef
 1373 0726 36030000 		.4byte	.LLST23
 1374 072a 2A       		.uleb128 0x2a
 1375 072b 14020000 		.4byte	.LVL34
 1376 072f FE080000 		.4byte	0x8fe
 1377 0733 00       		.byte	0
 1378 0734 2F       		.uleb128 0x2f
 1379 0735 CD000000 		.4byte	.LASF103
 1380 0739 00000000 		.4byte	.LFB269
 1381 073d 14000000 		.4byte	.LFE269-.LFB269
 1382 0741 01       		.uleb128 0x1
 1383 0742 9C       		.byte	0x9c
 1384 0743 86070000 		.4byte	0x786
 1385 0747 27       		.uleb128 0x27
 1386 0748 F9040000 		.4byte	0x4f9
 1387 074c 00000000 		.4byte	.LBB82
 1388 0750 14000000 		.4byte	.LBE82-.LBB82
 1389 0754 01       		.byte	0x1
 1390 0755 61       		.byte	0x61
 1391 0756 25       		.uleb128 0x25
 1392 0757 03050000 		.4byte	0x503
 1393 075b 64030000 		.4byte	.LLST24
 1394 075f 25       		.uleb128 0x25
 1395 0760 0E050000 		.4byte	0x50e
 1396 0764 78030000 		.4byte	.LLST25
 1397 0768 27       		.uleb128 0x27
 1398 0769 94030000 		.4byte	0x394
 1399 076d 00000000 		.4byte	.LBB83
 1400 0771 14000000 		.4byte	.LBE83-.LBB83
 1401 0775 01       		.byte	0x1
 1402 0776 08       		.byte	0x8
 1403 0777 30       		.uleb128 0x30
 1404 0778 A2030000 		.4byte	0x3a2
 1405 077c 06       		.uleb128 0x6
 1406 077d 03       		.byte	0x3
 1407 077e 00000000 		.4byte	_ZL7s_delay
 1408 0782 9F       		.byte	0x9f
 1409 0783 00       		.byte	0
 1410 0784 00       		.byte	0
 1411 0785 00       		.byte	0
 1412 0786 31       		.uleb128 0x31
 1413 0787 0E010000 		.4byte	.LASF76
 1414 078b 09       		.byte	0x9
 1415 078c 46       		.byte	0x46
 1416 078d E4030000 		.4byte	0x3e4
 1417 0791 31       		.uleb128 0x31
ARM GAS  C:\msys64\tmp\ccdqUJ8y.s 			page 26


 1418 0792 22070000 		.4byte	.LASF77
 1419 0796 09       		.byte	0x9
 1420 0797 4B       		.byte	0x4b
 1421 0798 E4030000 		.4byte	0x3e4
 1422 079c 32       		.uleb128 0x32
 1423 079d EF030000 		.4byte	0x3ef
 1424 07a1 AC070000 		.4byte	0x7ac
 1425 07a5 33       		.uleb128 0x33
 1426 07a6 CB000000 		.4byte	0xcb
 1427 07aa 80       		.byte	0x80
 1428 07ab 00       		.byte	0
 1429 07ac 31       		.uleb128 0x31
 1430 07ad 43050000 		.4byte	.LASF78
 1431 07b1 09       		.byte	0x9
 1432 07b2 82       		.byte	0x82
 1433 07b3 B7070000 		.4byte	0x7b7
 1434 07b7 15       		.uleb128 0x15
 1435 07b8 9C070000 		.4byte	0x79c
 1436 07bc 32       		.uleb128 0x32
 1437 07bd EF030000 		.4byte	0x3ef
 1438 07c1 CD070000 		.4byte	0x7cd
 1439 07c5 34       		.uleb128 0x34
 1440 07c6 CB000000 		.4byte	0xcb
 1441 07ca 0001     		.2byte	0x100
 1442 07cc 00       		.byte	0
 1443 07cd 31       		.uleb128 0x31
 1444 07ce E2020000 		.4byte	.LASF79
 1445 07d2 09       		.byte	0x9
 1446 07d3 C9       		.byte	0xc9
 1447 07d4 D8070000 		.4byte	0x7d8
 1448 07d8 15       		.uleb128 0x15
 1449 07d9 BC070000 		.4byte	0x7bc
 1450 07dd 31       		.uleb128 0x31
 1451 07de DD050000 		.4byte	.LASF80
 1452 07e2 09       		.byte	0x9
 1453 07e3 E0       		.byte	0xe0
 1454 07e4 E8070000 		.4byte	0x7e8
 1455 07e8 15       		.uleb128 0x15
 1456 07e9 BC070000 		.4byte	0x7bc
 1457 07ed 31       		.uleb128 0x31
 1458 07ee F6060000 		.4byte	.LASF81
 1459 07f2 09       		.byte	0x9
 1460 07f3 F8       		.byte	0xf8
 1461 07f4 F8070000 		.4byte	0x7f8
 1462 07f8 15       		.uleb128 0x15
 1463 07f9 BC070000 		.4byte	0x7bc
 1464 07fd 35       		.uleb128 0x35
 1465 07fe 29010000 		.4byte	.LASF82
 1466 0802 09       		.byte	0x9
 1467 0803 0F01     		.2byte	0x10f
 1468 0805 09080000 		.4byte	0x809
 1469 0809 15       		.uleb128 0x15
 1470 080a BC070000 		.4byte	0x7bc
 1471 080e 35       		.uleb128 0x35
 1472 080f 42010000 		.4byte	.LASF83
 1473 0813 09       		.byte	0x9
 1474 0814 3E01     		.2byte	0x13e
ARM GAS  C:\msys64\tmp\ccdqUJ8y.s 			page 27


 1475 0816 1A080000 		.4byte	0x81a
 1476 081a 15       		.uleb128 0x15
 1477 081b 9C070000 		.4byte	0x79c
 1478 081f 35       		.uleb128 0x35
 1479 0820 8A020000 		.4byte	.LASF84
 1480 0824 09       		.byte	0x9
 1481 0825 5301     		.2byte	0x153
 1482 0827 2B080000 		.4byte	0x82b
 1483 082b 15       		.uleb128 0x15
 1484 082c 9C070000 		.4byte	0x79c
 1485 0830 35       		.uleb128 0x35
 1486 0831 5C010000 		.4byte	.LASF85
 1487 0835 09       		.byte	0x9
 1488 0836 7001     		.2byte	0x170
 1489 0838 3C080000 		.4byte	0x83c
 1490 083c 15       		.uleb128 0x15
 1491 083d 9C070000 		.4byte	0x79c
 1492 0841 36       		.uleb128 0x36
 1493 0842 99020000 		.4byte	.LASF86
 1494 0846 01       		.byte	0x1
 1495 0847 08       		.byte	0x8
 1496 0848 4E010000 		.4byte	0x14e
 1497 084c 05       		.uleb128 0x5
 1498 084d 03       		.byte	0x3
 1499 084e 00000000 		.4byte	_ZL7s_delay
 1500 0852 32       		.uleb128 0x32
 1501 0853 01010000 		.4byte	0x101
 1502 0857 65080000 		.4byte	0x865
 1503 085b 37       		.uleb128 0x37
 1504 085c CB000000 		.4byte	0xcb
 1505 0860 4F340300 		.4byte	0x3344f
 1506 0864 00       		.byte	0
 1507 0865 36       		.uleb128 0x36
 1508 0866 64050000 		.4byte	.LASF87
 1509 086a 01       		.byte	0x1
 1510 086b 09       		.byte	0x9
 1511 086c 52080000 		.4byte	0x852
 1512 0870 05       		.uleb128 0x5
 1513 0871 03       		.byte	0x3
 1514 0872 00000000 		.4byte	_ZL11s_delay_ram
 1515 0876 38       		.uleb128 0x38
 1516 0877 D2020000 		.4byte	.LASF88
 1517 087b 01       		.byte	0x1
 1518 087c 0B       		.byte	0xb
 1519 087d A9000000 		.4byte	0xa9
 1520 0881 05       		.uleb128 0x5
 1521 0882 03       		.byte	0x3
 1522 0883 00000000 		.4byte	s_len
 1523 0887 36       		.uleb128 0x36
 1524 0888 CC020000 		.4byte	.LASF89
 1525 088c 01       		.byte	0x1
 1526 088d 0C       		.byte	0xc
 1527 088e 25000000 		.4byte	0x25
 1528 0892 05       		.uleb128 0x5
 1529 0893 03       		.byte	0x3
 1530 0894 20000000 		.4byte	_ZL5s_mix
 1531 0898 36       		.uleb128 0x36
ARM GAS  C:\msys64\tmp\ccdqUJ8y.s 			page 28


 1532 0899 65060000 		.4byte	.LASF90
 1533 089d 01       		.byte	0x1
 1534 089e 0D       		.byte	0xd
 1535 089f 25000000 		.4byte	0x25
 1536 08a3 05       		.uleb128 0x5
 1537 08a4 03       		.byte	0x3
 1538 08a5 24000000 		.4byte	_ZL4gain
 1539 08a9 38       		.uleb128 0x38
 1540 08aa 1B070000 		.4byte	.LASF91
 1541 08ae 01       		.byte	0x1
 1542 08af 0E       		.byte	0xe
 1543 08b0 25000000 		.4byte	0x25
 1544 08b4 05       		.uleb128 0x5
 1545 08b5 03       		.byte	0x3
 1546 08b6 00000000 		.4byte	wetXNL
 1547 08ba 38       		.uleb128 0x38
 1548 08bb 4B070000 		.4byte	.LASF92
 1549 08bf 01       		.byte	0x1
 1550 08c0 0E       		.byte	0xe
 1551 08c1 25000000 		.4byte	0x25
 1552 08c5 05       		.uleb128 0x5
 1553 08c6 03       		.byte	0x3
 1554 08c7 00000000 		.4byte	wetXNR
 1555 08cb 38       		.uleb128 0x38
 1556 08cc D3010000 		.4byte	.LASF93
 1557 08d0 01       		.byte	0x1
 1558 08d1 0F       		.byte	0xf
 1559 08d2 25000000 		.4byte	0x25
 1560 08d6 05       		.uleb128 0x5
 1561 08d7 03       		.byte	0x3
 1562 08d8 00000000 		.4byte	autopanvalL
 1563 08dc 38       		.uleb128 0x38
 1564 08dd 1B020000 		.4byte	.LASF94
 1565 08e1 01       		.byte	0x1
 1566 08e2 0F       		.byte	0xf
 1567 08e3 25000000 		.4byte	0x25
 1568 08e7 05       		.uleb128 0x5
 1569 08e8 03       		.byte	0x3
 1570 08e9 00000000 		.4byte	autopanvalR
 1571 08ed 39       		.uleb128 0x39
 1572 08ee 62706D00 		.ascii	"bpm\000"
 1573 08f2 01       		.byte	0x1
 1574 08f3 10       		.byte	0x10
 1575 08f4 2C000000 		.4byte	0x2c
 1576 08f8 05       		.uleb128 0x5
 1577 08f9 03       		.byte	0x3
 1578 08fa 00000000 		.4byte	bpm
 1579 08fe 3A       		.uleb128 0x3a
 1580 08ff C8060000 		.4byte	.LASF104
 1581 0903 C8060000 		.4byte	.LASF104
 1582 0907 09       		.byte	0x9
 1583 0908 5D       		.byte	0x5d
 1584 0909 00       		.byte	0
 1585              		.section	.debug_abbrev,"",%progbits
 1586              	.Ldebug_abbrev0:
 1587 0000 01       		.uleb128 0x1
 1588 0001 11       		.uleb128 0x11
ARM GAS  C:\msys64\tmp\ccdqUJ8y.s 			page 29


 1589 0002 01       		.byte	0x1
 1590 0003 25       		.uleb128 0x25
 1591 0004 0E       		.uleb128 0xe
 1592 0005 13       		.uleb128 0x13
 1593 0006 0B       		.uleb128 0xb
 1594 0007 03       		.uleb128 0x3
 1595 0008 0E       		.uleb128 0xe
 1596 0009 1B       		.uleb128 0x1b
 1597 000a 0E       		.uleb128 0xe
 1598 000b 55       		.uleb128 0x55
 1599 000c 17       		.uleb128 0x17
 1600 000d 11       		.uleb128 0x11
 1601 000e 01       		.uleb128 0x1
 1602 000f 10       		.uleb128 0x10
 1603 0010 17       		.uleb128 0x17
 1604 0011 00       		.byte	0
 1605 0012 00       		.byte	0
 1606 0013 02       		.uleb128 0x2
 1607 0014 24       		.uleb128 0x24
 1608 0015 00       		.byte	0
 1609 0016 0B       		.uleb128 0xb
 1610 0017 0B       		.uleb128 0xb
 1611 0018 3E       		.uleb128 0x3e
 1612 0019 0B       		.uleb128 0xb
 1613 001a 03       		.uleb128 0x3
 1614 001b 0E       		.uleb128 0xe
 1615 001c 00       		.byte	0
 1616 001d 00       		.byte	0
 1617 001e 03       		.uleb128 0x3
 1618 001f 24       		.uleb128 0x24
 1619 0020 00       		.byte	0
 1620 0021 0B       		.uleb128 0xb
 1621 0022 0B       		.uleb128 0xb
 1622 0023 3E       		.uleb128 0x3e
 1623 0024 0B       		.uleb128 0xb
 1624 0025 03       		.uleb128 0x3
 1625 0026 08       		.uleb128 0x8
 1626 0027 00       		.byte	0
 1627 0028 00       		.byte	0
 1628 0029 04       		.uleb128 0x4
 1629 002a 16       		.uleb128 0x16
 1630 002b 00       		.byte	0
 1631 002c 03       		.uleb128 0x3
 1632 002d 0E       		.uleb128 0xe
 1633 002e 3A       		.uleb128 0x3a
 1634 002f 0B       		.uleb128 0xb
 1635 0030 3B       		.uleb128 0x3b
 1636 0031 0B       		.uleb128 0xb
 1637 0032 49       		.uleb128 0x49
 1638 0033 13       		.uleb128 0x13
 1639 0034 00       		.byte	0
 1640 0035 00       		.byte	0
 1641 0036 05       		.uleb128 0x5
 1642 0037 3B       		.uleb128 0x3b
 1643 0038 00       		.byte	0
 1644 0039 03       		.uleb128 0x3
 1645 003a 0E       		.uleb128 0xe
ARM GAS  C:\msys64\tmp\ccdqUJ8y.s 			page 30


 1646 003b 00       		.byte	0
 1647 003c 00       		.byte	0
 1648 003d 06       		.uleb128 0x6
 1649 003e 13       		.uleb128 0x13
 1650 003f 01       		.byte	0x1
 1651 0040 0B       		.uleb128 0xb
 1652 0041 0B       		.uleb128 0xb
 1653 0042 3A       		.uleb128 0x3a
 1654 0043 0B       		.uleb128 0xb
 1655 0044 3B       		.uleb128 0x3b
 1656 0045 0B       		.uleb128 0xb
 1657 0046 6E       		.uleb128 0x6e
 1658 0047 0E       		.uleb128 0xe
 1659 0048 01       		.uleb128 0x1
 1660 0049 13       		.uleb128 0x13
 1661 004a 00       		.byte	0
 1662 004b 00       		.byte	0
 1663 004c 07       		.uleb128 0x7
 1664 004d 0D       		.uleb128 0xd
 1665 004e 00       		.byte	0
 1666 004f 03       		.uleb128 0x3
 1667 0050 08       		.uleb128 0x8
 1668 0051 3A       		.uleb128 0x3a
 1669 0052 0B       		.uleb128 0xb
 1670 0053 3B       		.uleb128 0x3b
 1671 0054 0B       		.uleb128 0xb
 1672 0055 49       		.uleb128 0x49
 1673 0056 13       		.uleb128 0x13
 1674 0057 38       		.uleb128 0x38
 1675 0058 0B       		.uleb128 0xb
 1676 0059 00       		.byte	0
 1677 005a 00       		.byte	0
 1678 005b 08       		.uleb128 0x8
 1679 005c 04       		.uleb128 0x4
 1680 005d 01       		.byte	0x1
 1681 005e 0B       		.uleb128 0xb
 1682 005f 0B       		.uleb128 0xb
 1683 0060 49       		.uleb128 0x49
 1684 0061 13       		.uleb128 0x13
 1685 0062 3A       		.uleb128 0x3a
 1686 0063 0B       		.uleb128 0xb
 1687 0064 3B       		.uleb128 0x3b
 1688 0065 0B       		.uleb128 0xb
 1689 0066 01       		.uleb128 0x1
 1690 0067 13       		.uleb128 0x13
 1691 0068 00       		.byte	0
 1692 0069 00       		.byte	0
 1693 006a 09       		.uleb128 0x9
 1694 006b 28       		.uleb128 0x28
 1695 006c 00       		.byte	0
 1696 006d 03       		.uleb128 0x3
 1697 006e 0E       		.uleb128 0xe
 1698 006f 1C       		.uleb128 0x1c
 1699 0070 0B       		.uleb128 0xb
 1700 0071 00       		.byte	0
 1701 0072 00       		.byte	0
 1702 0073 0A       		.uleb128 0xa
ARM GAS  C:\msys64\tmp\ccdqUJ8y.s 			page 31


 1703 0074 0F       		.uleb128 0xf
 1704 0075 00       		.byte	0
 1705 0076 0B       		.uleb128 0xb
 1706 0077 0B       		.uleb128 0xb
 1707 0078 49       		.uleb128 0x49
 1708 0079 13       		.uleb128 0x13
 1709 007a 00       		.byte	0
 1710 007b 00       		.byte	0
 1711 007c 0B       		.uleb128 0xb
 1712 007d 39       		.uleb128 0x39
 1713 007e 01       		.byte	0x1
 1714 007f 03       		.uleb128 0x3
 1715 0080 08       		.uleb128 0x8
 1716 0081 3A       		.uleb128 0x3a
 1717 0082 0B       		.uleb128 0xb
 1718 0083 3B       		.uleb128 0x3b
 1719 0084 0B       		.uleb128 0xb
 1720 0085 01       		.uleb128 0x1
 1721 0086 13       		.uleb128 0x13
 1722 0087 00       		.byte	0
 1723 0088 00       		.byte	0
 1724 0089 0C       		.uleb128 0xc
 1725 008a 13       		.uleb128 0x13
 1726 008b 01       		.byte	0x1
 1727 008c 03       		.uleb128 0x3
 1728 008d 0E       		.uleb128 0xe
 1729 008e 0B       		.uleb128 0xb
 1730 008f 0B       		.uleb128 0xb
 1731 0090 3A       		.uleb128 0x3a
 1732 0091 0B       		.uleb128 0xb
 1733 0092 3B       		.uleb128 0x3b
 1734 0093 0B       		.uleb128 0xb
 1735 0094 00       		.byte	0
 1736 0095 00       		.byte	0
 1737 0096 0D       		.uleb128 0xd
 1738 0097 0D       		.uleb128 0xd
 1739 0098 00       		.byte	0
 1740 0099 03       		.uleb128 0x3
 1741 009a 0E       		.uleb128 0xe
 1742 009b 3A       		.uleb128 0x3a
 1743 009c 0B       		.uleb128 0xb
 1744 009d 3B       		.uleb128 0x3b
 1745 009e 05       		.uleb128 0x5
 1746 009f 49       		.uleb128 0x49
 1747 00a0 13       		.uleb128 0x13
 1748 00a1 38       		.uleb128 0x38
 1749 00a2 0B       		.uleb128 0xb
 1750 00a3 00       		.byte	0
 1751 00a4 00       		.byte	0
 1752 00a5 0E       		.uleb128 0xe
 1753 00a6 2E       		.uleb128 0x2e
 1754 00a7 01       		.byte	0x1
 1755 00a8 3F       		.uleb128 0x3f
 1756 00a9 19       		.uleb128 0x19
 1757 00aa 03       		.uleb128 0x3
 1758 00ab 0E       		.uleb128 0xe
 1759 00ac 3A       		.uleb128 0x3a
ARM GAS  C:\msys64\tmp\ccdqUJ8y.s 			page 32


 1760 00ad 0B       		.uleb128 0xb
 1761 00ae 3B       		.uleb128 0x3b
 1762 00af 0B       		.uleb128 0xb
 1763 00b0 6E       		.uleb128 0x6e
 1764 00b1 0E       		.uleb128 0xe
 1765 00b2 49       		.uleb128 0x49
 1766 00b3 13       		.uleb128 0x13
 1767 00b4 3C       		.uleb128 0x3c
 1768 00b5 19       		.uleb128 0x19
 1769 00b6 64       		.uleb128 0x64
 1770 00b7 13       		.uleb128 0x13
 1771 00b8 01       		.uleb128 0x1
 1772 00b9 13       		.uleb128 0x13
 1773 00ba 00       		.byte	0
 1774 00bb 00       		.byte	0
 1775 00bc 0F       		.uleb128 0xf
 1776 00bd 05       		.uleb128 0x5
 1777 00be 00       		.byte	0
 1778 00bf 49       		.uleb128 0x49
 1779 00c0 13       		.uleb128 0x13
 1780 00c1 34       		.uleb128 0x34
 1781 00c2 19       		.uleb128 0x19
 1782 00c3 00       		.byte	0
 1783 00c4 00       		.byte	0
 1784 00c5 10       		.uleb128 0x10
 1785 00c6 05       		.uleb128 0x5
 1786 00c7 00       		.byte	0
 1787 00c8 49       		.uleb128 0x49
 1788 00c9 13       		.uleb128 0x13
 1789 00ca 00       		.byte	0
 1790 00cb 00       		.byte	0
 1791 00cc 11       		.uleb128 0x11
 1792 00cd 2E       		.uleb128 0x2e
 1793 00ce 01       		.byte	0x1
 1794 00cf 3F       		.uleb128 0x3f
 1795 00d0 19       		.uleb128 0x19
 1796 00d1 03       		.uleb128 0x3
 1797 00d2 0E       		.uleb128 0xe
 1798 00d3 3A       		.uleb128 0x3a
 1799 00d4 0B       		.uleb128 0xb
 1800 00d5 3B       		.uleb128 0x3b
 1801 00d6 0B       		.uleb128 0xb
 1802 00d7 6E       		.uleb128 0x6e
 1803 00d8 0E       		.uleb128 0xe
 1804 00d9 3C       		.uleb128 0x3c
 1805 00da 19       		.uleb128 0x19
 1806 00db 64       		.uleb128 0x64
 1807 00dc 13       		.uleb128 0x13
 1808 00dd 01       		.uleb128 0x1
 1809 00de 13       		.uleb128 0x13
 1810 00df 00       		.byte	0
 1811 00e0 00       		.byte	0
 1812 00e1 12       		.uleb128 0x12
 1813 00e2 2E       		.uleb128 0x2e
 1814 00e3 01       		.byte	0x1
 1815 00e4 3F       		.uleb128 0x3f
 1816 00e5 19       		.uleb128 0x19
ARM GAS  C:\msys64\tmp\ccdqUJ8y.s 			page 33


 1817 00e6 03       		.uleb128 0x3
 1818 00e7 0E       		.uleb128 0xe
 1819 00e8 3A       		.uleb128 0x3a
 1820 00e9 0B       		.uleb128 0xb
 1821 00ea 3B       		.uleb128 0x3b
 1822 00eb 05       		.uleb128 0x5
 1823 00ec 6E       		.uleb128 0x6e
 1824 00ed 0E       		.uleb128 0xe
 1825 00ee 49       		.uleb128 0x49
 1826 00ef 13       		.uleb128 0x13
 1827 00f0 3C       		.uleb128 0x3c
 1828 00f1 19       		.uleb128 0x19
 1829 00f2 64       		.uleb128 0x64
 1830 00f3 13       		.uleb128 0x13
 1831 00f4 01       		.uleb128 0x1
 1832 00f5 13       		.uleb128 0x13
 1833 00f6 00       		.byte	0
 1834 00f7 00       		.byte	0
 1835 00f8 13       		.uleb128 0x13
 1836 00f9 2E       		.uleb128 0x2e
 1837 00fa 01       		.byte	0x1
 1838 00fb 3F       		.uleb128 0x3f
 1839 00fc 19       		.uleb128 0x19
 1840 00fd 03       		.uleb128 0x3
 1841 00fe 0E       		.uleb128 0xe
 1842 00ff 3A       		.uleb128 0x3a
 1843 0100 0B       		.uleb128 0xb
 1844 0101 3B       		.uleb128 0x3b
 1845 0102 05       		.uleb128 0x5
 1846 0103 6E       		.uleb128 0x6e
 1847 0104 0E       		.uleb128 0xe
 1848 0105 49       		.uleb128 0x49
 1849 0106 13       		.uleb128 0x13
 1850 0107 3C       		.uleb128 0x3c
 1851 0108 19       		.uleb128 0x19
 1852 0109 64       		.uleb128 0x64
 1853 010a 13       		.uleb128 0x13
 1854 010b 00       		.byte	0
 1855 010c 00       		.byte	0
 1856 010d 14       		.uleb128 0x14
 1857 010e 10       		.uleb128 0x10
 1858 010f 00       		.byte	0
 1859 0110 0B       		.uleb128 0xb
 1860 0111 0B       		.uleb128 0xb
 1861 0112 49       		.uleb128 0x49
 1862 0113 13       		.uleb128 0x13
 1863 0114 00       		.byte	0
 1864 0115 00       		.byte	0
 1865 0116 15       		.uleb128 0x15
 1866 0117 26       		.uleb128 0x26
 1867 0118 00       		.byte	0
 1868 0119 49       		.uleb128 0x49
 1869 011a 13       		.uleb128 0x13
 1870 011b 00       		.byte	0
 1871 011c 00       		.byte	0
 1872 011d 16       		.uleb128 0x16
 1873 011e 2E       		.uleb128 0x2e
ARM GAS  C:\msys64\tmp\ccdqUJ8y.s 			page 34


 1874 011f 01       		.byte	0x1
 1875 0120 47       		.uleb128 0x47
 1876 0121 13       		.uleb128 0x13
 1877 0122 20       		.uleb128 0x20
 1878 0123 0B       		.uleb128 0xb
 1879 0124 64       		.uleb128 0x64
 1880 0125 13       		.uleb128 0x13
 1881 0126 01       		.uleb128 0x1
 1882 0127 13       		.uleb128 0x13
 1883 0128 00       		.byte	0
 1884 0129 00       		.byte	0
 1885 012a 17       		.uleb128 0x17
 1886 012b 05       		.uleb128 0x5
 1887 012c 00       		.byte	0
 1888 012d 03       		.uleb128 0x3
 1889 012e 0E       		.uleb128 0xe
 1890 012f 49       		.uleb128 0x49
 1891 0130 13       		.uleb128 0x13
 1892 0131 34       		.uleb128 0x34
 1893 0132 19       		.uleb128 0x19
 1894 0133 00       		.byte	0
 1895 0134 00       		.byte	0
 1896 0135 18       		.uleb128 0x18
 1897 0136 2E       		.uleb128 0x2e
 1898 0137 01       		.byte	0x1
 1899 0138 03       		.uleb128 0x3
 1900 0139 0E       		.uleb128 0xe
 1901 013a 3A       		.uleb128 0x3a
 1902 013b 0B       		.uleb128 0xb
 1903 013c 3B       		.uleb128 0x3b
 1904 013d 0B       		.uleb128 0xb
 1905 013e 20       		.uleb128 0x20
 1906 013f 0B       		.uleb128 0xb
 1907 0140 01       		.uleb128 0x1
 1908 0141 13       		.uleb128 0x13
 1909 0142 00       		.byte	0
 1910 0143 00       		.byte	0
 1911 0144 19       		.uleb128 0x19
 1912 0145 05       		.uleb128 0x5
 1913 0146 00       		.byte	0
 1914 0147 03       		.uleb128 0x3
 1915 0148 08       		.uleb128 0x8
 1916 0149 3A       		.uleb128 0x3a
 1917 014a 0B       		.uleb128 0xb
 1918 014b 3B       		.uleb128 0x3b
 1919 014c 0B       		.uleb128 0xb
 1920 014d 49       		.uleb128 0x49
 1921 014e 13       		.uleb128 0x13
 1922 014f 00       		.byte	0
 1923 0150 00       		.byte	0
 1924 0151 1A       		.uleb128 0x1a
 1925 0152 34       		.uleb128 0x34
 1926 0153 00       		.byte	0
 1927 0154 03       		.uleb128 0x3
 1928 0155 08       		.uleb128 0x8
 1929 0156 3A       		.uleb128 0x3a
 1930 0157 0B       		.uleb128 0xb
ARM GAS  C:\msys64\tmp\ccdqUJ8y.s 			page 35


 1931 0158 3B       		.uleb128 0x3b
 1932 0159 0B       		.uleb128 0xb
 1933 015a 49       		.uleb128 0x49
 1934 015b 13       		.uleb128 0x13
 1935 015c 00       		.byte	0
 1936 015d 00       		.byte	0
 1937 015e 1B       		.uleb128 0x1b
 1938 015f 37       		.uleb128 0x37
 1939 0160 00       		.byte	0
 1940 0161 49       		.uleb128 0x49
 1941 0162 13       		.uleb128 0x13
 1942 0163 00       		.byte	0
 1943 0164 00       		.byte	0
 1944 0165 1C       		.uleb128 0x1c
 1945 0166 2E       		.uleb128 0x2e
 1946 0167 01       		.byte	0x1
 1947 0168 03       		.uleb128 0x3
 1948 0169 0E       		.uleb128 0xe
 1949 016a 3A       		.uleb128 0x3a
 1950 016b 0B       		.uleb128 0xb
 1951 016c 3B       		.uleb128 0x3b
 1952 016d 0B       		.uleb128 0xb
 1953 016e 49       		.uleb128 0x49
 1954 016f 13       		.uleb128 0x13
 1955 0170 20       		.uleb128 0x20
 1956 0171 0B       		.uleb128 0xb
 1957 0172 01       		.uleb128 0x1
 1958 0173 13       		.uleb128 0x13
 1959 0174 00       		.byte	0
 1960 0175 00       		.byte	0
 1961 0176 1D       		.uleb128 0x1d
 1962 0177 05       		.uleb128 0x5
 1963 0178 00       		.byte	0
 1964 0179 03       		.uleb128 0x3
 1965 017a 0E       		.uleb128 0xe
 1966 017b 3A       		.uleb128 0x3a
 1967 017c 0B       		.uleb128 0xb
 1968 017d 3B       		.uleb128 0x3b
 1969 017e 0B       		.uleb128 0xb
 1970 017f 49       		.uleb128 0x49
 1971 0180 13       		.uleb128 0x13
 1972 0181 00       		.byte	0
 1973 0182 00       		.byte	0
 1974 0183 1E       		.uleb128 0x1e
 1975 0184 2E       		.uleb128 0x2e
 1976 0185 01       		.byte	0x1
 1977 0186 03       		.uleb128 0x3
 1978 0187 0E       		.uleb128 0xe
 1979 0188 3A       		.uleb128 0x3a
 1980 0189 0B       		.uleb128 0xb
 1981 018a 3B       		.uleb128 0x3b
 1982 018b 05       		.uleb128 0x5
 1983 018c 49       		.uleb128 0x49
 1984 018d 13       		.uleb128 0x13
 1985 018e 20       		.uleb128 0x20
 1986 018f 0B       		.uleb128 0xb
 1987 0190 01       		.uleb128 0x1
ARM GAS  C:\msys64\tmp\ccdqUJ8y.s 			page 36


 1988 0191 13       		.uleb128 0x13
 1989 0192 00       		.byte	0
 1990 0193 00       		.byte	0
 1991 0194 1F       		.uleb128 0x1f
 1992 0195 05       		.uleb128 0x5
 1993 0196 00       		.byte	0
 1994 0197 03       		.uleb128 0x3
 1995 0198 08       		.uleb128 0x8
 1996 0199 3A       		.uleb128 0x3a
 1997 019a 0B       		.uleb128 0xb
 1998 019b 3B       		.uleb128 0x3b
 1999 019c 05       		.uleb128 0x5
 2000 019d 49       		.uleb128 0x49
 2001 019e 13       		.uleb128 0x13
 2002 019f 00       		.byte	0
 2003 01a0 00       		.byte	0
 2004 01a1 20       		.uleb128 0x20
 2005 01a2 2E       		.uleb128 0x2e
 2006 01a3 01       		.byte	0x1
 2007 01a4 03       		.uleb128 0x3
 2008 01a5 0E       		.uleb128 0xe
 2009 01a6 34       		.uleb128 0x34
 2010 01a7 19       		.uleb128 0x19
 2011 01a8 20       		.uleb128 0x20
 2012 01a9 0B       		.uleb128 0xb
 2013 01aa 01       		.uleb128 0x1
 2014 01ab 13       		.uleb128 0x13
 2015 01ac 00       		.byte	0
 2016 01ad 00       		.byte	0
 2017 01ae 21       		.uleb128 0x21
 2018 01af 2E       		.uleb128 0x2e
 2019 01b0 01       		.byte	0x1
 2020 01b1 3F       		.uleb128 0x3f
 2021 01b2 19       		.uleb128 0x19
 2022 01b3 03       		.uleb128 0x3
 2023 01b4 0E       		.uleb128 0xe
 2024 01b5 3A       		.uleb128 0x3a
 2025 01b6 0B       		.uleb128 0xb
 2026 01b7 3B       		.uleb128 0x3b
 2027 01b8 0B       		.uleb128 0xb
 2028 01b9 11       		.uleb128 0x11
 2029 01ba 01       		.uleb128 0x1
 2030 01bb 12       		.uleb128 0x12
 2031 01bc 06       		.uleb128 0x6
 2032 01bd 40       		.uleb128 0x40
 2033 01be 18       		.uleb128 0x18
 2034 01bf 9742     		.uleb128 0x2117
 2035 01c1 19       		.uleb128 0x19
 2036 01c2 01       		.uleb128 0x1
 2037 01c3 13       		.uleb128 0x13
 2038 01c4 00       		.byte	0
 2039 01c5 00       		.byte	0
 2040 01c6 22       		.uleb128 0x22
 2041 01c7 05       		.uleb128 0x5
 2042 01c8 00       		.byte	0
 2043 01c9 03       		.uleb128 0x3
 2044 01ca 0E       		.uleb128 0xe
ARM GAS  C:\msys64\tmp\ccdqUJ8y.s 			page 37


 2045 01cb 3A       		.uleb128 0x3a
 2046 01cc 0B       		.uleb128 0xb
 2047 01cd 3B       		.uleb128 0x3b
 2048 01ce 0B       		.uleb128 0xb
 2049 01cf 49       		.uleb128 0x49
 2050 01d0 13       		.uleb128 0x13
 2051 01d1 02       		.uleb128 0x2
 2052 01d2 17       		.uleb128 0x17
 2053 01d3 00       		.byte	0
 2054 01d4 00       		.byte	0
 2055 01d5 23       		.uleb128 0x23
 2056 01d6 05       		.uleb128 0x5
 2057 01d7 00       		.byte	0
 2058 01d8 03       		.uleb128 0x3
 2059 01d9 08       		.uleb128 0x8
 2060 01da 3A       		.uleb128 0x3a
 2061 01db 0B       		.uleb128 0xb
 2062 01dc 3B       		.uleb128 0x3b
 2063 01dd 0B       		.uleb128 0xb
 2064 01de 49       		.uleb128 0x49
 2065 01df 13       		.uleb128 0x13
 2066 01e0 02       		.uleb128 0x2
 2067 01e1 17       		.uleb128 0x17
 2068 01e2 00       		.byte	0
 2069 01e3 00       		.byte	0
 2070 01e4 24       		.uleb128 0x24
 2071 01e5 1D       		.uleb128 0x1d
 2072 01e6 01       		.byte	0x1
 2073 01e7 31       		.uleb128 0x31
 2074 01e8 13       		.uleb128 0x13
 2075 01e9 52       		.uleb128 0x52
 2076 01ea 01       		.uleb128 0x1
 2077 01eb 55       		.uleb128 0x55
 2078 01ec 17       		.uleb128 0x17
 2079 01ed 58       		.uleb128 0x58
 2080 01ee 0B       		.uleb128 0xb
 2081 01ef 59       		.uleb128 0x59
 2082 01f0 0B       		.uleb128 0xb
 2083 01f1 01       		.uleb128 0x1
 2084 01f2 13       		.uleb128 0x13
 2085 01f3 00       		.byte	0
 2086 01f4 00       		.byte	0
 2087 01f5 25       		.uleb128 0x25
 2088 01f6 05       		.uleb128 0x5
 2089 01f7 00       		.byte	0
 2090 01f8 31       		.uleb128 0x31
 2091 01f9 13       		.uleb128 0x13
 2092 01fa 02       		.uleb128 0x2
 2093 01fb 17       		.uleb128 0x17
 2094 01fc 00       		.byte	0
 2095 01fd 00       		.byte	0
 2096 01fe 26       		.uleb128 0x26
 2097 01ff 1D       		.uleb128 0x1d
 2098 0200 01       		.byte	0x1
 2099 0201 31       		.uleb128 0x31
 2100 0202 13       		.uleb128 0x13
 2101 0203 11       		.uleb128 0x11
ARM GAS  C:\msys64\tmp\ccdqUJ8y.s 			page 38


 2102 0204 01       		.uleb128 0x1
 2103 0205 12       		.uleb128 0x12
 2104 0206 06       		.uleb128 0x6
 2105 0207 58       		.uleb128 0x58
 2106 0208 0B       		.uleb128 0xb
 2107 0209 59       		.uleb128 0x59
 2108 020a 0B       		.uleb128 0xb
 2109 020b 01       		.uleb128 0x1
 2110 020c 13       		.uleb128 0x13
 2111 020d 00       		.byte	0
 2112 020e 00       		.byte	0
 2113 020f 27       		.uleb128 0x27
 2114 0210 1D       		.uleb128 0x1d
 2115 0211 01       		.byte	0x1
 2116 0212 31       		.uleb128 0x31
 2117 0213 13       		.uleb128 0x13
 2118 0214 11       		.uleb128 0x11
 2119 0215 01       		.uleb128 0x1
 2120 0216 12       		.uleb128 0x12
 2121 0217 06       		.uleb128 0x6
 2122 0218 58       		.uleb128 0x58
 2123 0219 0B       		.uleb128 0xb
 2124 021a 59       		.uleb128 0x59
 2125 021b 0B       		.uleb128 0xb
 2126 021c 00       		.byte	0
 2127 021d 00       		.byte	0
 2128 021e 28       		.uleb128 0x28
 2129 021f 0B       		.uleb128 0xb
 2130 0220 01       		.byte	0x1
 2131 0221 11       		.uleb128 0x11
 2132 0222 01       		.uleb128 0x1
 2133 0223 12       		.uleb128 0x12
 2134 0224 06       		.uleb128 0x6
 2135 0225 00       		.byte	0
 2136 0226 00       		.byte	0
 2137 0227 29       		.uleb128 0x29
 2138 0228 34       		.uleb128 0x34
 2139 0229 00       		.byte	0
 2140 022a 31       		.uleb128 0x31
 2141 022b 13       		.uleb128 0x13
 2142 022c 02       		.uleb128 0x2
 2143 022d 17       		.uleb128 0x17
 2144 022e 00       		.byte	0
 2145 022f 00       		.byte	0
 2146 0230 2A       		.uleb128 0x2a
 2147 0231 898201   		.uleb128 0x4109
 2148 0234 00       		.byte	0
 2149 0235 11       		.uleb128 0x11
 2150 0236 01       		.uleb128 0x1
 2151 0237 31       		.uleb128 0x31
 2152 0238 13       		.uleb128 0x13
 2153 0239 00       		.byte	0
 2154 023a 00       		.byte	0
 2155 023b 2B       		.uleb128 0x2b
 2156 023c 34       		.uleb128 0x34
 2157 023d 00       		.byte	0
 2158 023e 03       		.uleb128 0x3
ARM GAS  C:\msys64\tmp\ccdqUJ8y.s 			page 39


 2159 023f 08       		.uleb128 0x8
 2160 0240 3A       		.uleb128 0x3a
 2161 0241 0B       		.uleb128 0xb
 2162 0242 3B       		.uleb128 0x3b
 2163 0243 0B       		.uleb128 0xb
 2164 0244 49       		.uleb128 0x49
 2165 0245 13       		.uleb128 0x13
 2166 0246 02       		.uleb128 0x2
 2167 0247 17       		.uleb128 0x17
 2168 0248 00       		.byte	0
 2169 0249 00       		.byte	0
 2170 024a 2C       		.uleb128 0x2c
 2171 024b 34       		.uleb128 0x34
 2172 024c 00       		.byte	0
 2173 024d 03       		.uleb128 0x3
 2174 024e 08       		.uleb128 0x8
 2175 024f 3A       		.uleb128 0x3a
 2176 0250 0B       		.uleb128 0xb
 2177 0251 3B       		.uleb128 0x3b
 2178 0252 0B       		.uleb128 0xb
 2179 0253 49       		.uleb128 0x49
 2180 0254 13       		.uleb128 0x13
 2181 0255 02       		.uleb128 0x2
 2182 0256 18       		.uleb128 0x18
 2183 0257 00       		.byte	0
 2184 0258 00       		.byte	0
 2185 0259 2D       		.uleb128 0x2d
 2186 025a 34       		.uleb128 0x34
 2187 025b 00       		.byte	0
 2188 025c 03       		.uleb128 0x3
 2189 025d 0E       		.uleb128 0xe
 2190 025e 3A       		.uleb128 0x3a
 2191 025f 0B       		.uleb128 0xb
 2192 0260 3B       		.uleb128 0x3b
 2193 0261 0B       		.uleb128 0xb
 2194 0262 49       		.uleb128 0x49
 2195 0263 13       		.uleb128 0x13
 2196 0264 02       		.uleb128 0x2
 2197 0265 17       		.uleb128 0x17
 2198 0266 00       		.byte	0
 2199 0267 00       		.byte	0
 2200 0268 2E       		.uleb128 0x2e
 2201 0269 0B       		.uleb128 0xb
 2202 026a 01       		.byte	0x1
 2203 026b 55       		.uleb128 0x55
 2204 026c 17       		.uleb128 0x17
 2205 026d 00       		.byte	0
 2206 026e 00       		.byte	0
 2207 026f 2F       		.uleb128 0x2f
 2208 0270 2E       		.uleb128 0x2e
 2209 0271 01       		.byte	0x1
 2210 0272 03       		.uleb128 0x3
 2211 0273 0E       		.uleb128 0xe
 2212 0274 34       		.uleb128 0x34
 2213 0275 19       		.uleb128 0x19
 2214 0276 11       		.uleb128 0x11
 2215 0277 01       		.uleb128 0x1
ARM GAS  C:\msys64\tmp\ccdqUJ8y.s 			page 40


 2216 0278 12       		.uleb128 0x12
 2217 0279 06       		.uleb128 0x6
 2218 027a 40       		.uleb128 0x40
 2219 027b 18       		.uleb128 0x18
 2220 027c 9742     		.uleb128 0x2117
 2221 027e 19       		.uleb128 0x19
 2222 027f 01       		.uleb128 0x1
 2223 0280 13       		.uleb128 0x13
 2224 0281 00       		.byte	0
 2225 0282 00       		.byte	0
 2226 0283 30       		.uleb128 0x30
 2227 0284 05       		.uleb128 0x5
 2228 0285 00       		.byte	0
 2229 0286 31       		.uleb128 0x31
 2230 0287 13       		.uleb128 0x13
 2231 0288 02       		.uleb128 0x2
 2232 0289 18       		.uleb128 0x18
 2233 028a 00       		.byte	0
 2234 028b 00       		.byte	0
 2235 028c 31       		.uleb128 0x31
 2236 028d 34       		.uleb128 0x34
 2237 028e 00       		.byte	0
 2238 028f 03       		.uleb128 0x3
 2239 0290 0E       		.uleb128 0xe
 2240 0291 3A       		.uleb128 0x3a
 2241 0292 0B       		.uleb128 0xb
 2242 0293 3B       		.uleb128 0x3b
 2243 0294 0B       		.uleb128 0xb
 2244 0295 49       		.uleb128 0x49
 2245 0296 13       		.uleb128 0x13
 2246 0297 3F       		.uleb128 0x3f
 2247 0298 19       		.uleb128 0x19
 2248 0299 3C       		.uleb128 0x3c
 2249 029a 19       		.uleb128 0x19
 2250 029b 00       		.byte	0
 2251 029c 00       		.byte	0
 2252 029d 32       		.uleb128 0x32
 2253 029e 01       		.uleb128 0x1
 2254 029f 01       		.byte	0x1
 2255 02a0 49       		.uleb128 0x49
 2256 02a1 13       		.uleb128 0x13
 2257 02a2 01       		.uleb128 0x1
 2258 02a3 13       		.uleb128 0x13
 2259 02a4 00       		.byte	0
 2260 02a5 00       		.byte	0
 2261 02a6 33       		.uleb128 0x33
 2262 02a7 21       		.uleb128 0x21
 2263 02a8 00       		.byte	0
 2264 02a9 49       		.uleb128 0x49
 2265 02aa 13       		.uleb128 0x13
 2266 02ab 2F       		.uleb128 0x2f
 2267 02ac 0B       		.uleb128 0xb
 2268 02ad 00       		.byte	0
 2269 02ae 00       		.byte	0
 2270 02af 34       		.uleb128 0x34
 2271 02b0 21       		.uleb128 0x21
 2272 02b1 00       		.byte	0
ARM GAS  C:\msys64\tmp\ccdqUJ8y.s 			page 41


 2273 02b2 49       		.uleb128 0x49
 2274 02b3 13       		.uleb128 0x13
 2275 02b4 2F       		.uleb128 0x2f
 2276 02b5 05       		.uleb128 0x5
 2277 02b6 00       		.byte	0
 2278 02b7 00       		.byte	0
 2279 02b8 35       		.uleb128 0x35
 2280 02b9 34       		.uleb128 0x34
 2281 02ba 00       		.byte	0
 2282 02bb 03       		.uleb128 0x3
 2283 02bc 0E       		.uleb128 0xe
 2284 02bd 3A       		.uleb128 0x3a
 2285 02be 0B       		.uleb128 0xb
 2286 02bf 3B       		.uleb128 0x3b
 2287 02c0 05       		.uleb128 0x5
 2288 02c1 49       		.uleb128 0x49
 2289 02c2 13       		.uleb128 0x13
 2290 02c3 3F       		.uleb128 0x3f
 2291 02c4 19       		.uleb128 0x19
 2292 02c5 3C       		.uleb128 0x3c
 2293 02c6 19       		.uleb128 0x19
 2294 02c7 00       		.byte	0
 2295 02c8 00       		.byte	0
 2296 02c9 36       		.uleb128 0x36
 2297 02ca 34       		.uleb128 0x34
 2298 02cb 00       		.byte	0
 2299 02cc 03       		.uleb128 0x3
 2300 02cd 0E       		.uleb128 0xe
 2301 02ce 3A       		.uleb128 0x3a
 2302 02cf 0B       		.uleb128 0xb
 2303 02d0 3B       		.uleb128 0x3b
 2304 02d1 0B       		.uleb128 0xb
 2305 02d2 49       		.uleb128 0x49
 2306 02d3 13       		.uleb128 0x13
 2307 02d4 02       		.uleb128 0x2
 2308 02d5 18       		.uleb128 0x18
 2309 02d6 00       		.byte	0
 2310 02d7 00       		.byte	0
 2311 02d8 37       		.uleb128 0x37
 2312 02d9 21       		.uleb128 0x21
 2313 02da 00       		.byte	0
 2314 02db 49       		.uleb128 0x49
 2315 02dc 13       		.uleb128 0x13
 2316 02dd 2F       		.uleb128 0x2f
 2317 02de 06       		.uleb128 0x6
 2318 02df 00       		.byte	0
 2319 02e0 00       		.byte	0
 2320 02e1 38       		.uleb128 0x38
 2321 02e2 34       		.uleb128 0x34
 2322 02e3 00       		.byte	0
 2323 02e4 03       		.uleb128 0x3
 2324 02e5 0E       		.uleb128 0xe
 2325 02e6 3A       		.uleb128 0x3a
 2326 02e7 0B       		.uleb128 0xb
 2327 02e8 3B       		.uleb128 0x3b
 2328 02e9 0B       		.uleb128 0xb
 2329 02ea 49       		.uleb128 0x49
ARM GAS  C:\msys64\tmp\ccdqUJ8y.s 			page 42


 2330 02eb 13       		.uleb128 0x13
 2331 02ec 3F       		.uleb128 0x3f
 2332 02ed 19       		.uleb128 0x19
 2333 02ee 02       		.uleb128 0x2
 2334 02ef 18       		.uleb128 0x18
 2335 02f0 00       		.byte	0
 2336 02f1 00       		.byte	0
 2337 02f2 39       		.uleb128 0x39
 2338 02f3 34       		.uleb128 0x34
 2339 02f4 00       		.byte	0
 2340 02f5 03       		.uleb128 0x3
 2341 02f6 08       		.uleb128 0x8
 2342 02f7 3A       		.uleb128 0x3a
 2343 02f8 0B       		.uleb128 0xb
 2344 02f9 3B       		.uleb128 0x3b
 2345 02fa 0B       		.uleb128 0xb
 2346 02fb 49       		.uleb128 0x49
 2347 02fc 13       		.uleb128 0x13
 2348 02fd 3F       		.uleb128 0x3f
 2349 02fe 19       		.uleb128 0x19
 2350 02ff 02       		.uleb128 0x2
 2351 0300 18       		.uleb128 0x18
 2352 0301 00       		.byte	0
 2353 0302 00       		.byte	0
 2354 0303 3A       		.uleb128 0x3a
 2355 0304 2E       		.uleb128 0x2e
 2356 0305 00       		.byte	0
 2357 0306 3F       		.uleb128 0x3f
 2358 0307 19       		.uleb128 0x19
 2359 0308 3C       		.uleb128 0x3c
 2360 0309 19       		.uleb128 0x19
 2361 030a 6E       		.uleb128 0x6e
 2362 030b 0E       		.uleb128 0xe
 2363 030c 03       		.uleb128 0x3
 2364 030d 0E       		.uleb128 0xe
 2365 030e 3A       		.uleb128 0x3a
 2366 030f 0B       		.uleb128 0xb
 2367 0310 3B       		.uleb128 0x3b
 2368 0311 0B       		.uleb128 0xb
 2369 0312 00       		.byte	0
 2370 0313 00       		.byte	0
 2371 0314 00       		.byte	0
 2372              		.section	.debug_loc,"",%progbits
 2373              	.Ldebug_loc0:
 2374              	.LLST0:
 2375 0000 00000000 		.4byte	.LVL0
 2376 0004 39000000 		.4byte	.LVL9-1
 2377 0008 0100     		.2byte	0x1
 2378 000a 50       		.byte	0x50
 2379 000b 39000000 		.4byte	.LVL9-1
 2380 000f 64000000 		.4byte	.LFE264
 2381 0013 0400     		.2byte	0x4
 2382 0015 F3       		.byte	0xf3
 2383 0016 01       		.uleb128 0x1
 2384 0017 50       		.byte	0x50
 2385 0018 9F       		.byte	0x9f
 2386 0019 00000000 		.4byte	0
ARM GAS  C:\msys64\tmp\ccdqUJ8y.s 			page 43


 2387 001d 00000000 		.4byte	0
 2388              	.LLST1:
 2389 0021 00000000 		.4byte	.LVL0
 2390 0025 08000000 		.4byte	.LVL1
 2391 0029 0100     		.2byte	0x1
 2392 002b 51       		.byte	0x51
 2393 002c 08000000 		.4byte	.LVL1
 2394 0030 64000000 		.4byte	.LFE264
 2395 0034 0400     		.2byte	0x4
 2396 0036 F3       		.byte	0xf3
 2397 0037 01       		.uleb128 0x1
 2398 0038 51       		.byte	0x51
 2399 0039 9F       		.byte	0x9f
 2400 003a 00000000 		.4byte	0
 2401 003e 00000000 		.4byte	0
 2402              	.LLST2:
 2403 0042 00000000 		.4byte	.LVL0
 2404 0046 18000000 		.4byte	.LVL2
 2405 004a 0600     		.2byte	0x6
 2406 004c 0C       		.byte	0xc
 2407 004d 50340300 		.4byte	0x33450
 2408 0051 9F       		.byte	0x9f
 2409 0052 00000000 		.4byte	0
 2410 0056 00000000 		.4byte	0
 2411              	.LLST3:
 2412 005a 00000000 		.4byte	.LVL0
 2413 005e 18000000 		.4byte	.LVL2
 2414 0062 0600     		.2byte	0x6
 2415 0064 03       		.byte	0x3
 2416 0065 00000000 		.4byte	_ZL11s_delay_ram
 2417 0069 9F       		.byte	0x9f
 2418 006a 00000000 		.4byte	0
 2419 006e 00000000 		.4byte	0
 2420              	.LLST4:
 2421 0072 00000000 		.4byte	.LVL0
 2422 0076 18000000 		.4byte	.LVL2
 2423 007a 0600     		.2byte	0x6
 2424 007c 03       		.byte	0x3
 2425 007d 00000000 		.4byte	_ZL7s_delay
 2426 0081 9F       		.byte	0x9f
 2427 0082 00000000 		.4byte	0
 2428 0086 00000000 		.4byte	0
 2429              	.LLST5:
 2430 008a 18000000 		.4byte	.LVL2
 2431 008e 36000000 		.4byte	.LVL8
 2432 0092 0600     		.2byte	0x6
 2433 0094 03       		.byte	0x3
 2434 0095 00000000 		.4byte	_ZL7s_delay
 2435 0099 9F       		.byte	0x9f
 2436 009a 00000000 		.4byte	0
 2437 009e 00000000 		.4byte	0
 2438              	.LLST6:
 2439 00a2 18000000 		.4byte	.LVL2
 2440 00a6 36000000 		.4byte	.LVL8
 2441 00aa 0400     		.2byte	0x4
 2442 00ac 40       		.byte	0x40
 2443 00ad 3F       		.byte	0x3f
ARM GAS  C:\msys64\tmp\ccdqUJ8y.s 			page 44


 2444 00ae 24       		.byte	0x24
 2445 00af 9F       		.byte	0x9f
 2446 00b0 00000000 		.4byte	0
 2447 00b4 00000000 		.4byte	0
 2448              	.LLST7:
 2449 00b8 18000000 		.4byte	.LVL2
 2450 00bc 20000000 		.4byte	.LVL3
 2451 00c0 0600     		.2byte	0x6
 2452 00c2 03       		.byte	0x3
 2453 00c3 00000000 		.4byte	_ZL11s_delay_ram
 2454 00c7 9F       		.byte	0x9f
 2455 00c8 20000000 		.4byte	.LVL3
 2456 00cc 24000000 		.4byte	.LVL4
 2457 00d0 0300     		.2byte	0x3
 2458 00d2 73       		.byte	0x73
 2459 00d3 74       		.sleb128 -12
 2460 00d4 9F       		.byte	0x9f
 2461 00d5 24000000 		.4byte	.LVL4
 2462 00d9 28000000 		.4byte	.LVL5
 2463 00dd 0300     		.2byte	0x3
 2464 00df 73       		.byte	0x73
 2465 00e0 78       		.sleb128 -8
 2466 00e1 9F       		.byte	0x9f
 2467 00e2 28000000 		.4byte	.LVL5
 2468 00e6 2C000000 		.4byte	.LVL6
 2469 00ea 0300     		.2byte	0x3
 2470 00ec 73       		.byte	0x73
 2471 00ed 7C       		.sleb128 -4
 2472 00ee 9F       		.byte	0x9f
 2473 00ef 2C000000 		.4byte	.LVL6
 2474 00f3 32000000 		.4byte	.LVL7
 2475 00f7 0100     		.2byte	0x1
 2476 00f9 53       		.byte	0x53
 2477 00fa 32000000 		.4byte	.LVL7
 2478 00fe 36000000 		.4byte	.LVL8
 2479 0102 0300     		.2byte	0x3
 2480 0104 73       		.byte	0x73
 2481 0105 70       		.sleb128 -16
 2482 0106 9F       		.byte	0x9f
 2483 0107 00000000 		.4byte	0
 2484 010b 00000000 		.4byte	0
 2485              	.LLST8:
 2486 010f 18000000 		.4byte	.LVL2
 2487 0113 36000000 		.4byte	.LVL8
 2488 0117 0600     		.2byte	0x6
 2489 0119 03       		.byte	0x3
 2490 011a 00002000 		.4byte	_ZL11s_delay_ram+2097152
 2491 011e 9F       		.byte	0x9f
 2492 011f 00000000 		.4byte	0
 2493 0123 00000000 		.4byte	0
 2494              	.LLST9:
 2495 0127 64000000 		.4byte	.LVL10
 2496 012b A4000000 		.4byte	.LVL13
 2497 012f 0100     		.2byte	0x1
 2498 0131 50       		.byte	0x50
 2499 0132 A4000000 		.4byte	.LVL13
 2500 0136 E8010000 		.4byte	.LFE266
ARM GAS  C:\msys64\tmp\ccdqUJ8y.s 			page 45


 2501 013a 0400     		.2byte	0x4
 2502 013c F3       		.byte	0xf3
 2503 013d 01       		.uleb128 0x1
 2504 013e 50       		.byte	0x50
 2505 013f 9F       		.byte	0x9f
 2506 0140 00000000 		.4byte	0
 2507 0144 00000000 		.4byte	0
 2508              	.LLST10:
 2509 0148 64000000 		.4byte	.LVL10
 2510 014c 9A000000 		.4byte	.LVL11
 2511 0150 0100     		.2byte	0x1
 2512 0152 51       		.byte	0x51
 2513 0153 9A000000 		.4byte	.LVL11
 2514 0157 E8010000 		.4byte	.LFE266
 2515 015b 0400     		.2byte	0x4
 2516 015d F3       		.byte	0xf3
 2517 015e 01       		.uleb128 0x1
 2518 015f 51       		.byte	0x51
 2519 0160 9F       		.byte	0x9f
 2520 0161 00000000 		.4byte	0
 2521 0165 00000000 		.4byte	0
 2522              	.LLST11:
 2523 0169 64000000 		.4byte	.LVL10
 2524 016d B6010000 		.4byte	.LVL29
 2525 0171 0100     		.2byte	0x1
 2526 0173 50       		.byte	0x50
 2527 0174 B6010000 		.4byte	.LVL29
 2528 0178 BA010000 		.4byte	.LVL30
 2529 017c 0300     		.2byte	0x3
 2530 017e 70       		.byte	0x70
 2531 017f 78       		.sleb128 -8
 2532 0180 9F       		.byte	0x9f
 2533 0181 BA010000 		.4byte	.LVL30
 2534 0185 E8010000 		.4byte	.LFE266
 2535 0189 0100     		.2byte	0x1
 2536 018b 50       		.byte	0x50
 2537 018c 00000000 		.4byte	0
 2538 0190 00000000 		.4byte	0
 2539              	.LLST12:
 2540 0194 A8010000 		.4byte	.LVL27
 2541 0198 B4010000 		.4byte	.LVL28
 2542 019c 1200     		.2byte	0x12
 2543 019e 90       		.byte	0x90
 2544 019f 4E       		.uleb128 0x4e
 2545 01a0 93       		.byte	0x93
 2546 01a1 04       		.uleb128 0x4
 2547 01a2 F5       		.byte	0xf5
 2548 01a3 4E       		.uleb128 0x4e
 2549 01a4 25       		.uleb128 0x25
 2550 01a5 F4       		.byte	0xf4
 2551 01a6 25       		.uleb128 0x25
 2552 01a7 04       		.byte	0x4
 2553 01a8 0000803F 		.4byte	0x3f800000
 2554 01ac 22       		.byte	0x22
 2555 01ad 9F       		.byte	0x9f
 2556 01ae 93       		.byte	0x93
 2557 01af 04       		.uleb128 0x4
ARM GAS  C:\msys64\tmp\ccdqUJ8y.s 			page 46


 2558 01b0 B4010000 		.4byte	.LVL28
 2559 01b4 BC010000 		.4byte	.LVL31
 2560 01b8 0800     		.2byte	0x8
 2561 01ba 72       		.byte	0x72
 2562 01bb 00       		.sleb128 0
 2563 01bc 93       		.byte	0x93
 2564 01bd 04       		.uleb128 0x4
 2565 01be 90       		.byte	0x90
 2566 01bf 4E       		.uleb128 0x4e
 2567 01c0 93       		.byte	0x93
 2568 01c1 04       		.uleb128 0x4
 2569 01c2 00000000 		.4byte	0
 2570 01c6 00000000 		.4byte	0
 2571              	.LLST13:
 2572 01ca BA000000 		.4byte	.LVL15
 2573 01ce C6000000 		.4byte	.LVL16
 2574 01d2 0A00     		.2byte	0xa
 2575 01d4 72       		.byte	0x72
 2576 01d5 00       		.sleb128 0
 2577 01d6 F6       		.byte	0xf6
 2578 01d7 04       		.byte	0x4
 2579 01d8 25       		.uleb128 0x25
 2580 01d9 F5       		.byte	0xf5
 2581 01da 42       		.uleb128 0x42
 2582 01db 25       		.uleb128 0x25
 2583 01dc 1E       		.byte	0x1e
 2584 01dd 9F       		.byte	0x9f
 2585 01de C6000000 		.4byte	.LVL16
 2586 01e2 CE000000 		.4byte	.LVL18
 2587 01e6 0200     		.2byte	0x2
 2588 01e8 90       		.byte	0x90
 2589 01e9 4E       		.uleb128 0x4e
 2590 01ea CE000000 		.4byte	.LVL18
 2591 01ee DA000000 		.4byte	.LVL20
 2592 01f2 0A00     		.2byte	0xa
 2593 01f4 72       		.byte	0x72
 2594 01f5 00       		.sleb128 0
 2595 01f6 F6       		.byte	0xf6
 2596 01f7 04       		.byte	0x4
 2597 01f8 25       		.uleb128 0x25
 2598 01f9 F5       		.byte	0xf5
 2599 01fa 42       		.uleb128 0x42
 2600 01fb 25       		.uleb128 0x25
 2601 01fc 1E       		.byte	0x1e
 2602 01fd 9F       		.byte	0x9f
 2603 01fe 00000000 		.4byte	0
 2604 0202 00000000 		.4byte	0
 2605              	.LLST14:
 2606 0206 CA000000 		.4byte	.LVL17
 2607 020a D2000000 		.4byte	.LVL19
 2608 020e 0200     		.2byte	0x2
 2609 0210 90       		.byte	0x90
 2610 0211 4F       		.uleb128 0x4f
 2611 0212 D2000000 		.4byte	.LVL19
 2612 0216 FA000000 		.4byte	.LVL22
 2613 021a 0A00     		.2byte	0xa
 2614 021c F5       		.byte	0xf5
ARM GAS  C:\msys64\tmp\ccdqUJ8y.s 			page 47


 2615 021d 42       		.uleb128 0x42
 2616 021e 25       		.uleb128 0x25
 2617 021f 72       		.byte	0x72
 2618 0220 04       		.sleb128 4
 2619 0221 F6       		.byte	0xf6
 2620 0222 04       		.byte	0x4
 2621 0223 25       		.uleb128 0x25
 2622 0224 1E       		.byte	0x1e
 2623 0225 9F       		.byte	0x9f
 2624 0226 FA000000 		.4byte	.LVL22
 2625 022a 08010000 		.4byte	.LVL23
 2626 022e 1600     		.2byte	0x16
 2627 0230 F5       		.byte	0xf5
 2628 0231 42       		.uleb128 0x42
 2629 0232 25       		.uleb128 0x25
 2630 0233 76       		.byte	0x76
 2631 0234 80F403   		.sleb128 64000
 2632 0237 7E       		.byte	0x7e
 2633 0238 00       		.sleb128 0
 2634 0239 1A       		.byte	0x1a
 2635 023a 33       		.byte	0x33
 2636 023b 24       		.byte	0x24
 2637 023c 77       		.byte	0x77
 2638 023d 00       		.sleb128 0
 2639 023e 22       		.byte	0x22
 2640 023f 23       		.byte	0x23
 2641 0240 04       		.uleb128 0x4
 2642 0241 F6       		.byte	0xf6
 2643 0242 04       		.byte	0x4
 2644 0243 25       		.uleb128 0x25
 2645 0244 1E       		.byte	0x1e
 2646 0245 9F       		.byte	0x9f
 2647 0246 08010000 		.4byte	.LVL23
 2648 024a 48010000 		.4byte	.LVL24
 2649 024e 1600     		.2byte	0x16
 2650 0250 F5       		.byte	0xf5
 2651 0251 42       		.uleb128 0x42
 2652 0252 25       		.uleb128 0x25
 2653 0253 76       		.byte	0x76
 2654 0254 81F403   		.sleb128 64001
 2655 0257 7E       		.byte	0x7e
 2656 0258 00       		.sleb128 0
 2657 0259 1A       		.byte	0x1a
 2658 025a 33       		.byte	0x33
 2659 025b 24       		.byte	0x24
 2660 025c 77       		.byte	0x77
 2661 025d 00       		.sleb128 0
 2662 025e 22       		.byte	0x22
 2663 025f 23       		.byte	0x23
 2664 0260 04       		.uleb128 0x4
 2665 0261 F6       		.byte	0xf6
 2666 0262 04       		.byte	0x4
 2667 0263 25       		.uleb128 0x25
 2668 0264 1E       		.byte	0x1e
 2669 0265 9F       		.byte	0x9f
 2670 0266 00000000 		.4byte	0
 2671 026a 00000000 		.4byte	0
ARM GAS  C:\msys64\tmp\ccdqUJ8y.s 			page 48


 2672              	.LLST15:
 2673 026e AE000000 		.4byte	.LVL14
 2674 0272 BA000000 		.4byte	.LVL15
 2675 0276 0400     		.2byte	0x4
 2676 0278 0A       		.byte	0xa
 2677 0279 00FA     		.2byte	0xfa00
 2678 027b 9F       		.byte	0x9f
 2679 027c 00000000 		.4byte	0
 2680 0280 00000000 		.4byte	0
 2681              	.LLST16:
 2682 0284 AE000000 		.4byte	.LVL14
 2683 0288 BA000000 		.4byte	.LVL15
 2684 028c 0600     		.2byte	0x6
 2685 028e 03       		.byte	0x3
 2686 028f 00000000 		.4byte	_ZL7s_delay
 2687 0293 9F       		.byte	0x9f
 2688 0294 00000000 		.4byte	0
 2689 0298 00000000 		.4byte	0
 2690              	.LLST17:
 2691 029c DA000000 		.4byte	.LVL20
 2692 02a0 F6000000 		.4byte	.LVL21
 2693 02a4 0200     		.2byte	0x2
 2694 02a6 90       		.byte	0x90
 2695 02a7 4E       		.uleb128 0x4e
 2696 02a8 00000000 		.4byte	0
 2697 02ac 00000000 		.4byte	0
 2698              	.LLST18:
 2699 02b0 A8010000 		.4byte	.LVL27
 2700 02b4 BA010000 		.4byte	.LVL30
 2701 02b8 0600     		.2byte	0x6
 2702 02ba F2       		.byte	0xf2
 2703 02bb 32060000 		.4byte	.Ldebug_info0+1586
 2704 02bf 00       		.sleb128 0
 2705 02c0 00000000 		.4byte	0
 2706 02c4 00000000 		.4byte	0
 2707              	.LLST19:
 2708 02c8 A8010000 		.4byte	.LVL27
 2709 02cc BA010000 		.4byte	.LVL30
 2710 02d0 0600     		.2byte	0x6
 2711 02d2 03       		.byte	0x3
 2712 02d3 00000000 		.4byte	_ZL7s_delay
 2713 02d7 9F       		.byte	0x9f
 2714 02d8 00000000 		.4byte	0
 2715 02dc 00000000 		.4byte	0
 2716              	.LLST20:
 2717 02e0 4C010000 		.4byte	.LVL25
 2718 02e4 5C010000 		.4byte	.LVL26
 2719 02e8 0200     		.2byte	0x2
 2720 02ea 90       		.byte	0x90
 2721 02eb 4D       		.uleb128 0x4d
 2722 02ec 00000000 		.4byte	0
 2723 02f0 00000000 		.4byte	0
 2724              	.LLST21:
 2725 02f4 E8010000 		.4byte	.LVL32
 2726 02f8 13020000 		.4byte	.LVL34-1
 2727 02fc 0100     		.2byte	0x1
 2728 02fe 50       		.byte	0x50
ARM GAS  C:\msys64\tmp\ccdqUJ8y.s 			page 49


 2729 02ff 13020000 		.4byte	.LVL34-1
 2730 0303 80020000 		.4byte	.LFE267
 2731 0307 0400     		.2byte	0x4
 2732 0309 F3       		.byte	0xf3
 2733 030a 01       		.uleb128 0x1
 2734 030b 50       		.byte	0x50
 2735 030c 9F       		.byte	0x9f
 2736 030d 00000000 		.4byte	0
 2737 0311 00000000 		.4byte	0
 2738              	.LLST22:
 2739 0315 E8010000 		.4byte	.LVL32
 2740 0319 13020000 		.4byte	.LVL34-1
 2741 031d 0100     		.2byte	0x1
 2742 031f 51       		.byte	0x51
 2743 0320 13020000 		.4byte	.LVL34-1
 2744 0324 80020000 		.4byte	.LFE267
 2745 0328 0400     		.2byte	0x4
 2746 032a F3       		.byte	0xf3
 2747 032b 01       		.uleb128 0x1
 2748 032c 51       		.byte	0x51
 2749 032d 9F       		.byte	0x9f
 2750 032e 00000000 		.4byte	0
 2751 0332 00000000 		.4byte	0
 2752              	.LLST23:
 2753 0336 F8010000 		.4byte	.LVL33
 2754 033a 70020000 		.4byte	.LVL35
 2755 033e 0200     		.2byte	0x2
 2756 0340 90       		.byte	0x90
 2757 0341 50       		.uleb128 0x50
 2758 0342 70020000 		.4byte	.LVL35
 2759 0346 80020000 		.4byte	.LFE267
 2760 034a 1000     		.2byte	0x10
 2761 034c F3       		.byte	0xf3
 2762 034d 01       		.uleb128 0x1
 2763 034e 51       		.byte	0x51
 2764 034f F7       		.byte	0xf7
 2765 0350 2C       		.uleb128 0x2c
 2766 0351 F7       		.byte	0xf7
 2767 0352 25       		.uleb128 0x25
 2768 0353 F4       		.byte	0xf4
 2769 0354 25       		.uleb128 0x25
 2770 0355 04       		.byte	0x4
 2771 0356 00000030 		.4byte	0x30000000
 2772 035a 1E       		.byte	0x1e
 2773 035b 9F       		.byte	0x9f
 2774 035c 00000000 		.4byte	0
 2775 0360 00000000 		.4byte	0
 2776              	.LLST24:
 2777 0364 00000000 		.4byte	.LVL36
 2778 0368 0C000000 		.4byte	.LVL37
 2779 036c 0200     		.2byte	0x2
 2780 036e 31       		.byte	0x31
 2781 036f 9F       		.byte	0x9f
 2782 0370 00000000 		.4byte	0
 2783 0374 00000000 		.4byte	0
 2784              	.LLST25:
 2785 0378 00000000 		.4byte	.LVL36
ARM GAS  C:\msys64\tmp\ccdqUJ8y.s 			page 50


 2786 037c 0C000000 		.4byte	.LVL37
 2787 0380 0400     		.2byte	0x4
 2788 0382 0A       		.byte	0xa
 2789 0383 FFFF     		.2byte	0xffff
 2790 0385 9F       		.byte	0x9f
 2791 0386 00000000 		.4byte	0
 2792 038a 00000000 		.4byte	0
 2793              		.section	.debug_aranges,"",%progbits
 2794 0000 24000000 		.4byte	0x24
 2795 0004 0200     		.2byte	0x2
 2796 0006 00000000 		.4byte	.Ldebug_info0
 2797 000a 04       		.byte	0x4
 2798 000b 00       		.byte	0
 2799 000c 0000     		.2byte	0
 2800 000e 0000     		.2byte	0
 2801 0010 00000000 		.4byte	.Ltext0
 2802 0014 80020000 		.4byte	.Letext0-.Ltext0
 2803 0018 00000000 		.4byte	.LFB269
 2804 001c 14000000 		.4byte	.LFE269-.LFB269
 2805 0020 00000000 		.4byte	0
 2806 0024 00000000 		.4byte	0
 2807              		.section	.debug_ranges,"",%progbits
 2808              	.Ldebug_ranges0:
 2809 0000 00000000 		.4byte	.LBB35
 2810 0004 08000000 		.4byte	.LBE35
 2811 0008 0A000000 		.4byte	.LBB38
 2812 000c 1E000000 		.4byte	.LBE38
 2813 0010 00000000 		.4byte	0
 2814 0014 00000000 		.4byte	0
 2815 0018 66000000 		.4byte	.LBB43
 2816 001c 6A000000 		.4byte	.LBE43
 2817 0020 6E000000 		.4byte	.LBB70
 2818 0024 8E000000 		.4byte	.LBE70
 2819 0028 92000000 		.4byte	.LBB71
 2820 002c 98000000 		.4byte	.LBE71
 2821 0030 9E000000 		.4byte	.LBB72
 2822 0034 A4000000 		.4byte	.LBE72
 2823 0038 AE000000 		.4byte	.LBB73
 2824 003c B4010000 		.4byte	.LBE73
 2825 0040 B6010000 		.4byte	.LBB74
 2826 0044 BA010000 		.4byte	.LBE74
 2827 0048 00000000 		.4byte	0
 2828 004c 00000000 		.4byte	0
 2829 0050 92000000 		.4byte	.LBB44
 2830 0054 98000000 		.4byte	.LBE44
 2831 0058 AE000000 		.4byte	.LBB54
 2832 005c BA000000 		.4byte	.LBE54
 2833 0060 00000000 		.4byte	0
 2834 0064 00000000 		.4byte	0
 2835 0068 A0000000 		.4byte	.LBB47
 2836 006c A4000000 		.4byte	.LBE47
 2837 0070 D2000000 		.4byte	.LBB55
 2838 0074 D6000000 		.4byte	.LBE55
 2839 0078 DA000000 		.4byte	.LBB56
 2840 007c DE000000 		.4byte	.LBE56
 2841 0080 E2000000 		.4byte	.LBB57
 2842 0084 E6000000 		.4byte	.LBE57
ARM GAS  C:\msys64\tmp\ccdqUJ8y.s 			page 51


 2843 0088 EA000000 		.4byte	.LBB58
 2844 008c EE000000 		.4byte	.LBE58
 2845 0090 F2000000 		.4byte	.LBB59
 2846 0094 F6000000 		.4byte	.LBE59
 2847 0098 00000000 		.4byte	0
 2848 009c 00000000 		.4byte	0
 2849 00a0 F6000000 		.4byte	.LBB60
 2850 00a4 FE000000 		.4byte	.LBE60
 2851 00a8 06010000 		.4byte	.LBB65
 2852 00ac 08010000 		.4byte	.LBE65
 2853 00b0 A8010000 		.4byte	.LBB68
 2854 00b4 B4010000 		.4byte	.LBE68
 2855 00b8 B6010000 		.4byte	.LBB69
 2856 00bc BA010000 		.4byte	.LBE69
 2857 00c0 00000000 		.4byte	0
 2858 00c4 00000000 		.4byte	0
 2859 00c8 00000000 		.4byte	.Ltext0
 2860 00cc 80020000 		.4byte	.Letext0
 2861 00d0 00000000 		.4byte	.LFB269
 2862 00d4 14000000 		.4byte	.LFE269
 2863 00d8 00000000 		.4byte	0
 2864 00dc 00000000 		.4byte	0
 2865              		.section	.debug_line,"",%progbits
 2866              	.Ldebug_line0:
 2867 0000 68030000 		.section	.debug_str,"MS",%progbits,1
 2867      02006402 
 2867      00000201 
 2867      FB0E0D00 
 2867      01010101 
 2868              	.LASF97:
 2869 0000 433A5C75 		.ascii	"C:\\users\\bradl\\desktop\\Code Projects\\KorgFX\\K"
 2869      73657273 
 2869      5C627261 
 2869      646C5C64 
 2869      65736B74 
 2870 002d 6F726744 		.ascii	"orgDelayFXSet\\Delays\\platform\\minilogue-xd\\Ping"
 2870      656C6179 
 2870      46585365 
 2870      745C4465 
 2870      6C617973 
 2871 005c 506F6E67 		.ascii	"PongDelay\000"
 2871      44656C61 
 2871      7900
 2872              	.LASF57:
 2873 0066 5F5A4E33 		.ascii	"_ZN3dsp13DualDelayLine9read1FracEf\000"
 2873      64737031 
 2873      33447561 
 2873      6C44656C 
 2873      61794C69 
 2874              	.LASF40:
 2875 0089 77726974 		.ascii	"write\000"
 2875      6500
 2876              	.LASF69:
 2877 008f 6672616D 		.ascii	"frames\000"
 2877      657300
 2878              	.LASF38:
 2879 0096 5F5A4E33 		.ascii	"_ZN3dsp13DualDelayLine5clearEv\000"
ARM GAS  C:\msys64\tmp\ccdqUJ8y.s 			page 52


 2879      64737031 
 2879      33447561 
 2879      6C44656C 
 2879      61794C69 
 2880              	.LASF36:
 2881 00b5 636C6561 		.ascii	"clear\000"
 2881      7200
 2882              	.LASF98:
 2883 00bb 6465636C 		.ascii	"decltype(nullptr)\000"
 2883      74797065 
 2883      286E756C 
 2883      6C707472 
 2883      2900
 2884              	.LASF103:
 2885 00cd 5F474C4F 		.ascii	"_GLOBAL__sub_I_s_len\000"
 2885      42414C5F 
 2885      5F737562 
 2885      5F495F73 
 2885      5F6C656E 
 2886              	.LASF51:
 2887 00e2 5F5A4E33 		.ascii	"_ZN3dsp13DualDelayLine5read1Em\000"
 2887      64737031 
 2887      33447561 
 2887      6C44656C 
 2887      61794C69 
 2888              	.LASF30:
 2889 0101 6D53697A 		.ascii	"mSize\000"
 2889      6500
 2890              	.LASF16:
 2891 0107 73697A65 		.ascii	"size_t\000"
 2891      5F7400
 2892              	.LASF76:
 2893 010e 6B5F6678 		.ascii	"k_fx_api_platform\000"
 2893      5F617069 
 2893      5F706C61 
 2893      74666F72 
 2893      6D00
 2894              	.LASF18:
 2895 0120 73697A65 		.ascii	"sizetype\000"
 2895      74797065 
 2895      00
 2896              	.LASF82:
 2897 0129 706F7732 		.ascii	"pow2_lut_f\000"
 2897      5F6C7574 
 2897      5F6600
 2898              	.LASF33:
 2899 0134 4475616C 		.ascii	"DualDelayLine\000"
 2899      44656C61 
 2899      794C696E 
 2899      6500
 2900              	.LASF83:
 2901 0142 63756269 		.ascii	"cubicsat_lut_f\000"
 2901      63736174 
 2901      5F6C7574 
 2901      5F6600
 2902              	.LASF8:
 2903 0151 5F5F7569 		.ascii	"__uint32_t\000"
ARM GAS  C:\msys64\tmp\ccdqUJ8y.s 			page 53


 2903      6E743332 
 2903      5F7400
 2904              	.LASF85:
 2905 015c 62697472 		.ascii	"bitres_lut_f\000"
 2905      65735F6C 
 2905      75745F66 
 2905      00
 2906              	.LASF58:
 2907 0169 72656164 		.ascii	"read1Fracz\000"
 2907      31467261 
 2907      637A00
 2908              	.LASF20:
 2909 0174 646F7562 		.ascii	"double\000"
 2909      6C6500
 2910              	.LASF3:
 2911 017b 73686F72 		.ascii	"short int\000"
 2911      7420696E 
 2911      7400
 2912              	.LASF7:
 2913 0185 6C6F6E67 		.ascii	"long int\000"
 2913      20696E74 
 2913      00
 2914              	.LASF49:
 2915 018e 5F5A4E33 		.ascii	"_ZN3dsp13DualDelayLine5read0Em\000"
 2915      64737031 
 2915      33447561 
 2915      6C44656C 
 2915      61794C69 
 2916              	.LASF27:
 2917 01ad 6B5F6E75 		.ascii	"k_num_user_modules\000"
 2917      6D5F7573 
 2917      65725F6D 
 2917      6F64756C 
 2917      657300
 2918              	.LASF29:
 2919 01c0 6D467261 		.ascii	"mFracZ\000"
 2919      635A00
 2920              	.LASF74:
 2921 01c7 696E6465 		.ascii	"index\000"
 2921      7800
 2922              	.LASF31:
 2923 01cd 6D4D6173 		.ascii	"mMask\000"
 2923      6B00
 2924              	.LASF93:
 2925 01d3 6175746F 		.ascii	"autopanvalL\000"
 2925      70616E76 
 2925      616C4C00 
 2926              	.LASF26:
 2927 01df 6B5F7573 		.ascii	"k_user_module_osc\000"
 2927      65725F6D 
 2927      6F64756C 
 2927      655F6F73 
 2927      6300
 2928              	.LASF41:
 2929 01f1 5F5A4E33 		.ascii	"_ZN3dsp13DualDelayLine5writeERK9f32pair_t\000"
 2929      64737031 
 2929      33447561 
ARM GAS  C:\msys64\tmp\ccdqUJ8y.s 			page 54


 2929      6C44656C 
 2929      61794C69 
 2930              	.LASF94:
 2931 021b 6175746F 		.ascii	"autopanvalR\000"
 2931      70616E76 
 2931      616C5200 
 2932              	.LASF53:
 2933 0227 5F5A4E33 		.ascii	"_ZN3dsp13DualDelayLine9read0FracEf\000"
 2933      64737031 
 2933      33447561 
 2933      6C44656C 
 2933      61794C69 
 2934              	.LASF47:
 2935 024a 5F5A4E33 		.ascii	"_ZN3dsp13DualDelayLine9readFraczEmf\000"
 2935      64737031 
 2935      33447561 
 2935      6C44656C 
 2935      61794C69 
 2936              	.LASF1:
 2937 026e 7369676E 		.ascii	"signed char\000"
 2937      65642063 
 2937      68617200 
 2938              	.LASF56:
 2939 027a 72656164 		.ascii	"read1Frac\000"
 2939      31467261 
 2939      6300
 2940              	.LASF0:
 2941 0284 666C6F61 		.ascii	"float\000"
 2941      7400
 2942              	.LASF84:
 2943 028a 73636865 		.ascii	"schetzen_lut_f\000"
 2943      747A656E 
 2943      5F6C7574 
 2943      5F6600
 2944              	.LASF86:
 2945 0299 735F6465 		.ascii	"s_delay\000"
 2945      6C617900 
 2946              	.LASF42:
 2947 02a1 72656164 		.ascii	"read\000"
 2947      00
 2948              	.LASF73:
 2949 02a6 5F686F6F 		.ascii	"_hook_param\000"
 2949      6B5F7061 
 2949      72616D00 
 2950              	.LASF10:
 2951 02b2 6C6F6E67 		.ascii	"long long int\000"
 2951      206C6F6E 
 2951      6720696E 
 2951      7400
 2952              	.LASF48:
 2953 02c0 72656164 		.ascii	"read0\000"
 2953      3000
 2954              	.LASF50:
 2955 02c6 72656164 		.ascii	"read1\000"
 2955      3100
 2956              	.LASF89:
 2957 02cc 735F6D69 		.ascii	"s_mix\000"
ARM GAS  C:\msys64\tmp\ccdqUJ8y.s 			page 55


 2957      7800
 2958              	.LASF88:
 2959 02d2 735F6C65 		.ascii	"s_len\000"
 2959      6E00
 2960              	.LASF63:
 2961 02d8 77617665 		.ascii	"waveshape\000"
 2961      73686170 
 2961      6500
 2962              	.LASF79:
 2963 02e2 6C6F675F 		.ascii	"log_lut_f\000"
 2963      6C75745F 
 2963      6600
 2964              	.LASF71:
 2965 02ec 64656C53 		.ascii	"delSample1\000"
 2965      616D706C 
 2965      653100
 2966              	.LASF72:
 2967 02f7 64656C53 		.ascii	"delSample2\000"
 2967      616D706C 
 2967      653200
 2968              	.LASF64:
 2969 0302 5F5F696E 		.ascii	"__initialize_p\000"
 2969      69746961 
 2969      6C697A65 
 2969      5F7000
 2970              	.LASF2:
 2971 0311 756E7369 		.ascii	"unsigned char\000"
 2971      676E6564 
 2971      20636861 
 2971      7200
 2972              	.LASF17:
 2973 031f 6C6F6E67 		.ascii	"long double\000"
 2973      20646F75 
 2973      626C6500 
 2974              	.LASF23:
 2975 032b 6B5F7573 		.ascii	"k_user_module_modfx\000"
 2975      65725F6D 
 2975      6F64756C 
 2975      655F6D6F 
 2975      64667800 
 2976              	.LASF44:
 2977 033f 5F5A4E33 		.ascii	"_ZN3dsp13DualDelayLine4readEm\000"
 2977      64737031 
 2977      33447561 
 2977      6C44656C 
 2977      61794C69 
 2978              	.LASF60:
 2979 035d 6C696E65 		.ascii	"line_size\000"
 2979      5F73697A 
 2979      6500
 2980              	.LASF95:
 2981 0367 474E5520 		.ascii	"GNU C++11 5.4.1 20160919 (release) [ARM/embedded-5-"
 2981      432B2B31 
 2981      3120352E 
 2981      342E3120 
 2981      32303136 
 2982 039a 6272616E 		.ascii	"branch revision 240496] -mcpu=cortex-m4 -mthumb -mn"
ARM GAS  C:\msys64\tmp\ccdqUJ8y.s 			page 56


 2982      63682072 
 2982      65766973 
 2982      696F6E20 
 2982      32343034 
 2983 03cd 6F2D7468 		.ascii	"o-thumb-interwork -mlittle-endian -mfloat-abi=hard "
 2983      756D622D 
 2983      696E7465 
 2983      72776F72 
 2983      6B202D6D 
 2984 0400 2D6D6670 		.ascii	"-mfpu=fpv4-sp-d16 -g -Os -std=c++11 -fsingle-precis"
 2984      753D6670 
 2984      76342D73 
 2984      702D6431 
 2984      36202D67 
 2985 0433 696F6E2D 		.ascii	"ion-constant -fcheck-new -fno-rtti -fno-exceptions "
 2985      636F6E73 
 2985      74616E74 
 2985      202D6663 
 2985      6865636B 
 2986 0466 2D666E6F 		.ascii	"-fno-non-call-exceptions\000"
 2986      2D6E6F6E 
 2986      2D63616C 
 2986      6C2D6578 
 2986      63657074 
 2987              	.LASF11:
 2988 047f 6C6F6E67 		.ascii	"long long unsigned int\000"
 2988      206C6F6E 
 2988      6720756E 
 2988      7369676E 
 2988      65642069 
 2989              	.LASF34:
 2990 0496 5F5A4E33 		.ascii	"_ZN3dsp13DualDelayLineC4Ev\000"
 2990      64737031 
 2990      33447561 
 2990      6C44656C 
 2990      61794C69 
 2991              	.LASF15:
 2992 04b1 75696E74 		.ascii	"uint32_t\000"
 2992      33325F74 
 2992      00
 2993              	.LASF12:
 2994 04ba 756E7369 		.ascii	"unsigned int\000"
 2994      676E6564 
 2994      20696E74 
 2994      00
 2995              	.LASF35:
 2996 04c7 5F5A4E33 		.ascii	"_ZN3dsp13DualDelayLineC4EP9f32pair_tj\000"
 2996      64737031 
 2996      33447561 
 2996      6C44656C 
 2996      61794C69 
 2997              	.LASF100:
 2998 04ed 5F5A4E33 		.ascii	"_ZN3dsp13DualDelayLine10read1FraczEmf\000"
 2998      64737031 
 2998      33447561 
 2998      6C44656C 
 2998      61794C69 
ARM GAS  C:\msys64\tmp\ccdqUJ8y.s 			page 57


 2999              	.LASF61:
 3000 0513 6E657874 		.ascii	"nextpow2_u32\000"
 3000      706F7732 
 3000      5F753332 
 3000      00
 3001              	.LASF28:
 3002 0520 6D4C696E 		.ascii	"mLine\000"
 3002      6500
 3003              	.LASF37:
 3004 0526 7365744D 		.ascii	"setMemory\000"
 3004      656D6F72 
 3004      7900
 3005              	.LASF4:
 3006 0530 73686F72 		.ascii	"short unsigned int\000"
 3006      7420756E 
 3006      7369676E 
 3006      65642069 
 3006      6E7400
 3007              	.LASF78:
 3008 0543 77745F73 		.ascii	"wt_sine_lut_f\000"
 3008      696E655F 
 3008      6C75745F 
 3008      6600
 3009              	.LASF96:
 3010 0551 2E2F7372 		.ascii	"./src/pingpong.cpp\000"
 3010      632F7069 
 3010      6E67706F 
 3010      6E672E63 
 3010      707000
 3011              	.LASF87:
 3012 0564 735F6465 		.ascii	"s_delay_ram\000"
 3012      6C61795F 
 3012      72616D00 
 3013              	.LASF32:
 3014 0570 6D577269 		.ascii	"mWriteIdx\000"
 3014      74654964 
 3014      7800
 3015              	.LASF19:
 3016 057a 63686172 		.ascii	"char\000"
 3016      00
 3017              	.LASF46:
 3018 057f 72656164 		.ascii	"readFracz\000"
 3018      46726163 
 3018      7A00
 3019              	.LASF14:
 3020 0589 696E7433 		.ascii	"int32_t\000"
 3020      325F7400 
 3021              	.LASF101:
 3022 0591 6275665F 		.ascii	"buf_clr_f32\000"
 3022      636C725F 
 3022      66333200 
 3023              	.LASF75:
 3024 059d 76616C75 		.ascii	"value\000"
 3024      6500
 3025              	.LASF102:
 3026 05a3 5F5F7374 		.ascii	"__static_initialization_and_destruction_0\000"
 3026      61746963 
ARM GAS  C:\msys64\tmp\ccdqUJ8y.s 			page 58


 3026      5F696E69 
 3026      7469616C 
 3026      697A6174 
 3027              	.LASF65:
 3028 05cd 5F5F7072 		.ascii	"__priority\000"
 3028      696F7269 
 3028      747900
 3029              	.LASF59:
 3030 05d8 74686973 		.ascii	"this\000"
 3030      00
 3031              	.LASF80:
 3032 05dd 74616E70 		.ascii	"tanpi_lut_f\000"
 3032      695F6C75 
 3032      745F6600 
 3033              	.LASF55:
 3034 05e9 5F5A4E33 		.ascii	"_ZN3dsp13DualDelayLine10read0FraczEmf\000"
 3034      64737031 
 3034      33447561 
 3034      6C44656C 
 3034      61794C69 
 3035              	.LASF25:
 3036 060f 6B5F7573 		.ascii	"k_user_module_revfx\000"
 3036      65725F6D 
 3036      6F64756C 
 3036      655F7265 
 3036      76667800 
 3037              	.LASF67:
 3038 0623 706C6174 		.ascii	"platform\000"
 3038      666F726D 
 3038      00
 3039              	.LASF9:
 3040 062c 6C6F6E67 		.ascii	"long unsigned int\000"
 3040      20756E73 
 3040      69676E65 
 3040      6420696E 
 3040      7400
 3041              	.LASF70:
 3042 063e 76616C66 		.ascii	"valf\000"
 3042      00
 3043              	.LASF62:
 3044 0643 66617374 		.ascii	"fastertanhf\000"
 3044      65727461 
 3044      6E686600 
 3045              	.LASF54:
 3046 064f 72656164 		.ascii	"read0Fracz\000"
 3046      30467261 
 3046      637A00
 3047              	.LASF66:
 3048 065a 5F686F6F 		.ascii	"_hook_init\000"
 3048      6B5F696E 
 3048      697400
 3049              	.LASF90:
 3050 0665 6761696E 		.ascii	"gain\000"
 3050      00
 3051              	.LASF43:
 3052 066a 72656164 		.ascii	"readFrac\000"
 3052      46726163 
ARM GAS  C:\msys64\tmp\ccdqUJ8y.s 			page 59


 3052      00
 3053              	.LASF6:
 3054 0673 5F5F696E 		.ascii	"__int32_t\000"
 3054      7433325F 
 3054      7400
 3055              	.LASF39:
 3056 067d 5F5A4E33 		.ascii	"_ZN3dsp13DualDelayLine9setMemoryEP9f32pair_tj\000"
 3056      64737031 
 3056      33447561 
 3056      6C44656C 
 3056      61794C69 
 3057              	.LASF21:
 3058 06ab 66333270 		.ascii	"f32pair_t\000"
 3058      6169725F 
 3058      7400
 3059              	.LASF99:
 3060 06b5 39663332 		.ascii	"9f32pair_t\000"
 3060      70616972 
 3060      5F7400
 3061              	.LASF13:
 3062 06c0 75696E74 		.ascii	"uint8_t\000"
 3062      385F7400 
 3063              	.LASF104:
 3064 06c8 5F66785F 		.ascii	"_fx_get_bpm\000"
 3064      6765745F 
 3064      62706D00 
 3065              	.LASF45:
 3066 06d4 5F5A4E33 		.ascii	"_ZN3dsp13DualDelayLine8readFracEf\000"
 3066      64737031 
 3066      33447561 
 3066      6C44656C 
 3066      61794C69 
 3067              	.LASF81:
 3068 06f6 73717274 		.ascii	"sqrtm2log_lut_f\000"
 3068      6D326C6F 
 3068      675F6C75 
 3068      745F6600 
 3069              	.LASF22:
 3070 0706 6B5F7573 		.ascii	"k_user_module_global\000"
 3070      65725F6D 
 3070      6F64756C 
 3070      655F676C 
 3070      6F62616C 
 3071              	.LASF91:
 3072 071b 77657458 		.ascii	"wetXNL\000"
 3072      4E4C00
 3073              	.LASF77:
 3074 0722 6B5F6678 		.ascii	"k_fx_api_version\000"
 3074      5F617069 
 3074      5F766572 
 3074      73696F6E 
 3074      00
 3075              	.LASF68:
 3076 0733 5F686F6F 		.ascii	"_hook_process\000"
 3076      6B5F7072 
 3076      6F636573 
 3076      7300
ARM GAS  C:\msys64\tmp\ccdqUJ8y.s 			page 60


 3077              	.LASF52:
 3078 0741 72656164 		.ascii	"read0Frac\000"
 3078      30467261 
 3078      6300
 3079              	.LASF92:
 3080 074b 77657458 		.ascii	"wetXNR\000"
 3080      4E5200
 3081              	.LASF24:
 3082 0752 6B5F7573 		.ascii	"k_user_module_delfx\000"
 3082      65725F6D 
 3082      6F64756C 
 3082      655F6465 
 3082      6C667800 
 3083              	.LASF5:
 3084 0766 5F5F7569 		.ascii	"__uint8_t\000"
 3084      6E74385F 
 3084      7400
 3085              		.ident	"GCC: (GNU Tools for ARM Embedded Processors) 5.4.1 20160919 (release) [ARM/embedded-5-bran
ARM GAS  C:\msys64\tmp\ccdqUJ8y.s 			page 61


DEFINED SYMBOLS
                            *ABS*:00000000 pingpong.cpp
C:\msys64\tmp\ccdqUJ8y.s:21     .text:00000000 $t
C:\msys64\tmp\ccdqUJ8y.s:26     .text:00000000 _hook_init
C:\msys64\tmp\ccdqUJ8y.s:116    .text:00000058 $d
C:\msys64\tmp\ccdqUJ8y.s:122    .text:00000064 $t
C:\msys64\tmp\ccdqUJ8y.s:127    .text:00000064 _hook_process
C:\msys64\tmp\ccdqUJ8y.s:371    .text:000001c4 $d
C:\msys64\tmp\ccdqUJ8y.s:384    .text:000001e8 $t
C:\msys64\tmp\ccdqUJ8y.s:389    .text:000001e8 _hook_param
C:\msys64\tmp\ccdqUJ8y.s:488    .text:00000274 $d
C:\msys64\tmp\ccdqUJ8y.s:495    .text.startup:00000000 $t
C:\msys64\tmp\ccdqUJ8y.s:499    .text.startup:00000000 _GLOBAL__sub_I_s_len
C:\msys64\tmp\ccdqUJ8y.s:522    .text.startup:00000010 $d
C:\msys64\tmp\ccdqUJ8y.s:530    .init_array:00000000 $d
C:\msys64\tmp\ccdqUJ8y.s:547    .bss:00000018 bpm
C:\msys64\tmp\ccdqUJ8y.s:575    .bss:00000034 autopanvalR
C:\msys64\tmp\ccdqUJ8y.s:571    .bss:00000030 autopanvalL
C:\msys64\tmp\ccdqUJ8y.s:567    .bss:0000002c wetXNR
C:\msys64\tmp\ccdqUJ8y.s:563    .bss:00000028 wetXNL
C:\msys64\tmp\ccdqUJ8y.s:551    .bss:0000001c s_len
C:\msys64\tmp\ccdqUJ8y.s:539    .bss:00000000 $d
C:\msys64\tmp\ccdqUJ8y.s:543    .bss:00000000 _ZL7s_delay
C:\msys64\tmp\ccdqUJ8y.s:555    .bss:00000020 _ZL5s_mix
C:\msys64\tmp\ccdqUJ8y.s:559    .bss:00000024 _ZL4gain
C:\msys64\tmp\ccdqUJ8y.s:578    .sdram:00000000 $d
C:\msys64\tmp\ccdqUJ8y.s:582    .sdram:00000000 _ZL11s_delay_ram
                     .debug_frame:00000010 $d

UNDEFINED SYMBOLS
_fx_get_bpm
