ARM GAS  C:\msys64\tmp\cc52KdML.s 			page 1


   1              		.syntax unified
   2              		.cpu cortex-m4
   3              		.eabi_attribute 27, 1
   4              		.eabi_attribute 28, 1
   5              		.fpu fpv4-sp-d16
   6              		.eabi_attribute 20, 1
   7              		.eabi_attribute 21, 1
   8              		.eabi_attribute 23, 3
   9              		.eabi_attribute 24, 1
  10              		.eabi_attribute 25, 1
  11              		.eabi_attribute 26, 1
  12              		.eabi_attribute 30, 4
  13              		.eabi_attribute 34, 1
  14              		.eabi_attribute 18, 4
  15              		.thumb
  16              		.syntax unified
  17              		.file	"pingpong.cpp"
  18              		.text
  19              	.Ltext0:
  20              		.cfi_sections	.debug_frame
  21              		.align	1
  22              		.global	_hook_init
  23              		.thumb
  24              		.thumb_func
  25              		.type	_hook_init, %function
  26              	_hook_init:
  27              	.LFB264:
  28              		.file 1 "./src/pingpong.cpp"
  29              		.loc 1 22 0
  30              		.cfi_startproc
  31              		@ args = 0, pretend = 0, frame = 0
  32              		@ frame_needed = 0, uses_anonymous_args = 0
  33              	.LVL0:
  34              	.LBB35:
  35              	.LBB36:
  36              		.file 2 "../inc/dsp/delayline.hpp"
  37              		.loc 2 243 0
  38 0000 154A     		ldr	r2, .L5
  39 0002 164B     		ldr	r3, .L5+4
  40              		.loc 2 244 0
  41 0004 4FF48021 		mov	r1, #262144
  42              	.LVL1:
  43              	.LBE36:
  44              	.LBE35:
  45              		.loc 1 22 0
  46 0008 10B5     		push	{r4, lr}
  47              		.cfi_def_cfa_offset 8
  48              		.cfi_offset 4, -8
  49              		.cfi_offset 14, -4
  50              	.LBB38:
  51              	.LBB37:
  52              		.loc 2 244 0
  53 000a D160     		str	r1, [r2, #12]
  54              		.loc 2 245 0
  55 000c 0139     		subs	r1, r1, #1
  56              		.loc 2 243 0
  57 000e 1360     		str	r3, [r2]
ARM GAS  C:\msys64\tmp\cc52KdML.s 			page 2


  58              		.loc 2 245 0
  59 0010 1161     		str	r1, [r2, #16]
  60 0012 1033     		adds	r3, r3, #16
  61              		.loc 2 246 0
  62 0014 0021     		movs	r1, #0
  63 0016 5161     		str	r1, [r2, #20]
  64              	.LVL2:
  65 0018 1446     		mov	r4, r2
  66 001a 03F50011 		add	r1, r3, #2097152
  67              	.LBE37:
  68              	.LBE38:
  69              	.LBB39:
  70              	.LBB40:
  71              	.LBB41:
  72              		.file 3 "../inc/utils/buffer_ops.h"
  73              		.loc 3 109 0
  74 001e 0022     		movs	r2, #0
  75              	.LVL3:
  76              	.L2:
  77 0020 43F8102C 		str	r2, [r3, #-16]	@ float
  78              	.LVL4:
  79 0024 43F80C2C 		str	r2, [r3, #-12]	@ float
  80              	.LVL5:
  81 0028 43F8082C 		str	r2, [r3, #-8]	@ float
  82              	.LVL6:
  83 002c 43F8042C 		str	r2, [r3, #-4]	@ float
  84 0030 1033     		adds	r3, r3, #16
  85              	.LVL7:
  86              		.loc 3 108 0
  87 0032 9942     		cmp	r1, r3
  88 0034 F4D1     		bne	.L2
  89              	.LVL8:
  90              	.LBE41:
  91              	.LBE40:
  92              	.LBE39:
  93              		.loc 1 25 0
  94 0036 FFF7FEFF 		bl	_fx_get_bpm
  95              	.LVL9:
  96              		.loc 1 26 0
  97 003a 0A23     		movs	r3, #10
  98              		.loc 1 25 0
  99 003c A061     		str	r0, [r4, #24]
 100              		.loc 1 26 0
 101 003e 90FBF3F0 		sdiv	r0, r0, r3
 102 0042 3C23     		movs	r3, #60
 103 0044 93FBF0F0 		sdiv	r0, r3, r0
 104 0048 054B     		ldr	r3, .L5+8
 105 004a 5843     		muls	r0, r3, r0
 106              		.loc 1 27 0
 107 004c 4FF07C53 		mov	r3, #1056964608
 108              		.loc 1 26 0
 109 0050 E061     		str	r0, [r4, #28]
 110              		.loc 1 27 0
 111 0052 2362     		str	r3, [r4, #32]	@ float
 112 0054 10BD     		pop	{r4, pc}
 113              	.L6:
 114 0056 00BF     		.align	2
ARM GAS  C:\msys64\tmp\cc52KdML.s 			page 3


 115              	.L5:
 116 0058 00000000 		.word	.LANCHOR0
 117 005c 00000000 		.word	.LANCHOR1
 118 0060 008A6600 		.word	6720000
 119              		.cfi_endproc
 120              	.LFE264:
 121              		.size	_hook_init, .-_hook_init
 122              		.global	__aeabi_f2d
 123              		.global	__aeabi_dmul
 124              		.global	__aeabi_dadd
 125              		.global	__aeabi_d2f
 126              		.align	1
 127              		.global	_hook_process
 128              		.thumb
 129              		.thumb_func
 130              		.type	_hook_process, %function
 131              	_hook_process:
 132              	.LFB266:
 133              		.loc 1 36 0
 134              		.cfi_startproc
 135              		@ args = 0, pretend = 0, frame = 16
 136              		@ frame_needed = 0, uses_anonymous_args = 0
 137              	.LVL10:
 138 0064 2DE9F04F 		push	{r4, r5, r6, r7, r8, r9, r10, fp, lr}
 139              		.cfi_def_cfa_offset 36
 140              		.cfi_offset 4, -36
 141              		.cfi_offset 5, -32
 142              		.cfi_offset 6, -28
 143              		.cfi_offset 7, -24
 144              		.cfi_offset 8, -20
 145              		.cfi_offset 9, -16
 146              		.cfi_offset 10, -12
 147              		.cfi_offset 11, -8
 148              		.cfi_offset 14, -4
 149 0068 2DED0E8B 		vpush.64	{d8, d9, d10, d11, d12, d13, d14}
 150              		.cfi_def_cfa_offset 92
 151              		.cfi_offset 80, -92
 152              		.cfi_offset 81, -88
 153              		.cfi_offset 82, -84
 154              		.cfi_offset 83, -80
 155              		.cfi_offset 84, -76
 156              		.cfi_offset 85, -72
 157              		.cfi_offset 86, -68
 158              		.cfi_offset 87, -64
 159              		.cfi_offset 88, -60
 160              		.cfi_offset 89, -56
 161              		.cfi_offset 90, -52
 162              		.cfi_offset 91, -48
 163              		.cfi_offset 92, -44
 164              		.cfi_offset 93, -40
 165              		.loc 1 40 0
 166 006c 764C     		ldr	r4, .L10+16
 167              	.LBB42:
 168              	.LBB43:
 169              		.loc 1 49 0
 170 006e 9FED77BA 		vldr.32	s22, .L10+20
 171              		.loc 1 45 0
ARM GAS  C:\msys64\tmp\cc52KdML.s 			page 4


 172 0072 D4F81CB0 		ldr	fp, [r4, #28]
 173 0076 6769     		ldr	r7, [r4, #20]
 174              	.LBE43:
 175              	.LBE42:
 176              		.loc 1 40 0
 177 0078 D4ED08DA 		vldr.32	s27, [r4, #32]
 178              	.LBB72:
 179              	.LBB68:
 180              	.LBB44:
 181              	.LBB45:
 182              		.loc 2 309 0
 183 007c D4F80080 		ldr	r8, [r4]
 184 0080 D4F81090 		ldr	r9, [r4, #16]
 185              	.LBE45:
 186              	.LBE44:
 187              		.loc 1 45 0
 188 0084 94ED09EA 		vldr.32	s28, [r4, #36]
 189              		.loc 1 49 0
 190 0088 DFED71AA 		vldr.32	s21, .L10+24
 191 008c 9FED71AA 		vldr.32	s20, .L10+28
 192 0090 DFED719A 		vldr.32	s19, .L10+32
 193 0094 9FED719A 		vldr.32	s18, .L10+36
 194 0098 DFED718A 		vldr.32	s17, .L10+40
 195              	.LBE68:
 196              	.LBE72:
 197              		.loc 1 36 0
 198 009c 85B0     		sub	sp, sp, #20
 199              		.cfi_def_cfa_offset 112
 200              		.loc 1 38 0
 201 009e 4FEAC10A 		lsl	r10, r1, #3
 202 00a2 00EB0A03 		add	r3, r0, r10
 203 00a6 0093     		str	r3, [sp]
 204              	.LVL11:
 205              	.LBB73:
 206              	.LBB69:
 207              		.loc 1 46 0
 208 00a8 4FEA5B03 		lsr	r3, fp, #1
 209              	.LVL12:
 210 00ac 0193     		str	r3, [sp, #4]
 211 00ae 3D46     		mov	r5, r7
 212              	.LVL13:
 213              	.L9:
 214              	.LBE69:
 215              		.loc 1 43 0 discriminator 2
 216 00b0 009B     		ldr	r3, [sp]
 217 00b2 8342     		cmp	r3, r0
 218 00b4 00F10806 		add	r6, r0, #8
 219 00b8 00F0B380 		beq	.L8
 220              	.LVL14:
 221              	.LBB70:
 222              	.LBB47:
 223              	.LBB48:
 224              		.loc 2 320 0 discriminator 1
 225 00bc 019B     		ldr	r3, [sp, #4]
 226              	.LBE48:
 227              	.LBE47:
 228              		.loc 1 49 0 discriminator 1
ARM GAS  C:\msys64\tmp\cc52KdML.s 			page 5


 229 00be DFED69CA 		vldr.32	s25, .L10+44
 230 00c2 9FED69CA 		vldr.32	s24, .L10+48
 231              	.LBB50:
 232              	.LBB49:
 233              		.loc 2 320 0 discriminator 1
 234 00c6 2B44     		add	r3, r3, r5
 235 00c8 03EA0903 		and	r3, r3, r9
 236 00cc 08EBC303 		add	r3, r8, r3, lsl #3
 237              	.LBE49:
 238              	.LBE50:
 239              		.loc 1 46 0 discriminator 1
 240 00d0 D3ED017A 		vldr.32	s15, [r3, #4]
 241              	.LBB51:
 242              	.LBB46:
 243              		.loc 2 309 0 discriminator 1
 244 00d4 0BEB0503 		add	r3, fp, r5
 245 00d8 03EA0903 		and	r3, r3, r9
 246              	.LVL15:
 247 00dc 08EBC303 		add	r3, r8, r3, lsl #3
 248              	.LVL16:
 249              	.LBE46:
 250              	.LBE51:
 251              		.loc 1 47 0 discriminator 1
 252 00e0 93ED007A 		vldr.32	s14, [r3]
 253              		.loc 1 46 0 discriminator 1
 254 00e4 6EEE277A 		vmul.f32	s15, s28, s15
 255              	.LVL17:
 256              		.loc 1 47 0 discriminator 1
 257 00e8 2EEE077A 		vmul.f32	s14, s28, s14
 258              		.loc 1 48 0 discriminator 1
 259 00ec 6DEEA77A 		vmul.f32	s15, s27, s15
 260              	.LVL18:
 261              		.loc 1 47 0 discriminator 1
 262 00f0 27EE2D7A 		vmul.f32	s14, s14, s27
 263              		.loc 1 48 0 discriminator 1
 264 00f4 C4ED0B7A 		vstr.32	s15, [r4, #44]
 265              	.LVL19:
 266              	.LBB52:
 267              	.LBB53:
 268              		.loc 1 32 0 discriminator 1
 269 00f8 67EE077A 		vmul.f32	s15, s14, s14
 270 00fc B6EE008A 		vmov.f32	s16, #5.0e-1
 271 0100 67EE877A 		vmul.f32	s15, s15, s14
 272 0104 B7EE08DA 		vmov.f32	s26, #1.5e+0
 273 0108 68EE677A 		vnmul.f32	s15, s16, s15
 274              	.LBE53:
 275              	.LBE52:
 276              		.loc 1 47 0 discriminator 1
 277 010c 84ED0A7A 		vstr.32	s14, [r4, #40]
 278              	.LBB55:
 279              	.LBB54:
 280              		.loc 1 32 0 discriminator 1
 281 0110 E7EE0D7A 		vfma.f32	s15, s14, s26
 282              	.LVL20:
 283              	.LBE54:
 284              	.LBE55:
 285              		.loc 1 49 0 discriminator 1
ARM GAS  C:\msys64\tmp\cc52KdML.s 			page 6


 286 0114 B0EE6A7A 		vmov.f32	s14, s21
 287 0118 A7EE8B7A 		vfma.f32	s14, s15, s22
 288 011c F0EE4A6A 		vmov.f32	s13, s20
 289 0120 E7EE276A 		vfma.f32	s13, s14, s15
 290 0124 B0EE6C6A 		vmov.f32	s12, s25
 291 0128 B0EE667A 		vmov.f32	s14, s13
 292 012c F0EE696A 		vmov.f32	s13, s19
 293 0130 E7EE276A 		vfma.f32	s13, s14, s15
 294 0134 B0EE667A 		vmov.f32	s14, s13
 295 0138 F0EE686A 		vmov.f32	s13, s17
 296 013c E7EE896A 		vfma.f32	s13, s15, s18
 297 0140 A6EEA76A 		vfma.f32	s12, s13, s15
 298 0144 F0EE466A 		vmov.f32	s13, s12
 299 0148 B0EE4C6A 		vmov.f32	s12, s24
 300 014c A6EEA76A 		vfma.f32	s12, s13, s15
 301 0150 C7EE066A 		vdiv.f32	s13, s14, s12
 302 0154 16EE900A 		vmov	r0, s13
 303              	.LVL21:
 304 0158 FFF7FEFF 		bl	__aeabi_f2d
 305              	.LVL22:
 306 015c 36A3     		adr	r3, .L10
 307 015e D3E90023 		ldrd	r2, [r3]
 308 0162 FFF7FEFF 		bl	__aeabi_dmul
 309              	.LVL23:
 310 0166 CDE90201 		strd	r0, [sp, #8]
 311 016a 56F8080C 		ldr	r0, [r6, #-8]	@ float
 312 016e FFF7FEFF 		bl	__aeabi_f2d
 313              	.LVL24:
 314 0172 0246     		mov	r2, r0
 315 0174 0B46     		mov	r3, r1
 316 0176 DDE90201 		ldrd	r0, [sp, #8]
 317 017a FFF7FEFF 		bl	__aeabi_dadd
 318              	.LVL25:
 319 017e FFF7FEFF 		bl	__aeabi_d2f
 320              	.LVL26:
 321 0182 46F8080C 		str	r0, [r6, #-8]	@ float
 322              		.loc 1 50 0 discriminator 1
 323 0186 94ED0B7A 		vldr.32	s14, [r4, #44]
 324              	.LVL27:
 325              	.LBB56:
 326              	.LBB57:
 327              		.loc 1 32 0 discriminator 1
 328 018a 67EE077A 		vmul.f32	s15, s14, s14
 329              	.LBE57:
 330              	.LBE56:
 331              		.loc 1 50 0 discriminator 1
 332 018e F0EE4A6A 		vmov.f32	s13, s20
 333              	.LBB60:
 334              	.LBB58:
 335              		.loc 1 32 0 discriminator 1
 336 0192 67EE877A 		vmul.f32	s15, s15, s14
 337              	.LBE58:
 338              	.LBE60:
 339              		.loc 1 49 0 discriminator 1
 340 0196 0BEE900A 		vmov	s23, r0
 341              	.LBB61:
 342              	.LBB59:
ARM GAS  C:\msys64\tmp\cc52KdML.s 			page 7


 343              		.loc 1 32 0 discriminator 1
 344 019a 68EE677A 		vnmul.f32	s15, s16, s15
 345 019e E7EE0D7A 		vfma.f32	s15, s14, s26
 346              	.LVL28:
 347              	.LBE59:
 348              	.LBE61:
 349              		.loc 1 50 0 discriminator 1
 350 01a2 B0EE6A7A 		vmov.f32	s14, s21
 351 01a6 A7EE8B7A 		vfma.f32	s14, s15, s22
 352 01aa E7EE276A 		vfma.f32	s13, s14, s15
 353 01ae B0EE667A 		vmov.f32	s14, s13
 354 01b2 F0EE696A 		vmov.f32	s13, s19
 355 01b6 E7EE276A 		vfma.f32	s13, s14, s15
 356 01ba B0EE667A 		vmov.f32	s14, s13
 357 01be F0EE686A 		vmov.f32	s13, s17
 358 01c2 E7EE896A 		vfma.f32	s13, s15, s18
 359 01c6 E6EEA7CA 		vfma.f32	s25, s13, s15
 360 01ca ACEEA7CA 		vfma.f32	s24, s25, s15
 361 01ce C7EE0C7A 		vdiv.f32	s15, s14, s24
 362 01d2 17EE900A 		vmov	r0, s15
 363 01d6 FFF7FEFF 		bl	__aeabi_f2d
 364              	.LVL29:
 365 01da 19A3     		adr	r3, .L10+8
 366 01dc D3E90023 		ldrd	r2, [r3]
 367 01e0 FFF7FEFF 		bl	__aeabi_dmul
 368              	.LVL30:
 369 01e4 CDE90201 		strd	r0, [sp, #8]
 370 01e8 56F8040C 		ldr	r0, [r6, #-4]	@ float
 371 01ec FFF7FEFF 		bl	__aeabi_f2d
 372              	.LVL31:
 373 01f0 0B46     		mov	r3, r1
 374 01f2 0246     		mov	r2, r0
 375 01f4 DDE90201 		ldrd	r0, [sp, #8]
 376 01f8 FFF7FEFF 		bl	__aeabi_dadd
 377              	.LVL32:
 378 01fc FFF7FEFF 		bl	__aeabi_d2f
 379              	.LVL33:
 380              	.LBB62:
 381              	.LBB63:
 382              		.loc 2 256 0 discriminator 1
 383 0200 09EA0503 		and	r3, r9, r5
 384 0204 08EBC303 		add	r3, r8, r3, lsl #3
 385 0208 F7EE007A 		vmov.f32	s15, #1.0e+0
 386              	.LBE63:
 387              	.LBE62:
 388              		.loc 1 50 0 discriminator 1
 389 020c 46F8040C 		str	r0, [r6, #-4]	@ float
 390              	.LVL34:
 391              	.LBB66:
 392              	.LBB64:
 393              		.loc 2 256 0 discriminator 1
 394 0210 C3ED00BA 		vstr.32	s23, [r3]
 395 0214 7BEEA7BA 		vadd.f32	s23, s23, s15
 396              	.LVL35:
 397              	.LBE64:
 398              	.LBE66:
 399              	.LBE70:
ARM GAS  C:\msys64\tmp\cc52KdML.s 			page 8


 400              		.loc 1 43 0 discriminator 1
 401 0218 3046     		mov	r0, r6
 402              	.LBB71:
 403              	.LBB67:
 404              	.LBB65:
 405              		.loc 2 256 0 discriminator 1
 406 021a C3ED01BA 		vstr.32	s23, [r3, #4]
 407              	.LVL36:
 408 021e 013D     		subs	r5, r5, #1
 409              	.LBE65:
 410              	.LBE67:
 411              	.LBE71:
 412              		.loc 1 43 0 discriminator 1
 413 0220 46E7     		b	.L9
 414              	.LVL37:
 415              	.L8:
 416 0222 094B     		ldr	r3, .L10+16
 417 0224 A7EBDA07 		sub	r7, r7, r10, lsr #3
 418 0228 5F61     		str	r7, [r3, #20]
 419              	.LBE73:
 420              		.loc 1 55 0
 421 022a 05B0     		add	sp, sp, #20
 422              		.cfi_def_cfa_offset 92
 423              	.LVL38:
 424              		@ sp needed
 425 022c BDEC0E8B 		vldm	sp!, {d8-d14}
 426              		.cfi_restore 92
 427              		.cfi_restore 93
 428              		.cfi_restore 90
 429              		.cfi_restore 91
 430              		.cfi_restore 88
 431              		.cfi_restore 89
 432              		.cfi_restore 86
 433              		.cfi_restore 87
 434              		.cfi_restore 84
 435              		.cfi_restore 85
 436              		.cfi_restore 82
 437              		.cfi_restore 83
 438              		.cfi_restore 80
 439              		.cfi_restore 81
 440              		.cfi_def_cfa_offset 36
 441 0230 BDE8F08F 		pop	{r4, r5, r6, r7, r8, r9, r10, fp, pc}
 442              	.LVL39:
 443              	.L11:
 444 0234 AFF30080 		.align	3
 445              	.L10:
 446 0238 996EE475 		.word	1977904793
 447 023c 9DA0E63F 		.word	1072079005
 448 0240 02FF1957 		.word	1461321474
 449 0244 9FA0E63F 		.word	1072079007
 450 0248 00000000 		.word	.LANCHOR0
 451 024c 3684093D 		.word	1024033846
 452 0250 72146F3D 		.word	1030689906
 453 0254 0CBD7C3E 		.word	1048362252
 454 0258 C847E2B6 		.word	-1226684472
 455 025c FF7EEB3C 		.word	1022066431
 456 0260 4D74DE3D 		.word	1037988941
ARM GAS  C:\msys64\tmp\cc52KdML.s 			page 9


 457 0264 AF96793D 		.word	1031378607
 458 0268 75667C3E 		.word	1048340085
 459              		.cfi_endproc
 460              	.LFE266:
 461              		.size	_hook_process, .-_hook_process
 462              		.align	1
 463              		.global	_hook_param
 464              		.thumb
 465              		.thumb_func
 466              		.type	_hook_param, %function
 467              	_hook_param:
 468              	.LFB267:
 469              		.loc 1 58 0
 470              		.cfi_startproc
 471              		@ args = 0, pretend = 0, frame = 0
 472              		@ frame_needed = 0, uses_anonymous_args = 0
 473              	.LVL40:
 474 026c 08B5     		push	{r3, lr}
 475              		.cfi_def_cfa_offset 8
 476              		.cfi_offset 3, -8
 477              		.cfi_offset 14, -4
 478 026e 2DED028B 		vpush.64	{d8}
 479              		.cfi_def_cfa_offset 16
 480              		.cfi_offset 80, -16
 481              		.cfi_offset 81, -12
 482              		.loc 1 59 0
 483 0272 08EE101A 		vmov	s16, r1	@ int
 484              		.loc 1 60 0
 485 0276 0128     		cmp	r0, #1
 486              		.loc 1 59 0
 487 0278 BAEEE08A 		vcvt.f32.s32	s16, s16, #31
 488              	.LVL41:
 489              		.loc 1 60 0
 490 027c 0AD0     		beq	.L14
 491 027e 05D3     		bcc	.L15
 492 0280 0328     		cmp	r0, #3
 493 0282 35D1     		bne	.L12
 494              		.loc 1 92 0
 495 0284 1C4B     		ldr	r3, .L29
 496 0286 83ED088A 		vstr.32	s16, [r3, #32]
 497              		.loc 1 97 0
 498 028a 31E0     		b	.L12
 499              	.L15:
 500              		.loc 1 64 0
 501 028c 1A4B     		ldr	r3, .L29
 502 028e 83ED098A 		vstr.32	s16, [r3, #36]
 503              		.loc 1 65 0
 504 0292 2DE0     		b	.L12
 505              	.L14:
 506              		.loc 1 67 0
 507 0294 FFF7FEFF 		bl	_fx_get_bpm
 508              	.LVL42:
 509              		.loc 1 69 0
 510 0298 F5EE007A 		vmov.f32	s15, #2.5e-1
 511              		.loc 1 67 0
 512 029c 0A23     		movs	r3, #10
 513              		.loc 1 69 0
ARM GAS  C:\msys64\tmp\cc52KdML.s 			page 10


 514 029e B4EEE78A 		vcmpe.f32	s16, s15
 515              		.loc 1 67 0
 516 02a2 B0FBF3F0 		udiv	r0, r0, r3
 517 02a6 144B     		ldr	r3, .L29
 518 02a8 80B2     		uxth	r0, r0
 519              		.loc 1 69 0
 520 02aa F1EE10FA 		vmrs	APSR_nzcv, FPSCR
 521              		.loc 1 67 0
 522 02ae 9861     		str	r0, [r3, #24]
 523              		.loc 1 69 0
 524 02b0 05D5     		bpl	.L26
 525              		.loc 1 72 0
 526 02b2 124A     		ldr	r2, .L29+4
 527 02b4 92FBF0F0 		sdiv	r0, r2, r0
 528 02b8 8000     		lsls	r0, r0, #2
 529 02ba D861     		str	r0, [r3, #28]
 530 02bc 18E0     		b	.L12
 531              	.L26:
 532              		.loc 1 74 0
 533 02be F6EE007A 		vmov.f32	s15, #5.0e-1
 534 02c2 B4EEE78A 		vcmpe.f32	s16, s15
 535 02c6 F1EE10FA 		vmrs	APSR_nzcv, FPSCR
 536 02ca 05D5     		bpl	.L27
 537              		.loc 1 77 0
 538 02cc 0B4A     		ldr	r2, .L29+4
 539 02ce 92FBF0F0 		sdiv	r0, r2, r0
 540 02d2 4000     		lsls	r0, r0, #1
 541 02d4 D861     		str	r0, [r3, #28]
 542 02d6 0BE0     		b	.L12
 543              	.L27:
 544              		.loc 1 79 0
 545 02d8 F6EE087A 		vmov.f32	s15, #7.5e-1
 546 02dc B4EEE78A 		vcmpe.f32	s16, s15
 547 02e0 F1EE10FA 		vmrs	APSR_nzcv, FPSCR
 548              		.loc 1 82 0
 549 02e4 4CBF     		ite	mi
 550 02e6 054A     		ldrmi	r2, .L29+4
 551              		.loc 1 87 0
 552 02e8 054A     		ldrpl	r2, .L29+8
 553 02ea 92FBF0F0 		sdiv	r0, r2, r0
 554 02ee D861     		str	r0, [r3, #28]
 555              	.L12:
 556              		.loc 1 97 0
 557 02f0 BDEC028B 		vldm	sp!, {d8}
 558              		.cfi_restore 80
 559              		.cfi_restore 81
 560              		.cfi_def_cfa_offset 8
 561              	.LVL43:
 562 02f4 08BD     		pop	{r3, pc}
 563              	.L30:
 564 02f6 00BF     		.align	2
 565              	.L29:
 566 02f8 00000000 		.word	.LANCHOR0
 567 02fc 00F22B00 		.word	2880000
 568 0300 00F91500 		.word	1440000
 569              		.cfi_endproc
 570              	.LFE267:
ARM GAS  C:\msys64\tmp\cc52KdML.s 			page 11


 571              		.size	_hook_param, .-_hook_param
 572              		.section	.text.startup,"ax",%progbits
 573              		.align	1
 574              		.thumb
 575              		.thumb_func
 576              		.type	_GLOBAL__sub_I_s_len, %function
 577              	_GLOBAL__sub_I_s_len:
 578              	.LFB269:
 579              		.loc 1 97 0
 580              		.cfi_startproc
 581              		@ args = 0, pretend = 0, frame = 0
 582              		@ frame_needed = 0, uses_anonymous_args = 0
 583              		@ link register save eliminated.
 584              	.LVL44:
 585              	.LBB78:
 586              	.LBB79:
 587              	.LBB80:
 588              		.loc 2 204 0
 589 0000 034B     		ldr	r3, .L32
 590 0002 0022     		movs	r2, #0
 591 0004 1A60     		str	r2, [r3]
 592 0006 DA60     		str	r2, [r3, #12]
 593 0008 1A61     		str	r2, [r3, #16]
 594 000a 5A61     		str	r2, [r3, #20]
 595              	.LVL45:
 596 000c 7047     		bx	lr
 597              	.L33:
 598 000e 00BF     		.align	2
 599              	.L32:
 600 0010 00000000 		.word	.LANCHOR0
 601              	.LBE80:
 602              	.LBE79:
 603              	.LBE78:
 604              		.cfi_endproc
 605              	.LFE269:
 606              		.size	_GLOBAL__sub_I_s_len, .-_GLOBAL__sub_I_s_len
 607              		.section	.init_array,"aw",%init_array
 608              		.align	2
 609 0000 00000000 		.word	_GLOBAL__sub_I_s_len(target1)
 610              		.global	bpm
 611              		.global	wetXNR
 612              		.global	wetXNL
 613              		.global	s_len
 614              		.bss
 615              		.align	2
 616              		.set	.LANCHOR0,. + 0
 617              		.type	_ZL7s_delay, %object
 618              		.size	_ZL7s_delay, 24
 619              	_ZL7s_delay:
 620 0000 00000000 		.space	24
 620      00000000 
 620      00000000 
 620      00000000 
 620      00000000 
 621              		.type	bpm, %object
 622              		.size	bpm, 4
 623              	bpm:
ARM GAS  C:\msys64\tmp\cc52KdML.s 			page 12


 624 0018 00000000 		.space	4
 625              		.type	s_len, %object
 626              		.size	s_len, 4
 627              	s_len:
 628 001c 00000000 		.space	4
 629              		.type	_ZL5s_mix, %object
 630              		.size	_ZL5s_mix, 4
 631              	_ZL5s_mix:
 632 0020 00000000 		.space	4
 633              		.type	_ZL4gain, %object
 634              		.size	_ZL4gain, 4
 635              	_ZL4gain:
 636 0024 00000000 		.space	4
 637              		.type	wetXNL, %object
 638              		.size	wetXNL, 4
 639              	wetXNL:
 640 0028 00000000 		.space	4
 641              		.type	wetXNR, %object
 642              		.size	wetXNR, 4
 643              	wetXNR:
 644 002c 00000000 		.space	4
 645              		.section	.sdram,"aw",%progbits
 646              		.align	2
 647              		.set	.LANCHOR1,. + 0
 648              		.type	_ZL11s_delay_ram, %object
 649              		.size	_ZL11s_delay_ram, 1680000
 650              	_ZL11s_delay_ram:
 651 0000 00000000 		.space	1680000
 651      00000000 
 651      00000000 
 651      00000000 
 651      00000000 
 652              		.text
 653              	.Letext0:
 654              		.file 4 "c:\\users\\bradl\\desktop\\code projects\\korgfx\\korgdelayfxset\\delays\\tools\\gcc\\gcc
 655              		.file 5 "c:\\users\\bradl\\desktop\\code projects\\korgfx\\korgdelayfxset\\delays\\tools\\gcc\\gcc
 656              		.file 6 "c:\\users\\bradl\\desktop\\code projects\\korgfx\\korgdelayfxset\\delays\\tools\\gcc\\gcc
 657              		.file 7 "../inc/utils/float_math.h"
 658              		.file 8 "../inc/utils/int_math.h"
 659              		.file 9 "../inc/fx_api.h"
 660              		.file 10 "../inc/userprg.h"
 661              		.section	.debug_info,"",%progbits
 662              	.Ldebug_info0:
 663 0000 FC080000 		.4byte	0x8fc
 664 0004 0400     		.2byte	0x4
 665 0006 00000000 		.4byte	.Ldebug_abbrev0
 666 000a 04       		.byte	0x4
 667 000b 01       		.uleb128 0x1
 668 000c 4F030000 		.4byte	.LASF93
 669 0010 04       		.byte	0x4
 670 0011 39050000 		.4byte	.LASF94
 671 0015 00000000 		.4byte	.LASF95
 672 0019 D0000000 		.4byte	.Ldebug_ranges0+0xd0
 673 001d 00000000 		.4byte	0
 674 0021 00000000 		.4byte	.Ldebug_line0
 675 0025 02       		.uleb128 0x2
 676 0026 04       		.byte	0x4
ARM GAS  C:\msys64\tmp\cc52KdML.s 			page 13


 677 0027 04       		.byte	0x4
 678 0028 6C020000 		.4byte	.LASF0
 679 002c 03       		.uleb128 0x3
 680 002d 04       		.byte	0x4
 681 002e 05       		.byte	0x5
 682 002f 696E7400 		.ascii	"int\000"
 683 0033 02       		.uleb128 0x2
 684 0034 01       		.byte	0x1
 685 0035 06       		.byte	0x6
 686 0036 56020000 		.4byte	.LASF1
 687 003a 04       		.uleb128 0x4
 688 003b 4E070000 		.4byte	.LASF5
 689 003f 04       		.byte	0x4
 690 0040 1D       		.byte	0x1d
 691 0041 45000000 		.4byte	0x45
 692 0045 02       		.uleb128 0x2
 693 0046 01       		.byte	0x1
 694 0047 08       		.byte	0x8
 695 0048 F9020000 		.4byte	.LASF2
 696 004c 02       		.uleb128 0x2
 697 004d 02       		.byte	0x2
 698 004e 05       		.byte	0x5
 699 004f 7B010000 		.4byte	.LASF3
 700 0053 02       		.uleb128 0x2
 701 0054 02       		.byte	0x2
 702 0055 07       		.byte	0x7
 703 0056 18050000 		.4byte	.LASF4
 704 005a 04       		.uleb128 0x4
 705 005b 5B060000 		.4byte	.LASF6
 706 005f 04       		.byte	0x4
 707 0060 3F       		.byte	0x3f
 708 0061 65000000 		.4byte	0x65
 709 0065 02       		.uleb128 0x2
 710 0066 04       		.byte	0x4
 711 0067 05       		.byte	0x5
 712 0068 85010000 		.4byte	.LASF7
 713 006c 04       		.uleb128 0x4
 714 006d 51010000 		.4byte	.LASF8
 715 0071 04       		.byte	0x4
 716 0072 41       		.byte	0x41
 717 0073 77000000 		.4byte	0x77
 718 0077 02       		.uleb128 0x2
 719 0078 04       		.byte	0x4
 720 0079 07       		.byte	0x7
 721 007a 14060000 		.4byte	.LASF9
 722 007e 02       		.uleb128 0x2
 723 007f 08       		.byte	0x8
 724 0080 05       		.byte	0x5
 725 0081 9A020000 		.4byte	.LASF10
 726 0085 02       		.uleb128 0x2
 727 0086 08       		.byte	0x8
 728 0087 07       		.byte	0x7
 729 0088 67040000 		.4byte	.LASF11
 730 008c 02       		.uleb128 0x2
 731 008d 04       		.byte	0x4
 732 008e 07       		.byte	0x7
 733 008f A2040000 		.4byte	.LASF12
ARM GAS  C:\msys64\tmp\cc52KdML.s 			page 14


 734 0093 04       		.uleb128 0x4
 735 0094 A8060000 		.4byte	.LASF13
 736 0098 05       		.byte	0x5
 737 0099 18       		.byte	0x18
 738 009a 3A000000 		.4byte	0x3a
 739 009e 04       		.uleb128 0x4
 740 009f 71050000 		.4byte	.LASF14
 741 00a3 05       		.byte	0x5
 742 00a4 2C       		.byte	0x2c
 743 00a5 5A000000 		.4byte	0x5a
 744 00a9 04       		.uleb128 0x4
 745 00aa 99040000 		.4byte	.LASF15
 746 00ae 05       		.byte	0x5
 747 00af 30       		.byte	0x30
 748 00b0 6C000000 		.4byte	0x6c
 749 00b4 04       		.uleb128 0x4
 750 00b5 07010000 		.4byte	.LASF16
 751 00b9 06       		.byte	0x6
 752 00ba D8       		.byte	0xd8
 753 00bb 8C000000 		.4byte	0x8c
 754 00bf 02       		.uleb128 0x2
 755 00c0 08       		.byte	0x8
 756 00c1 04       		.byte	0x4
 757 00c2 07030000 		.4byte	.LASF17
 758 00c6 05       		.uleb128 0x5
 759 00c7 BB000000 		.4byte	.LASF96
 760 00cb 02       		.uleb128 0x2
 761 00cc 04       		.byte	0x4
 762 00cd 07       		.byte	0x7
 763 00ce 20010000 		.4byte	.LASF18
 764 00d2 02       		.uleb128 0x2
 765 00d3 01       		.byte	0x1
 766 00d4 08       		.byte	0x8
 767 00d5 62050000 		.4byte	.LASF19
 768 00d9 02       		.uleb128 0x2
 769 00da 08       		.byte	0x8
 770 00db 04       		.byte	0x4
 771 00dc 74010000 		.4byte	.LASF20
 772 00e0 06       		.uleb128 0x6
 773 00e1 08       		.byte	0x8
 774 00e2 07       		.byte	0x7
 775 00e3 A6       		.byte	0xa6
 776 00e4 9D060000 		.4byte	.LASF97
 777 00e8 01010000 		.4byte	0x101
 778 00ec 07       		.uleb128 0x7
 779 00ed 6100     		.ascii	"a\000"
 780 00ef 07       		.byte	0x7
 781 00f0 A7       		.byte	0xa7
 782 00f1 25000000 		.4byte	0x25
 783 00f5 00       		.byte	0
 784 00f6 07       		.uleb128 0x7
 785 00f7 6200     		.ascii	"b\000"
 786 00f9 07       		.byte	0x7
 787 00fa A8       		.byte	0xa8
 788 00fb 25000000 		.4byte	0x25
 789 00ff 04       		.byte	0x4
 790 0100 00       		.byte	0
ARM GAS  C:\msys64\tmp\cc52KdML.s 			page 15


 791 0101 04       		.uleb128 0x4
 792 0102 93060000 		.4byte	.LASF21
 793 0106 07       		.byte	0x7
 794 0107 A9       		.byte	0xa9
 795 0108 E0000000 		.4byte	0xe0
 796 010c 08       		.uleb128 0x8
 797 010d 01       		.byte	0x1
 798 010e 45000000 		.4byte	0x45
 799 0112 0A       		.byte	0xa
 800 0113 35       		.byte	0x35
 801 0114 3D010000 		.4byte	0x13d
 802 0118 09       		.uleb128 0x9
 803 0119 EE060000 		.4byte	.LASF22
 804 011d 00       		.byte	0
 805 011e 09       		.uleb128 0x9
 806 011f 13030000 		.4byte	.LASF23
 807 0123 01       		.byte	0x1
 808 0124 09       		.uleb128 0x9
 809 0125 3A070000 		.4byte	.LASF24
 810 0129 02       		.byte	0x2
 811 012a 09       		.uleb128 0x9
 812 012b F7050000 		.4byte	.LASF25
 813 012f 03       		.byte	0x3
 814 0130 09       		.uleb128 0x9
 815 0131 D3010000 		.4byte	.LASF26
 816 0135 04       		.byte	0x4
 817 0136 09       		.uleb128 0x9
 818 0137 AD010000 		.4byte	.LASF27
 819 013b 05       		.byte	0x5
 820 013c 00       		.byte	0
 821 013d 0A       		.uleb128 0xa
 822 013e 04       		.byte	0x4
 823 013f 25000000 		.4byte	0x25
 824 0143 0B       		.uleb128 0xb
 825 0144 64737000 		.ascii	"dsp\000"
 826 0148 02       		.byte	0x2
 827 0149 33       		.byte	0x33
 828 014a 7D030000 		.4byte	0x37d
 829 014e 0C       		.uleb128 0xc
 830 014f 34010000 		.4byte	.LASF33
 831 0153 18       		.byte	0x18
 832 0154 02       		.byte	0x2
 833 0155 BB       		.byte	0xbb
 834 0156 0D       		.uleb128 0xd
 835 0157 08050000 		.4byte	.LASF28
 836 015b 02       		.byte	0x2
 837 015c 8301     		.2byte	0x183
 838 015e 7D030000 		.4byte	0x37d
 839 0162 00       		.byte	0
 840 0163 0D       		.uleb128 0xd
 841 0164 C0010000 		.4byte	.LASF29
 842 0168 02       		.byte	0x2
 843 0169 8401     		.2byte	0x184
 844 016b 01010000 		.4byte	0x101
 845 016f 04       		.byte	0x4
 846 0170 0D       		.uleb128 0xd
 847 0171 01010000 		.4byte	.LASF30
ARM GAS  C:\msys64\tmp\cc52KdML.s 			page 16


 848 0175 02       		.byte	0x2
 849 0176 8501     		.2byte	0x185
 850 0178 B4000000 		.4byte	0xb4
 851 017c 0C       		.byte	0xc
 852 017d 0D       		.uleb128 0xd
 853 017e CD010000 		.4byte	.LASF31
 854 0182 02       		.byte	0x2
 855 0183 8601     		.2byte	0x186
 856 0185 B4000000 		.4byte	0xb4
 857 0189 10       		.byte	0x10
 858 018a 0D       		.uleb128 0xd
 859 018b 58050000 		.4byte	.LASF32
 860 018f 02       		.byte	0x2
 861 0190 8701     		.2byte	0x187
 862 0192 A9000000 		.4byte	0xa9
 863 0196 14       		.byte	0x14
 864 0197 0E       		.uleb128 0xe
 865 0198 34010000 		.4byte	.LASF33
 866 019c 02       		.byte	0x2
 867 019d C8       		.byte	0xc8
 868 019e 7E040000 		.4byte	.LASF34
 869 01a2 83030000 		.4byte	0x383
 870 01a6 AE010000 		.4byte	0x1ae
 871 01aa B4010000 		.4byte	0x1b4
 872 01ae 0F       		.uleb128 0xf
 873 01af 83030000 		.4byte	0x383
 874 01b3 00       		.byte	0
 875 01b4 0E       		.uleb128 0xe
 876 01b5 34010000 		.4byte	.LASF33
 877 01b9 02       		.byte	0x2
 878 01ba D7       		.byte	0xd7
 879 01bb AF040000 		.4byte	.LASF35
 880 01bf 83030000 		.4byte	0x383
 881 01c3 CB010000 		.4byte	0x1cb
 882 01c7 DB010000 		.4byte	0x1db
 883 01cb 0F       		.uleb128 0xf
 884 01cc 83030000 		.4byte	0x383
 885 01d0 10       		.uleb128 0x10
 886 01d1 7D030000 		.4byte	0x37d
 887 01d5 10       		.uleb128 0x10
 888 01d6 B4000000 		.4byte	0xb4
 889 01da 00       		.byte	0
 890 01db 11       		.uleb128 0x11
 891 01dc B5000000 		.4byte	.LASF36
 892 01e0 02       		.byte	0x2
 893 01e1 E5       		.byte	0xe5
 894 01e2 96000000 		.4byte	.LASF38
 895 01e6 EE010000 		.4byte	0x1ee
 896 01ea F4010000 		.4byte	0x1f4
 897 01ee 0F       		.uleb128 0xf
 898 01ef 83030000 		.4byte	0x383
 899 01f3 00       		.byte	0
 900 01f4 11       		.uleb128 0x11
 901 01f5 0E050000 		.4byte	.LASF37
 902 01f9 02       		.byte	0x2
 903 01fa F2       		.byte	0xf2
 904 01fb 65060000 		.4byte	.LASF39
ARM GAS  C:\msys64\tmp\cc52KdML.s 			page 17


 905 01ff 07020000 		.4byte	0x207
 906 0203 17020000 		.4byte	0x217
 907 0207 0F       		.uleb128 0xf
 908 0208 83030000 		.4byte	0x383
 909 020c 10       		.uleb128 0x10
 910 020d 7D030000 		.4byte	0x37d
 911 0211 10       		.uleb128 0x10
 912 0212 B4000000 		.4byte	0xb4
 913 0216 00       		.byte	0
 914 0217 11       		.uleb128 0x11
 915 0218 89000000 		.4byte	.LASF40
 916 021c 02       		.byte	0x2
 917 021d FF       		.byte	0xff
 918 021e E5010000 		.4byte	.LASF41
 919 0222 2A020000 		.4byte	0x22a
 920 0226 35020000 		.4byte	0x235
 921 022a 0F       		.uleb128 0xf
 922 022b 83030000 		.4byte	0x383
 923 022f 10       		.uleb128 0x10
 924 0230 89030000 		.4byte	0x389
 925 0234 00       		.byte	0
 926 0235 12       		.uleb128 0x12
 927 0236 89020000 		.4byte	.LASF42
 928 023a 02       		.byte	0x2
 929 023b 0A01     		.2byte	0x10a
 930 023d 27030000 		.4byte	.LASF44
 931 0241 01010000 		.4byte	0x101
 932 0245 4D020000 		.4byte	0x24d
 933 0249 58020000 		.4byte	0x258
 934 024d 0F       		.uleb128 0xf
 935 024e 83030000 		.4byte	0x383
 936 0252 10       		.uleb128 0x10
 937 0253 A9000000 		.4byte	0xa9
 938 0257 00       		.byte	0
 939 0258 12       		.uleb128 0x12
 940 0259 52060000 		.4byte	.LASF43
 941 025d 02       		.byte	0x2
 942 025e 1501     		.2byte	0x115
 943 0260 BC060000 		.4byte	.LASF45
 944 0264 01010000 		.4byte	0x101
 945 0268 70020000 		.4byte	0x270
 946 026c 7B020000 		.4byte	0x27b
 947 0270 0F       		.uleb128 0xf
 948 0271 83030000 		.4byte	0x383
 949 0275 10       		.uleb128 0x10
 950 0276 25000000 		.4byte	0x25
 951 027a 00       		.byte	0
 952 027b 12       		.uleb128 0x12
 953 027c 67050000 		.4byte	.LASF46
 954 0280 02       		.byte	0x2
 955 0281 2601     		.2byte	0x126
 956 0283 32020000 		.4byte	.LASF47
 957 0287 01010000 		.4byte	0x101
 958 028b 93020000 		.4byte	0x293
 959 028f A3020000 		.4byte	0x2a3
 960 0293 0F       		.uleb128 0xf
 961 0294 83030000 		.4byte	0x383
ARM GAS  C:\msys64\tmp\cc52KdML.s 			page 18


 962 0298 10       		.uleb128 0x10
 963 0299 A9000000 		.4byte	0xa9
 964 029d 10       		.uleb128 0x10
 965 029e 25000000 		.4byte	0x25
 966 02a2 00       		.byte	0
 967 02a3 12       		.uleb128 0x12
 968 02a4 A8020000 		.4byte	.LASF48
 969 02a8 02       		.byte	0x2
 970 02a9 3401     		.2byte	0x134
 971 02ab 8E010000 		.4byte	.LASF49
 972 02af 25000000 		.4byte	0x25
 973 02b3 BB020000 		.4byte	0x2bb
 974 02b7 C6020000 		.4byte	0x2c6
 975 02bb 0F       		.uleb128 0xf
 976 02bc 83030000 		.4byte	0x383
 977 02c0 10       		.uleb128 0x10
 978 02c1 A9000000 		.4byte	0xa9
 979 02c5 00       		.byte	0
 980 02c6 12       		.uleb128 0x12
 981 02c7 AE020000 		.4byte	.LASF50
 982 02cb 02       		.byte	0x2
 983 02cc 3F01     		.2byte	0x13f
 984 02ce E2000000 		.4byte	.LASF51
 985 02d2 25000000 		.4byte	0x25
 986 02d6 DE020000 		.4byte	0x2de
 987 02da E9020000 		.4byte	0x2e9
 988 02de 0F       		.uleb128 0xf
 989 02df 83030000 		.4byte	0x383
 990 02e3 10       		.uleb128 0x10
 991 02e4 A9000000 		.4byte	0xa9
 992 02e8 00       		.byte	0
 993 02e9 12       		.uleb128 0x12
 994 02ea 29070000 		.4byte	.LASF52
 995 02ee 02       		.byte	0x2
 996 02ef 4A01     		.2byte	0x14a
 997 02f1 0F020000 		.4byte	.LASF53
 998 02f5 25000000 		.4byte	0x25
 999 02f9 01030000 		.4byte	0x301
 1000 02fd 0C030000 		.4byte	0x30c
 1001 0301 0F       		.uleb128 0xf
 1002 0302 83030000 		.4byte	0x383
 1003 0306 10       		.uleb128 0x10
 1004 0307 25000000 		.4byte	0x25
 1005 030b 00       		.byte	0
 1006 030c 12       		.uleb128 0x12
 1007 030d 37060000 		.4byte	.LASF54
 1008 0311 02       		.byte	0x2
 1009 0312 5A01     		.2byte	0x15a
 1010 0314 D1050000 		.4byte	.LASF55
 1011 0318 25000000 		.4byte	0x25
 1012 031c 24030000 		.4byte	0x324
 1013 0320 34030000 		.4byte	0x334
 1014 0324 0F       		.uleb128 0xf
 1015 0325 83030000 		.4byte	0x383
 1016 0329 10       		.uleb128 0x10
 1017 032a A9000000 		.4byte	0xa9
 1018 032e 10       		.uleb128 0x10
ARM GAS  C:\msys64\tmp\cc52KdML.s 			page 19


 1019 032f 25000000 		.4byte	0x25
 1020 0333 00       		.byte	0
 1021 0334 12       		.uleb128 0x12
 1022 0335 62020000 		.4byte	.LASF56
 1023 0339 02       		.byte	0x2
 1024 033a 6801     		.2byte	0x168
 1025 033c 66000000 		.4byte	.LASF57
 1026 0340 25000000 		.4byte	0x25
 1027 0344 4C030000 		.4byte	0x34c
 1028 0348 57030000 		.4byte	0x357
 1029 034c 0F       		.uleb128 0xf
 1030 034d 83030000 		.4byte	0x383
 1031 0351 10       		.uleb128 0x10
 1032 0352 25000000 		.4byte	0x25
 1033 0356 00       		.byte	0
 1034 0357 13       		.uleb128 0x13
 1035 0358 69010000 		.4byte	.LASF58
 1036 035c 02       		.byte	0x2
 1037 035d 7801     		.2byte	0x178
 1038 035f D5040000 		.4byte	.LASF98
 1039 0363 25000000 		.4byte	0x25
 1040 0367 6B030000 		.4byte	0x36b
 1041 036b 0F       		.uleb128 0xf
 1042 036c 83030000 		.4byte	0x383
 1043 0370 10       		.uleb128 0x10
 1044 0371 A9000000 		.4byte	0xa9
 1045 0375 10       		.uleb128 0x10
 1046 0376 25000000 		.4byte	0x25
 1047 037a 00       		.byte	0
 1048 037b 00       		.byte	0
 1049 037c 00       		.byte	0
 1050 037d 0A       		.uleb128 0xa
 1051 037e 04       		.byte	0x4
 1052 037f 01010000 		.4byte	0x101
 1053 0383 0A       		.uleb128 0xa
 1054 0384 04       		.byte	0x4
 1055 0385 4E010000 		.4byte	0x14e
 1056 0389 14       		.uleb128 0x14
 1057 038a 04       		.byte	0x4
 1058 038b 8F030000 		.4byte	0x38f
 1059 038f 15       		.uleb128 0x15
 1060 0390 01010000 		.4byte	0x101
 1061 0394 16       		.uleb128 0x16
 1062 0395 97010000 		.4byte	0x197
 1063 0399 03       		.byte	0x3
 1064 039a A2030000 		.4byte	0x3a2
 1065 039e AC030000 		.4byte	0x3ac
 1066 03a2 17       		.uleb128 0x17
 1067 03a3 C0050000 		.4byte	.LASF59
 1068 03a7 AC030000 		.4byte	0x3ac
 1069 03ab 00       		.byte	0
 1070 03ac 15       		.uleb128 0x15
 1071 03ad 83030000 		.4byte	0x383
 1072 03b1 18       		.uleb128 0x18
 1073 03b2 79050000 		.4byte	.LASF99
 1074 03b6 03       		.byte	0x3
 1075 03b7 68       		.byte	0x68
ARM GAS  C:\msys64\tmp\cc52KdML.s 			page 20


 1076 03b8 03       		.byte	0x3
 1077 03b9 DF030000 		.4byte	0x3df
 1078 03bd 19       		.uleb128 0x19
 1079 03be 70747200 		.ascii	"ptr\000"
 1080 03c2 03       		.byte	0x3
 1081 03c3 68       		.byte	0x68
 1082 03c4 DF030000 		.4byte	0x3df
 1083 03c8 19       		.uleb128 0x19
 1084 03c9 6C656E00 		.ascii	"len\000"
 1085 03cd 03       		.byte	0x3
 1086 03ce 69       		.byte	0x69
 1087 03cf E4030000 		.4byte	0x3e4
 1088 03d3 1A       		.uleb128 0x1a
 1089 03d4 656E6400 		.ascii	"end\000"
 1090 03d8 03       		.byte	0x3
 1091 03d9 6B       		.byte	0x6b
 1092 03da E9030000 		.4byte	0x3e9
 1093 03de 00       		.byte	0
 1094 03df 1B       		.uleb128 0x1b
 1095 03e0 3D010000 		.4byte	0x13d
 1096 03e4 15       		.uleb128 0x15
 1097 03e5 A9000000 		.4byte	0xa9
 1098 03e9 0A       		.uleb128 0xa
 1099 03ea 04       		.byte	0x4
 1100 03eb EF030000 		.4byte	0x3ef
 1101 03ef 15       		.uleb128 0x15
 1102 03f0 25000000 		.4byte	0x25
 1103 03f4 1C       		.uleb128 0x1c
 1104 03f5 FB040000 		.4byte	.LASF61
 1105 03f9 08       		.byte	0x8
 1106 03fa 75       		.byte	0x75
 1107 03fb A9000000 		.4byte	0xa9
 1108 03ff 03       		.byte	0x3
 1109 0400 0E040000 		.4byte	0x40e
 1110 0404 19       		.uleb128 0x19
 1111 0405 7800     		.ascii	"x\000"
 1112 0407 08       		.byte	0x8
 1113 0408 75       		.byte	0x75
 1114 0409 A9000000 		.4byte	0xa9
 1115 040d 00       		.byte	0
 1116 040e 16       		.uleb128 0x16
 1117 040f DB010000 		.4byte	0x1db
 1118 0413 03       		.byte	0x3
 1119 0414 1C040000 		.4byte	0x41c
 1120 0418 26040000 		.4byte	0x426
 1121 041c 17       		.uleb128 0x17
 1122 041d C0050000 		.4byte	.LASF59
 1123 0421 AC030000 		.4byte	0x3ac
 1124 0425 00       		.byte	0
 1125 0426 16       		.uleb128 0x16
 1126 0427 F4010000 		.4byte	0x1f4
 1127 042b 03       		.byte	0x3
 1128 042c 34040000 		.4byte	0x434
 1129 0430 54040000 		.4byte	0x454
 1130 0434 17       		.uleb128 0x17
 1131 0435 C0050000 		.4byte	.LASF59
 1132 0439 AC030000 		.4byte	0x3ac
ARM GAS  C:\msys64\tmp\cc52KdML.s 			page 21


 1133 043d 19       		.uleb128 0x19
 1134 043e 72616D00 		.ascii	"ram\000"
 1135 0442 02       		.byte	0x2
 1136 0443 F2       		.byte	0xf2
 1137 0444 7D030000 		.4byte	0x37d
 1138 0448 1D       		.uleb128 0x1d
 1139 0449 45030000 		.4byte	.LASF60
 1140 044d 02       		.byte	0x2
 1141 044e F2       		.byte	0xf2
 1142 044f B4000000 		.4byte	0xb4
 1143 0453 00       		.byte	0
 1144 0454 16       		.uleb128 0x16
 1145 0455 17020000 		.4byte	0x217
 1146 0459 03       		.byte	0x3
 1147 045a 62040000 		.4byte	0x462
 1148 045e 75040000 		.4byte	0x475
 1149 0462 17       		.uleb128 0x17
 1150 0463 C0050000 		.4byte	.LASF59
 1151 0467 AC030000 		.4byte	0x3ac
 1152 046b 19       		.uleb128 0x19
 1153 046c 7000     		.ascii	"p\000"
 1154 046e 02       		.byte	0x2
 1155 046f FF       		.byte	0xff
 1156 0470 75040000 		.4byte	0x475
 1157 0474 00       		.byte	0
 1158 0475 15       		.uleb128 0x15
 1159 0476 89030000 		.4byte	0x389
 1160 047a 1E       		.uleb128 0x1e
 1161 047b 2B060000 		.4byte	.LASF62
 1162 047f 07       		.byte	0x7
 1163 0480 F702     		.2byte	0x2f7
 1164 0482 25000000 		.4byte	0x25
 1165 0486 03       		.byte	0x3
 1166 0487 96040000 		.4byte	0x496
 1167 048b 1F       		.uleb128 0x1f
 1168 048c 7800     		.ascii	"x\000"
 1169 048e 07       		.byte	0x7
 1170 048f F702     		.2byte	0x2f7
 1171 0491 25000000 		.4byte	0x25
 1172 0495 00       		.byte	0
 1173 0496 1C       		.uleb128 0x1c
 1174 0497 C0020000 		.4byte	.LASF63
 1175 049b 01       		.byte	0x1
 1176 049c 1E       		.byte	0x1e
 1177 049d 25000000 		.4byte	0x25
 1178 04a1 03       		.byte	0x3
 1179 04a2 B1040000 		.4byte	0x4b1
 1180 04a6 19       		.uleb128 0x19
 1181 04a7 696E00   		.ascii	"in\000"
 1182 04aa 01       		.byte	0x1
 1183 04ab 1E       		.byte	0x1e
 1184 04ac 25000000 		.4byte	0x25
 1185 04b0 00       		.byte	0
 1186 04b1 16       		.uleb128 0x16
 1187 04b2 C6020000 		.4byte	0x2c6
 1188 04b6 03       		.byte	0x3
 1189 04b7 BF040000 		.4byte	0x4bf
ARM GAS  C:\msys64\tmp\cc52KdML.s 			page 22


 1190 04bb D5040000 		.4byte	0x4d5
 1191 04bf 17       		.uleb128 0x17
 1192 04c0 C0050000 		.4byte	.LASF59
 1193 04c4 AC030000 		.4byte	0x3ac
 1194 04c8 1F       		.uleb128 0x1f
 1195 04c9 706F7300 		.ascii	"pos\000"
 1196 04cd 02       		.byte	0x2
 1197 04ce 3F01     		.2byte	0x13f
 1198 04d0 E4030000 		.4byte	0x3e4
 1199 04d4 00       		.byte	0
 1200 04d5 16       		.uleb128 0x16
 1201 04d6 A3020000 		.4byte	0x2a3
 1202 04da 03       		.byte	0x3
 1203 04db E3040000 		.4byte	0x4e3
 1204 04df F9040000 		.4byte	0x4f9
 1205 04e3 17       		.uleb128 0x17
 1206 04e4 C0050000 		.4byte	.LASF59
 1207 04e8 AC030000 		.4byte	0x3ac
 1208 04ec 1F       		.uleb128 0x1f
 1209 04ed 706F7300 		.ascii	"pos\000"
 1210 04f1 02       		.byte	0x2
 1211 04f2 3401     		.2byte	0x134
 1212 04f4 E4030000 		.4byte	0x3e4
 1213 04f8 00       		.byte	0
 1214 04f9 20       		.uleb128 0x20
 1215 04fa 8B050000 		.4byte	.LASF100
 1216 04fe 01       		.byte	0x1
 1217 04ff 1A050000 		.4byte	0x51a
 1218 0503 1D       		.uleb128 0x1d
 1219 0504 EA020000 		.4byte	.LASF64
 1220 0508 01       		.byte	0x1
 1221 0509 61       		.byte	0x61
 1222 050a 2C000000 		.4byte	0x2c
 1223 050e 1D       		.uleb128 0x1d
 1224 050f B5050000 		.4byte	.LASF65
 1225 0513 01       		.byte	0x1
 1226 0514 61       		.byte	0x61
 1227 0515 2C000000 		.4byte	0x2c
 1228 0519 00       		.byte	0
 1229 051a 21       		.uleb128 0x21
 1230 051b 42060000 		.4byte	.LASF66
 1231 051f 01       		.byte	0x1
 1232 0520 15       		.byte	0x15
 1233 0521 00000000 		.4byte	.LFB264
 1234 0525 64000000 		.4byte	.LFE264-.LFB264
 1235 0529 01       		.uleb128 0x1
 1236 052a 9C       		.byte	0x9c
 1237 052b D8050000 		.4byte	0x5d8
 1238 052f 22       		.uleb128 0x22
 1239 0530 0B060000 		.4byte	.LASF67
 1240 0534 01       		.byte	0x1
 1241 0535 15       		.byte	0x15
 1242 0536 A9000000 		.4byte	0xa9
 1243 053a 00000000 		.4byte	.LLST0
 1244 053e 23       		.uleb128 0x23
 1245 053f 61706900 		.ascii	"api\000"
 1246 0543 01       		.byte	0x1
ARM GAS  C:\msys64\tmp\cc52KdML.s 			page 23


 1247 0544 15       		.byte	0x15
 1248 0545 A9000000 		.4byte	0xa9
 1249 0549 21000000 		.4byte	.LLST1
 1250 054d 24       		.uleb128 0x24
 1251 054e 26040000 		.4byte	0x426
 1252 0552 00000000 		.4byte	.LBB35
 1253 0556 00000000 		.4byte	.Ldebug_ranges0+0
 1254 055a 01       		.byte	0x1
 1255 055b 17       		.byte	0x17
 1256 055c 7C050000 		.4byte	0x57c
 1257 0560 25       		.uleb128 0x25
 1258 0561 48040000 		.4byte	0x448
 1259 0565 42000000 		.4byte	.LLST2
 1260 0569 25       		.uleb128 0x25
 1261 056a 3D040000 		.4byte	0x43d
 1262 056e 5A000000 		.4byte	.LLST3
 1263 0572 25       		.uleb128 0x25
 1264 0573 34040000 		.4byte	0x434
 1265 0577 72000000 		.4byte	.LLST4
 1266 057b 00       		.byte	0
 1267 057c 26       		.uleb128 0x26
 1268 057d 0E040000 		.4byte	0x40e
 1269 0581 1E000000 		.4byte	.LBB39
 1270 0585 18000000 		.4byte	.LBE39-.LBB39
 1271 0589 01       		.byte	0x1
 1272 058a 18       		.byte	0x18
 1273 058b CE050000 		.4byte	0x5ce
 1274 058f 25       		.uleb128 0x25
 1275 0590 1C040000 		.4byte	0x41c
 1276 0594 8A000000 		.4byte	.LLST5
 1277 0598 27       		.uleb128 0x27
 1278 0599 B1030000 		.4byte	0x3b1
 1279 059d 1E000000 		.4byte	.LBB40
 1280 05a1 18000000 		.4byte	.LBE40-.LBB40
 1281 05a5 02       		.byte	0x2
 1282 05a6 E6       		.byte	0xe6
 1283 05a7 25       		.uleb128 0x25
 1284 05a8 C8030000 		.4byte	0x3c8
 1285 05ac A2000000 		.4byte	.LLST6
 1286 05b0 25       		.uleb128 0x25
 1287 05b1 BD030000 		.4byte	0x3bd
 1288 05b5 B8000000 		.4byte	.LLST7
 1289 05b9 28       		.uleb128 0x28
 1290 05ba 1E000000 		.4byte	.LBB41
 1291 05be 18000000 		.4byte	.LBE41-.LBB41
 1292 05c2 29       		.uleb128 0x29
 1293 05c3 D3030000 		.4byte	0x3d3
 1294 05c7 0F010000 		.4byte	.LLST8
 1295 05cb 00       		.byte	0
 1296 05cc 00       		.byte	0
 1297 05cd 00       		.byte	0
 1298 05ce 2A       		.uleb128 0x2a
 1299 05cf 3A000000 		.4byte	.LVL9
 1300 05d3 F4080000 		.4byte	0x8f4
 1301 05d7 00       		.byte	0
 1302 05d8 2B       		.uleb128 0x2b
 1303 05d9 1B070000 		.4byte	.LASF68
ARM GAS  C:\msys64\tmp\cc52KdML.s 			page 24


 1304 05dd 01       		.byte	0x1
 1305 05de 23       		.byte	0x23
 1306 05df 64000000 		.4byte	.LFB266
 1307 05e3 08020000 		.4byte	.LFE266-.LFB266
 1308 05e7 01       		.uleb128 0x1
 1309 05e8 9C       		.byte	0x9c
 1310 05e9 00070000 		.4byte	0x700
 1311 05ed 23       		.uleb128 0x23
 1312 05ee 786E00   		.ascii	"xn\000"
 1313 05f1 01       		.byte	0x1
 1314 05f2 23       		.byte	0x23
 1315 05f3 3D010000 		.4byte	0x13d
 1316 05f7 27010000 		.4byte	.LLST9
 1317 05fb 22       		.uleb128 0x22
 1318 05fc 8F000000 		.4byte	.LASF69
 1319 0600 01       		.byte	0x1
 1320 0601 23       		.byte	0x23
 1321 0602 A9000000 		.4byte	0xa9
 1322 0606 48010000 		.4byte	.LLST10
 1323 060a 2C       		.uleb128 0x2c
 1324 060b 7800     		.ascii	"x\000"
 1325 060d 01       		.byte	0x1
 1326 060e 25       		.byte	0x25
 1327 060f 3D010000 		.4byte	0x13d
 1328 0613 69010000 		.4byte	.LLST11
 1329 0617 2C       		.uleb128 0x2c
 1330 0618 785F6500 		.ascii	"x_e\000"
 1331 061c 01       		.byte	0x1
 1332 061d 26       		.byte	0x26
 1333 061e E9030000 		.4byte	0x3e9
 1334 0622 9F010000 		.4byte	.LLST12
 1335 0626 2D       		.uleb128 0x2d
 1336 0627 77657400 		.ascii	"wet\000"
 1337 062b 01       		.byte	0x1
 1338 062c 28       		.byte	0x28
 1339 062d EF030000 		.4byte	0x3ef
 1340 0631 02       		.uleb128 0x2
 1341 0632 90       		.byte	0x90
 1342 0633 5B       		.uleb128 0x5b
 1343 0634 2E       		.uleb128 0x2e
 1344 0635 26060000 		.4byte	.LASF70
 1345 0639 01       		.byte	0x1
 1346 063a 29       		.byte	0x29
 1347 063b 01010000 		.4byte	0x101
 1348 063f D8010000 		.4byte	.LLST13
 1349 0643 2F       		.uleb128 0x2f
 1350 0644 18000000 		.4byte	.Ldebug_ranges0+0x18
 1351 0648 2E       		.uleb128 0x2e
 1352 0649 D4020000 		.4byte	.LASF71
 1353 064d 01       		.byte	0x1
 1354 064e 2D       		.byte	0x2d
 1355 064f EF030000 		.4byte	0x3ef
 1356 0653 0E020000 		.4byte	.LLST14
 1357 0657 2E       		.uleb128 0x2e
 1358 0658 DF020000 		.4byte	.LASF72
 1359 065c 01       		.byte	0x1
 1360 065d 2E       		.byte	0x2e
ARM GAS  C:\msys64\tmp\cc52KdML.s 			page 25


 1361 065e EF030000 		.4byte	0x3ef
 1362 0662 6D020000 		.4byte	.LLST15
 1363 0666 24       		.uleb128 0x24
 1364 0667 D5040000 		.4byte	0x4d5
 1365 066b 7C000000 		.4byte	.LBB44
 1366 066f 48000000 		.4byte	.Ldebug_ranges0+0x48
 1367 0673 01       		.byte	0x1
 1368 0674 2D       		.byte	0x2d
 1369 0675 84060000 		.4byte	0x684
 1370 0679 30       		.uleb128 0x30
 1371 067a EC040000 		.4byte	0x4ec
 1372 067e 30       		.uleb128 0x30
 1373 067f E3040000 		.4byte	0x4e3
 1374 0683 00       		.byte	0
 1375 0684 24       		.uleb128 0x24
 1376 0685 B1040000 		.4byte	0x4b1
 1377 0689 BC000000 		.4byte	.LBB47
 1378 068d 60000000 		.4byte	.Ldebug_ranges0+0x60
 1379 0691 01       		.byte	0x1
 1380 0692 2E       		.byte	0x2e
 1381 0693 A2060000 		.4byte	0x6a2
 1382 0697 30       		.uleb128 0x30
 1383 0698 C8040000 		.4byte	0x4c8
 1384 069c 30       		.uleb128 0x30
 1385 069d BF040000 		.4byte	0x4bf
 1386 06a1 00       		.byte	0
 1387 06a2 24       		.uleb128 0x24
 1388 06a3 96040000 		.4byte	0x496
 1389 06a7 F8000000 		.4byte	.LBB52
 1390 06ab 78000000 		.4byte	.Ldebug_ranges0+0x78
 1391 06af 01       		.byte	0x1
 1392 06b0 31       		.byte	0x31
 1393 06b1 BF060000 		.4byte	0x6bf
 1394 06b5 25       		.uleb128 0x25
 1395 06b6 A6040000 		.4byte	0x4a6
 1396 06ba A4020000 		.4byte	.LLST16
 1397 06be 00       		.byte	0
 1398 06bf 24       		.uleb128 0x24
 1399 06c0 96040000 		.4byte	0x496
 1400 06c4 8A010000 		.4byte	.LBB56
 1401 06c8 90000000 		.4byte	.Ldebug_ranges0+0x90
 1402 06cc 01       		.byte	0x1
 1403 06cd 32       		.byte	0x32
 1404 06ce DC060000 		.4byte	0x6dc
 1405 06d2 25       		.uleb128 0x25
 1406 06d3 A6040000 		.4byte	0x4a6
 1407 06d7 B8020000 		.4byte	.LLST17
 1408 06db 00       		.byte	0
 1409 06dc 31       		.uleb128 0x31
 1410 06dd 54040000 		.4byte	0x454
 1411 06e1 00020000 		.4byte	.LBB62
 1412 06e5 B0000000 		.4byte	.Ldebug_ranges0+0xb0
 1413 06e9 01       		.byte	0x1
 1414 06ea 35       		.byte	0x35
 1415 06eb 25       		.uleb128 0x25
 1416 06ec 6B040000 		.4byte	0x46b
 1417 06f0 CC020000 		.4byte	.LLST18
ARM GAS  C:\msys64\tmp\cc52KdML.s 			page 26


 1418 06f4 25       		.uleb128 0x25
 1419 06f5 62040000 		.4byte	0x462
 1420 06f9 E4020000 		.4byte	.LLST19
 1421 06fd 00       		.byte	0
 1422 06fe 00       		.byte	0
 1423 06ff 00       		.byte	0
 1424 0700 21       		.uleb128 0x21
 1425 0701 8E020000 		.4byte	.LASF73
 1426 0705 01       		.byte	0x1
 1427 0706 39       		.byte	0x39
 1428 0707 6C020000 		.4byte	.LFB267
 1429 070b 98000000 		.4byte	.LFE267-.LFB267
 1430 070f 01       		.uleb128 0x1
 1431 0710 9C       		.byte	0x9c
 1432 0711 4C070000 		.4byte	0x74c
 1433 0715 22       		.uleb128 0x22
 1434 0716 C7010000 		.4byte	.LASF74
 1435 071a 01       		.byte	0x1
 1436 071b 39       		.byte	0x39
 1437 071c 93000000 		.4byte	0x93
 1438 0720 FC020000 		.4byte	.LLST20
 1439 0724 22       		.uleb128 0x22
 1440 0725 85050000 		.4byte	.LASF75
 1441 0729 01       		.byte	0x1
 1442 072a 39       		.byte	0x39
 1443 072b 9E000000 		.4byte	0x9e
 1444 072f 1D030000 		.4byte	.LLST21
 1445 0733 2E       		.uleb128 0x2e
 1446 0734 26060000 		.4byte	.LASF70
 1447 0738 01       		.byte	0x1
 1448 0739 3B       		.byte	0x3b
 1449 073a EF030000 		.4byte	0x3ef
 1450 073e 3E030000 		.4byte	.LLST22
 1451 0742 2A       		.uleb128 0x2a
 1452 0743 98020000 		.4byte	.LVL42
 1453 0747 F4080000 		.4byte	0x8f4
 1454 074b 00       		.byte	0
 1455 074c 32       		.uleb128 0x32
 1456 074d CD000000 		.4byte	.LASF101
 1457 0751 00000000 		.4byte	.LFB269
 1458 0755 14000000 		.4byte	.LFE269-.LFB269
 1459 0759 01       		.uleb128 0x1
 1460 075a 9C       		.byte	0x9c
 1461 075b 9E070000 		.4byte	0x79e
 1462 075f 27       		.uleb128 0x27
 1463 0760 F9040000 		.4byte	0x4f9
 1464 0764 00000000 		.4byte	.LBB78
 1465 0768 14000000 		.4byte	.LBE78-.LBB78
 1466 076c 01       		.byte	0x1
 1467 076d 61       		.byte	0x61
 1468 076e 25       		.uleb128 0x25
 1469 076f 03050000 		.4byte	0x503
 1470 0773 6C030000 		.4byte	.LLST23
 1471 0777 25       		.uleb128 0x25
 1472 0778 0E050000 		.4byte	0x50e
 1473 077c 80030000 		.4byte	.LLST24
 1474 0780 27       		.uleb128 0x27
ARM GAS  C:\msys64\tmp\cc52KdML.s 			page 27


 1475 0781 94030000 		.4byte	0x394
 1476 0785 00000000 		.4byte	.LBB79
 1477 0789 14000000 		.4byte	.LBE79-.LBB79
 1478 078d 01       		.byte	0x1
 1479 078e 08       		.byte	0x8
 1480 078f 33       		.uleb128 0x33
 1481 0790 A2030000 		.4byte	0x3a2
 1482 0794 06       		.uleb128 0x6
 1483 0795 03       		.byte	0x3
 1484 0796 00000000 		.4byte	_ZL7s_delay
 1485 079a 9F       		.byte	0x9f
 1486 079b 00       		.byte	0
 1487 079c 00       		.byte	0
 1488 079d 00       		.byte	0
 1489 079e 34       		.uleb128 0x34
 1490 079f 0E010000 		.4byte	.LASF76
 1491 07a3 09       		.byte	0x9
 1492 07a4 46       		.byte	0x46
 1493 07a5 E4030000 		.4byte	0x3e4
 1494 07a9 34       		.uleb128 0x34
 1495 07aa 0A070000 		.4byte	.LASF77
 1496 07ae 09       		.byte	0x9
 1497 07af 4B       		.byte	0x4b
 1498 07b0 E4030000 		.4byte	0x3e4
 1499 07b4 35       		.uleb128 0x35
 1500 07b5 EF030000 		.4byte	0x3ef
 1501 07b9 C4070000 		.4byte	0x7c4
 1502 07bd 36       		.uleb128 0x36
 1503 07be CB000000 		.4byte	0xcb
 1504 07c2 80       		.byte	0x80
 1505 07c3 00       		.byte	0
 1506 07c4 34       		.uleb128 0x34
 1507 07c5 2B050000 		.4byte	.LASF78
 1508 07c9 09       		.byte	0x9
 1509 07ca 82       		.byte	0x82
 1510 07cb CF070000 		.4byte	0x7cf
 1511 07cf 15       		.uleb128 0x15
 1512 07d0 B4070000 		.4byte	0x7b4
 1513 07d4 35       		.uleb128 0x35
 1514 07d5 EF030000 		.4byte	0x3ef
 1515 07d9 E5070000 		.4byte	0x7e5
 1516 07dd 37       		.uleb128 0x37
 1517 07de CB000000 		.4byte	0xcb
 1518 07e2 0001     		.2byte	0x100
 1519 07e4 00       		.byte	0
 1520 07e5 34       		.uleb128 0x34
 1521 07e6 CA020000 		.4byte	.LASF79
 1522 07ea 09       		.byte	0x9
 1523 07eb C9       		.byte	0xc9
 1524 07ec F0070000 		.4byte	0x7f0
 1525 07f0 15       		.uleb128 0x15
 1526 07f1 D4070000 		.4byte	0x7d4
 1527 07f5 34       		.uleb128 0x34
 1528 07f6 C5050000 		.4byte	.LASF80
 1529 07fa 09       		.byte	0x9
 1530 07fb E0       		.byte	0xe0
 1531 07fc 00080000 		.4byte	0x800
ARM GAS  C:\msys64\tmp\cc52KdML.s 			page 28


 1532 0800 15       		.uleb128 0x15
 1533 0801 D4070000 		.4byte	0x7d4
 1534 0805 34       		.uleb128 0x34
 1535 0806 DE060000 		.4byte	.LASF81
 1536 080a 09       		.byte	0x9
 1537 080b F8       		.byte	0xf8
 1538 080c 10080000 		.4byte	0x810
 1539 0810 15       		.uleb128 0x15
 1540 0811 D4070000 		.4byte	0x7d4
 1541 0815 38       		.uleb128 0x38
 1542 0816 29010000 		.4byte	.LASF82
 1543 081a 09       		.byte	0x9
 1544 081b 0F01     		.2byte	0x10f
 1545 081d 21080000 		.4byte	0x821
 1546 0821 15       		.uleb128 0x15
 1547 0822 D4070000 		.4byte	0x7d4
 1548 0826 38       		.uleb128 0x38
 1549 0827 42010000 		.4byte	.LASF83
 1550 082b 09       		.byte	0x9
 1551 082c 3E01     		.2byte	0x13e
 1552 082e 32080000 		.4byte	0x832
 1553 0832 15       		.uleb128 0x15
 1554 0833 B4070000 		.4byte	0x7b4
 1555 0837 38       		.uleb128 0x38
 1556 0838 72020000 		.4byte	.LASF84
 1557 083c 09       		.byte	0x9
 1558 083d 5301     		.2byte	0x153
 1559 083f 43080000 		.4byte	0x843
 1560 0843 15       		.uleb128 0x15
 1561 0844 B4070000 		.4byte	0x7b4
 1562 0848 38       		.uleb128 0x38
 1563 0849 5C010000 		.4byte	.LASF85
 1564 084d 09       		.byte	0x9
 1565 084e 7001     		.2byte	0x170
 1566 0850 54080000 		.4byte	0x854
 1567 0854 15       		.uleb128 0x15
 1568 0855 B4070000 		.4byte	0x7b4
 1569 0859 39       		.uleb128 0x39
 1570 085a 81020000 		.4byte	.LASF86
 1571 085e 01       		.byte	0x1
 1572 085f 08       		.byte	0x8
 1573 0860 4E010000 		.4byte	0x14e
 1574 0864 05       		.uleb128 0x5
 1575 0865 03       		.byte	0x3
 1576 0866 00000000 		.4byte	_ZL7s_delay
 1577 086a 35       		.uleb128 0x35
 1578 086b 01010000 		.4byte	0x101
 1579 086f 7D080000 		.4byte	0x87d
 1580 0873 3A       		.uleb128 0x3a
 1581 0874 CB000000 		.4byte	0xcb
 1582 0878 4F340300 		.4byte	0x3344f
 1583 087c 00       		.byte	0
 1584 087d 39       		.uleb128 0x39
 1585 087e 4C050000 		.4byte	.LASF87
 1586 0882 01       		.byte	0x1
 1587 0883 09       		.byte	0x9
 1588 0884 6A080000 		.4byte	0x86a
ARM GAS  C:\msys64\tmp\cc52KdML.s 			page 29


 1589 0888 05       		.uleb128 0x5
 1590 0889 03       		.byte	0x3
 1591 088a 00000000 		.4byte	_ZL11s_delay_ram
 1592 088e 3B       		.uleb128 0x3b
 1593 088f BA020000 		.4byte	.LASF88
 1594 0893 01       		.byte	0x1
 1595 0894 0B       		.byte	0xb
 1596 0895 A9000000 		.4byte	0xa9
 1597 0899 05       		.uleb128 0x5
 1598 089a 03       		.byte	0x3
 1599 089b 00000000 		.4byte	s_len
 1600 089f 39       		.uleb128 0x39
 1601 08a0 B4020000 		.4byte	.LASF89
 1602 08a4 01       		.byte	0x1
 1603 08a5 0C       		.byte	0xc
 1604 08a6 25000000 		.4byte	0x25
 1605 08aa 05       		.uleb128 0x5
 1606 08ab 03       		.byte	0x3
 1607 08ac 20000000 		.4byte	_ZL5s_mix
 1608 08b0 39       		.uleb128 0x39
 1609 08b1 4D060000 		.4byte	.LASF90
 1610 08b5 01       		.byte	0x1
 1611 08b6 0D       		.byte	0xd
 1612 08b7 25000000 		.4byte	0x25
 1613 08bb 05       		.uleb128 0x5
 1614 08bc 03       		.byte	0x3
 1615 08bd 24000000 		.4byte	_ZL4gain
 1616 08c1 3B       		.uleb128 0x3b
 1617 08c2 03070000 		.4byte	.LASF91
 1618 08c6 01       		.byte	0x1
 1619 08c7 0E       		.byte	0xe
 1620 08c8 25000000 		.4byte	0x25
 1621 08cc 05       		.uleb128 0x5
 1622 08cd 03       		.byte	0x3
 1623 08ce 00000000 		.4byte	wetXNL
 1624 08d2 3B       		.uleb128 0x3b
 1625 08d3 33070000 		.4byte	.LASF92
 1626 08d7 01       		.byte	0x1
 1627 08d8 0F       		.byte	0xf
 1628 08d9 25000000 		.4byte	0x25
 1629 08dd 05       		.uleb128 0x5
 1630 08de 03       		.byte	0x3
 1631 08df 00000000 		.4byte	wetXNR
 1632 08e3 3C       		.uleb128 0x3c
 1633 08e4 62706D00 		.ascii	"bpm\000"
 1634 08e8 01       		.byte	0x1
 1635 08e9 10       		.byte	0x10
 1636 08ea 2C000000 		.4byte	0x2c
 1637 08ee 05       		.uleb128 0x5
 1638 08ef 03       		.byte	0x3
 1639 08f0 00000000 		.4byte	bpm
 1640 08f4 3D       		.uleb128 0x3d
 1641 08f5 B0060000 		.4byte	.LASF102
 1642 08f9 B0060000 		.4byte	.LASF102
 1643 08fd 09       		.byte	0x9
 1644 08fe 5D       		.byte	0x5d
 1645 08ff 00       		.byte	0
ARM GAS  C:\msys64\tmp\cc52KdML.s 			page 30


 1646              		.section	.debug_abbrev,"",%progbits
 1647              	.Ldebug_abbrev0:
 1648 0000 01       		.uleb128 0x1
 1649 0001 11       		.uleb128 0x11
 1650 0002 01       		.byte	0x1
 1651 0003 25       		.uleb128 0x25
 1652 0004 0E       		.uleb128 0xe
 1653 0005 13       		.uleb128 0x13
 1654 0006 0B       		.uleb128 0xb
 1655 0007 03       		.uleb128 0x3
 1656 0008 0E       		.uleb128 0xe
 1657 0009 1B       		.uleb128 0x1b
 1658 000a 0E       		.uleb128 0xe
 1659 000b 55       		.uleb128 0x55
 1660 000c 17       		.uleb128 0x17
 1661 000d 11       		.uleb128 0x11
 1662 000e 01       		.uleb128 0x1
 1663 000f 10       		.uleb128 0x10
 1664 0010 17       		.uleb128 0x17
 1665 0011 00       		.byte	0
 1666 0012 00       		.byte	0
 1667 0013 02       		.uleb128 0x2
 1668 0014 24       		.uleb128 0x24
 1669 0015 00       		.byte	0
 1670 0016 0B       		.uleb128 0xb
 1671 0017 0B       		.uleb128 0xb
 1672 0018 3E       		.uleb128 0x3e
 1673 0019 0B       		.uleb128 0xb
 1674 001a 03       		.uleb128 0x3
 1675 001b 0E       		.uleb128 0xe
 1676 001c 00       		.byte	0
 1677 001d 00       		.byte	0
 1678 001e 03       		.uleb128 0x3
 1679 001f 24       		.uleb128 0x24
 1680 0020 00       		.byte	0
 1681 0021 0B       		.uleb128 0xb
 1682 0022 0B       		.uleb128 0xb
 1683 0023 3E       		.uleb128 0x3e
 1684 0024 0B       		.uleb128 0xb
 1685 0025 03       		.uleb128 0x3
 1686 0026 08       		.uleb128 0x8
 1687 0027 00       		.byte	0
 1688 0028 00       		.byte	0
 1689 0029 04       		.uleb128 0x4
 1690 002a 16       		.uleb128 0x16
 1691 002b 00       		.byte	0
 1692 002c 03       		.uleb128 0x3
 1693 002d 0E       		.uleb128 0xe
 1694 002e 3A       		.uleb128 0x3a
 1695 002f 0B       		.uleb128 0xb
 1696 0030 3B       		.uleb128 0x3b
 1697 0031 0B       		.uleb128 0xb
 1698 0032 49       		.uleb128 0x49
 1699 0033 13       		.uleb128 0x13
 1700 0034 00       		.byte	0
 1701 0035 00       		.byte	0
 1702 0036 05       		.uleb128 0x5
ARM GAS  C:\msys64\tmp\cc52KdML.s 			page 31


 1703 0037 3B       		.uleb128 0x3b
 1704 0038 00       		.byte	0
 1705 0039 03       		.uleb128 0x3
 1706 003a 0E       		.uleb128 0xe
 1707 003b 00       		.byte	0
 1708 003c 00       		.byte	0
 1709 003d 06       		.uleb128 0x6
 1710 003e 13       		.uleb128 0x13
 1711 003f 01       		.byte	0x1
 1712 0040 0B       		.uleb128 0xb
 1713 0041 0B       		.uleb128 0xb
 1714 0042 3A       		.uleb128 0x3a
 1715 0043 0B       		.uleb128 0xb
 1716 0044 3B       		.uleb128 0x3b
 1717 0045 0B       		.uleb128 0xb
 1718 0046 6E       		.uleb128 0x6e
 1719 0047 0E       		.uleb128 0xe
 1720 0048 01       		.uleb128 0x1
 1721 0049 13       		.uleb128 0x13
 1722 004a 00       		.byte	0
 1723 004b 00       		.byte	0
 1724 004c 07       		.uleb128 0x7
 1725 004d 0D       		.uleb128 0xd
 1726 004e 00       		.byte	0
 1727 004f 03       		.uleb128 0x3
 1728 0050 08       		.uleb128 0x8
 1729 0051 3A       		.uleb128 0x3a
 1730 0052 0B       		.uleb128 0xb
 1731 0053 3B       		.uleb128 0x3b
 1732 0054 0B       		.uleb128 0xb
 1733 0055 49       		.uleb128 0x49
 1734 0056 13       		.uleb128 0x13
 1735 0057 38       		.uleb128 0x38
 1736 0058 0B       		.uleb128 0xb
 1737 0059 00       		.byte	0
 1738 005a 00       		.byte	0
 1739 005b 08       		.uleb128 0x8
 1740 005c 04       		.uleb128 0x4
 1741 005d 01       		.byte	0x1
 1742 005e 0B       		.uleb128 0xb
 1743 005f 0B       		.uleb128 0xb
 1744 0060 49       		.uleb128 0x49
 1745 0061 13       		.uleb128 0x13
 1746 0062 3A       		.uleb128 0x3a
 1747 0063 0B       		.uleb128 0xb
 1748 0064 3B       		.uleb128 0x3b
 1749 0065 0B       		.uleb128 0xb
 1750 0066 01       		.uleb128 0x1
 1751 0067 13       		.uleb128 0x13
 1752 0068 00       		.byte	0
 1753 0069 00       		.byte	0
 1754 006a 09       		.uleb128 0x9
 1755 006b 28       		.uleb128 0x28
 1756 006c 00       		.byte	0
 1757 006d 03       		.uleb128 0x3
 1758 006e 0E       		.uleb128 0xe
 1759 006f 1C       		.uleb128 0x1c
ARM GAS  C:\msys64\tmp\cc52KdML.s 			page 32


 1760 0070 0B       		.uleb128 0xb
 1761 0071 00       		.byte	0
 1762 0072 00       		.byte	0
 1763 0073 0A       		.uleb128 0xa
 1764 0074 0F       		.uleb128 0xf
 1765 0075 00       		.byte	0
 1766 0076 0B       		.uleb128 0xb
 1767 0077 0B       		.uleb128 0xb
 1768 0078 49       		.uleb128 0x49
 1769 0079 13       		.uleb128 0x13
 1770 007a 00       		.byte	0
 1771 007b 00       		.byte	0
 1772 007c 0B       		.uleb128 0xb
 1773 007d 39       		.uleb128 0x39
 1774 007e 01       		.byte	0x1
 1775 007f 03       		.uleb128 0x3
 1776 0080 08       		.uleb128 0x8
 1777 0081 3A       		.uleb128 0x3a
 1778 0082 0B       		.uleb128 0xb
 1779 0083 3B       		.uleb128 0x3b
 1780 0084 0B       		.uleb128 0xb
 1781 0085 01       		.uleb128 0x1
 1782 0086 13       		.uleb128 0x13
 1783 0087 00       		.byte	0
 1784 0088 00       		.byte	0
 1785 0089 0C       		.uleb128 0xc
 1786 008a 13       		.uleb128 0x13
 1787 008b 01       		.byte	0x1
 1788 008c 03       		.uleb128 0x3
 1789 008d 0E       		.uleb128 0xe
 1790 008e 0B       		.uleb128 0xb
 1791 008f 0B       		.uleb128 0xb
 1792 0090 3A       		.uleb128 0x3a
 1793 0091 0B       		.uleb128 0xb
 1794 0092 3B       		.uleb128 0x3b
 1795 0093 0B       		.uleb128 0xb
 1796 0094 00       		.byte	0
 1797 0095 00       		.byte	0
 1798 0096 0D       		.uleb128 0xd
 1799 0097 0D       		.uleb128 0xd
 1800 0098 00       		.byte	0
 1801 0099 03       		.uleb128 0x3
 1802 009a 0E       		.uleb128 0xe
 1803 009b 3A       		.uleb128 0x3a
 1804 009c 0B       		.uleb128 0xb
 1805 009d 3B       		.uleb128 0x3b
 1806 009e 05       		.uleb128 0x5
 1807 009f 49       		.uleb128 0x49
 1808 00a0 13       		.uleb128 0x13
 1809 00a1 38       		.uleb128 0x38
 1810 00a2 0B       		.uleb128 0xb
 1811 00a3 00       		.byte	0
 1812 00a4 00       		.byte	0
 1813 00a5 0E       		.uleb128 0xe
 1814 00a6 2E       		.uleb128 0x2e
 1815 00a7 01       		.byte	0x1
 1816 00a8 3F       		.uleb128 0x3f
ARM GAS  C:\msys64\tmp\cc52KdML.s 			page 33


 1817 00a9 19       		.uleb128 0x19
 1818 00aa 03       		.uleb128 0x3
 1819 00ab 0E       		.uleb128 0xe
 1820 00ac 3A       		.uleb128 0x3a
 1821 00ad 0B       		.uleb128 0xb
 1822 00ae 3B       		.uleb128 0x3b
 1823 00af 0B       		.uleb128 0xb
 1824 00b0 6E       		.uleb128 0x6e
 1825 00b1 0E       		.uleb128 0xe
 1826 00b2 49       		.uleb128 0x49
 1827 00b3 13       		.uleb128 0x13
 1828 00b4 3C       		.uleb128 0x3c
 1829 00b5 19       		.uleb128 0x19
 1830 00b6 64       		.uleb128 0x64
 1831 00b7 13       		.uleb128 0x13
 1832 00b8 01       		.uleb128 0x1
 1833 00b9 13       		.uleb128 0x13
 1834 00ba 00       		.byte	0
 1835 00bb 00       		.byte	0
 1836 00bc 0F       		.uleb128 0xf
 1837 00bd 05       		.uleb128 0x5
 1838 00be 00       		.byte	0
 1839 00bf 49       		.uleb128 0x49
 1840 00c0 13       		.uleb128 0x13
 1841 00c1 34       		.uleb128 0x34
 1842 00c2 19       		.uleb128 0x19
 1843 00c3 00       		.byte	0
 1844 00c4 00       		.byte	0
 1845 00c5 10       		.uleb128 0x10
 1846 00c6 05       		.uleb128 0x5
 1847 00c7 00       		.byte	0
 1848 00c8 49       		.uleb128 0x49
 1849 00c9 13       		.uleb128 0x13
 1850 00ca 00       		.byte	0
 1851 00cb 00       		.byte	0
 1852 00cc 11       		.uleb128 0x11
 1853 00cd 2E       		.uleb128 0x2e
 1854 00ce 01       		.byte	0x1
 1855 00cf 3F       		.uleb128 0x3f
 1856 00d0 19       		.uleb128 0x19
 1857 00d1 03       		.uleb128 0x3
 1858 00d2 0E       		.uleb128 0xe
 1859 00d3 3A       		.uleb128 0x3a
 1860 00d4 0B       		.uleb128 0xb
 1861 00d5 3B       		.uleb128 0x3b
 1862 00d6 0B       		.uleb128 0xb
 1863 00d7 6E       		.uleb128 0x6e
 1864 00d8 0E       		.uleb128 0xe
 1865 00d9 3C       		.uleb128 0x3c
 1866 00da 19       		.uleb128 0x19
 1867 00db 64       		.uleb128 0x64
 1868 00dc 13       		.uleb128 0x13
 1869 00dd 01       		.uleb128 0x1
 1870 00de 13       		.uleb128 0x13
 1871 00df 00       		.byte	0
 1872 00e0 00       		.byte	0
 1873 00e1 12       		.uleb128 0x12
ARM GAS  C:\msys64\tmp\cc52KdML.s 			page 34


 1874 00e2 2E       		.uleb128 0x2e
 1875 00e3 01       		.byte	0x1
 1876 00e4 3F       		.uleb128 0x3f
 1877 00e5 19       		.uleb128 0x19
 1878 00e6 03       		.uleb128 0x3
 1879 00e7 0E       		.uleb128 0xe
 1880 00e8 3A       		.uleb128 0x3a
 1881 00e9 0B       		.uleb128 0xb
 1882 00ea 3B       		.uleb128 0x3b
 1883 00eb 05       		.uleb128 0x5
 1884 00ec 6E       		.uleb128 0x6e
 1885 00ed 0E       		.uleb128 0xe
 1886 00ee 49       		.uleb128 0x49
 1887 00ef 13       		.uleb128 0x13
 1888 00f0 3C       		.uleb128 0x3c
 1889 00f1 19       		.uleb128 0x19
 1890 00f2 64       		.uleb128 0x64
 1891 00f3 13       		.uleb128 0x13
 1892 00f4 01       		.uleb128 0x1
 1893 00f5 13       		.uleb128 0x13
 1894 00f6 00       		.byte	0
 1895 00f7 00       		.byte	0
 1896 00f8 13       		.uleb128 0x13
 1897 00f9 2E       		.uleb128 0x2e
 1898 00fa 01       		.byte	0x1
 1899 00fb 3F       		.uleb128 0x3f
 1900 00fc 19       		.uleb128 0x19
 1901 00fd 03       		.uleb128 0x3
 1902 00fe 0E       		.uleb128 0xe
 1903 00ff 3A       		.uleb128 0x3a
 1904 0100 0B       		.uleb128 0xb
 1905 0101 3B       		.uleb128 0x3b
 1906 0102 05       		.uleb128 0x5
 1907 0103 6E       		.uleb128 0x6e
 1908 0104 0E       		.uleb128 0xe
 1909 0105 49       		.uleb128 0x49
 1910 0106 13       		.uleb128 0x13
 1911 0107 3C       		.uleb128 0x3c
 1912 0108 19       		.uleb128 0x19
 1913 0109 64       		.uleb128 0x64
 1914 010a 13       		.uleb128 0x13
 1915 010b 00       		.byte	0
 1916 010c 00       		.byte	0
 1917 010d 14       		.uleb128 0x14
 1918 010e 10       		.uleb128 0x10
 1919 010f 00       		.byte	0
 1920 0110 0B       		.uleb128 0xb
 1921 0111 0B       		.uleb128 0xb
 1922 0112 49       		.uleb128 0x49
 1923 0113 13       		.uleb128 0x13
 1924 0114 00       		.byte	0
 1925 0115 00       		.byte	0
 1926 0116 15       		.uleb128 0x15
 1927 0117 26       		.uleb128 0x26
 1928 0118 00       		.byte	0
 1929 0119 49       		.uleb128 0x49
 1930 011a 13       		.uleb128 0x13
ARM GAS  C:\msys64\tmp\cc52KdML.s 			page 35


 1931 011b 00       		.byte	0
 1932 011c 00       		.byte	0
 1933 011d 16       		.uleb128 0x16
 1934 011e 2E       		.uleb128 0x2e
 1935 011f 01       		.byte	0x1
 1936 0120 47       		.uleb128 0x47
 1937 0121 13       		.uleb128 0x13
 1938 0122 20       		.uleb128 0x20
 1939 0123 0B       		.uleb128 0xb
 1940 0124 64       		.uleb128 0x64
 1941 0125 13       		.uleb128 0x13
 1942 0126 01       		.uleb128 0x1
 1943 0127 13       		.uleb128 0x13
 1944 0128 00       		.byte	0
 1945 0129 00       		.byte	0
 1946 012a 17       		.uleb128 0x17
 1947 012b 05       		.uleb128 0x5
 1948 012c 00       		.byte	0
 1949 012d 03       		.uleb128 0x3
 1950 012e 0E       		.uleb128 0xe
 1951 012f 49       		.uleb128 0x49
 1952 0130 13       		.uleb128 0x13
 1953 0131 34       		.uleb128 0x34
 1954 0132 19       		.uleb128 0x19
 1955 0133 00       		.byte	0
 1956 0134 00       		.byte	0
 1957 0135 18       		.uleb128 0x18
 1958 0136 2E       		.uleb128 0x2e
 1959 0137 01       		.byte	0x1
 1960 0138 03       		.uleb128 0x3
 1961 0139 0E       		.uleb128 0xe
 1962 013a 3A       		.uleb128 0x3a
 1963 013b 0B       		.uleb128 0xb
 1964 013c 3B       		.uleb128 0x3b
 1965 013d 0B       		.uleb128 0xb
 1966 013e 20       		.uleb128 0x20
 1967 013f 0B       		.uleb128 0xb
 1968 0140 01       		.uleb128 0x1
 1969 0141 13       		.uleb128 0x13
 1970 0142 00       		.byte	0
 1971 0143 00       		.byte	0
 1972 0144 19       		.uleb128 0x19
 1973 0145 05       		.uleb128 0x5
 1974 0146 00       		.byte	0
 1975 0147 03       		.uleb128 0x3
 1976 0148 08       		.uleb128 0x8
 1977 0149 3A       		.uleb128 0x3a
 1978 014a 0B       		.uleb128 0xb
 1979 014b 3B       		.uleb128 0x3b
 1980 014c 0B       		.uleb128 0xb
 1981 014d 49       		.uleb128 0x49
 1982 014e 13       		.uleb128 0x13
 1983 014f 00       		.byte	0
 1984 0150 00       		.byte	0
 1985 0151 1A       		.uleb128 0x1a
 1986 0152 34       		.uleb128 0x34
 1987 0153 00       		.byte	0
ARM GAS  C:\msys64\tmp\cc52KdML.s 			page 36


 1988 0154 03       		.uleb128 0x3
 1989 0155 08       		.uleb128 0x8
 1990 0156 3A       		.uleb128 0x3a
 1991 0157 0B       		.uleb128 0xb
 1992 0158 3B       		.uleb128 0x3b
 1993 0159 0B       		.uleb128 0xb
 1994 015a 49       		.uleb128 0x49
 1995 015b 13       		.uleb128 0x13
 1996 015c 00       		.byte	0
 1997 015d 00       		.byte	0
 1998 015e 1B       		.uleb128 0x1b
 1999 015f 37       		.uleb128 0x37
 2000 0160 00       		.byte	0
 2001 0161 49       		.uleb128 0x49
 2002 0162 13       		.uleb128 0x13
 2003 0163 00       		.byte	0
 2004 0164 00       		.byte	0
 2005 0165 1C       		.uleb128 0x1c
 2006 0166 2E       		.uleb128 0x2e
 2007 0167 01       		.byte	0x1
 2008 0168 03       		.uleb128 0x3
 2009 0169 0E       		.uleb128 0xe
 2010 016a 3A       		.uleb128 0x3a
 2011 016b 0B       		.uleb128 0xb
 2012 016c 3B       		.uleb128 0x3b
 2013 016d 0B       		.uleb128 0xb
 2014 016e 49       		.uleb128 0x49
 2015 016f 13       		.uleb128 0x13
 2016 0170 20       		.uleb128 0x20
 2017 0171 0B       		.uleb128 0xb
 2018 0172 01       		.uleb128 0x1
 2019 0173 13       		.uleb128 0x13
 2020 0174 00       		.byte	0
 2021 0175 00       		.byte	0
 2022 0176 1D       		.uleb128 0x1d
 2023 0177 05       		.uleb128 0x5
 2024 0178 00       		.byte	0
 2025 0179 03       		.uleb128 0x3
 2026 017a 0E       		.uleb128 0xe
 2027 017b 3A       		.uleb128 0x3a
 2028 017c 0B       		.uleb128 0xb
 2029 017d 3B       		.uleb128 0x3b
 2030 017e 0B       		.uleb128 0xb
 2031 017f 49       		.uleb128 0x49
 2032 0180 13       		.uleb128 0x13
 2033 0181 00       		.byte	0
 2034 0182 00       		.byte	0
 2035 0183 1E       		.uleb128 0x1e
 2036 0184 2E       		.uleb128 0x2e
 2037 0185 01       		.byte	0x1
 2038 0186 03       		.uleb128 0x3
 2039 0187 0E       		.uleb128 0xe
 2040 0188 3A       		.uleb128 0x3a
 2041 0189 0B       		.uleb128 0xb
 2042 018a 3B       		.uleb128 0x3b
 2043 018b 05       		.uleb128 0x5
 2044 018c 49       		.uleb128 0x49
ARM GAS  C:\msys64\tmp\cc52KdML.s 			page 37


 2045 018d 13       		.uleb128 0x13
 2046 018e 20       		.uleb128 0x20
 2047 018f 0B       		.uleb128 0xb
 2048 0190 01       		.uleb128 0x1
 2049 0191 13       		.uleb128 0x13
 2050 0192 00       		.byte	0
 2051 0193 00       		.byte	0
 2052 0194 1F       		.uleb128 0x1f
 2053 0195 05       		.uleb128 0x5
 2054 0196 00       		.byte	0
 2055 0197 03       		.uleb128 0x3
 2056 0198 08       		.uleb128 0x8
 2057 0199 3A       		.uleb128 0x3a
 2058 019a 0B       		.uleb128 0xb
 2059 019b 3B       		.uleb128 0x3b
 2060 019c 05       		.uleb128 0x5
 2061 019d 49       		.uleb128 0x49
 2062 019e 13       		.uleb128 0x13
 2063 019f 00       		.byte	0
 2064 01a0 00       		.byte	0
 2065 01a1 20       		.uleb128 0x20
 2066 01a2 2E       		.uleb128 0x2e
 2067 01a3 01       		.byte	0x1
 2068 01a4 03       		.uleb128 0x3
 2069 01a5 0E       		.uleb128 0xe
 2070 01a6 34       		.uleb128 0x34
 2071 01a7 19       		.uleb128 0x19
 2072 01a8 20       		.uleb128 0x20
 2073 01a9 0B       		.uleb128 0xb
 2074 01aa 01       		.uleb128 0x1
 2075 01ab 13       		.uleb128 0x13
 2076 01ac 00       		.byte	0
 2077 01ad 00       		.byte	0
 2078 01ae 21       		.uleb128 0x21
 2079 01af 2E       		.uleb128 0x2e
 2080 01b0 01       		.byte	0x1
 2081 01b1 3F       		.uleb128 0x3f
 2082 01b2 19       		.uleb128 0x19
 2083 01b3 03       		.uleb128 0x3
 2084 01b4 0E       		.uleb128 0xe
 2085 01b5 3A       		.uleb128 0x3a
 2086 01b6 0B       		.uleb128 0xb
 2087 01b7 3B       		.uleb128 0x3b
 2088 01b8 0B       		.uleb128 0xb
 2089 01b9 11       		.uleb128 0x11
 2090 01ba 01       		.uleb128 0x1
 2091 01bb 12       		.uleb128 0x12
 2092 01bc 06       		.uleb128 0x6
 2093 01bd 40       		.uleb128 0x40
 2094 01be 18       		.uleb128 0x18
 2095 01bf 9742     		.uleb128 0x2117
 2096 01c1 19       		.uleb128 0x19
 2097 01c2 01       		.uleb128 0x1
 2098 01c3 13       		.uleb128 0x13
 2099 01c4 00       		.byte	0
 2100 01c5 00       		.byte	0
 2101 01c6 22       		.uleb128 0x22
ARM GAS  C:\msys64\tmp\cc52KdML.s 			page 38


 2102 01c7 05       		.uleb128 0x5
 2103 01c8 00       		.byte	0
 2104 01c9 03       		.uleb128 0x3
 2105 01ca 0E       		.uleb128 0xe
 2106 01cb 3A       		.uleb128 0x3a
 2107 01cc 0B       		.uleb128 0xb
 2108 01cd 3B       		.uleb128 0x3b
 2109 01ce 0B       		.uleb128 0xb
 2110 01cf 49       		.uleb128 0x49
 2111 01d0 13       		.uleb128 0x13
 2112 01d1 02       		.uleb128 0x2
 2113 01d2 17       		.uleb128 0x17
 2114 01d3 00       		.byte	0
 2115 01d4 00       		.byte	0
 2116 01d5 23       		.uleb128 0x23
 2117 01d6 05       		.uleb128 0x5
 2118 01d7 00       		.byte	0
 2119 01d8 03       		.uleb128 0x3
 2120 01d9 08       		.uleb128 0x8
 2121 01da 3A       		.uleb128 0x3a
 2122 01db 0B       		.uleb128 0xb
 2123 01dc 3B       		.uleb128 0x3b
 2124 01dd 0B       		.uleb128 0xb
 2125 01de 49       		.uleb128 0x49
 2126 01df 13       		.uleb128 0x13
 2127 01e0 02       		.uleb128 0x2
 2128 01e1 17       		.uleb128 0x17
 2129 01e2 00       		.byte	0
 2130 01e3 00       		.byte	0
 2131 01e4 24       		.uleb128 0x24
 2132 01e5 1D       		.uleb128 0x1d
 2133 01e6 01       		.byte	0x1
 2134 01e7 31       		.uleb128 0x31
 2135 01e8 13       		.uleb128 0x13
 2136 01e9 52       		.uleb128 0x52
 2137 01ea 01       		.uleb128 0x1
 2138 01eb 55       		.uleb128 0x55
 2139 01ec 17       		.uleb128 0x17
 2140 01ed 58       		.uleb128 0x58
 2141 01ee 0B       		.uleb128 0xb
 2142 01ef 59       		.uleb128 0x59
 2143 01f0 0B       		.uleb128 0xb
 2144 01f1 01       		.uleb128 0x1
 2145 01f2 13       		.uleb128 0x13
 2146 01f3 00       		.byte	0
 2147 01f4 00       		.byte	0
 2148 01f5 25       		.uleb128 0x25
 2149 01f6 05       		.uleb128 0x5
 2150 01f7 00       		.byte	0
 2151 01f8 31       		.uleb128 0x31
 2152 01f9 13       		.uleb128 0x13
 2153 01fa 02       		.uleb128 0x2
 2154 01fb 17       		.uleb128 0x17
 2155 01fc 00       		.byte	0
 2156 01fd 00       		.byte	0
 2157 01fe 26       		.uleb128 0x26
 2158 01ff 1D       		.uleb128 0x1d
ARM GAS  C:\msys64\tmp\cc52KdML.s 			page 39


 2159 0200 01       		.byte	0x1
 2160 0201 31       		.uleb128 0x31
 2161 0202 13       		.uleb128 0x13
 2162 0203 11       		.uleb128 0x11
 2163 0204 01       		.uleb128 0x1
 2164 0205 12       		.uleb128 0x12
 2165 0206 06       		.uleb128 0x6
 2166 0207 58       		.uleb128 0x58
 2167 0208 0B       		.uleb128 0xb
 2168 0209 59       		.uleb128 0x59
 2169 020a 0B       		.uleb128 0xb
 2170 020b 01       		.uleb128 0x1
 2171 020c 13       		.uleb128 0x13
 2172 020d 00       		.byte	0
 2173 020e 00       		.byte	0
 2174 020f 27       		.uleb128 0x27
 2175 0210 1D       		.uleb128 0x1d
 2176 0211 01       		.byte	0x1
 2177 0212 31       		.uleb128 0x31
 2178 0213 13       		.uleb128 0x13
 2179 0214 11       		.uleb128 0x11
 2180 0215 01       		.uleb128 0x1
 2181 0216 12       		.uleb128 0x12
 2182 0217 06       		.uleb128 0x6
 2183 0218 58       		.uleb128 0x58
 2184 0219 0B       		.uleb128 0xb
 2185 021a 59       		.uleb128 0x59
 2186 021b 0B       		.uleb128 0xb
 2187 021c 00       		.byte	0
 2188 021d 00       		.byte	0
 2189 021e 28       		.uleb128 0x28
 2190 021f 0B       		.uleb128 0xb
 2191 0220 01       		.byte	0x1
 2192 0221 11       		.uleb128 0x11
 2193 0222 01       		.uleb128 0x1
 2194 0223 12       		.uleb128 0x12
 2195 0224 06       		.uleb128 0x6
 2196 0225 00       		.byte	0
 2197 0226 00       		.byte	0
 2198 0227 29       		.uleb128 0x29
 2199 0228 34       		.uleb128 0x34
 2200 0229 00       		.byte	0
 2201 022a 31       		.uleb128 0x31
 2202 022b 13       		.uleb128 0x13
 2203 022c 02       		.uleb128 0x2
 2204 022d 17       		.uleb128 0x17
 2205 022e 00       		.byte	0
 2206 022f 00       		.byte	0
 2207 0230 2A       		.uleb128 0x2a
 2208 0231 898201   		.uleb128 0x4109
 2209 0234 00       		.byte	0
 2210 0235 11       		.uleb128 0x11
 2211 0236 01       		.uleb128 0x1
 2212 0237 31       		.uleb128 0x31
 2213 0238 13       		.uleb128 0x13
 2214 0239 00       		.byte	0
 2215 023a 00       		.byte	0
ARM GAS  C:\msys64\tmp\cc52KdML.s 			page 40


 2216 023b 2B       		.uleb128 0x2b
 2217 023c 2E       		.uleb128 0x2e
 2218 023d 01       		.byte	0x1
 2219 023e 3F       		.uleb128 0x3f
 2220 023f 19       		.uleb128 0x19
 2221 0240 03       		.uleb128 0x3
 2222 0241 0E       		.uleb128 0xe
 2223 0242 3A       		.uleb128 0x3a
 2224 0243 0B       		.uleb128 0xb
 2225 0244 3B       		.uleb128 0x3b
 2226 0245 0B       		.uleb128 0xb
 2227 0246 11       		.uleb128 0x11
 2228 0247 01       		.uleb128 0x1
 2229 0248 12       		.uleb128 0x12
 2230 0249 06       		.uleb128 0x6
 2231 024a 40       		.uleb128 0x40
 2232 024b 18       		.uleb128 0x18
 2233 024c 9642     		.uleb128 0x2116
 2234 024e 19       		.uleb128 0x19
 2235 024f 01       		.uleb128 0x1
 2236 0250 13       		.uleb128 0x13
 2237 0251 00       		.byte	0
 2238 0252 00       		.byte	0
 2239 0253 2C       		.uleb128 0x2c
 2240 0254 34       		.uleb128 0x34
 2241 0255 00       		.byte	0
 2242 0256 03       		.uleb128 0x3
 2243 0257 08       		.uleb128 0x8
 2244 0258 3A       		.uleb128 0x3a
 2245 0259 0B       		.uleb128 0xb
 2246 025a 3B       		.uleb128 0x3b
 2247 025b 0B       		.uleb128 0xb
 2248 025c 49       		.uleb128 0x49
 2249 025d 13       		.uleb128 0x13
 2250 025e 02       		.uleb128 0x2
 2251 025f 17       		.uleb128 0x17
 2252 0260 00       		.byte	0
 2253 0261 00       		.byte	0
 2254 0262 2D       		.uleb128 0x2d
 2255 0263 34       		.uleb128 0x34
 2256 0264 00       		.byte	0
 2257 0265 03       		.uleb128 0x3
 2258 0266 08       		.uleb128 0x8
 2259 0267 3A       		.uleb128 0x3a
 2260 0268 0B       		.uleb128 0xb
 2261 0269 3B       		.uleb128 0x3b
 2262 026a 0B       		.uleb128 0xb
 2263 026b 49       		.uleb128 0x49
 2264 026c 13       		.uleb128 0x13
 2265 026d 02       		.uleb128 0x2
 2266 026e 18       		.uleb128 0x18
 2267 026f 00       		.byte	0
 2268 0270 00       		.byte	0
 2269 0271 2E       		.uleb128 0x2e
 2270 0272 34       		.uleb128 0x34
 2271 0273 00       		.byte	0
 2272 0274 03       		.uleb128 0x3
ARM GAS  C:\msys64\tmp\cc52KdML.s 			page 41


 2273 0275 0E       		.uleb128 0xe
 2274 0276 3A       		.uleb128 0x3a
 2275 0277 0B       		.uleb128 0xb
 2276 0278 3B       		.uleb128 0x3b
 2277 0279 0B       		.uleb128 0xb
 2278 027a 49       		.uleb128 0x49
 2279 027b 13       		.uleb128 0x13
 2280 027c 02       		.uleb128 0x2
 2281 027d 17       		.uleb128 0x17
 2282 027e 00       		.byte	0
 2283 027f 00       		.byte	0
 2284 0280 2F       		.uleb128 0x2f
 2285 0281 0B       		.uleb128 0xb
 2286 0282 01       		.byte	0x1
 2287 0283 55       		.uleb128 0x55
 2288 0284 17       		.uleb128 0x17
 2289 0285 00       		.byte	0
 2290 0286 00       		.byte	0
 2291 0287 30       		.uleb128 0x30
 2292 0288 05       		.uleb128 0x5
 2293 0289 00       		.byte	0
 2294 028a 31       		.uleb128 0x31
 2295 028b 13       		.uleb128 0x13
 2296 028c 00       		.byte	0
 2297 028d 00       		.byte	0
 2298 028e 31       		.uleb128 0x31
 2299 028f 1D       		.uleb128 0x1d
 2300 0290 01       		.byte	0x1
 2301 0291 31       		.uleb128 0x31
 2302 0292 13       		.uleb128 0x13
 2303 0293 52       		.uleb128 0x52
 2304 0294 01       		.uleb128 0x1
 2305 0295 55       		.uleb128 0x55
 2306 0296 17       		.uleb128 0x17
 2307 0297 58       		.uleb128 0x58
 2308 0298 0B       		.uleb128 0xb
 2309 0299 59       		.uleb128 0x59
 2310 029a 0B       		.uleb128 0xb
 2311 029b 00       		.byte	0
 2312 029c 00       		.byte	0
 2313 029d 32       		.uleb128 0x32
 2314 029e 2E       		.uleb128 0x2e
 2315 029f 01       		.byte	0x1
 2316 02a0 03       		.uleb128 0x3
 2317 02a1 0E       		.uleb128 0xe
 2318 02a2 34       		.uleb128 0x34
 2319 02a3 19       		.uleb128 0x19
 2320 02a4 11       		.uleb128 0x11
 2321 02a5 01       		.uleb128 0x1
 2322 02a6 12       		.uleb128 0x12
 2323 02a7 06       		.uleb128 0x6
 2324 02a8 40       		.uleb128 0x40
 2325 02a9 18       		.uleb128 0x18
 2326 02aa 9742     		.uleb128 0x2117
 2327 02ac 19       		.uleb128 0x19
 2328 02ad 01       		.uleb128 0x1
 2329 02ae 13       		.uleb128 0x13
ARM GAS  C:\msys64\tmp\cc52KdML.s 			page 42


 2330 02af 00       		.byte	0
 2331 02b0 00       		.byte	0
 2332 02b1 33       		.uleb128 0x33
 2333 02b2 05       		.uleb128 0x5
 2334 02b3 00       		.byte	0
 2335 02b4 31       		.uleb128 0x31
 2336 02b5 13       		.uleb128 0x13
 2337 02b6 02       		.uleb128 0x2
 2338 02b7 18       		.uleb128 0x18
 2339 02b8 00       		.byte	0
 2340 02b9 00       		.byte	0
 2341 02ba 34       		.uleb128 0x34
 2342 02bb 34       		.uleb128 0x34
 2343 02bc 00       		.byte	0
 2344 02bd 03       		.uleb128 0x3
 2345 02be 0E       		.uleb128 0xe
 2346 02bf 3A       		.uleb128 0x3a
 2347 02c0 0B       		.uleb128 0xb
 2348 02c1 3B       		.uleb128 0x3b
 2349 02c2 0B       		.uleb128 0xb
 2350 02c3 49       		.uleb128 0x49
 2351 02c4 13       		.uleb128 0x13
 2352 02c5 3F       		.uleb128 0x3f
 2353 02c6 19       		.uleb128 0x19
 2354 02c7 3C       		.uleb128 0x3c
 2355 02c8 19       		.uleb128 0x19
 2356 02c9 00       		.byte	0
 2357 02ca 00       		.byte	0
 2358 02cb 35       		.uleb128 0x35
 2359 02cc 01       		.uleb128 0x1
 2360 02cd 01       		.byte	0x1
 2361 02ce 49       		.uleb128 0x49
 2362 02cf 13       		.uleb128 0x13
 2363 02d0 01       		.uleb128 0x1
 2364 02d1 13       		.uleb128 0x13
 2365 02d2 00       		.byte	0
 2366 02d3 00       		.byte	0
 2367 02d4 36       		.uleb128 0x36
 2368 02d5 21       		.uleb128 0x21
 2369 02d6 00       		.byte	0
 2370 02d7 49       		.uleb128 0x49
 2371 02d8 13       		.uleb128 0x13
 2372 02d9 2F       		.uleb128 0x2f
 2373 02da 0B       		.uleb128 0xb
 2374 02db 00       		.byte	0
 2375 02dc 00       		.byte	0
 2376 02dd 37       		.uleb128 0x37
 2377 02de 21       		.uleb128 0x21
 2378 02df 00       		.byte	0
 2379 02e0 49       		.uleb128 0x49
 2380 02e1 13       		.uleb128 0x13
 2381 02e2 2F       		.uleb128 0x2f
 2382 02e3 05       		.uleb128 0x5
 2383 02e4 00       		.byte	0
 2384 02e5 00       		.byte	0
 2385 02e6 38       		.uleb128 0x38
 2386 02e7 34       		.uleb128 0x34
ARM GAS  C:\msys64\tmp\cc52KdML.s 			page 43


 2387 02e8 00       		.byte	0
 2388 02e9 03       		.uleb128 0x3
 2389 02ea 0E       		.uleb128 0xe
 2390 02eb 3A       		.uleb128 0x3a
 2391 02ec 0B       		.uleb128 0xb
 2392 02ed 3B       		.uleb128 0x3b
 2393 02ee 05       		.uleb128 0x5
 2394 02ef 49       		.uleb128 0x49
 2395 02f0 13       		.uleb128 0x13
 2396 02f1 3F       		.uleb128 0x3f
 2397 02f2 19       		.uleb128 0x19
 2398 02f3 3C       		.uleb128 0x3c
 2399 02f4 19       		.uleb128 0x19
 2400 02f5 00       		.byte	0
 2401 02f6 00       		.byte	0
 2402 02f7 39       		.uleb128 0x39
 2403 02f8 34       		.uleb128 0x34
 2404 02f9 00       		.byte	0
 2405 02fa 03       		.uleb128 0x3
 2406 02fb 0E       		.uleb128 0xe
 2407 02fc 3A       		.uleb128 0x3a
 2408 02fd 0B       		.uleb128 0xb
 2409 02fe 3B       		.uleb128 0x3b
 2410 02ff 0B       		.uleb128 0xb
 2411 0300 49       		.uleb128 0x49
 2412 0301 13       		.uleb128 0x13
 2413 0302 02       		.uleb128 0x2
 2414 0303 18       		.uleb128 0x18
 2415 0304 00       		.byte	0
 2416 0305 00       		.byte	0
 2417 0306 3A       		.uleb128 0x3a
 2418 0307 21       		.uleb128 0x21
 2419 0308 00       		.byte	0
 2420 0309 49       		.uleb128 0x49
 2421 030a 13       		.uleb128 0x13
 2422 030b 2F       		.uleb128 0x2f
 2423 030c 06       		.uleb128 0x6
 2424 030d 00       		.byte	0
 2425 030e 00       		.byte	0
 2426 030f 3B       		.uleb128 0x3b
 2427 0310 34       		.uleb128 0x34
 2428 0311 00       		.byte	0
 2429 0312 03       		.uleb128 0x3
 2430 0313 0E       		.uleb128 0xe
 2431 0314 3A       		.uleb128 0x3a
 2432 0315 0B       		.uleb128 0xb
 2433 0316 3B       		.uleb128 0x3b
 2434 0317 0B       		.uleb128 0xb
 2435 0318 49       		.uleb128 0x49
 2436 0319 13       		.uleb128 0x13
 2437 031a 3F       		.uleb128 0x3f
 2438 031b 19       		.uleb128 0x19
 2439 031c 02       		.uleb128 0x2
 2440 031d 18       		.uleb128 0x18
 2441 031e 00       		.byte	0
 2442 031f 00       		.byte	0
 2443 0320 3C       		.uleb128 0x3c
ARM GAS  C:\msys64\tmp\cc52KdML.s 			page 44


 2444 0321 34       		.uleb128 0x34
 2445 0322 00       		.byte	0
 2446 0323 03       		.uleb128 0x3
 2447 0324 08       		.uleb128 0x8
 2448 0325 3A       		.uleb128 0x3a
 2449 0326 0B       		.uleb128 0xb
 2450 0327 3B       		.uleb128 0x3b
 2451 0328 0B       		.uleb128 0xb
 2452 0329 49       		.uleb128 0x49
 2453 032a 13       		.uleb128 0x13
 2454 032b 3F       		.uleb128 0x3f
 2455 032c 19       		.uleb128 0x19
 2456 032d 02       		.uleb128 0x2
 2457 032e 18       		.uleb128 0x18
 2458 032f 00       		.byte	0
 2459 0330 00       		.byte	0
 2460 0331 3D       		.uleb128 0x3d
 2461 0332 2E       		.uleb128 0x2e
 2462 0333 00       		.byte	0
 2463 0334 3F       		.uleb128 0x3f
 2464 0335 19       		.uleb128 0x19
 2465 0336 3C       		.uleb128 0x3c
 2466 0337 19       		.uleb128 0x19
 2467 0338 6E       		.uleb128 0x6e
 2468 0339 0E       		.uleb128 0xe
 2469 033a 03       		.uleb128 0x3
 2470 033b 0E       		.uleb128 0xe
 2471 033c 3A       		.uleb128 0x3a
 2472 033d 0B       		.uleb128 0xb
 2473 033e 3B       		.uleb128 0x3b
 2474 033f 0B       		.uleb128 0xb
 2475 0340 00       		.byte	0
 2476 0341 00       		.byte	0
 2477 0342 00       		.byte	0
 2478              		.section	.debug_loc,"",%progbits
 2479              	.Ldebug_loc0:
 2480              	.LLST0:
 2481 0000 00000000 		.4byte	.LVL0
 2482 0004 39000000 		.4byte	.LVL9-1
 2483 0008 0100     		.2byte	0x1
 2484 000a 50       		.byte	0x50
 2485 000b 39000000 		.4byte	.LVL9-1
 2486 000f 64000000 		.4byte	.LFE264
 2487 0013 0400     		.2byte	0x4
 2488 0015 F3       		.byte	0xf3
 2489 0016 01       		.uleb128 0x1
 2490 0017 50       		.byte	0x50
 2491 0018 9F       		.byte	0x9f
 2492 0019 00000000 		.4byte	0
 2493 001d 00000000 		.4byte	0
 2494              	.LLST1:
 2495 0021 00000000 		.4byte	.LVL0
 2496 0025 08000000 		.4byte	.LVL1
 2497 0029 0100     		.2byte	0x1
 2498 002b 51       		.byte	0x51
 2499 002c 08000000 		.4byte	.LVL1
 2500 0030 64000000 		.4byte	.LFE264
ARM GAS  C:\msys64\tmp\cc52KdML.s 			page 45


 2501 0034 0400     		.2byte	0x4
 2502 0036 F3       		.byte	0xf3
 2503 0037 01       		.uleb128 0x1
 2504 0038 51       		.byte	0x51
 2505 0039 9F       		.byte	0x9f
 2506 003a 00000000 		.4byte	0
 2507 003e 00000000 		.4byte	0
 2508              	.LLST2:
 2509 0042 00000000 		.4byte	.LVL0
 2510 0046 18000000 		.4byte	.LVL2
 2511 004a 0600     		.2byte	0x6
 2512 004c 0C       		.byte	0xc
 2513 004d 50340300 		.4byte	0x33450
 2514 0051 9F       		.byte	0x9f
 2515 0052 00000000 		.4byte	0
 2516 0056 00000000 		.4byte	0
 2517              	.LLST3:
 2518 005a 00000000 		.4byte	.LVL0
 2519 005e 18000000 		.4byte	.LVL2
 2520 0062 0600     		.2byte	0x6
 2521 0064 03       		.byte	0x3
 2522 0065 00000000 		.4byte	_ZL11s_delay_ram
 2523 0069 9F       		.byte	0x9f
 2524 006a 00000000 		.4byte	0
 2525 006e 00000000 		.4byte	0
 2526              	.LLST4:
 2527 0072 00000000 		.4byte	.LVL0
 2528 0076 18000000 		.4byte	.LVL2
 2529 007a 0600     		.2byte	0x6
 2530 007c 03       		.byte	0x3
 2531 007d 00000000 		.4byte	_ZL7s_delay
 2532 0081 9F       		.byte	0x9f
 2533 0082 00000000 		.4byte	0
 2534 0086 00000000 		.4byte	0
 2535              	.LLST5:
 2536 008a 18000000 		.4byte	.LVL2
 2537 008e 36000000 		.4byte	.LVL8
 2538 0092 0600     		.2byte	0x6
 2539 0094 03       		.byte	0x3
 2540 0095 00000000 		.4byte	_ZL7s_delay
 2541 0099 9F       		.byte	0x9f
 2542 009a 00000000 		.4byte	0
 2543 009e 00000000 		.4byte	0
 2544              	.LLST6:
 2545 00a2 18000000 		.4byte	.LVL2
 2546 00a6 36000000 		.4byte	.LVL8
 2547 00aa 0400     		.2byte	0x4
 2548 00ac 40       		.byte	0x40
 2549 00ad 3F       		.byte	0x3f
 2550 00ae 24       		.byte	0x24
 2551 00af 9F       		.byte	0x9f
 2552 00b0 00000000 		.4byte	0
 2553 00b4 00000000 		.4byte	0
 2554              	.LLST7:
 2555 00b8 18000000 		.4byte	.LVL2
 2556 00bc 20000000 		.4byte	.LVL3
 2557 00c0 0600     		.2byte	0x6
ARM GAS  C:\msys64\tmp\cc52KdML.s 			page 46


 2558 00c2 03       		.byte	0x3
 2559 00c3 00000000 		.4byte	_ZL11s_delay_ram
 2560 00c7 9F       		.byte	0x9f
 2561 00c8 20000000 		.4byte	.LVL3
 2562 00cc 24000000 		.4byte	.LVL4
 2563 00d0 0300     		.2byte	0x3
 2564 00d2 73       		.byte	0x73
 2565 00d3 74       		.sleb128 -12
 2566 00d4 9F       		.byte	0x9f
 2567 00d5 24000000 		.4byte	.LVL4
 2568 00d9 28000000 		.4byte	.LVL5
 2569 00dd 0300     		.2byte	0x3
 2570 00df 73       		.byte	0x73
 2571 00e0 78       		.sleb128 -8
 2572 00e1 9F       		.byte	0x9f
 2573 00e2 28000000 		.4byte	.LVL5
 2574 00e6 2C000000 		.4byte	.LVL6
 2575 00ea 0300     		.2byte	0x3
 2576 00ec 73       		.byte	0x73
 2577 00ed 7C       		.sleb128 -4
 2578 00ee 9F       		.byte	0x9f
 2579 00ef 2C000000 		.4byte	.LVL6
 2580 00f3 32000000 		.4byte	.LVL7
 2581 00f7 0100     		.2byte	0x1
 2582 00f9 53       		.byte	0x53
 2583 00fa 32000000 		.4byte	.LVL7
 2584 00fe 36000000 		.4byte	.LVL8
 2585 0102 0300     		.2byte	0x3
 2586 0104 73       		.byte	0x73
 2587 0105 70       		.sleb128 -16
 2588 0106 9F       		.byte	0x9f
 2589 0107 00000000 		.4byte	0
 2590 010b 00000000 		.4byte	0
 2591              	.LLST8:
 2592 010f 18000000 		.4byte	.LVL2
 2593 0113 36000000 		.4byte	.LVL8
 2594 0117 0600     		.2byte	0x6
 2595 0119 03       		.byte	0x3
 2596 011a 00002000 		.4byte	_ZL11s_delay_ram+2097152
 2597 011e 9F       		.byte	0x9f
 2598 011f 00000000 		.4byte	0
 2599 0123 00000000 		.4byte	0
 2600              	.LLST9:
 2601 0127 64000000 		.4byte	.LVL10
 2602 012b B0000000 		.4byte	.LVL13
 2603 012f 0100     		.2byte	0x1
 2604 0131 50       		.byte	0x50
 2605 0132 B0000000 		.4byte	.LVL13
 2606 0136 6C020000 		.4byte	.LFE266
 2607 013a 0400     		.2byte	0x4
 2608 013c F3       		.byte	0xf3
 2609 013d 01       		.uleb128 0x1
 2610 013e 50       		.byte	0x50
 2611 013f 9F       		.byte	0x9f
 2612 0140 00000000 		.4byte	0
 2613 0144 00000000 		.4byte	0
 2614              	.LLST10:
ARM GAS  C:\msys64\tmp\cc52KdML.s 			page 47


 2615 0148 64000000 		.4byte	.LVL10
 2616 014c B0000000 		.4byte	.LVL13
 2617 0150 0100     		.2byte	0x1
 2618 0152 51       		.byte	0x51
 2619 0153 B0000000 		.4byte	.LVL13
 2620 0157 6C020000 		.4byte	.LFE266
 2621 015b 0400     		.2byte	0x4
 2622 015d F3       		.byte	0xf3
 2623 015e 01       		.uleb128 0x1
 2624 015f 51       		.byte	0x51
 2625 0160 9F       		.byte	0x9f
 2626 0161 00000000 		.4byte	0
 2627 0165 00000000 		.4byte	0
 2628              	.LLST11:
 2629 0169 64000000 		.4byte	.LVL10
 2630 016d 58010000 		.4byte	.LVL21
 2631 0171 0100     		.2byte	0x1
 2632 0173 50       		.byte	0x50
 2633 0174 58010000 		.4byte	.LVL21
 2634 0178 1E020000 		.4byte	.LVL36
 2635 017c 0300     		.2byte	0x3
 2636 017e 76       		.byte	0x76
 2637 017f 78       		.sleb128 -8
 2638 0180 9F       		.byte	0x9f
 2639 0181 1E020000 		.4byte	.LVL36
 2640 0185 22020000 		.4byte	.LVL37
 2641 0189 0100     		.2byte	0x1
 2642 018b 56       		.byte	0x56
 2643 018c 22020000 		.4byte	.LVL37
 2644 0190 6C020000 		.4byte	.LFE266
 2645 0194 0100     		.2byte	0x1
 2646 0196 50       		.byte	0x50
 2647 0197 00000000 		.4byte	0
 2648 019b 00000000 		.4byte	0
 2649              	.LLST12:
 2650 019f A8000000 		.4byte	.LVL11
 2651 01a3 AC000000 		.4byte	.LVL12
 2652 01a7 0100     		.2byte	0x1
 2653 01a9 53       		.byte	0x53
 2654 01aa AC000000 		.4byte	.LVL12
 2655 01ae 2C020000 		.4byte	.LVL38
 2656 01b2 0200     		.2byte	0x2
 2657 01b4 7D       		.byte	0x7d
 2658 01b5 00       		.sleb128 0
 2659 01b6 2C020000 		.4byte	.LVL38
 2660 01ba 34020000 		.4byte	.LVL39
 2661 01be 0300     		.2byte	0x3
 2662 01c0 91       		.byte	0x91
 2663 01c1 907F     		.sleb128 -112
 2664 01c3 34020000 		.4byte	.LVL39
 2665 01c7 6C020000 		.4byte	.LFE266
 2666 01cb 0300     		.2byte	0x3
 2667 01cd 7D       		.byte	0x7d
 2668 01ce 907F     		.sleb128 -112
 2669 01d0 00000000 		.4byte	0
 2670 01d4 00000000 		.4byte	0
 2671              	.LLST13:
ARM GAS  C:\msys64\tmp\cc52KdML.s 			page 48


 2672 01d8 10020000 		.4byte	.LVL34
 2673 01dc 18020000 		.4byte	.LVL35
 2674 01e0 1200     		.2byte	0x12
 2675 01e2 90       		.byte	0x90
 2676 01e3 57       		.uleb128 0x57
 2677 01e4 93       		.byte	0x93
 2678 01e5 04       		.uleb128 0x4
 2679 01e6 F5       		.byte	0xf5
 2680 01e7 57       		.uleb128 0x57
 2681 01e8 25       		.uleb128 0x25
 2682 01e9 F4       		.byte	0xf4
 2683 01ea 25       		.uleb128 0x25
 2684 01eb 04       		.byte	0x4
 2685 01ec 0000803F 		.4byte	0x3f800000
 2686 01f0 22       		.byte	0x22
 2687 01f1 9F       		.byte	0x9f
 2688 01f2 93       		.byte	0x93
 2689 01f3 04       		.uleb128 0x4
 2690 01f4 18020000 		.4byte	.LVL35
 2691 01f8 22020000 		.4byte	.LVL37
 2692 01fc 0800     		.2byte	0x8
 2693 01fe 73       		.byte	0x73
 2694 01ff 00       		.sleb128 0
 2695 0200 93       		.byte	0x93
 2696 0201 04       		.uleb128 0x4
 2697 0202 90       		.byte	0x90
 2698 0203 57       		.uleb128 0x57
 2699 0204 93       		.byte	0x93
 2700 0205 04       		.uleb128 0x4
 2701 0206 00000000 		.4byte	0
 2702 020a 00000000 		.4byte	0
 2703              	.LLST14:
 2704 020e BC000000 		.4byte	.LVL14
 2705 0212 DC000000 		.4byte	.LVL15
 2706 0216 1500     		.2byte	0x15
 2707 0218 7B       		.byte	0x7b
 2708 0219 00       		.sleb128 0
 2709 021a 75       		.byte	0x75
 2710 021b 00       		.sleb128 0
 2711 021c 22       		.byte	0x22
 2712 021d 79       		.byte	0x79
 2713 021e 00       		.sleb128 0
 2714 021f 1A       		.byte	0x1a
 2715 0220 33       		.byte	0x33
 2716 0221 24       		.byte	0x24
 2717 0222 78       		.byte	0x78
 2718 0223 00       		.sleb128 0
 2719 0224 22       		.byte	0x22
 2720 0225 F6       		.byte	0xf6
 2721 0226 04       		.byte	0x4
 2722 0227 25       		.uleb128 0x25
 2723 0228 F5       		.byte	0xf5
 2724 0229 5C       		.uleb128 0x5c
 2725 022a 25       		.uleb128 0x25
 2726 022b 1E       		.byte	0x1e
 2727 022c 9F       		.byte	0x9f
 2728 022d DC000000 		.4byte	.LVL15
ARM GAS  C:\msys64\tmp\cc52KdML.s 			page 49


 2729 0231 E0000000 		.4byte	.LVL16
 2730 0235 0F00     		.2byte	0xf
 2731 0237 73       		.byte	0x73
 2732 0238 00       		.sleb128 0
 2733 0239 33       		.byte	0x33
 2734 023a 24       		.byte	0x24
 2735 023b 78       		.byte	0x78
 2736 023c 00       		.sleb128 0
 2737 023d 22       		.byte	0x22
 2738 023e F6       		.byte	0xf6
 2739 023f 04       		.byte	0x4
 2740 0240 25       		.uleb128 0x25
 2741 0241 F5       		.byte	0xf5
 2742 0242 5C       		.uleb128 0x5c
 2743 0243 25       		.uleb128 0x25
 2744 0244 1E       		.byte	0x1e
 2745 0245 9F       		.byte	0x9f
 2746 0246 E0000000 		.4byte	.LVL16
 2747 024a F8000000 		.4byte	.LVL19
 2748 024e 1500     		.2byte	0x15
 2749 0250 7B       		.byte	0x7b
 2750 0251 00       		.sleb128 0
 2751 0252 75       		.byte	0x75
 2752 0253 00       		.sleb128 0
 2753 0254 22       		.byte	0x22
 2754 0255 79       		.byte	0x79
 2755 0256 00       		.sleb128 0
 2756 0257 1A       		.byte	0x1a
 2757 0258 33       		.byte	0x33
 2758 0259 24       		.byte	0x24
 2759 025a 78       		.byte	0x78
 2760 025b 00       		.sleb128 0
 2761 025c 22       		.byte	0x22
 2762 025d F6       		.byte	0xf6
 2763 025e 04       		.byte	0x4
 2764 025f 25       		.uleb128 0x25
 2765 0260 F5       		.byte	0xf5
 2766 0261 5C       		.uleb128 0x5c
 2767 0262 25       		.uleb128 0x25
 2768 0263 1E       		.byte	0x1e
 2769 0264 9F       		.byte	0x9f
 2770 0265 00000000 		.4byte	0
 2771 0269 00000000 		.4byte	0
 2772              	.LLST15:
 2773 026d E8000000 		.4byte	.LVL17
 2774 0271 F0000000 		.4byte	.LVL18
 2775 0275 0200     		.2byte	0x2
 2776 0277 90       		.byte	0x90
 2777 0278 4F       		.uleb128 0x4f
 2778 0279 F0000000 		.4byte	.LVL18
 2779 027d 5B010000 		.4byte	.LVL22-1
 2780 0281 1900     		.2byte	0x19
 2781 0283 F5       		.byte	0xf5
 2782 0284 5C       		.uleb128 0x5c
 2783 0285 25       		.uleb128 0x25
 2784 0286 91       		.byte	0x91
 2785 0287 947F     		.sleb128 -108
ARM GAS  C:\msys64\tmp\cc52KdML.s 			page 50


 2786 0289 06       		.byte	0x6
 2787 028a 75       		.byte	0x75
 2788 028b 00       		.sleb128 0
 2789 028c 22       		.byte	0x22
 2790 028d 79       		.byte	0x79
 2791 028e 00       		.sleb128 0
 2792 028f 1A       		.byte	0x1a
 2793 0290 33       		.byte	0x33
 2794 0291 24       		.byte	0x24
 2795 0292 78       		.byte	0x78
 2796 0293 00       		.sleb128 0
 2797 0294 22       		.byte	0x22
 2798 0295 23       		.byte	0x23
 2799 0296 04       		.uleb128 0x4
 2800 0297 F6       		.byte	0xf6
 2801 0298 04       		.byte	0x4
 2802 0299 25       		.uleb128 0x25
 2803 029a 1E       		.byte	0x1e
 2804 029b 9F       		.byte	0x9f
 2805 029c 00000000 		.4byte	0
 2806 02a0 00000000 		.4byte	0
 2807              	.LLST16:
 2808 02a4 F8000000 		.4byte	.LVL19
 2809 02a8 14010000 		.4byte	.LVL20
 2810 02ac 0200     		.2byte	0x2
 2811 02ae 90       		.byte	0x90
 2812 02af 4E       		.uleb128 0x4e
 2813 02b0 00000000 		.4byte	0
 2814 02b4 00000000 		.4byte	0
 2815              	.LLST17:
 2816 02b8 8A010000 		.4byte	.LVL27
 2817 02bc A2010000 		.4byte	.LVL28
 2818 02c0 0200     		.2byte	0x2
 2819 02c2 90       		.byte	0x90
 2820 02c3 4E       		.uleb128 0x4e
 2821 02c4 00000000 		.4byte	0
 2822 02c8 00000000 		.4byte	0
 2823              	.LLST18:
 2824 02cc 10020000 		.4byte	.LVL34
 2825 02d0 1E020000 		.4byte	.LVL36
 2826 02d4 0600     		.2byte	0x6
 2827 02d6 F2       		.byte	0xf2
 2828 02d7 34060000 		.4byte	.Ldebug_info0+1588
 2829 02db 00       		.sleb128 0
 2830 02dc 00000000 		.4byte	0
 2831 02e0 00000000 		.4byte	0
 2832              	.LLST19:
 2833 02e4 10020000 		.4byte	.LVL34
 2834 02e8 1E020000 		.4byte	.LVL36
 2835 02ec 0600     		.2byte	0x6
 2836 02ee 03       		.byte	0x3
 2837 02ef 00000000 		.4byte	_ZL7s_delay
 2838 02f3 9F       		.byte	0x9f
 2839 02f4 00000000 		.4byte	0
 2840 02f8 00000000 		.4byte	0
 2841              	.LLST20:
 2842 02fc 6C020000 		.4byte	.LVL40
ARM GAS  C:\msys64\tmp\cc52KdML.s 			page 51


 2843 0300 97020000 		.4byte	.LVL42-1
 2844 0304 0100     		.2byte	0x1
 2845 0306 50       		.byte	0x50
 2846 0307 97020000 		.4byte	.LVL42-1
 2847 030b 04030000 		.4byte	.LFE267
 2848 030f 0400     		.2byte	0x4
 2849 0311 F3       		.byte	0xf3
 2850 0312 01       		.uleb128 0x1
 2851 0313 50       		.byte	0x50
 2852 0314 9F       		.byte	0x9f
 2853 0315 00000000 		.4byte	0
 2854 0319 00000000 		.4byte	0
 2855              	.LLST21:
 2856 031d 6C020000 		.4byte	.LVL40
 2857 0321 97020000 		.4byte	.LVL42-1
 2858 0325 0100     		.2byte	0x1
 2859 0327 51       		.byte	0x51
 2860 0328 97020000 		.4byte	.LVL42-1
 2861 032c 04030000 		.4byte	.LFE267
 2862 0330 0400     		.2byte	0x4
 2863 0332 F3       		.byte	0xf3
 2864 0333 01       		.uleb128 0x1
 2865 0334 51       		.byte	0x51
 2866 0335 9F       		.byte	0x9f
 2867 0336 00000000 		.4byte	0
 2868 033a 00000000 		.4byte	0
 2869              	.LLST22:
 2870 033e 7C020000 		.4byte	.LVL41
 2871 0342 F4020000 		.4byte	.LVL43
 2872 0346 0200     		.2byte	0x2
 2873 0348 90       		.byte	0x90
 2874 0349 50       		.uleb128 0x50
 2875 034a F4020000 		.4byte	.LVL43
 2876 034e 04030000 		.4byte	.LFE267
 2877 0352 1000     		.2byte	0x10
 2878 0354 F3       		.byte	0xf3
 2879 0355 01       		.uleb128 0x1
 2880 0356 51       		.byte	0x51
 2881 0357 F7       		.byte	0xf7
 2882 0358 2C       		.uleb128 0x2c
 2883 0359 F7       		.byte	0xf7
 2884 035a 25       		.uleb128 0x25
 2885 035b F4       		.byte	0xf4
 2886 035c 25       		.uleb128 0x25
 2887 035d 04       		.byte	0x4
 2888 035e 00000030 		.4byte	0x30000000
 2889 0362 1E       		.byte	0x1e
 2890 0363 9F       		.byte	0x9f
 2891 0364 00000000 		.4byte	0
 2892 0368 00000000 		.4byte	0
 2893              	.LLST23:
 2894 036c 00000000 		.4byte	.LVL44
 2895 0370 0C000000 		.4byte	.LVL45
 2896 0374 0200     		.2byte	0x2
 2897 0376 31       		.byte	0x31
 2898 0377 9F       		.byte	0x9f
 2899 0378 00000000 		.4byte	0
ARM GAS  C:\msys64\tmp\cc52KdML.s 			page 52


 2900 037c 00000000 		.4byte	0
 2901              	.LLST24:
 2902 0380 00000000 		.4byte	.LVL44
 2903 0384 0C000000 		.4byte	.LVL45
 2904 0388 0400     		.2byte	0x4
 2905 038a 0A       		.byte	0xa
 2906 038b FFFF     		.2byte	0xffff
 2907 038d 9F       		.byte	0x9f
 2908 038e 00000000 		.4byte	0
 2909 0392 00000000 		.4byte	0
 2910              		.section	.debug_aranges,"",%progbits
 2911 0000 24000000 		.4byte	0x24
 2912 0004 0200     		.2byte	0x2
 2913 0006 00000000 		.4byte	.Ldebug_info0
 2914 000a 04       		.byte	0x4
 2915 000b 00       		.byte	0
 2916 000c 0000     		.2byte	0
 2917 000e 0000     		.2byte	0
 2918 0010 00000000 		.4byte	.Ltext0
 2919 0014 04030000 		.4byte	.Letext0-.Ltext0
 2920 0018 00000000 		.4byte	.LFB269
 2921 001c 14000000 		.4byte	.LFE269-.LFB269
 2922 0020 00000000 		.4byte	0
 2923 0024 00000000 		.4byte	0
 2924              		.section	.debug_ranges,"",%progbits
 2925              	.Ldebug_ranges0:
 2926 0000 00000000 		.4byte	.LBB35
 2927 0004 08000000 		.4byte	.LBE35
 2928 0008 0A000000 		.4byte	.LBB38
 2929 000c 1E000000 		.4byte	.LBE38
 2930 0010 00000000 		.4byte	0
 2931 0014 00000000 		.4byte	0
 2932 0018 6E000000 		.4byte	.LBB43
 2933 001c 78000000 		.4byte	.LBE43
 2934 0020 7C000000 		.4byte	.LBB68
 2935 0024 9C000000 		.4byte	.LBE68
 2936 0028 A8000000 		.4byte	.LBB69
 2937 002c B0000000 		.4byte	.LBE69
 2938 0030 BC000000 		.4byte	.LBB70
 2939 0034 18020000 		.4byte	.LBE70
 2940 0038 1A020000 		.4byte	.LBB71
 2941 003c 20020000 		.4byte	.LBE71
 2942 0040 00000000 		.4byte	0
 2943 0044 00000000 		.4byte	0
 2944 0048 7C000000 		.4byte	.LBB44
 2945 004c 84000000 		.4byte	.LBE44
 2946 0050 D4000000 		.4byte	.LBB51
 2947 0054 E0000000 		.4byte	.LBE51
 2948 0058 00000000 		.4byte	0
 2949 005c 00000000 		.4byte	0
 2950 0060 BC000000 		.4byte	.LBB47
 2951 0064 BE000000 		.4byte	.LBE47
 2952 0068 C6000000 		.4byte	.LBB50
 2953 006c D0000000 		.4byte	.LBE50
 2954 0070 00000000 		.4byte	0
 2955 0074 00000000 		.4byte	0
 2956 0078 F8000000 		.4byte	.LBB52
ARM GAS  C:\msys64\tmp\cc52KdML.s 			page 53


 2957 007c 0C010000 		.4byte	.LBE52
 2958 0080 10010000 		.4byte	.LBB55
 2959 0084 14010000 		.4byte	.LBE55
 2960 0088 00000000 		.4byte	0
 2961 008c 00000000 		.4byte	0
 2962 0090 8A010000 		.4byte	.LBB56
 2963 0094 8E010000 		.4byte	.LBE56
 2964 0098 92010000 		.4byte	.LBB60
 2965 009c 96010000 		.4byte	.LBE60
 2966 00a0 9A010000 		.4byte	.LBB61
 2967 00a4 A2010000 		.4byte	.LBE61
 2968 00a8 00000000 		.4byte	0
 2969 00ac 00000000 		.4byte	0
 2970 00b0 00020000 		.4byte	.LBB62
 2971 00b4 0C020000 		.4byte	.LBE62
 2972 00b8 10020000 		.4byte	.LBB66
 2973 00bc 18020000 		.4byte	.LBE66
 2974 00c0 1A020000 		.4byte	.LBB67
 2975 00c4 20020000 		.4byte	.LBE67
 2976 00c8 00000000 		.4byte	0
 2977 00cc 00000000 		.4byte	0
 2978 00d0 00000000 		.4byte	.Ltext0
 2979 00d4 04030000 		.4byte	.Letext0
 2980 00d8 00000000 		.4byte	.LFB269
 2981 00dc 14000000 		.4byte	.LFE269
 2982 00e0 00000000 		.4byte	0
 2983 00e4 00000000 		.4byte	0
 2984              		.section	.debug_line,"",%progbits
 2985              	.Ldebug_line0:
 2986 0000 DB030000 		.section	.debug_str,"MS",%progbits,1
 2986      02006402 
 2986      00000201 
 2986      FB0E0D00 
 2986      01010101 
 2987              	.LASF95:
 2988 0000 433A5C75 		.ascii	"C:\\users\\bradl\\desktop\\Code Projects\\KorgFX\\K"
 2988      73657273 
 2988      5C627261 
 2988      646C5C64 
 2988      65736B74 
 2989 002d 6F726744 		.ascii	"orgDelayFXSet\\Delays\\platform\\minilogue-xd\\Ping"
 2989      656C6179 
 2989      46585365 
 2989      745C4465 
 2989      6C617973 
 2990 005c 506F6E67 		.ascii	"PongDelay\000"
 2990      44656C61 
 2990      7900
 2991              	.LASF57:
 2992 0066 5F5A4E33 		.ascii	"_ZN3dsp13DualDelayLine9read1FracEf\000"
 2992      64737031 
 2992      33447561 
 2992      6C44656C 
 2992      61794C69 
 2993              	.LASF40:
 2994 0089 77726974 		.ascii	"write\000"
 2994      6500
ARM GAS  C:\msys64\tmp\cc52KdML.s 			page 54


 2995              	.LASF69:
 2996 008f 6672616D 		.ascii	"frames\000"
 2996      657300
 2997              	.LASF38:
 2998 0096 5F5A4E33 		.ascii	"_ZN3dsp13DualDelayLine5clearEv\000"
 2998      64737031 
 2998      33447561 
 2998      6C44656C 
 2998      61794C69 
 2999              	.LASF36:
 3000 00b5 636C6561 		.ascii	"clear\000"
 3000      7200
 3001              	.LASF96:
 3002 00bb 6465636C 		.ascii	"decltype(nullptr)\000"
 3002      74797065 
 3002      286E756C 
 3002      6C707472 
 3002      2900
 3003              	.LASF101:
 3004 00cd 5F474C4F 		.ascii	"_GLOBAL__sub_I_s_len\000"
 3004      42414C5F 
 3004      5F737562 
 3004      5F495F73 
 3004      5F6C656E 
 3005              	.LASF51:
 3006 00e2 5F5A4E33 		.ascii	"_ZN3dsp13DualDelayLine5read1Em\000"
 3006      64737031 
 3006      33447561 
 3006      6C44656C 
 3006      61794C69 
 3007              	.LASF30:
 3008 0101 6D53697A 		.ascii	"mSize\000"
 3008      6500
 3009              	.LASF16:
 3010 0107 73697A65 		.ascii	"size_t\000"
 3010      5F7400
 3011              	.LASF76:
 3012 010e 6B5F6678 		.ascii	"k_fx_api_platform\000"
 3012      5F617069 
 3012      5F706C61 
 3012      74666F72 
 3012      6D00
 3013              	.LASF18:
 3014 0120 73697A65 		.ascii	"sizetype\000"
 3014      74797065 
 3014      00
 3015              	.LASF82:
 3016 0129 706F7732 		.ascii	"pow2_lut_f\000"
 3016      5F6C7574 
 3016      5F6600
 3017              	.LASF33:
 3018 0134 4475616C 		.ascii	"DualDelayLine\000"
 3018      44656C61 
 3018      794C696E 
 3018      6500
 3019              	.LASF83:
 3020 0142 63756269 		.ascii	"cubicsat_lut_f\000"
ARM GAS  C:\msys64\tmp\cc52KdML.s 			page 55


 3020      63736174 
 3020      5F6C7574 
 3020      5F6600
 3021              	.LASF8:
 3022 0151 5F5F7569 		.ascii	"__uint32_t\000"
 3022      6E743332 
 3022      5F7400
 3023              	.LASF85:
 3024 015c 62697472 		.ascii	"bitres_lut_f\000"
 3024      65735F6C 
 3024      75745F66 
 3024      00
 3025              	.LASF58:
 3026 0169 72656164 		.ascii	"read1Fracz\000"
 3026      31467261 
 3026      637A00
 3027              	.LASF20:
 3028 0174 646F7562 		.ascii	"double\000"
 3028      6C6500
 3029              	.LASF3:
 3030 017b 73686F72 		.ascii	"short int\000"
 3030      7420696E 
 3030      7400
 3031              	.LASF7:
 3032 0185 6C6F6E67 		.ascii	"long int\000"
 3032      20696E74 
 3032      00
 3033              	.LASF49:
 3034 018e 5F5A4E33 		.ascii	"_ZN3dsp13DualDelayLine5read0Em\000"
 3034      64737031 
 3034      33447561 
 3034      6C44656C 
 3034      61794C69 
 3035              	.LASF27:
 3036 01ad 6B5F6E75 		.ascii	"k_num_user_modules\000"
 3036      6D5F7573 
 3036      65725F6D 
 3036      6F64756C 
 3036      657300
 3037              	.LASF29:
 3038 01c0 6D467261 		.ascii	"mFracZ\000"
 3038      635A00
 3039              	.LASF74:
 3040 01c7 696E6465 		.ascii	"index\000"
 3040      7800
 3041              	.LASF31:
 3042 01cd 6D4D6173 		.ascii	"mMask\000"
 3042      6B00
 3043              	.LASF26:
 3044 01d3 6B5F7573 		.ascii	"k_user_module_osc\000"
 3044      65725F6D 
 3044      6F64756C 
 3044      655F6F73 
 3044      6300
 3045              	.LASF41:
 3046 01e5 5F5A4E33 		.ascii	"_ZN3dsp13DualDelayLine5writeERK9f32pair_t\000"
 3046      64737031 
ARM GAS  C:\msys64\tmp\cc52KdML.s 			page 56


 3046      33447561 
 3046      6C44656C 
 3046      61794C69 
 3047              	.LASF53:
 3048 020f 5F5A4E33 		.ascii	"_ZN3dsp13DualDelayLine9read0FracEf\000"
 3048      64737031 
 3048      33447561 
 3048      6C44656C 
 3048      61794C69 
 3049              	.LASF47:
 3050 0232 5F5A4E33 		.ascii	"_ZN3dsp13DualDelayLine9readFraczEmf\000"
 3050      64737031 
 3050      33447561 
 3050      6C44656C 
 3050      61794C69 
 3051              	.LASF1:
 3052 0256 7369676E 		.ascii	"signed char\000"
 3052      65642063 
 3052      68617200 
 3053              	.LASF56:
 3054 0262 72656164 		.ascii	"read1Frac\000"
 3054      31467261 
 3054      6300
 3055              	.LASF0:
 3056 026c 666C6F61 		.ascii	"float\000"
 3056      7400
 3057              	.LASF84:
 3058 0272 73636865 		.ascii	"schetzen_lut_f\000"
 3058      747A656E 
 3058      5F6C7574 
 3058      5F6600
 3059              	.LASF86:
 3060 0281 735F6465 		.ascii	"s_delay\000"
 3060      6C617900 
 3061              	.LASF42:
 3062 0289 72656164 		.ascii	"read\000"
 3062      00
 3063              	.LASF73:
 3064 028e 5F686F6F 		.ascii	"_hook_param\000"
 3064      6B5F7061 
 3064      72616D00 
 3065              	.LASF10:
 3066 029a 6C6F6E67 		.ascii	"long long int\000"
 3066      206C6F6E 
 3066      6720696E 
 3066      7400
 3067              	.LASF48:
 3068 02a8 72656164 		.ascii	"read0\000"
 3068      3000
 3069              	.LASF50:
 3070 02ae 72656164 		.ascii	"read1\000"
 3070      3100
 3071              	.LASF89:
 3072 02b4 735F6D69 		.ascii	"s_mix\000"
 3072      7800
 3073              	.LASF88:
 3074 02ba 735F6C65 		.ascii	"s_len\000"
ARM GAS  C:\msys64\tmp\cc52KdML.s 			page 57


 3074      6E00
 3075              	.LASF63:
 3076 02c0 77617665 		.ascii	"waveshape\000"
 3076      73686170 
 3076      6500
 3077              	.LASF79:
 3078 02ca 6C6F675F 		.ascii	"log_lut_f\000"
 3078      6C75745F 
 3078      6600
 3079              	.LASF71:
 3080 02d4 64656C53 		.ascii	"delSample1\000"
 3080      616D706C 
 3080      653100
 3081              	.LASF72:
 3082 02df 64656C53 		.ascii	"delSample2\000"
 3082      616D706C 
 3082      653200
 3083              	.LASF64:
 3084 02ea 5F5F696E 		.ascii	"__initialize_p\000"
 3084      69746961 
 3084      6C697A65 
 3084      5F7000
 3085              	.LASF2:
 3086 02f9 756E7369 		.ascii	"unsigned char\000"
 3086      676E6564 
 3086      20636861 
 3086      7200
 3087              	.LASF17:
 3088 0307 6C6F6E67 		.ascii	"long double\000"
 3088      20646F75 
 3088      626C6500 
 3089              	.LASF23:
 3090 0313 6B5F7573 		.ascii	"k_user_module_modfx\000"
 3090      65725F6D 
 3090      6F64756C 
 3090      655F6D6F 
 3090      64667800 
 3091              	.LASF44:
 3092 0327 5F5A4E33 		.ascii	"_ZN3dsp13DualDelayLine4readEm\000"
 3092      64737031 
 3092      33447561 
 3092      6C44656C 
 3092      61794C69 
 3093              	.LASF60:
 3094 0345 6C696E65 		.ascii	"line_size\000"
 3094      5F73697A 
 3094      6500
 3095              	.LASF93:
 3096 034f 474E5520 		.ascii	"GNU C++11 5.4.1 20160919 (release) [ARM/embedded-5-"
 3096      432B2B31 
 3096      3120352E 
 3096      342E3120 
 3096      32303136 
 3097 0382 6272616E 		.ascii	"branch revision 240496] -mcpu=cortex-m4 -mthumb -mn"
 3097      63682072 
 3097      65766973 
 3097      696F6E20 
ARM GAS  C:\msys64\tmp\cc52KdML.s 			page 58


 3097      32343034 
 3098 03b5 6F2D7468 		.ascii	"o-thumb-interwork -mlittle-endian -mfloat-abi=hard "
 3098      756D622D 
 3098      696E7465 
 3098      72776F72 
 3098      6B202D6D 
 3099 03e8 2D6D6670 		.ascii	"-mfpu=fpv4-sp-d16 -g -Os -std=c++11 -fsingle-precis"
 3099      753D6670 
 3099      76342D73 
 3099      702D6431 
 3099      36202D67 
 3100 041b 696F6E2D 		.ascii	"ion-constant -fcheck-new -fno-rtti -fno-exceptions "
 3100      636F6E73 
 3100      74616E74 
 3100      202D6663 
 3100      6865636B 
 3101 044e 2D666E6F 		.ascii	"-fno-non-call-exceptions\000"
 3101      2D6E6F6E 
 3101      2D63616C 
 3101      6C2D6578 
 3101      63657074 
 3102              	.LASF11:
 3103 0467 6C6F6E67 		.ascii	"long long unsigned int\000"
 3103      206C6F6E 
 3103      6720756E 
 3103      7369676E 
 3103      65642069 
 3104              	.LASF34:
 3105 047e 5F5A4E33 		.ascii	"_ZN3dsp13DualDelayLineC4Ev\000"
 3105      64737031 
 3105      33447561 
 3105      6C44656C 
 3105      61794C69 
 3106              	.LASF15:
 3107 0499 75696E74 		.ascii	"uint32_t\000"
 3107      33325F74 
 3107      00
 3108              	.LASF12:
 3109 04a2 756E7369 		.ascii	"unsigned int\000"
 3109      676E6564 
 3109      20696E74 
 3109      00
 3110              	.LASF35:
 3111 04af 5F5A4E33 		.ascii	"_ZN3dsp13DualDelayLineC4EP9f32pair_tj\000"
 3111      64737031 
 3111      33447561 
 3111      6C44656C 
 3111      61794C69 
 3112              	.LASF98:
 3113 04d5 5F5A4E33 		.ascii	"_ZN3dsp13DualDelayLine10read1FraczEmf\000"
 3113      64737031 
 3113      33447561 
 3113      6C44656C 
 3113      61794C69 
 3114              	.LASF61:
 3115 04fb 6E657874 		.ascii	"nextpow2_u32\000"
 3115      706F7732 
ARM GAS  C:\msys64\tmp\cc52KdML.s 			page 59


 3115      5F753332 
 3115      00
 3116              	.LASF28:
 3117 0508 6D4C696E 		.ascii	"mLine\000"
 3117      6500
 3118              	.LASF37:
 3119 050e 7365744D 		.ascii	"setMemory\000"
 3119      656D6F72 
 3119      7900
 3120              	.LASF4:
 3121 0518 73686F72 		.ascii	"short unsigned int\000"
 3121      7420756E 
 3121      7369676E 
 3121      65642069 
 3121      6E7400
 3122              	.LASF78:
 3123 052b 77745F73 		.ascii	"wt_sine_lut_f\000"
 3123      696E655F 
 3123      6C75745F 
 3123      6600
 3124              	.LASF94:
 3125 0539 2E2F7372 		.ascii	"./src/pingpong.cpp\000"
 3125      632F7069 
 3125      6E67706F 
 3125      6E672E63 
 3125      707000
 3126              	.LASF87:
 3127 054c 735F6465 		.ascii	"s_delay_ram\000"
 3127      6C61795F 
 3127      72616D00 
 3128              	.LASF32:
 3129 0558 6D577269 		.ascii	"mWriteIdx\000"
 3129      74654964 
 3129      7800
 3130              	.LASF19:
 3131 0562 63686172 		.ascii	"char\000"
 3131      00
 3132              	.LASF46:
 3133 0567 72656164 		.ascii	"readFracz\000"
 3133      46726163 
 3133      7A00
 3134              	.LASF14:
 3135 0571 696E7433 		.ascii	"int32_t\000"
 3135      325F7400 
 3136              	.LASF99:
 3137 0579 6275665F 		.ascii	"buf_clr_f32\000"
 3137      636C725F 
 3137      66333200 
 3138              	.LASF75:
 3139 0585 76616C75 		.ascii	"value\000"
 3139      6500
 3140              	.LASF100:
 3141 058b 5F5F7374 		.ascii	"__static_initialization_and_destruction_0\000"
 3141      61746963 
 3141      5F696E69 
 3141      7469616C 
 3141      697A6174 
ARM GAS  C:\msys64\tmp\cc52KdML.s 			page 60


 3142              	.LASF65:
 3143 05b5 5F5F7072 		.ascii	"__priority\000"
 3143      696F7269 
 3143      747900
 3144              	.LASF59:
 3145 05c0 74686973 		.ascii	"this\000"
 3145      00
 3146              	.LASF80:
 3147 05c5 74616E70 		.ascii	"tanpi_lut_f\000"
 3147      695F6C75 
 3147      745F6600 
 3148              	.LASF55:
 3149 05d1 5F5A4E33 		.ascii	"_ZN3dsp13DualDelayLine10read0FraczEmf\000"
 3149      64737031 
 3149      33447561 
 3149      6C44656C 
 3149      61794C69 
 3150              	.LASF25:
 3151 05f7 6B5F7573 		.ascii	"k_user_module_revfx\000"
 3151      65725F6D 
 3151      6F64756C 
 3151      655F7265 
 3151      76667800 
 3152              	.LASF67:
 3153 060b 706C6174 		.ascii	"platform\000"
 3153      666F726D 
 3153      00
 3154              	.LASF9:
 3155 0614 6C6F6E67 		.ascii	"long unsigned int\000"
 3155      20756E73 
 3155      69676E65 
 3155      6420696E 
 3155      7400
 3156              	.LASF70:
 3157 0626 76616C66 		.ascii	"valf\000"
 3157      00
 3158              	.LASF62:
 3159 062b 66617374 		.ascii	"fastertanhf\000"
 3159      65727461 
 3159      6E686600 
 3160              	.LASF54:
 3161 0637 72656164 		.ascii	"read0Fracz\000"
 3161      30467261 
 3161      637A00
 3162              	.LASF66:
 3163 0642 5F686F6F 		.ascii	"_hook_init\000"
 3163      6B5F696E 
 3163      697400
 3164              	.LASF90:
 3165 064d 6761696E 		.ascii	"gain\000"
 3165      00
 3166              	.LASF43:
 3167 0652 72656164 		.ascii	"readFrac\000"
 3167      46726163 
 3167      00
 3168              	.LASF6:
 3169 065b 5F5F696E 		.ascii	"__int32_t\000"
ARM GAS  C:\msys64\tmp\cc52KdML.s 			page 61


 3169      7433325F 
 3169      7400
 3170              	.LASF39:
 3171 0665 5F5A4E33 		.ascii	"_ZN3dsp13DualDelayLine9setMemoryEP9f32pair_tj\000"
 3171      64737031 
 3171      33447561 
 3171      6C44656C 
 3171      61794C69 
 3172              	.LASF21:
 3173 0693 66333270 		.ascii	"f32pair_t\000"
 3173      6169725F 
 3173      7400
 3174              	.LASF97:
 3175 069d 39663332 		.ascii	"9f32pair_t\000"
 3175      70616972 
 3175      5F7400
 3176              	.LASF13:
 3177 06a8 75696E74 		.ascii	"uint8_t\000"
 3177      385F7400 
 3178              	.LASF102:
 3179 06b0 5F66785F 		.ascii	"_fx_get_bpm\000"
 3179      6765745F 
 3179      62706D00 
 3180              	.LASF45:
 3181 06bc 5F5A4E33 		.ascii	"_ZN3dsp13DualDelayLine8readFracEf\000"
 3181      64737031 
 3181      33447561 
 3181      6C44656C 
 3181      61794C69 
 3182              	.LASF81:
 3183 06de 73717274 		.ascii	"sqrtm2log_lut_f\000"
 3183      6D326C6F 
 3183      675F6C75 
 3183      745F6600 
 3184              	.LASF22:
 3185 06ee 6B5F7573 		.ascii	"k_user_module_global\000"
 3185      65725F6D 
 3185      6F64756C 
 3185      655F676C 
 3185      6F62616C 
 3186              	.LASF91:
 3187 0703 77657458 		.ascii	"wetXNL\000"
 3187      4E4C00
 3188              	.LASF77:
 3189 070a 6B5F6678 		.ascii	"k_fx_api_version\000"
 3189      5F617069 
 3189      5F766572 
 3189      73696F6E 
 3189      00
 3190              	.LASF68:
 3191 071b 5F686F6F 		.ascii	"_hook_process\000"
 3191      6B5F7072 
 3191      6F636573 
 3191      7300
 3192              	.LASF52:
 3193 0729 72656164 		.ascii	"read0Frac\000"
 3193      30467261 
ARM GAS  C:\msys64\tmp\cc52KdML.s 			page 62


 3193      6300
 3194              	.LASF92:
 3195 0733 77657458 		.ascii	"wetXNR\000"
 3195      4E5200
 3196              	.LASF24:
 3197 073a 6B5F7573 		.ascii	"k_user_module_delfx\000"
 3197      65725F6D 
 3197      6F64756C 
 3197      655F6465 
 3197      6C667800 
 3198              	.LASF5:
 3199 074e 5F5F7569 		.ascii	"__uint8_t\000"
 3199      6E74385F 
 3199      7400
 3200              		.ident	"GCC: (GNU Tools for ARM Embedded Processors) 5.4.1 20160919 (release) [ARM/embedded-5-bran
ARM GAS  C:\msys64\tmp\cc52KdML.s 			page 63


DEFINED SYMBOLS
                            *ABS*:00000000 pingpong.cpp
C:\msys64\tmp\cc52KdML.s:21     .text:00000000 $t
C:\msys64\tmp\cc52KdML.s:26     .text:00000000 _hook_init
C:\msys64\tmp\cc52KdML.s:116    .text:00000058 $d
C:\msys64\tmp\cc52KdML.s:126    .text:00000064 $t
C:\msys64\tmp\cc52KdML.s:131    .text:00000064 _hook_process
C:\msys64\tmp\cc52KdML.s:446    .text:00000238 $d
C:\msys64\tmp\cc52KdML.s:462    .text:0000026c $t
C:\msys64\tmp\cc52KdML.s:467    .text:0000026c _hook_param
C:\msys64\tmp\cc52KdML.s:566    .text:000002f8 $d
C:\msys64\tmp\cc52KdML.s:573    .text.startup:00000000 $t
C:\msys64\tmp\cc52KdML.s:577    .text.startup:00000000 _GLOBAL__sub_I_s_len
C:\msys64\tmp\cc52KdML.s:600    .text.startup:00000010 $d
C:\msys64\tmp\cc52KdML.s:608    .init_array:00000000 $d
C:\msys64\tmp\cc52KdML.s:623    .bss:00000018 bpm
C:\msys64\tmp\cc52KdML.s:643    .bss:0000002c wetXNR
C:\msys64\tmp\cc52KdML.s:639    .bss:00000028 wetXNL
C:\msys64\tmp\cc52KdML.s:627    .bss:0000001c s_len
C:\msys64\tmp\cc52KdML.s:615    .bss:00000000 $d
C:\msys64\tmp\cc52KdML.s:619    .bss:00000000 _ZL7s_delay
C:\msys64\tmp\cc52KdML.s:631    .bss:00000020 _ZL5s_mix
C:\msys64\tmp\cc52KdML.s:635    .bss:00000024 _ZL4gain
C:\msys64\tmp\cc52KdML.s:646    .sdram:00000000 $d
C:\msys64\tmp\cc52KdML.s:650    .sdram:00000000 _ZL11s_delay_ram
                     .debug_frame:00000010 $d

UNDEFINED SYMBOLS
_fx_get_bpm
__aeabi_f2d
__aeabi_dmul
__aeabi_dadd
__aeabi_d2f
