
build/FlangerFX.elf:     file format elf32-littlearm


Disassembly of section .text:

20019044 <_text_start>:
20019044:	4770      	bx	lr

20019046 <_hook_resume>:
20019046:	4770      	bx	lr
20019048:	4770      	bx	lr

2001904a <_hook_suspend>:
2001904a:	4770      	bx	lr
2001904c:	4770      	bx	lr

2001904e <_entry>:
2001904e:	4b10      	ldr	r3, [pc, #64]	; (20019090 <_entry+0x42>)
20019050:	4a10      	ldr	r2, [pc, #64]	; (20019094 <_entry+0x46>)
20019052:	e92d 41f0 	stmdb	sp!, {r4, r5, r6, r7, r8, lr}
20019056:	4688      	mov	r8, r1
20019058:	4607      	mov	r7, r0
2001905a:	2100      	movs	r1, #0
2001905c:	4293      	cmp	r3, r2
2001905e:	d002      	beq.n	20019066 <_entry+0x18>
20019060:	f803 1f01 	strb.w	r1, [r3, #1]!
20019064:	e7fa      	b.n	2001905c <_entry+0xe>
20019066:	4b0c      	ldr	r3, [pc, #48]	; (20019098 <_entry+0x4a>)
20019068:	4c0c      	ldr	r4, [pc, #48]	; (2001909c <_entry+0x4e>)
2001906a:	1ae4      	subs	r4, r4, r3
2001906c:	10a4      	asrs	r4, r4, #2
2001906e:	2500      	movs	r5, #0
20019070:	461e      	mov	r6, r3
20019072:	42a5      	cmp	r5, r4
20019074:	d005      	beq.n	20019082 <_entry+0x34>
20019076:	f856 3025 	ldr.w	r3, [r6, r5, lsl #2]
2001907a:	b103      	cbz	r3, 2001907e <_entry+0x30>
2001907c:	4798      	blx	r3
2001907e:	3501      	adds	r5, #1
20019080:	e7f7      	b.n	20019072 <_entry+0x24>
20019082:	4641      	mov	r1, r8
20019084:	4638      	mov	r0, r7
20019086:	f000 f80b 	bl	200190a0 <_hook_init>
2001908a:	e8bd 81f0 	ldmia.w	sp!, {r4, r5, r6, r7, r8, pc}
2001908e:	bf00      	nop
20019090:	2001937f 	.word	0x2001937f
20019094:	200193af 	.word	0x200193af
20019098:	20019040 	.word	0x20019040
2001909c:	20019044 	.word	0x20019044

200190a0 <_hook_init>:
     *
     * @note Will round size to next power of two.
     */
    inline __attribute__((optimize("Ofast"),always_inline))
    void setMemory(float *ram, size_t line_size) {
      mLine = ram;
200190a0:	4b15      	ldr	r3, [pc, #84]	; (200190f8 <_hook_init+0x58>)
200190a2:	4916      	ldr	r1, [pc, #88]	; (200190fc <_hook_init+0x5c>)
200190a4:	6019      	str	r1, [r3, #0]
      mSize = nextpow2_u32(line_size); // must be power of 2
200190a6:	f44f 2280 	mov.w	r2, #262144	; 0x40000
200190aa:	609a      	str	r2, [r3, #8]
      mMask = (mSize-1);
200190ac:	3a01      	subs	r2, #1
200190ae:	60da      	str	r2, [r3, #12]
      mWriteIdx = 0;
200190b0:	2200      	movs	r2, #0
200190b2:	611a      	str	r2, [r3, #16]
void buf_clr_f32(float * __restrict__ ptr,
                 const uint32_t len)
{
  const float *end = ptr + ((len>>2)<<2);
  for (; ptr != end; ) {
    REP4(*(ptr++) = 0);
200190b4:	2000      	movs	r0, #0
200190b6:	f101 0210 	add.w	r2, r1, #16
200190ba:	f101 1110 	add.w	r1, r1, #1048592	; 0x100010
200190be:	f842 0c10 	str.w	r0, [r2, #-16]
200190c2:	f842 0c0c 	str.w	r0, [r2, #-12]
200190c6:	f842 0c08 	str.w	r0, [r2, #-8]
200190ca:	f842 0c04 	str.w	r0, [r2, #-4]
200190ce:	3210      	adds	r2, #16
static inline __attribute__((optimize("Ofast"),always_inline))
void buf_clr_f32(float * __restrict__ ptr,
                 const uint32_t len)
{
  const float *end = ptr + ((len>>2)<<2);
  for (; ptr != end; ) {
200190d0:	4291      	cmp	r1, r2
200190d2:	d1f4      	bne.n	200190be <_hook_init+0x1e>
     * Reset phase
     */
    inline __attribute__((optimize("Ofast"),always_inline))
    void reset(void) 
    {
      phi0 = 0x80000000;
200190d4:	f04f 4200 	mov.w	r2, #2147483648	; 0x80000000
200190d8:	615a      	str	r2, [r3, #20]
void DELFX_INIT(uint32_t platform, uint32_t api)
{
  s_delay.setMemory(s_delay_ram, BUF_SIZE);  
  s_delay.clear();
  s_lfo.reset();
  s_mix = .5f;
200190da:	f04f 527c 	mov.w	r2, #1056964608	; 0x3f000000
200190de:	61da      	str	r2, [r3, #28]
  s_lfo.setF0(lfo_speed, k_samplerate_recipf);
200190e0:	4a07      	ldr	r2, [pc, #28]	; (20019100 <_hook_init+0x60>)
     * param fsrecip Reciprocal of sampling frequency (1/Fs)
     */
    inline __attribute__((optimize("Ofast"),always_inline))
    void setF0(const float f0, const float fsrecip) 
    {
      w0 = f32_to_q31(2.f * f0 * fsrecip);
200190e2:	ed9f 7a08 	vldr	s14, [pc, #32]	; 20019104 <_hook_init+0x64>
200190e6:	edd2 7a00 	vldr	s15, [r2]
200190ea:	ee67 7a87 	vmul.f32	s15, s15, s14
200190ee:	eefe 7ac0 	vcvt.s32.f32	s15, s15, #32
200190f2:	edc3 7a06 	vstr	s15, [r3, #24]
200190f6:	4770      	bx	lr
200190f8:	20019380 	.word	0x20019380
200190fc:	c0420000 	.word	0xc0420000
20019100:	20019378 	.word	0x20019378
20019104:	37aec33e 	.word	0x37aec33e

20019108 <_hook_process>:
}

void DELFX_PROCESS(float *xn, uint32_t frames)
{
20019108:	e92d 4ff0 	stmdb	sp!, {r4, r5, r6, r7, r8, r9, sl, fp, lr}
  float * __restrict x = xn;
  const float * x_e = x + 2*frames;

  const float wet = s_mix;
2001910c:	4b72      	ldr	r3, [pc, #456]	; (200192d8 <_hook_process+0x1d0>)
     * Get value of bipolar sine wave for current phase 
     */
    inline __attribute__((optimize("Ofast"),always_inline))
    float sine_bi(void) 
    {
      const float phif = q31_to_f32(phi0);
2001910e:	ed9f 1a73 	vldr	s2, [pc, #460]	; 200192dc <_hook_process+0x1d4>
20019112:	f8d3 8014 	ldr.w	r8, [r3, #20]
20019116:	691d      	ldr	r5, [r3, #16]
20019118:	edd3 2a07 	vldr	s5, [r3, #28]
     * @param pos Offset from write index
     * @return Sample at given position from write index
     */
    inline __attribute__((optimize("Ofast"),always_inline))
    float read(const uint32_t pos) {
      return mLine[(mWriteIdx + pos) & mMask];
2001911c:	681f      	ldr	r7, [r3, #0]
2001911e:	f8d3 e00c 	ldr.w	lr, [r3, #12]
     * Step phase one cycle forward
     */
    inline __attribute__((optimize("Ofast"),always_inline))
    void cycle(void)
    {
      phi0 += w0;
20019122:	699e      	ldr	r6, [r3, #24]

  for (; x != x_e ; x+=2) 
  {
    const float lfo_cycle = s_lfo.sine_bi();

    const float delSampleL = gain * (s_delay.readFrac(288 + (240 * lfo_cycle)));
20019124:	eddf 1a6e 	vldr	s3, [pc, #440]	; 200192e0 <_hook_process+0x1d8>
20019128:	ed9f 2a6e 	vldr	s4, [pc, #440]	; 200192e4 <_hook_process+0x1dc>
    s_lfo.cycle();

    wetXNL = wet * delSampleL;
    wetXNR = wet * delSampleR;

    *x += fastertanhf(waveshape(wetXNL));
2001912c:	ed9f 3a6e 	vldr	s6, [pc, #440]	; 200192e8 <_hook_process+0x1e0>
20019130:	eddf 3a6e 	vldr	s7, [pc, #440]	; 200192ec <_hook_process+0x1e4>
20019134:	ed9f 4a6e 	vldr	s8, [pc, #440]	; 200192f0 <_hook_process+0x1e8>
20019138:	eddf 4a6e 	vldr	s9, [pc, #440]	; 200192f4 <_hook_process+0x1ec>
2001913c:	ed9f 5a6e 	vldr	s10, [pc, #440]	; 200192f8 <_hook_process+0x1f0>
20019140:	eddf 5a6e 	vldr	s11, [pc, #440]	; 200192fc <_hook_process+0x1f4>
  s_mix = .5f;
  s_lfo.setF0(lfo_speed, k_samplerate_recipf);
}

void DELFX_PROCESS(float *xn, uint32_t frames)
{
20019144:	ed2d 8b02 	vpush	{d8}
  float * __restrict x = xn;
  const float * x_e = x + 2*frames;
20019148:	00c9      	lsls	r1, r1, #3
2001914a:	eb00 0a01 	add.w	sl, r0, r1
2001914e:	46c4      	mov	ip, r8
20019150:	462a      	mov	r2, r5

  const float wet = s_mix;
  const float dry = 1.f - s_mix;

  for (; x != x_e ; x+=2) 
20019152:	4582      	cmp	sl, r0
20019154:	ee07 ca90 	vmov	s15, ip
20019158:	f100 0408 	add.w	r4, r0, #8
2001915c:	f1a2 0902 	sub.w	r9, r2, #2
20019160:	44b4      	add	ip, r6
20019162:	f000 80ae 	beq.w	200192c2 <_hook_process+0x1ba>
     * Get value of bipolar sine wave for current phase 
     */
    inline __attribute__((optimize("Ofast"),always_inline))
    float sine_bi(void) 
    {
      const float phif = q31_to_f32(phi0);
20019166:	eef8 7ae7 	vcvt.f32.s32	s15, s15
  {
    const float lfo_cycle = s_lfo.sine_bi();

    const float delSampleL = gain * (s_delay.readFrac(288 + (240 * lfo_cycle)));
2001916a:	eef7 6a00 	vmov.f32	s13, #112	; 0x3f800000  1.0
2001916e:	ee27 7a81 	vmul.f32	s14, s15, s2
float wetXNL, wetXNR;
float bpm_valf;

float __fast_inline waveshape(float in) 
{
    return 1.5f * in - 0.5f * in *in * in;
20019172:	eeb7 8a08 	vmov.f32	s16, #120	; 0x3fc00000  1.5
 */
static inline __attribute__((optimize("Ofast"),always_inline))
float si_fabsf(float x)
{
  f32_t xs = {x};
  xs.i &= 0x7fffffff;
20019176:	ee17 0a10 	vmov	r0, s14
2001917a:	f020 4000 	bic.w	r0, r0, #2147483648	; 0x80000000
2001917e:	ee07 0a90 	vmov	s15, r0

  for (; x != x_e ; x+=2) 
  {
    const float lfo_cycle = s_lfo.sine_bi();

    const float delSampleL = gain * (s_delay.readFrac(288 + (240 * lfo_cycle)));
20019182:	ee77 7ae6 	vsub.f32	s15, s15, s13
    s_lfo.cycle();

    wetXNL = wet * delSampleL;
    wetXNR = wet * delSampleR;

    *x += fastertanhf(waveshape(wetXNL));
20019186:	eeb0 6a44 	vmov.f32	s12, s8

  for (; x != x_e ; x+=2) 
  {
    const float lfo_cycle = s_lfo.sine_bi();

    const float delSampleL = gain * (s_delay.readFrac(288 + (240 * lfo_cycle)));
2001918a:	ee67 7a87 	vmul.f32	s15, s15, s14
2001918e:	eeb1 7a00 	vmov.f32	s14, #16	; 0x40800000  4.0
20019192:	ee67 7a87 	vmul.f32	s15, s15, s14
20019196:	eeb0 7a42 	vmov.f32	s14, s4
2001919a:	eea7 7aa1 	vfma.f32	s14, s15, s3
    s_lfo.cycle();

    wetXNL = wet * delSampleL;
    wetXNR = wet * delSampleR;

    *x += fastertanhf(waveshape(wetXNL));
2001919e:	eddf 0a58 	vldr	s1, [pc, #352]	; 20019300 <_hook_process+0x1f8>
     * @param pos Offset from write index as floating point.
     * @return Interpolated sample at given fractional position from write index
     */
    inline __attribute__((optimize("Ofast"),always_inline))
    float readFrac(const float pos) {
      const uint32_t base = (uint32_t)pos;
200191a2:	eefc 7ac7 	vcvt.u32.f32	s15, s14
200191a6:	eeb0 0a64 	vmov.f32	s0, s9
200191aa:	ee17 0a90 	vmov	r0, s15
     * @param pos Offset from write index
     * @return Sample at given position from write index
     */
    inline __attribute__((optimize("Ofast"),always_inline))
    float read(const uint32_t pos) {
      return mLine[(mWriteIdx + pos) & mMask];
200191ae:	eb00 0b02 	add.w	fp, r0, r2
200191b2:	ea0b 0b0e 	and.w	fp, fp, lr
200191b6:	eb07 0b8b 	add.w	fp, r7, fp, lsl #2
200191ba:	eddb 7a00 	vldr	s15, [fp]
    const float delSampleL = gain * (s_delay.readFrac(288 + (240 * lfo_cycle)));
    const float delSampleR = gain * (s_delay.readFrac(288 + (240 * lfo_cycle)));

    s_lfo.cycle();

    wetXNL = wet * delSampleL;
200191be:	ee06 0a90 	vmov	s13, r0
200191c2:	f102 0b01 	add.w	fp, r2, #1
200191c6:	4458      	add	r0, fp
200191c8:	eef8 6a66 	vcvt.f32.u32	s13, s13
200191cc:	ea00 000e 	and.w	r0, r0, lr
200191d0:	eb07 0080 	add.w	r0, r7, r0, lsl #2
200191d4:	ee37 7a66 	vsub.f32	s14, s14, s13
200191d8:	edd0 6a00 	vldr	s13, [r0]
200191dc:	ee76 6ae7 	vsub.f32	s13, s13, s15
     *
     * @param s Sample to write
     */
    inline __attribute__((optimize("Ofast"),always_inline))
    void write(const float s) {
      mLine[(mWriteIdx--) & mMask] = s;
200191e0:	ea0e 0002 	and.w	r0, lr, r2
200191e4:	eee7 7a26 	vfma.f32	s15, s14, s13
200191e8:	3a01      	subs	r2, #1
200191ea:	eb07 0080 	add.w	r0, r7, r0, lsl #2
200191ee:	ed93 7a08 	vldr	s14, [r3, #32]
200191f2:	ee67 7a87 	vmul.f32	s15, s15, s14
float wetXNL, wetXNR;
float bpm_valf;

float __fast_inline waveshape(float in) 
{
    return 1.5f * in - 0.5f * in *in * in;
200191f6:	eef6 6a00 	vmov.f32	s13, #96	; 0x3f000000  0.5
    const float delSampleL = gain * (s_delay.readFrac(288 + (240 * lfo_cycle)));
    const float delSampleR = gain * (s_delay.readFrac(288 + (240 * lfo_cycle)));

    s_lfo.cycle();

    wetXNL = wet * delSampleL;
200191fa:	ee67 7aa2 	vmul.f32	s15, s15, s5
200191fe:	ea02 020e 	and.w	r2, r2, lr
float wetXNL, wetXNR;
float bpm_valf;

float __fast_inline waveshape(float in) 
{
    return 1.5f * in - 0.5f * in *in * in;
20019202:	ee27 7aa7 	vmul.f32	s14, s15, s15
    const float delSampleR = gain * (s_delay.readFrac(288 + (240 * lfo_cycle)));

    s_lfo.cycle();

    wetXNL = wet * delSampleL;
    wetXNR = wet * delSampleR;
20019206:	edc3 7a0a 	vstr	s15, [r3, #40]	; 0x28
float wetXNL, wetXNR;
float bpm_valf;

float __fast_inline waveshape(float in) 
{
    return 1.5f * in - 0.5f * in *in * in;
2001920a:	ee27 7a27 	vmul.f32	s14, s14, s15
    const float delSampleL = gain * (s_delay.readFrac(288 + (240 * lfo_cycle)));
    const float delSampleR = gain * (s_delay.readFrac(288 + (240 * lfo_cycle)));

    s_lfo.cycle();

    wetXNL = wet * delSampleL;
2001920e:	edc3 7a09 	vstr	s15, [r3, #36]	; 0x24
float wetXNL, wetXNR;
float bpm_valf;

float __fast_inline waveshape(float in) 
{
    return 1.5f * in - 0.5f * in *in * in;
20019212:	ee26 7ac7 	vnmul.f32	s14, s13, s14
20019216:	eb07 0282 	add.w	r2, r7, r2, lsl #2
2001921a:	eea7 7a88 	vfma.f32	s14, s15, s16
2001921e:	eef0 7a47 	vmov.f32	s15, s14
    s_lfo.cycle();

    wetXNL = wet * delSampleL;
    wetXNR = wet * delSampleR;

    *x += fastertanhf(waveshape(wetXNL));
20019222:	eeb0 7a63 	vmov.f32	s14, s7
20019226:	eea7 7a83 	vfma.f32	s14, s15, s6
2001922a:	eea7 6a27 	vfma.f32	s12, s14, s15
2001922e:	eeb0 7a65 	vmov.f32	s14, s11
20019232:	eea7 7a85 	vfma.f32	s14, s15, s10
20019236:	eea6 0a27 	vfma.f32	s0, s12, s15
2001923a:	eeb0 6a60 	vmov.f32	s12, s1
2001923e:	eea7 6a27 	vfma.f32	s12, s14, s15
20019242:	eeb0 7a46 	vmov.f32	s14, s12
20019246:	ed9f 6a2f 	vldr	s12, [pc, #188]	; 20019304 <_hook_process+0x1fc>
2001924a:	eef0 8a46 	vmov.f32	s17, s12
2001924e:	eee7 8a27 	vfma.f32	s17, s14, s15
20019252:	ed14 7a02 	vldr	s14, [r4, #-8]
20019256:	eec0 7a28 	vdiv.f32	s15, s0, s17
2001925a:	ee37 7a87 	vadd.f32	s14, s15, s14
2001925e:	ed04 7a02 	vstr	s14, [r4, #-8]
    *(x+1) += fastertanhf(waveshape(wetXNR));
20019262:	ed93 0a0a 	vldr	s0, [r3, #40]	; 0x28
float wetXNL, wetXNR;
float bpm_valf;

float __fast_inline waveshape(float in) 
{
    return 1.5f * in - 0.5f * in *in * in;
20019266:	ee60 7a00 	vmul.f32	s15, s0, s0
2001926a:	ee67 7a80 	vmul.f32	s15, s15, s0
2001926e:	ee66 7ae7 	vnmul.f32	s15, s13, s15

    wetXNL = wet * delSampleL;
    wetXNR = wet * delSampleR;

    *x += fastertanhf(waveshape(wetXNL));
    *(x+1) += fastertanhf(waveshape(wetXNR));
20019272:	eef0 6a63 	vmov.f32	s13, s7
float wetXNL, wetXNR;
float bpm_valf;

float __fast_inline waveshape(float in) 
{
    return 1.5f * in - 0.5f * in *in * in;
20019276:	eee0 7a08 	vfma.f32	s15, s0, s16

    wetXNL = wet * delSampleL;
    wetXNR = wet * delSampleR;

    *x += fastertanhf(waveshape(wetXNL));
    *(x+1) += fastertanhf(waveshape(wetXNR));
2001927a:	eeb0 0a44 	vmov.f32	s0, s8
2001927e:	eee7 6a83 	vfma.f32	s13, s15, s6
20019282:	eea6 0aa7 	vfma.f32	s0, s13, s15
20019286:	eef0 6a40 	vmov.f32	s13, s0
2001928a:	eeb0 0a64 	vmov.f32	s0, s9
2001928e:	eea6 0aa7 	vfma.f32	s0, s13, s15
20019292:	eef0 6a65 	vmov.f32	s13, s11
20019296:	eee7 6a85 	vfma.f32	s13, s15, s10
2001929a:	eee6 0aa7 	vfma.f32	s1, s13, s15
2001929e:	eea0 6aa7 	vfma.f32	s12, s1, s15
200192a2:	ed54 7a01 	vldr	s15, [r4, #-4]
200192a6:	eec0 6a06 	vdiv.f32	s13, s0, s12
200192aa:	ee77 7aa6 	vadd.f32	s15, s15, s13
200192ae:	ed44 7a01 	vstr	s15, [r4, #-4]
200192b2:	ed80 7a00 	vstr	s14, [r0]

    s_delay.write(*x);
    s_delay.write(*(x + 1));
200192b6:	f854 0c04 	ldr.w	r0, [r4, #-4]
200192ba:	6010      	str	r0, [r2, #0]
  const float * x_e = x + 2*frames;

  const float wet = s_mix;
  const float dry = 1.f - s_mix;

  for (; x != x_e ; x+=2) 
200192bc:	464a      	mov	r2, r9
200192be:	4620      	mov	r0, r4
200192c0:	e747      	b.n	20019152 <_hook_process+0x4a>
    *(x+1) += fastertanhf(waveshape(wetXNR));

    s_delay.write(*x);
    s_delay.write(*(x + 1));
  }
}
200192c2:	ecbd 8b02 	vpop	{d8}
200192c6:	08c9      	lsrs	r1, r1, #3
200192c8:	fb06 8601 	mla	r6, r6, r1, r8
200192cc:	eba5 0141 	sub.w	r1, r5, r1, lsl #1
200192d0:	615e      	str	r6, [r3, #20]
200192d2:	6119      	str	r1, [r3, #16]
200192d4:	e8bd 8ff0 	ldmia.w	sp!, {r4, r5, r6, r7, r8, r9, sl, fp, pc}
200192d8:	20019380 	.word	0x20019380
200192dc:	30000000 	.word	0x30000000
200192e0:	43700000 	.word	0x43700000
200192e4:	43900000 	.word	0x43900000
200192e8:	3d098436 	.word	0x3d098436
200192ec:	3d6f1472 	.word	0x3d6f1472
200192f0:	3e7cbd0c 	.word	0x3e7cbd0c
200192f4:	b6e247c8 	.word	0xb6e247c8
200192f8:	3ceb7eff 	.word	0x3ceb7eff
200192fc:	3dde744d 	.word	0x3dde744d
20019300:	3d7996af 	.word	0x3d7996af
20019304:	3e7c6675 	.word	0x3e7c6675

20019308 <_hook_param>:

void DELFX_PARAM(uint8_t index, int32_t value)
{
  const float valf = q31_to_f32(value);
20019308:	ee07 1a90 	vmov	s15, r1
  switch (index) 
2001930c:	2801      	cmp	r0, #1
  }
}

void DELFX_PARAM(uint8_t index, int32_t value)
{
  const float valf = q31_to_f32(value);
2001930e:	eefa 7ae0 	vcvt.f32.s32	s15, s15, #31
  switch (index) 
20019312:	d007      	beq.n	20019324 <_hook_param+0x1c>
20019314:	d302      	bcc.n	2001931c <_hook_param+0x14>
20019316:	2803      	cmp	r0, #3
20019318:	d013      	beq.n	20019342 <_hook_param+0x3a>
2001931a:	4770      	bx	lr
  {
  case k_user_delfx_param_time:
    gain = valf;
2001931c:	4b0b      	ldr	r3, [pc, #44]	; (2001934c <_hook_param+0x44>)
2001931e:	edc3 7a08 	vstr	s15, [r3, #32]
    break;
20019322:	4770      	bx	lr
  case k_user_delfx_param_depth:
    lfo_speed = valf * 2.f;
20019324:	ee77 7aa7 	vadd.f32	s15, s15, s15
20019328:	4b09      	ldr	r3, [pc, #36]	; (20019350 <_hook_param+0x48>)
     * param fsrecip Reciprocal of sampling frequency (1/Fs)
     */
    inline __attribute__((optimize("Ofast"),always_inline))
    void setF0(const float f0, const float fsrecip) 
    {
      w0 = f32_to_q31(2.f * f0 * fsrecip);
2001932a:	ed9f 7a0a 	vldr	s14, [pc, #40]	; 20019354 <_hook_param+0x4c>
2001932e:	edc3 7a00 	vstr	s15, [r3]
20019332:	ee67 7a87 	vmul.f32	s15, s15, s14
20019336:	4b05      	ldr	r3, [pc, #20]	; (2001934c <_hook_param+0x44>)
20019338:	eefe 7ac0 	vcvt.s32.f32	s15, s15, #32
2001933c:	edc3 7a06 	vstr	s15, [r3, #24]
20019340:	4770      	bx	lr
    s_lfo.setF0(lfo_speed, k_samplerate_recipf);
    break;
  case k_user_delfx_param_shift_depth:
    s_mix = valf;
20019342:	4b02      	ldr	r3, [pc, #8]	; (2001934c <_hook_param+0x44>)
20019344:	edc3 7a07 	vstr	s15, [r3, #28]
20019348:	4770      	bx	lr
2001934a:	bf00      	nop
2001934c:	20019380 	.word	0x20019380
20019350:	20019378 	.word	0x20019378
20019354:	37aec33e 	.word	0x37aec33e

20019358 <_GLOBAL__sub_I_lfo_speed>:
    DelayLine(void) :
      mLine(0),
      mFracZ(0),
      mSize(0),
      mMask(0),
      mWriteIdx(0)
20019358:	4b06      	ldr	r3, [pc, #24]	; (20019374 <_GLOBAL__sub_I_lfo_speed+0x1c>)
2001935a:	2100      	movs	r1, #0
2001935c:	2200      	movs	r2, #0
2001935e:	6059      	str	r1, [r3, #4]

    /**
     * Default constructor
     */
    SimpleLFO(void) :
      phi0(0x80000000), w0(0)
20019360:	f04f 4100 	mov.w	r1, #2147483648	; 0x80000000
20019364:	601a      	str	r2, [r3, #0]
20019366:	609a      	str	r2, [r3, #8]
20019368:	60da      	str	r2, [r3, #12]
2001936a:	611a      	str	r2, [r3, #16]
2001936c:	6159      	str	r1, [r3, #20]
2001936e:	619a      	str	r2, [r3, #24]
20019370:	4770      	bx	lr
20019372:	bf00      	nop
20019374:	20019380 	.word	0x20019380
