
build/HPF.elf:     file format elf32-littlearm


Disassembly of section .text:

20017844 <_text_start>:

__attribute__((weak))
void _hook_process(const float *main_xn, float *main_yn,
                   const float *sub_xn, float *sub_yn,
                   uint32_t frames)
{
20017844:	4770      	bx	lr

20017846 <_hook_resume>:

}

__attribute__((weak))
void _hook_resume(void)
{
20017846:	4770      	bx	lr

}

__attribute__((weak))
void _hook_param(uint8_t index, int32_t value)
{
20017848:	4770      	bx	lr

2001784a <_hook_suspend>:
2001784a:	4770      	bx	lr
  _hook_init(platform, api);
}

__attribute__((weak))
void _hook_init(uint32_t platform, uint32_t api)
{
2001784c:	4770      	bx	lr

2001784e <_entry>:
 * @{
 */

__attribute__((used))
void _entry(uint32_t platform, uint32_t api)
{
2001784e:	4b10      	ldr	r3, [pc, #64]	; (20017890 <_entry+0x42>)
20017850:	4a10      	ldr	r2, [pc, #64]	; (20017894 <_entry+0x46>)
20017852:	e92d 41f0 	stmdb	sp!, {r4, r5, r6, r7, r8, lr}
20017856:	4688      	mov	r8, r1
20017858:	4607      	mov	r7, r0
  // Ensure zero-clear BSS segment
  uint8_t * __restrict bss_p = (uint8_t *)&_bss_start;
  const uint8_t * const bss_e = (uint8_t *)&_bss_end;

  for (; bss_p != bss_e;)
    *(bss_p++) = 0;
2001785a:	2100      	movs	r1, #0
{
  // Ensure zero-clear BSS segment
  uint8_t * __restrict bss_p = (uint8_t *)&_bss_start;
  const uint8_t * const bss_e = (uint8_t *)&_bss_end;

  for (; bss_p != bss_e;)
2001785c:	4293      	cmp	r3, r2
2001785e:	d002      	beq.n	20017866 <_entry+0x18>
    *(bss_p++) = 0;
20017860:	f803 1f01 	strb.w	r1, [r3, #1]!
20017864:	e7fa      	b.n	2001785c <_entry+0xe>
20017866:	4b0c      	ldr	r3, [pc, #48]	; (20017898 <_entry+0x4a>)
20017868:	4c0c      	ldr	r4, [pc, #48]	; (2001789c <_entry+0x4e>)
2001786a:	1ae4      	subs	r4, r4, r3
2001786c:	10a4      	asrs	r4, r4, #2

  // Call constructors if any.  
  const size_t count = __init_array_end - __init_array_start;
  for (size_t i = 0; i<count; ++i) {
2001786e:	2500      	movs	r5, #0
20017870:	461e      	mov	r6, r3
20017872:	42a5      	cmp	r5, r4
20017874:	d005      	beq.n	20017882 <_entry+0x34>
    __init_fptr init_p = (__init_fptr)__init_array_start[i];
20017876:	f856 3025 	ldr.w	r3, [r6, r5, lsl #2]
    if (init_p != NULL)
2001787a:	b103      	cbz	r3, 2001787e <_entry+0x30>
      init_p();
2001787c:	4798      	blx	r3
  for (; bss_p != bss_e;)
    *(bss_p++) = 0;

  // Call constructors if any.  
  const size_t count = __init_array_end - __init_array_start;
  for (size_t i = 0; i<count; ++i) {
2001787e:	3501      	adds	r5, #1
20017880:	e7f7      	b.n	20017872 <_entry+0x24>
    if (init_p != NULL)
      init_p();
  }
  
  // Call user initialization
  _hook_init(platform, api);
20017882:	4641      	mov	r1, r8
20017884:	4638      	mov	r0, r7
20017886:	f000 f80b 	bl	200178a0 <_hook_init>
2001788a:	e8bd 81f0 	ldmia.w	sp!, {r4, r5, r6, r7, r8, pc}
2001788e:	bf00      	nop
20017890:	20017b5f 	.word	0x20017b5f
20017894:	20017b9f 	.word	0x20017b9f
20017898:	20017840 	.word	0x20017840
2001789c:	20017844 	.word	0x20017844

200178a0 <_hook_init>:
static dsp::BiQuad filter_l, filter_r;
float resonance = 1.4041f;
float cutoff = 0.49f;

void MODFX_INIT(uint32_t platform, uint32_t api)
{
200178a0:	b530      	push	{r4, r5, lr}
  filter_l.flush();
  filter_l.mCoeffs.setSOLP(fx_tanpif(cutoff), resonance);
200178a2:	4c29      	ldr	r4, [pc, #164]	; (20017948 <_hook_init+0xa8>)
   * @param   x  Value in [0.0001, 0.49].
   * @return     Result of tan(pi*x).
   * @note Not checking input, caller responsible for bounding x.
   */
  __fast_inline float fx_tanpif(float x) {
    const float idxf = x * k_tanpi_range_recip * k_tanpi_size;
200178a4:	ed9f 7a29 	vldr	s14, [pc, #164]	; 2001794c <_hook_init+0xac>
200178a8:	edd4 7a00 	vldr	s15, [r4]
    const uint32_t idx = (uint32_t)idxf;
    const float y0 = tanpi_lut_f[idx];
200178ac:	4928      	ldr	r1, [pc, #160]	; (20017950 <_hook_init+0xb0>)
200178ae:	ed94 6a01 	vldr	s12, [r4, #4]
    /**
     * Flush internal delays
     */
    inline __attribute__((optimize("Ofast"),always_inline))
    void flush(void) {
      mZ1 = mZ2 = 0;
200178b2:	4b28      	ldr	r3, [pc, #160]	; (20017954 <_hook_init+0xb4>)
   * @param   x  Value in [0.0001, 0.49].
   * @return     Result of tan(pi*x).
   * @note Not checking input, caller responsible for bounding x.
   */
  __fast_inline float fx_tanpif(float x) {
    const float idxf = x * k_tanpi_range_recip * k_tanpi_size;
200178b4:	ee67 7a87 	vmul.f32	s15, s15, s14
      inline __attribute__((optimize("Ofast"),always_inline))
      void setSOLP(const float k, const float q) {
        // k = tan(pi*wc)
        // flat response at q = sqrt(2)
        const float qk2 = q * k * k;
        const float qk2_k_q_r = 1.f / (qk2 + k + q);
200178b8:	eeb7 5a00 	vmov.f32	s10, #112	; 0x3f800000  1.0
    const uint32_t idx = (uint32_t)idxf;
200178bc:	eebc 7ae7 	vcvt.u32.f32	s14, s15
    /**
     * Flush internal delays
     */
    inline __attribute__((optimize("Ofast"),always_inline))
    void flush(void) {
      mZ1 = mZ2 = 0;
200178c0:	2200      	movs	r2, #0
200178c2:	ee17 0a10 	vmov	r0, s14

/** Linear interpolation
 */
static inline __attribute__((optimize("Ofast"), always_inline))
float linintf(const float fr, const float x0, const float x1) {
  return x0 + fr * (x1 - x0);
200178c6:	ee06 0a90 	vmov	s13, r0
200178ca:	eef8 6a66 	vcvt.f32.u32	s13, s13
    const float y0 = tanpi_lut_f[idx];
200178ce:	eb01 0580 	add.w	r5, r1, r0, lsl #2
200178d2:	ed95 7a00 	vldr	s14, [r5]
200178d6:	619a      	str	r2, [r3, #24]
200178d8:	ee77 7ae6 	vsub.f32	s15, s15, s13
200178dc:	edd5 6a01 	vldr	s13, [r5, #4]
200178e0:	615a      	str	r2, [r3, #20]
200178e2:	ee76 6ac7 	vsub.f32	s13, s13, s14
  filter_r.flush();
  filter_r.mCoeffs = filter_l.mCoeffs;
200178e6:	461c      	mov	r4, r3
200178e8:	eea7 7aa6 	vfma.f32	s14, s15, s13
200178ec:	f103 051c 	add.w	r5, r3, #28
200178f0:	635a      	str	r2, [r3, #52]	; 0x34
200178f2:	631a      	str	r2, [r3, #48]	; 0x30
       */
      inline __attribute__((optimize("Ofast"),always_inline))
      void setSOLP(const float k, const float q) {
        // k = tan(pi*wc)
        // flat response at q = sqrt(2)
        const float qk2 = q * k * k;
200178f4:	ee66 6a07 	vmul.f32	s13, s12, s14
200178f8:	ee66 7a87 	vmul.f32	s15, s13, s14
        const float qk2_k_q_r = 1.f / (qk2 + k + q);
200178fc:	ee77 6a87 	vadd.f32	s13, s15, s14
        ff0 = ff2 = qk2 * qk2_k_q_r;
        ff1 = 2.f * ff0;
        fb1 = 2.f * (qk2 - q) * qk2_k_q_r;
        fb2 = (qk2 - k + q) * qk2_k_q_r;
20017900:	ee37 7ac7 	vsub.f32	s14, s15, s14
      inline __attribute__((optimize("Ofast"),always_inline))
      void setSOLP(const float k, const float q) {
        // k = tan(pi*wc)
        // flat response at q = sqrt(2)
        const float qk2 = q * k * k;
        const float qk2_k_q_r = 1.f / (qk2 + k + q);
20017904:	ee76 6a86 	vadd.f32	s13, s13, s12
20017908:	eec5 5a26 	vdiv.f32	s11, s10, s13
        ff0 = ff2 = qk2 * qk2_k_q_r;
2001790c:	ee67 6aa5 	vmul.f32	s13, s15, s11
20017910:	edc3 6a02 	vstr	s13, [r3, #8]
20017914:	edc3 6a00 	vstr	s13, [r3]
        ff1 = 2.f * ff0;
20017918:	ee76 6aa6 	vadd.f32	s13, s13, s13
2001791c:	edc3 6a01 	vstr	s13, [r3, #4]
        fb1 = 2.f * (qk2 - q) * qk2_k_q_r;
20017920:	ee77 6ac6 	vsub.f32	s13, s15, s12
        fb2 = (qk2 - k + q) * qk2_k_q_r;
20017924:	ee77 7a06 	vadd.f32	s15, s14, s12
        // flat response at q = sqrt(2)
        const float qk2 = q * k * k;
        const float qk2_k_q_r = 1.f / (qk2 + k + q);
        ff0 = ff2 = qk2 * qk2_k_q_r;
        ff1 = 2.f * ff0;
        fb1 = 2.f * (qk2 - q) * qk2_k_q_r;
20017928:	ee66 6aa5 	vmul.f32	s13, s13, s11
        fb2 = (qk2 - k + q) * qk2_k_q_r;
2001792c:	ee67 7aa5 	vmul.f32	s15, s15, s11
        // flat response at q = sqrt(2)
        const float qk2 = q * k * k;
        const float qk2_k_q_r = 1.f / (qk2 + k + q);
        ff0 = ff2 = qk2 * qk2_k_q_r;
        ff1 = 2.f * ff0;
        fb1 = 2.f * (qk2 - q) * qk2_k_q_r;
20017930:	ee76 6aa6 	vadd.f32	s13, s13, s13
        fb2 = (qk2 - k + q) * qk2_k_q_r;
20017934:	edc3 7a04 	vstr	s15, [r3, #16]
        // flat response at q = sqrt(2)
        const float qk2 = q * k * k;
        const float qk2_k_q_r = 1.f / (qk2 + k + q);
        ff0 = ff2 = qk2 * qk2_k_q_r;
        ff1 = 2.f * ff0;
        fb1 = 2.f * (qk2 - q) * qk2_k_q_r;
20017938:	edc3 6a03 	vstr	s13, [r3, #12]
2001793c:	cc0f      	ldmia	r4!, {r0, r1, r2, r3}
2001793e:	c50f      	stmia	r5!, {r0, r1, r2, r3}
20017940:	6823      	ldr	r3, [r4, #0]
20017942:	602b      	str	r3, [r5, #0]
20017944:	bd30      	pop	{r4, r5, pc}
20017946:	bf00      	nop
20017948:	20017b58 	.word	0x20017b58
2001794c:	44029cbc 	.word	0x44029cbc
20017950:	0807b504 	.word	0x0807b504
20017954:	20017b60 	.word	0x20017b60

20017958 <_Z8absolutef>:
}

float absolute(float valf)
{
  if (valf < 0)
20017958:	eeb5 0ac0 	vcmpe.f32	s0, #0.0
2001795c:	eef1 fa10 	vmrs	APSR_nzcv, fpscr
    return -valf;
20017960:	bf48      	it	mi
20017962:	eeb1 0a40 	vnegmi.f32	s0, s0
  return valf;
}
20017966:	4770      	bx	lr

20017968 <_hook_process>:

void MODFX_PROCESS(const float *xn, float *yn,
                     const float *sub_xn, float *sub_yn,
                     uint32_t frames)
{
20017968:	b530      	push	{r4, r5, lr}
2001796a:	9d03      	ldr	r5, [sp, #12]
     *
     * @return Output sample
     */
    inline __attribute__((optimize("Ofast"),always_inline))
    float process_so(const float xn) {
      float acc = mCoeffs.ff0 * xn + mZ1;
2001796c:	4b27      	ldr	r3, [pc, #156]	; (20017a0c <_hook_process+0xa4>)
 for (int i = 0; i < frames; i++)
2001796e:	2200      	movs	r2, #0
20017970:	42aa      	cmp	r2, r5
20017972:	f100 0008 	add.w	r0, r0, #8
20017976:	f101 0108 	add.w	r1, r1, #8
2001797a:	d046      	beq.n	20017a0a <_hook_process+0xa2>
  {
    curSampleL = *xn++;
2001797c:	ed50 6a02 	vldr	s13, [r0, #-8]
20017980:	ed93 7a00 	vldr	s14, [r3]
20017984:	edd3 7a05 	vldr	s15, [r3, #20]
      mZ1 = mCoeffs.ff1 * xn + mZ2;
      mZ2 = mCoeffs.ff2 * xn;
      mZ1 -= mCoeffs.fb1 * acc;
20017988:	ed93 5a01 	vldr	s10, [r3, #4]
    curSampleR = *xn++;
2001798c:	ed10 6a01 	vldr	s12, [r0, #-4]
     */
    inline __attribute__((optimize("Ofast"),always_inline))
    float process_so(const float xn) {
      float acc = mCoeffs.ff0 * xn + mZ1;
      mZ1 = mCoeffs.ff1 * xn + mZ2;
      mZ2 = mCoeffs.ff2 * xn;
20017990:	edd3 5a02 	vldr	s11, [r3, #8]
     *
     * @return Output sample
     */
    inline __attribute__((optimize("Ofast"),always_inline))
    float process_so(const float xn) {
      float acc = mCoeffs.ff0 * xn + mZ1;
20017994:	eee6 7a87 	vfma.f32	s15, s13, s14

void MODFX_PROCESS(const float *xn, float *yn,
                     const float *sub_xn, float *sub_yn,
                     uint32_t frames)
{
 for (int i = 0; i < frames; i++)
20017998:	3201      	adds	r2, #1
      mZ1 = mCoeffs.ff1 * xn + mZ2;
      mZ2 = mCoeffs.ff2 * xn;
      mZ1 -= mCoeffs.fb1 * acc;
2001799a:	ed93 7a06 	vldr	s14, [r3, #24]
  {
    curSampleL = *xn++;
    curSampleR = *xn++;

    curSampleL = filter_l.process_so(curSampleL);
2001799e:	edc3 7a0e 	vstr	s15, [r3, #56]	; 0x38
200179a2:	eea6 7a85 	vfma.f32	s14, s13, s10
200179a6:	ed93 5a03 	vldr	s10, [r3, #12]
200179aa:	eea7 7ac5 	vfms.f32	s14, s15, s10
200179ae:	ed93 5a08 	vldr	s10, [r3, #32]
200179b2:	ed83 7a05 	vstr	s14, [r3, #20]
      mZ2 -= mCoeffs.fb2 * acc;
200179b6:	ed93 7a04 	vldr	s14, [r3, #16]
200179ba:	ee27 7a67 	vnmul.f32	s14, s14, s15
200179be:	eea6 7aa5 	vfma.f32	s14, s13, s11
     *
     * @return Output sample
     */
    inline __attribute__((optimize("Ofast"),always_inline))
    float process_so(const float xn) {
      float acc = mCoeffs.ff0 * xn + mZ1;
200179c2:	edd3 6a07 	vldr	s13, [r3, #28]
      mZ1 = mCoeffs.ff1 * xn + mZ2;
      mZ2 = mCoeffs.ff2 * xn;
      mZ1 -= mCoeffs.fb1 * acc;
      mZ2 -= mCoeffs.fb2 * acc;
200179c6:	ed83 7a06 	vstr	s14, [r3, #24]
     *
     * @return Output sample
     */
    inline __attribute__((optimize("Ofast"),always_inline))
    float process_so(const float xn) {
      float acc = mCoeffs.ff0 * xn + mZ1;
200179ca:	ed93 7a0c 	vldr	s14, [r3, #48]	; 0x30
      mZ1 = mCoeffs.ff1 * xn + mZ2;
      mZ2 = mCoeffs.ff2 * xn;
200179ce:	edd3 5a09 	vldr	s11, [r3, #36]	; 0x24
     *
     * @return Output sample
     */
    inline __attribute__((optimize("Ofast"),always_inline))
    float process_so(const float xn) {
      float acc = mCoeffs.ff0 * xn + mZ1;
200179d2:	eea6 7a26 	vfma.f32	s14, s12, s13
      mZ1 = mCoeffs.ff1 * xn + mZ2;
      mZ2 = mCoeffs.ff2 * xn;
      mZ1 -= mCoeffs.fb1 * acc;
200179d6:	edd3 6a0d 	vldr	s13, [r3, #52]	; 0x34
    curSampleR = filter_r.process_so(curSampleR);
200179da:	ed83 7a0f 	vstr	s14, [r3, #60]	; 0x3c
200179de:	eee6 6a05 	vfma.f32	s13, s12, s10
200179e2:	ed93 5a0a 	vldr	s10, [r3, #40]	; 0x28
200179e6:	eee7 6a45 	vfms.f32	s13, s14, s10
200179ea:	edc3 6a0c 	vstr	s13, [r3, #48]	; 0x30
      mZ2 -= mCoeffs.fb2 * acc;
200179ee:	edd3 6a0b 	vldr	s13, [r3, #44]	; 0x2c
200179f2:	ee66 6ac7 	vnmul.f32	s13, s13, s14
200179f6:	eee6 6a25 	vfma.f32	s13, s12, s11
200179fa:	edc3 6a0d 	vstr	s13, [r3, #52]	; 0x34

    *yn++ = curSampleL;
200179fe:	ed41 7a02 	vstr	s15, [r1, #-8]
    *yn++ = curSampleR;
20017a02:	6bdc      	ldr	r4, [r3, #60]	; 0x3c
20017a04:	f841 4c04 	str.w	r4, [r1, #-4]

void MODFX_PROCESS(const float *xn, float *yn,
                     const float *sub_xn, float *sub_yn,
                     uint32_t frames)
{
 for (int i = 0; i < frames; i++)
20017a08:	e7b2      	b.n	20017970 <_hook_process+0x8>
20017a0a:	bd30      	pop	{r4, r5, pc}
20017a0c:	20017b60 	.word	0x20017b60

20017a10 <_hook_param>:
    *yn++ = curSampleR;
  }
}

void MODFX_PARAM(uint8_t index, int32_t value)
{
20017a10:	b530      	push	{r4, r5, lr}
20017a12:	ee07 1a90 	vmov	s15, r1
  const float valf = q31_to_f32(value);
  float invertedValf;
  float range = 0;
  switch (index) 
20017a16:	2800      	cmp	r0, #0
20017a18:	d17b      	bne.n	20017b12 <_hook_param+0x102>
  {
  case 0:
    invertedValf = absolute(1-valf);
20017a1a:	eeb7 6a00 	vmov.f32	s12, #112	; 0x3f800000  1.0
20017a1e:	eef8 7ae7 	vcvt.f32.s32	s15, s15
20017a22:	ed9f 7a3c 	vldr	s14, [pc, #240]	; 20017b14 <_hook_param+0x104>
    range = clipminmaxf(0.001f, invertedValf, 1.f);
    cutoff = (1 / range) * 0.00046875;
20017a26:	4c3c      	ldr	r4, [pc, #240]	; (20017b18 <_hook_param+0x108>)
20017a28:	493c      	ldr	r1, [pc, #240]	; (20017b1c <_hook_param+0x10c>)
    filter_l.flush();
    filter_l.mCoeffs.setSOLP(fx_tanpif(cutoff), resonance);
20017a2a:	edd4 5a01 	vldr	s11, [r4, #4]
    /**
     * Flush internal delays
     */
    inline __attribute__((optimize("Ofast"),always_inline))
    void flush(void) {
      mZ1 = mZ2 = 0;
20017a2e:	4b3c      	ldr	r3, [pc, #240]	; (20017b20 <_hook_param+0x110>)
  float invertedValf;
  float range = 0;
  switch (index) 
  {
  case 0:
    invertedValf = absolute(1-valf);
20017a30:	eef0 6a46 	vmov.f32	s13, s12
20017a34:	eee7 6ac7 	vfms.f32	s13, s15, s14

/** FSEL construct
 */
static inline __attribute__((optimize("Ofast"),always_inline))
float fsel(const float a, const float b, const float c) {
  return (a >= 0) ? b : c;
20017a38:	2200      	movs	r2, #0
20017a3a:	619a      	str	r2, [r3, #24]
20017a3c:	ed9f 7a39 	vldr	s14, [pc, #228]	; 20017b24 <_hook_param+0x114>
20017a40:	615a      	str	r2, [r3, #20]
  filter_r.mCoeffs = filter_l.mCoeffs;
}

float absolute(float valf)
{
  if (valf < 0)
20017a42:	eef5 6ac0 	vcmpe.f32	s13, #0.0
20017a46:	eef1 fa10 	vmrs	APSR_nzcv, fpscr
  float invertedValf;
  float range = 0;
  switch (index) 
  {
  case 0:
    invertedValf = absolute(1-valf);
20017a4a:	eef0 7a66 	vmov.f32	s15, s13
}

float absolute(float valf)
{
  if (valf < 0)
    return -valf;
20017a4e:	bf48      	it	mi
20017a50:	eef1 7a66 	vnegmi.f32	s15, s13
20017a54:	ee77 6ac7 	vsub.f32	s13, s15, s14
20017a58:	635a      	str	r2, [r3, #52]	; 0x34
20017a5a:	eef5 6ac0 	vcmpe.f32	s13, #0.0
20017a5e:	eef1 fa10 	vmrs	APSR_nzcv, fpscr
20017a62:	bfb8      	it	lt
20017a64:	eef0 7a47 	vmovlt.f32	s15, s14
20017a68:	ee37 7ac6 	vsub.f32	s14, s15, s12
  switch (index) 
  {
  case 0:
    invertedValf = absolute(1-valf);
    range = clipminmaxf(0.001f, invertedValf, 1.f);
    cutoff = (1 / range) * 0.00046875;
20017a6c:	eddf 6a2e 	vldr	s13, [pc, #184]	; 20017b28 <_hook_param+0x118>
20017a70:	631a      	str	r2, [r3, #48]	; 0x30
20017a72:	eeb5 7a40 	vcmp.f32	s14, #0.0
20017a76:	eef1 fa10 	vmrs	APSR_nzcv, fpscr
20017a7a:	eeb7 7a00 	vmov.f32	s14, #112	; 0x3f800000  1.0
20017a7e:	bfa8      	it	ge
20017a80:	eef0 7a47 	vmovge.f32	s15, s14
20017a84:	ee86 7a27 	vdiv.f32	s14, s12, s15
20017a88:	ee67 7a26 	vmul.f32	s15, s14, s13
   * @param   x  Value in [0.0001, 0.49].
   * @return     Result of tan(pi*x).
   * @note Not checking input, caller responsible for bounding x.
   */
  __fast_inline float fx_tanpif(float x) {
    const float idxf = x * k_tanpi_range_recip * k_tanpi_size;
20017a8c:	eddf 6a27 	vldr	s13, [pc, #156]	; 20017b2c <_hook_param+0x11c>
20017a90:	edc4 7a00 	vstr	s15, [r4]
20017a94:	ee67 6aa6 	vmul.f32	s13, s15, s13
    filter_l.flush();
    filter_l.mCoeffs.setSOLP(fx_tanpif(cutoff), resonance);
    filter_r.flush();
    filter_r.mCoeffs = filter_l.mCoeffs;
20017a98:	461c      	mov	r4, r3
    const uint32_t idx = (uint32_t)idxf;
20017a9a:	eefc 7ae6 	vcvt.u32.f32	s15, s13
20017a9e:	ee17 0a90 	vmov	r0, s15

/** Linear interpolation
 */
static inline __attribute__((optimize("Ofast"), always_inline))
float linintf(const float fr, const float x0, const float x1) {
  return x0 + fr * (x1 - x0);
20017aa2:	eef8 7a67 	vcvt.f32.u32	s15, s15
    const float y0 = tanpi_lut_f[idx];
20017aa6:	eb01 0580 	add.w	r5, r1, r0, lsl #2
20017aaa:	ed95 7a00 	vldr	s14, [r5]
20017aae:	ee76 6ae7 	vsub.f32	s13, s13, s15
20017ab2:	edd5 7a01 	vldr	s15, [r5, #4]
20017ab6:	ee77 7ac7 	vsub.f32	s15, s15, s14
20017aba:	f103 051c 	add.w	r5, r3, #28
20017abe:	eea6 7aa7 	vfma.f32	s14, s13, s15
       */
      inline __attribute__((optimize("Ofast"),always_inline))
      void setSOLP(const float k, const float q) {
        // k = tan(pi*wc)
        // flat response at q = sqrt(2)
        const float qk2 = q * k * k;
20017ac2:	ee65 6a87 	vmul.f32	s13, s11, s14
20017ac6:	ee66 7a87 	vmul.f32	s15, s13, s14
        const float qk2_k_q_r = 1.f / (qk2 + k + q);
20017aca:	ee77 6a87 	vadd.f32	s13, s15, s14
        ff0 = ff2 = qk2 * qk2_k_q_r;
        ff1 = 2.f * ff0;
        fb1 = 2.f * (qk2 - q) * qk2_k_q_r;
        fb2 = (qk2 - k + q) * qk2_k_q_r;
20017ace:	ee37 7ac7 	vsub.f32	s14, s15, s14
      inline __attribute__((optimize("Ofast"),always_inline))
      void setSOLP(const float k, const float q) {
        // k = tan(pi*wc)
        // flat response at q = sqrt(2)
        const float qk2 = q * k * k;
        const float qk2_k_q_r = 1.f / (qk2 + k + q);
20017ad2:	ee76 6aa5 	vadd.f32	s13, s13, s11
20017ad6:	ee86 5a26 	vdiv.f32	s10, s12, s13
        ff0 = ff2 = qk2 * qk2_k_q_r;
20017ada:	ee67 6a85 	vmul.f32	s13, s15, s10
20017ade:	edc3 6a02 	vstr	s13, [r3, #8]
20017ae2:	edc3 6a00 	vstr	s13, [r3]
        ff1 = 2.f * ff0;
20017ae6:	ee76 6aa6 	vadd.f32	s13, s13, s13
20017aea:	edc3 6a01 	vstr	s13, [r3, #4]
        fb1 = 2.f * (qk2 - q) * qk2_k_q_r;
20017aee:	ee77 6ae5 	vsub.f32	s13, s15, s11
        fb2 = (qk2 - k + q) * qk2_k_q_r;
20017af2:	ee77 7a25 	vadd.f32	s15, s14, s11
        // flat response at q = sqrt(2)
        const float qk2 = q * k * k;
        const float qk2_k_q_r = 1.f / (qk2 + k + q);
        ff0 = ff2 = qk2 * qk2_k_q_r;
        ff1 = 2.f * ff0;
        fb1 = 2.f * (qk2 - q) * qk2_k_q_r;
20017af6:	ee66 6a85 	vmul.f32	s13, s13, s10
        fb2 = (qk2 - k + q) * qk2_k_q_r;
20017afa:	ee67 7a85 	vmul.f32	s15, s15, s10
        // flat response at q = sqrt(2)
        const float qk2 = q * k * k;
        const float qk2_k_q_r = 1.f / (qk2 + k + q);
        ff0 = ff2 = qk2 * qk2_k_q_r;
        ff1 = 2.f * ff0;
        fb1 = 2.f * (qk2 - q) * qk2_k_q_r;
20017afe:	ee76 6aa6 	vadd.f32	s13, s13, s13
        fb2 = (qk2 - k + q) * qk2_k_q_r;
20017b02:	edc3 7a04 	vstr	s15, [r3, #16]
        // flat response at q = sqrt(2)
        const float qk2 = q * k * k;
        const float qk2_k_q_r = 1.f / (qk2 + k + q);
        ff0 = ff2 = qk2 * qk2_k_q_r;
        ff1 = 2.f * ff0;
        fb1 = 2.f * (qk2 - q) * qk2_k_q_r;
20017b06:	edc3 6a03 	vstr	s13, [r3, #12]
20017b0a:	cc0f      	ldmia	r4!, {r0, r1, r2, r3}
20017b0c:	c50f      	stmia	r5!, {r0, r1, r2, r3}
20017b0e:	6823      	ldr	r3, [r4, #0]
20017b10:	602b      	str	r3, [r5, #0]
20017b12:	bd30      	pop	{r4, r5, pc}
20017b14:	30000000 	.word	0x30000000
20017b18:	20017b58 	.word	0x20017b58
20017b1c:	0807b504 	.word	0x0807b504
20017b20:	20017b60 	.word	0x20017b60
20017b24:	3a83126f 	.word	0x3a83126f
20017b28:	39f5c28f 	.word	0x39f5c28f
20017b2c:	44029cbc 	.word	0x44029cbc

20017b30 <_GLOBAL__sub_I_curSampleL>:
      /**
       * Default constructor
       */
      Coeffs() :
        ff0(0), ff1(0), ff2(0),
        fb1(0), fb2(0)
20017b30:	4b08      	ldr	r3, [pc, #32]	; (20017b54 <_GLOBAL__sub_I_curSampleL+0x24>)
20017b32:	2200      	movs	r2, #0
20017b34:	601a      	str	r2, [r3, #0]
20017b36:	605a      	str	r2, [r3, #4]
20017b38:	609a      	str	r2, [r3, #8]
20017b3a:	60da      	str	r2, [r3, #12]
20017b3c:	611a      	str	r2, [r3, #16]
    /*=====================================================================*/

    /**
     * Default constructor
     */
    BiQuad(void) : mZ1(0), mZ2(0)
20017b3e:	615a      	str	r2, [r3, #20]
20017b40:	619a      	str	r2, [r3, #24]
      /**
       * Default constructor
       */
      Coeffs() :
        ff0(0), ff1(0), ff2(0),
        fb1(0), fb2(0)
20017b42:	61da      	str	r2, [r3, #28]
20017b44:	621a      	str	r2, [r3, #32]
20017b46:	625a      	str	r2, [r3, #36]	; 0x24
20017b48:	629a      	str	r2, [r3, #40]	; 0x28
20017b4a:	62da      	str	r2, [r3, #44]	; 0x2c
    /*=====================================================================*/

    /**
     * Default constructor
     */
    BiQuad(void) : mZ1(0), mZ2(0)
20017b4c:	631a      	str	r2, [r3, #48]	; 0x30
20017b4e:	635a      	str	r2, [r3, #52]	; 0x34
20017b50:	4770      	bx	lr
20017b52:	bf00      	nop
20017b54:	20017b60 	.word	0x20017b60
