ARM GAS  C:\msys64\tmp\cceMltjI.s 			page 1


   1              		.syntax unified
   2              		.cpu cortex-m4
   3              		.eabi_attribute 27, 1
   4              		.eabi_attribute 28, 1
   5              		.fpu fpv4-sp-d16
   6              		.eabi_attribute 20, 1
   7              		.eabi_attribute 21, 1
   8              		.eabi_attribute 23, 3
   9              		.eabi_attribute 24, 1
  10              		.eabi_attribute 25, 1
  11              		.eabi_attribute 26, 1
  12              		.eabi_attribute 30, 4
  13              		.eabi_attribute 34, 1
  14              		.eabi_attribute 18, 4
  15              		.thumb
  16              		.syntax unified
  17              		.file	"HPF.cpp"
  18              		.text
  19              	.Ltext0:
  20              		.cfi_sections	.debug_frame
  21              		.align	1
  22              		.global	_hook_init
  23              		.thumb
  24              		.thumb_func
  25              		.type	_hook_init, %function
  26              	_hook_init:
  27              	.LFB270:
  28              		.file 1 "./src/HPF.cpp"
  29              		.loc 1 12 0
  30              		.cfi_startproc
  31              		@ args = 0, pretend = 0, frame = 0
  32              		@ frame_needed = 0, uses_anonymous_args = 0
  33              	.LVL0:
  34 0000 30B5     		push	{r4, r5, lr}
  35              		.cfi_def_cfa_offset 12
  36              		.cfi_offset 4, -12
  37              		.cfi_offset 5, -8
  38              		.cfi_offset 14, -4
  39              		.loc 1 14 0
  40 0002 2B4C     		ldr	r4, .L2
  41              	.LBB67:
  42              	.LBB68:
  43              		.file 2 "./inc/fx_api.h"
  44              		.loc 2 234 0
  45 0004 9FED2B7A 		vldr.32	s14, .L2+4
  46 0008 D4ED007A 		vldr.32	s15, [r4]
  47              		.loc 2 236 0
  48 000c 2A49     		ldr	r1, .L2+8
  49              	.LVL1:
  50              	.LBE68:
  51              	.LBE67:
  52              	.LBB83:
  53              	.LBB84:
  54              		.file 3 "../inc/dsp/biquad.hpp"
  55              		.loc 3 356 0
  56 000e 2B4B     		ldr	r3, .L2+12
  57              	.LBE84:
ARM GAS  C:\msys64\tmp\cceMltjI.s 			page 2


  58              	.LBE83:
  59              	.LBB88:
  60              	.LBB77:
  61              		.loc 2 234 0
  62 0010 27EE877A 		vmul.f32	s14, s15, s14
  63              	.LBE77:
  64              	.LBE88:
  65              	.LBB89:
  66              	.LBB90:
  67              		.loc 3 236 0
  68 0014 B7EE005A 		vmov.f32	s10, #1.0e+0
  69              	.LBE90:
  70              	.LBE89:
  71              	.LBB93:
  72              	.LBB78:
  73              		.loc 2 235 0
  74 0018 FCEEC77A 		vcvt.u32.f32	s15, s14
  75              	.LBE78:
  76              	.LBE93:
  77              	.LBB94:
  78              	.LBB85:
  79              		.loc 3 356 0
  80 001c 0022     		movs	r2, #0
  81              	.LBE85:
  82              	.LBE94:
  83              	.LBB95:
  84              	.LBB79:
  85              		.loc 2 235 0
  86 001e 17EE900A 		vmov	r0, s15	@ int
  87              	.LVL2:
  88              	.LBB69:
  89              	.LBB70:
  90              		.file 4 "../inc/utils/float_math.h"
  91              		.loc 4 826 0
  92 0022 06EE900A 		vmov	s13, r0	@ int
  93 0026 F8EE666A 		vcvt.f32.u32	s13, s13
  94              	.LBE70:
  95              	.LBE69:
  96              		.loc 2 236 0
  97 002a 01EB8005 		add	r5, r1, r0, lsl #2
  98 002e D5ED007A 		vldr.32	s15, [r5]
  99              	.LBE79:
 100              	.LBE95:
 101              	.LBB96:
 102              	.LBB86:
 103              		.loc 3 356 0
 104 0032 9A61     		str	r2, [r3, #24]	@ float
 105              	.LBE86:
 106              	.LBE96:
 107              	.LBB97:
 108              	.LBB80:
 109              	.LBB74:
 110              	.LBB71:
 111              		.loc 4 826 0
 112 0034 37EE667A 		vsub.f32	s14, s14, s13
 113 0038 D5ED016A 		vldr.32	s13, [r5, #4]
 114              	.LBE71:
ARM GAS  C:\msys64\tmp\cceMltjI.s 			page 3


 115              	.LBE74:
 116              	.LBE80:
 117              	.LBE97:
 118              	.LBB98:
 119              	.LBB87:
 120              		.loc 3 356 0
 121 003c 5A61     		str	r2, [r3, #20]	@ float
 122              	.LVL3:
 123              	.LBE87:
 124              	.LBE98:
 125              	.LBB99:
 126              	.LBB81:
 127              	.LBB75:
 128              	.LBB72:
 129              		.loc 4 826 0
 130 003e 76EEE76A 		vsub.f32	s13, s13, s15
 131              	.LBE72:
 132              	.LBE75:
 133              	.LBE81:
 134              	.LBE99:
 135              		.loc 1 16 0
 136 0042 03F11C05 		add	r5, r3, #28
 137              	.LBB100:
 138              	.LBB82:
 139              	.LBB76:
 140              	.LBB73:
 141              		.loc 4 826 0
 142 0046 E7EE267A 		vfma.f32	s15, s14, s13
 143              	.LVL4:
 144              	.LBE73:
 145              	.LBE76:
 146              	.LBE82:
 147              	.LBE100:
 148              	.LBB101:
 149              	.LBB102:
 150              		.loc 3 356 0
 151 004a 5A63     		str	r2, [r3, #52]	@ float
 152 004c 1A63     		str	r2, [r3, #48]	@ float
 153              	.LBE102:
 154              	.LBE101:
 155              		.loc 1 14 0
 156 004e D4ED016A 		vldr.32	s13, [r4, #4]
 157              	.LVL5:
 158              	.LBB103:
 159              	.LBB91:
 160              		.loc 3 235 0
 161 0052 66EEA75A 		vmul.f32	s11, s13, s15
 162              	.LVL6:
 163              		.loc 3 236 0
 164 0056 B0EE677A 		vmov.f32	s14, s15
 165 005a A5EEA77A 		vfma.f32	s14, s11, s15
 166              	.LBE91:
 167              	.LBE103:
 168              		.loc 1 16 0
 169 005e 1C46     		mov	r4, r3
 170              	.LBB104:
 171              	.LBB92:
ARM GAS  C:\msys64\tmp\cceMltjI.s 			page 4


 172              		.loc 3 236 0
 173 0060 37EE267A 		vadd.f32	s14, s14, s13
 174 0064 85EE076A 		vdiv.f32	s12, s10, s14
 175              	.LVL7:
 176              		.loc 3 238 0
 177 0068 B8EE005A 		vmov.f32	s10, #-2.0e+0
 178              		.loc 3 237 0
 179 006c 26EE867A 		vmul.f32	s14, s13, s12
 180 0070 83ED027A 		vstr.32	s14, [r3, #8]
 181 0074 83ED007A 		vstr.32	s14, [r3]
 182              		.loc 3 238 0
 183 0078 27EE057A 		vmul.f32	s14, s14, s10
 184 007c 83ED017A 		vstr.32	s14, [r3, #4]
 185              		.loc 3 239 0
 186 0080 B0EE667A 		vmov.f32	s14, s13
 187 0084 95EEA77A 		vfnms.f32	s14, s11, s15
 188              		.loc 3 240 0
 189 0088 D5EEA77A 		vfnms.f32	s15, s11, s15
 190              	.LVL8:
 191              		.loc 3 239 0
 192 008c 27EE067A 		vmul.f32	s14, s14, s12
 193              		.loc 3 240 0
 194 0090 77EEA67A 		vadd.f32	s15, s15, s13
 195              		.loc 3 239 0
 196 0094 37EE077A 		vadd.f32	s14, s14, s14
 197              		.loc 3 240 0
 198 0098 67EE867A 		vmul.f32	s15, s15, s12
 199              		.loc 3 239 0
 200 009c 83ED037A 		vstr.32	s14, [r3, #12]
 201              		.loc 3 240 0
 202 00a0 C3ED047A 		vstr.32	s15, [r3, #16]
 203              	.LVL9:
 204              	.LBE92:
 205              	.LBE104:
 206              		.loc 1 16 0
 207 00a4 0FCC     		ldmia	r4!, {r0, r1, r2, r3}
 208 00a6 0FC5     		stmia	r5!, {r0, r1, r2, r3}
 209 00a8 2368     		ldr	r3, [r4]
 210 00aa 2B60     		str	r3, [r5]
 211 00ac 30BD     		pop	{r4, r5, pc}
 212              	.L3:
 213 00ae 00BF     		.align	2
 214              	.L2:
 215 00b0 00000000 		.word	.LANCHOR1
 216 00b4 BC9C0244 		.word	1141021884
 217 00b8 00000000 		.word	tanpi_lut_f
 218 00bc 00000000 		.word	.LANCHOR0
 219              		.cfi_endproc
 220              	.LFE270:
 221              		.size	_hook_init, .-_hook_init
 222              		.align	1
 223              		.global	_Z8absolutef
 224              		.thumb
 225              		.thumb_func
 226              		.type	_Z8absolutef, %function
 227              	_Z8absolutef:
 228              	.LFB271:
ARM GAS  C:\msys64\tmp\cceMltjI.s 			page 5


 229              		.loc 1 20 0
 230              		.cfi_startproc
 231              		@ args = 0, pretend = 0, frame = 0
 232              		@ frame_needed = 0, uses_anonymous_args = 0
 233              		@ link register save eliminated.
 234              	.LVL10:
 235              		.loc 1 21 0
 236 00c0 B5EEC00A 		vcmpe.f32	s0, #0
 237 00c4 F1EE10FA 		vmrs	APSR_nzcv, FPSCR
 238              		.loc 1 22 0
 239 00c8 48BF     		it	mi
 240 00ca B1EE400A 		vnegmi.f32	s0, s0
 241              	.LVL11:
 242              		.loc 1 24 0
 243 00ce 7047     		bx	lr
 244              		.cfi_endproc
 245              	.LFE271:
 246              		.size	_Z8absolutef, .-_Z8absolutef
 247              		.align	1
 248              		.global	_hook_process
 249              		.thumb
 250              		.thumb_func
 251              		.type	_hook_process, %function
 252              	_hook_process:
 253              	.LFB272:
 254              		.loc 1 29 0
 255              		.cfi_startproc
 256              		@ args = 4, pretend = 0, frame = 0
 257              		@ frame_needed = 0, uses_anonymous_args = 0
 258              	.LVL12:
 259 00d0 30B5     		push	{r4, r5, lr}
 260              		.cfi_def_cfa_offset 12
 261              		.cfi_offset 4, -12
 262              		.cfi_offset 5, -8
 263              		.cfi_offset 14, -4
 264              		.loc 1 29 0
 265 00d2 039D     		ldr	r5, [sp, #12]
 266              	.LBB105:
 267              	.LBB106:
 268              	.LBB107:
 269              		.loc 3 368 0
 270 00d4 274B     		ldr	r3, .L15
 271              	.LVL13:
 272              	.LBE107:
 273              	.LBE106:
 274              		.loc 1 30 0
 275 00d6 0022     		movs	r2, #0
 276              	.LVL14:
 277              	.L12:
 278              		.loc 1 30 0 is_stmt 0 discriminator 3
 279 00d8 AA42     		cmp	r2, r5
 280 00da 00F10800 		add	r0, r0, #8
 281              	.LVL15:
 282 00de 01F10801 		add	r1, r1, #8
 283 00e2 46D0     		beq	.L10
 284              	.LVL16:
 285              		.loc 1 32 0 is_stmt 1 discriminator 2
ARM GAS  C:\msys64\tmp\cceMltjI.s 			page 6


 286 00e4 50ED026A 		vldr.32	s13, [r0, #-8]
 287              	.LVL17:
 288              	.LBB114:
 289              	.LBB108:
 290              		.loc 3 368 0 discriminator 2
 291 00e8 93ED007A 		vldr.32	s14, [r3]
 292 00ec D3ED057A 		vldr.32	s15, [r3, #20]
 293              		.loc 3 371 0 discriminator 2
 294 00f0 93ED015A 		vldr.32	s10, [r3, #4]
 295              	.LBE108:
 296              	.LBE114:
 297              		.loc 1 33 0 discriminator 2
 298 00f4 10ED016A 		vldr.32	s12, [r0, #-4]
 299              	.LVL18:
 300              	.LBB115:
 301              	.LBB109:
 302              		.loc 3 370 0 discriminator 2
 303 00f8 D3ED025A 		vldr.32	s11, [r3, #8]
 304              		.loc 3 368 0 discriminator 2
 305 00fc E6EE877A 		vfma.f32	s15, s13, s14
 306              	.LVL19:
 307              	.LBE109:
 308              	.LBE115:
 309              		.loc 1 30 0 discriminator 2
 310 0100 0132     		adds	r2, r2, #1
 311              	.LVL20:
 312              	.LBB116:
 313              	.LBB110:
 314              		.loc 3 371 0 discriminator 2
 315 0102 93ED067A 		vldr.32	s14, [r3, #24]
 316              	.LBE110:
 317              	.LBE116:
 318              		.loc 1 35 0 discriminator 2
 319 0106 C3ED0E7A 		vstr.32	s15, [r3, #56]
 320              	.LBB117:
 321              	.LBB111:
 322              		.loc 3 371 0 discriminator 2
 323 010a A6EE857A 		vfma.f32	s14, s13, s10
 324 010e 93ED035A 		vldr.32	s10, [r3, #12]
 325 0112 A7EEC57A 		vfms.f32	s14, s15, s10
 326              	.LBE111:
 327              	.LBE117:
 328              	.LBB118:
 329              	.LBB119:
 330 0116 93ED085A 		vldr.32	s10, [r3, #32]
 331              	.LBE119:
 332              	.LBE118:
 333              	.LBB123:
 334              	.LBB112:
 335 011a 83ED057A 		vstr.32	s14, [r3, #20]
 336              		.loc 3 372 0 discriminator 2
 337 011e 93ED047A 		vldr.32	s14, [r3, #16]
 338 0122 27EE677A 		vnmul.f32	s14, s14, s15
 339 0126 A6EEA57A 		vfma.f32	s14, s13, s11
 340              	.LBE112:
 341              	.LBE123:
 342              	.LBB124:
ARM GAS  C:\msys64\tmp\cceMltjI.s 			page 7


 343              	.LBB120:
 344              		.loc 3 368 0 discriminator 2
 345 012a D3ED076A 		vldr.32	s13, [r3, #28]
 346              	.LVL21:
 347              	.LBE120:
 348              	.LBE124:
 349              	.LBB125:
 350              	.LBB113:
 351              		.loc 3 372 0 discriminator 2
 352 012e 83ED067A 		vstr.32	s14, [r3, #24]
 353              	.LVL22:
 354              	.LBE113:
 355              	.LBE125:
 356              	.LBB126:
 357              	.LBB121:
 358              		.loc 3 368 0 discriminator 2
 359 0132 93ED0C7A 		vldr.32	s14, [r3, #48]
 360              		.loc 3 370 0 discriminator 2
 361 0136 D3ED095A 		vldr.32	s11, [r3, #36]
 362              		.loc 3 368 0 discriminator 2
 363 013a A6EE267A 		vfma.f32	s14, s12, s13
 364              	.LVL23:
 365              		.loc 3 371 0 discriminator 2
 366 013e D3ED0D6A 		vldr.32	s13, [r3, #52]
 367              	.LBE121:
 368              	.LBE126:
 369              		.loc 1 36 0 discriminator 2
 370 0142 83ED0F7A 		vstr.32	s14, [r3, #60]
 371              	.LBB127:
 372              	.LBB122:
 373              		.loc 3 371 0 discriminator 2
 374 0146 E6EE056A 		vfma.f32	s13, s12, s10
 375 014a 93ED0A5A 		vldr.32	s10, [r3, #40]
 376 014e E7EE456A 		vfms.f32	s13, s14, s10
 377 0152 C3ED0C6A 		vstr.32	s13, [r3, #48]
 378              		.loc 3 372 0 discriminator 2
 379 0156 D3ED0B6A 		vldr.32	s13, [r3, #44]
 380 015a 66EEC76A 		vnmul.f32	s13, s13, s14
 381 015e E6EE256A 		vfma.f32	s13, s12, s11
 382 0162 C3ED0D6A 		vstr.32	s13, [r3, #52]
 383              	.LVL24:
 384              	.LBE122:
 385              	.LBE127:
 386              		.loc 1 38 0 discriminator 2
 387 0166 41ED027A 		vstr.32	s15, [r1, #-8]
 388              	.LVL25:
 389              		.loc 1 39 0 discriminator 2
 390 016a DC6B     		ldr	r4, [r3, #60]	@ float
 391 016c 41F8044C 		str	r4, [r1, #-4]	@ float
 392              		.loc 1 30 0 discriminator 2
 393 0170 B2E7     		b	.L12
 394              	.LVL26:
 395              	.L10:
 396 0172 30BD     		pop	{r4, r5, pc}
 397              	.LVL27:
 398              	.L16:
 399              		.align	2
ARM GAS  C:\msys64\tmp\cceMltjI.s 			page 8


 400              	.L15:
 401 0174 00000000 		.word	.LANCHOR0
 402              	.LBE105:
 403              		.cfi_endproc
 404              	.LFE272:
 405              		.size	_hook_process, .-_hook_process
 406              		.align	1
 407              		.global	_hook_param
 408              		.thumb
 409              		.thumb_func
 410              		.type	_hook_param, %function
 411              	_hook_param:
 412              	.LFB273:
 413              		.loc 1 44 0
 414              		.cfi_startproc
 415              		@ args = 0, pretend = 0, frame = 0
 416              		@ frame_needed = 0, uses_anonymous_args = 0
 417              	.LVL28:
 418 0178 30B5     		push	{r4, r5, lr}
 419              		.cfi_def_cfa_offset 12
 420              		.cfi_offset 4, -12
 421              		.cfi_offset 5, -8
 422              		.cfi_offset 14, -4
 423              		.loc 1 44 0
 424 017a 07EE901A 		vmov	s15, r1	@ int
 425              	.LVL29:
 426              		.loc 1 48 0
 427 017e 0028     		cmp	r0, #0
 428 0180 40F08280 		bne	.L17
 429              		.loc 1 51 0
 430 0184 F7EE006A 		vmov.f32	s13, #1.0e+0
 431 0188 F8EEE77A 		vcvt.f32.s32	s15, s15
 432              	.LVL30:
 433 018c 9FED3F7A 		vldr.32	s14, .L27
 434              		.loc 1 53 0
 435 0190 3F4C     		ldr	r4, .L27+4
 436              	.LBB128:
 437              	.LBB129:
 438              		.loc 2 236 0
 439 0192 4049     		ldr	r1, .L27+8
 440              	.LVL31:
 441              	.LBE129:
 442              	.LBE128:
 443              	.LBB139:
 444              	.LBB140:
 445              		.loc 3 356 0
 446 0194 404B     		ldr	r3, .L27+12
 447              	.LBE140:
 448              	.LBE139:
 449              		.loc 1 51 0
 450 0196 B0EE666A 		vmov.f32	s12, s13
 451 019a A7EEC76A 		vfms.f32	s12, s15, s14
 452              	.LBB143:
 453              	.LBB144:
 454              	.LBB145:
 455              	.LBB146:
 456              	.LBB147:
ARM GAS  C:\msys64\tmp\cceMltjI.s 			page 9


 457              		.loc 4 193 0
 458 019e 0022     		movs	r2, #0
 459              	.LBE147:
 460              	.LBE146:
 461              	.LBE145:
 462              	.LBE144:
 463              	.LBE143:
 464              	.LBB166:
 465              	.LBB141:
 466              		.loc 3 356 0
 467 01a0 9A61     		str	r2, [r3, #24]	@ float
 468              	.LBE141:
 469              	.LBE166:
 470              	.LBB167:
 471              	.LBB162:
 472              	.LBB158:
 473              	.LBB151:
 474              	.LBB148:
 475              		.loc 4 193 0
 476 01a2 9FED3E7A 		vldr.32	s14, .L27+16
 477              	.LBE148:
 478              	.LBE151:
 479              	.LBE158:
 480              	.LBE162:
 481              	.LBE167:
 482              	.LBB168:
 483              	.LBB142:
 484              		.loc 3 356 0
 485 01a6 5A61     		str	r2, [r3, #20]	@ float
 486              	.LBE142:
 487              	.LBE168:
 488              	.LBB169:
 489              	.LBB170:
 490              		.loc 1 21 0
 491 01a8 B5EEC06A 		vcmpe.f32	s12, #0
 492 01ac F1EE10FA 		vmrs	APSR_nzcv, FPSCR
 493              	.LBE170:
 494              	.LBE169:
 495              		.loc 1 51 0
 496 01b0 F0EE467A 		vmov.f32	s15, s12
 497              	.LVL32:
 498              	.LBB172:
 499              	.LBB171:
 500              		.loc 1 22 0
 501 01b4 48BF     		it	mi
 502 01b6 F1EE467A 		vnegmi.f32	s15, s12
 503              	.LVL33:
 504              	.LBE171:
 505              	.LBE172:
 506              	.LBB173:
 507              	.LBB163:
 508              	.LBB159:
 509              	.LBB152:
 510              	.LBB149:
 511              		.loc 4 193 0
 512 01ba 37EEC76A 		vsub.f32	s12, s15, s14
 513              	.LVL34:
ARM GAS  C:\msys64\tmp\cceMltjI.s 			page 10


 514              	.LBE149:
 515              	.LBE152:
 516              	.LBE159:
 517              	.LBE163:
 518              	.LBE173:
 519              	.LBB174:
 520              	.LBB175:
 521              		.loc 3 356 0
 522 01be 5A63     		str	r2, [r3, #52]	@ float
 523              	.LBE175:
 524              	.LBE174:
 525              	.LBB177:
 526              	.LBB164:
 527              	.LBB160:
 528              	.LBB153:
 529              	.LBB150:
 530              		.loc 4 193 0
 531 01c0 B5EEC06A 		vcmpe.f32	s12, #0
 532 01c4 F1EE10FA 		vmrs	APSR_nzcv, FPSCR
 533 01c8 B8BF     		it	lt
 534 01ca F0EE477A 		vmovlt.f32	s15, s14
 535              	.LVL35:
 536              	.LBE150:
 537              	.LBE153:
 538              	.LBB154:
 539              	.LBB155:
 540 01ce 37EEE67A 		vsub.f32	s14, s15, s13
 541              	.LVL36:
 542              	.LBE155:
 543              	.LBE154:
 544              	.LBE160:
 545              	.LBE164:
 546              	.LBE177:
 547              	.LBB178:
 548              	.LBB176:
 549              		.loc 3 356 0
 550 01d2 1A63     		str	r2, [r3, #48]	@ float
 551              	.LBE176:
 552              	.LBE178:
 553              	.LBB179:
 554              	.LBB165:
 555              	.LBB161:
 556              	.LBB157:
 557              	.LBB156:
 558              		.loc 4 193 0
 559 01d4 B5EE407A 		vcmp.f32	s14, #0
 560 01d8 F1EE10FA 		vmrs	APSR_nzcv, FPSCR
 561 01dc B7EE007A 		vmov.f32	s14, #1.0e+0
 562              	.LVL37:
 563 01e0 A8BF     		it	ge
 564 01e2 F0EE477A 		vmovge.f32	s15, s14
 565              	.LVL38:
 566              	.LBE156:
 567              	.LBE157:
 568              	.LBE161:
 569              	.LBE165:
 570              	.LBE179:
ARM GAS  C:\msys64\tmp\cceMltjI.s 			page 11


 571              		.loc 1 53 0
 572 01e6 86EEA77A 		vdiv.f32	s14, s13, s15
 573 01ea DFED2D7A 		vldr.32	s15, .L27+20
 574 01ee 67EE277A 		vmul.f32	s15, s14, s15
 575              	.LBB180:
 576              	.LBB136:
 577              		.loc 2 234 0
 578 01f2 9FED2C7A 		vldr.32	s14, .L27+24
 579              	.LBE136:
 580              	.LBE180:
 581              		.loc 1 53 0
 582 01f6 C4ED007A 		vstr.32	s15, [r4]
 583              	.LVL39:
 584              	.LBB181:
 585              	.LBB137:
 586              		.loc 2 234 0
 587 01fa 27EE877A 		vmul.f32	s14, s15, s14
 588              	.LVL40:
 589              		.loc 2 235 0
 590 01fe FCEEC77A 		vcvt.u32.f32	s15, s14
 591              	.LVL41:
 592 0202 17EE900A 		vmov	r0, s15	@ int
 593              	.LVL42:
 594              	.LBB130:
 595              	.LBB131:
 596              		.loc 4 826 0
 597 0206 06EE100A 		vmov	s12, r0	@ int
 598 020a B8EE466A 		vcvt.f32.u32	s12, s12
 599              	.LBE131:
 600              	.LBE130:
 601              		.loc 2 236 0
 602 020e 01EB8005 		add	r5, r1, r0, lsl #2
 603 0212 D5ED007A 		vldr.32	s15, [r5]
 604              	.LVL43:
 605              	.LBB134:
 606              	.LBB132:
 607              		.loc 4 826 0
 608 0216 37EE467A 		vsub.f32	s14, s14, s12
 609              	.LVL44:
 610 021a 95ED016A 		vldr.32	s12, [r5, #4]
 611 021e 36EE676A 		vsub.f32	s12, s12, s15
 612              	.LBE132:
 613              	.LBE134:
 614              	.LBE137:
 615              	.LBE181:
 616              		.loc 1 57 0
 617 0222 03F11C05 		add	r5, r3, #28
 618              	.LBB182:
 619              	.LBB138:
 620              	.LBB135:
 621              	.LBB133:
 622              		.loc 4 826 0
 623 0226 E7EE067A 		vfma.f32	s15, s14, s12
 624              	.LVL45:
 625              	.LBE133:
 626              	.LBE135:
 627              	.LBE138:
ARM GAS  C:\msys64\tmp\cceMltjI.s 			page 12


 628              	.LBE182:
 629              		.loc 1 55 0
 630 022a 94ED016A 		vldr.32	s12, [r4, #4]
 631              	.LVL46:
 632              	.LBB183:
 633              	.LBB184:
 634              		.loc 3 235 0
 635 022e 26EE275A 		vmul.f32	s10, s12, s15
 636              	.LVL47:
 637              		.loc 3 236 0
 638 0232 B0EE677A 		vmov.f32	s14, s15
 639 0236 A5EE277A 		vfma.f32	s14, s10, s15
 640              	.LBE184:
 641              	.LBE183:
 642              		.loc 1 57 0
 643 023a 1C46     		mov	r4, r3
 644              	.LBB186:
 645              	.LBB185:
 646              		.loc 3 236 0
 647 023c 37EE067A 		vadd.f32	s14, s14, s12
 648 0240 C6EE875A 		vdiv.f32	s11, s13, s14
 649              	.LVL48:
 650              		.loc 3 238 0
 651 0244 F8EE006A 		vmov.f32	s13, #-2.0e+0
 652              		.loc 3 237 0
 653 0248 26EE257A 		vmul.f32	s14, s12, s11
 654 024c 83ED027A 		vstr.32	s14, [r3, #8]
 655 0250 83ED007A 		vstr.32	s14, [r3]
 656              		.loc 3 238 0
 657 0254 27EE267A 		vmul.f32	s14, s14, s13
 658 0258 83ED017A 		vstr.32	s14, [r3, #4]
 659              		.loc 3 239 0
 660 025c B0EE467A 		vmov.f32	s14, s12
 661 0260 95EE277A 		vfnms.f32	s14, s10, s15
 662              		.loc 3 240 0
 663 0264 D5EE277A 		vfnms.f32	s15, s10, s15
 664              	.LVL49:
 665              		.loc 3 239 0
 666 0268 27EE257A 		vmul.f32	s14, s14, s11
 667              		.loc 3 240 0
 668 026c 77EE867A 		vadd.f32	s15, s15, s12
 669              		.loc 3 239 0
 670 0270 37EE077A 		vadd.f32	s14, s14, s14
 671              		.loc 3 240 0
 672 0274 67EEA57A 		vmul.f32	s15, s15, s11
 673              		.loc 3 239 0
 674 0278 83ED037A 		vstr.32	s14, [r3, #12]
 675              		.loc 3 240 0
 676 027c C3ED047A 		vstr.32	s15, [r3, #16]
 677              	.LVL50:
 678              	.LBE185:
 679              	.LBE186:
 680              		.loc 1 57 0
 681 0280 0FCC     		ldmia	r4!, {r0, r1, r2, r3}
 682 0282 0FC5     		stmia	r5!, {r0, r1, r2, r3}
 683 0284 2368     		ldr	r3, [r4]
 684 0286 2B60     		str	r3, [r5]
ARM GAS  C:\msys64\tmp\cceMltjI.s 			page 13


 685              	.L17:
 686 0288 30BD     		pop	{r4, r5, pc}
 687              	.L28:
 688 028a 00BF     		.align	2
 689              	.L27:
 690 028c 00000030 		.word	805306368
 691 0290 00000000 		.word	.LANCHOR1
 692 0294 00000000 		.word	tanpi_lut_f
 693 0298 00000000 		.word	.LANCHOR0
 694 029c 6F12833A 		.word	981668463
 695 02a0 8FC2F539 		.word	972407439
 696 02a4 BC9C0244 		.word	1141021884
 697              		.cfi_endproc
 698              	.LFE273:
 699              		.size	_hook_param, .-_hook_param
 700              		.section	.text.startup,"ax",%progbits
 701              		.align	1
 702              		.thumb
 703              		.thumb_func
 704              		.type	_GLOBAL__sub_I_curSampleL, %function
 705              	_GLOBAL__sub_I_curSampleL:
 706              	.LFB275:
 707              		.loc 1 67 0
 708              		.cfi_startproc
 709              		@ args = 0, pretend = 0, frame = 0
 710              		@ frame_needed = 0, uses_anonymous_args = 0
 711              		@ link register save eliminated.
 712              	.LVL51:
 713              	.LBB201:
 714              	.LBB202:
 715              	.LBB203:
 716              	.LBB204:
 717              	.LBB205:
 718              		.loc 3 77 0
 719 0000 084B     		ldr	r3, .L30
 720 0002 0022     		movs	r2, #0
 721 0004 1A60     		str	r2, [r3]	@ float
 722 0006 5A60     		str	r2, [r3, #4]	@ float
 723 0008 9A60     		str	r2, [r3, #8]	@ float
 724 000a DA60     		str	r2, [r3, #12]	@ float
 725 000c 1A61     		str	r2, [r3, #16]	@ float
 726              	.LVL52:
 727              	.LBE205:
 728              	.LBE204:
 729              		.loc 3 344 0
 730 000e 5A61     		str	r2, [r3, #20]	@ float
 731 0010 9A61     		str	r2, [r3, #24]	@ float
 732              	.LVL53:
 733              	.LBE203:
 734              	.LBE202:
 735              	.LBB206:
 736              	.LBB207:
 737              	.LBB208:
 738              	.LBB209:
 739              		.loc 3 77 0
 740 0012 DA61     		str	r2, [r3, #28]	@ float
 741 0014 1A62     		str	r2, [r3, #32]	@ float
ARM GAS  C:\msys64\tmp\cceMltjI.s 			page 14


 742 0016 5A62     		str	r2, [r3, #36]	@ float
 743 0018 9A62     		str	r2, [r3, #40]	@ float
 744 001a DA62     		str	r2, [r3, #44]	@ float
 745              	.LVL54:
 746              	.LBE209:
 747              	.LBE208:
 748              		.loc 3 344 0
 749 001c 1A63     		str	r2, [r3, #48]	@ float
 750 001e 5A63     		str	r2, [r3, #52]	@ float
 751              	.LVL55:
 752 0020 7047     		bx	lr
 753              	.L31:
 754 0022 00BF     		.align	2
 755              	.L30:
 756 0024 00000000 		.word	.LANCHOR0
 757              	.LBE207:
 758              	.LBE206:
 759              	.LBE201:
 760              		.cfi_endproc
 761              	.LFE275:
 762              		.size	_GLOBAL__sub_I_curSampleL, .-_GLOBAL__sub_I_curSampleL
 763              		.section	.init_array,"aw",%init_array
 764              		.align	2
 765 0000 00000000 		.word	_GLOBAL__sub_I_curSampleL(target1)
 766              		.global	cutoff
 767              		.global	resonance
 768              		.global	curSampleR
 769              		.global	curSampleL
 770              		.data
 771              		.align	2
 772              		.set	.LANCHOR1,. + 0
 773              		.type	cutoff, %object
 774              		.size	cutoff, 4
 775              	cutoff:
 776 0000 48E1FA3E 		.word	1056629064
 777              		.type	resonance, %object
 778              		.size	resonance, 4
 779              	resonance:
 780 0004 8CB9B33F 		.word	1068743052
 781              		.bss
 782              		.align	2
 783              		.set	.LANCHOR0,. + 0
 784              		.type	_ZL8filter_l, %object
 785              		.size	_ZL8filter_l, 28
 786              	_ZL8filter_l:
 787 0000 00000000 		.space	28
 787      00000000 
 787      00000000 
 787      00000000 
 787      00000000 
 788              		.type	_ZL8filter_r, %object
 789              		.size	_ZL8filter_r, 28
 790              	_ZL8filter_r:
 791 001c 00000000 		.space	28
 791      00000000 
 791      00000000 
 791      00000000 
ARM GAS  C:\msys64\tmp\cceMltjI.s 			page 15


 791      00000000 
 792              		.type	curSampleL, %object
 793              		.size	curSampleL, 4
 794              	curSampleL:
 795 0038 00000000 		.space	4
 796              		.type	curSampleR, %object
 797              		.size	curSampleR, 4
 798              	curSampleR:
 799 003c 00000000 		.space	4
 800              		.text
 801              	.Letext0:
 802              		.file 5 "c:\\users\\bradl\\desktop\\code projects\\korgfx\\korgdelayfxset\\delays\\tools\\gcc\\gcc
 803              		.file 6 "c:\\users\\bradl\\desktop\\code projects\\korgfx\\korgdelayfxset\\delays\\tools\\gcc\\gcc
 804              		.file 7 "./inc/userprg.h"
 805              		.section	.debug_info,"",%progbits
 806              	.Ldebug_info0:
 807 0000 470C0000 		.4byte	0xc47
 808 0004 0400     		.2byte	0x4
 809 0006 00000000 		.4byte	.Ldebug_abbrev0
 810 000a 04       		.byte	0x4
 811 000b 01       		.uleb128 0x1
 812 000c AC000000 		.4byte	.LASF106
 813 0010 04       		.byte	0x4
 814 0011 47060000 		.4byte	.LASF107
 815 0015 15000000 		.4byte	.LASF108
 816 0019 38020000 		.4byte	.Ldebug_ranges0+0x238
 817 001d 00000000 		.4byte	0
 818 0021 00000000 		.4byte	.Ldebug_line0
 819 0025 02       		.uleb128 0x2
 820 0026 04       		.byte	0x4
 821 0027 04       		.byte	0x4
 822 0028 69020000 		.4byte	.LASF0
 823 002c 03       		.uleb128 0x3
 824 002d 04       		.byte	0x4
 825 002e 05       		.byte	0x5
 826 002f 696E7400 		.ascii	"int\000"
 827 0033 02       		.uleb128 0x2
 828 0034 04       		.byte	0x4
 829 0035 07       		.byte	0x7
 830 0036 C4010000 		.4byte	.LASF1
 831 003a 02       		.uleb128 0x2
 832 003b 01       		.byte	0x1
 833 003c 06       		.byte	0x6
 834 003d C5070000 		.4byte	.LASF2
 835 0041 04       		.uleb128 0x4
 836 0042 55060000 		.4byte	.LASF6
 837 0046 05       		.byte	0x5
 838 0047 1D       		.byte	0x1d
 839 0048 4C000000 		.4byte	0x4c
 840 004c 02       		.uleb128 0x2
 841 004d 01       		.byte	0x1
 842 004e 08       		.byte	0x8
 843 004f 0C070000 		.4byte	.LASF3
 844 0053 02       		.uleb128 0x2
 845 0054 02       		.byte	0x2
 846 0055 05       		.byte	0x5
 847 0056 94050000 		.4byte	.LASF4
ARM GAS  C:\msys64\tmp\cceMltjI.s 			page 16


 848 005a 02       		.uleb128 0x2
 849 005b 02       		.byte	0x2
 850 005c 07       		.byte	0x7
 851 005d D1070000 		.4byte	.LASF5
 852 0061 04       		.uleb128 0x4
 853 0062 E6010000 		.4byte	.LASF7
 854 0066 05       		.byte	0x5
 855 0067 3F       		.byte	0x3f
 856 0068 6C000000 		.4byte	0x6c
 857 006c 02       		.uleb128 0x2
 858 006d 04       		.byte	0x4
 859 006e 05       		.byte	0x5
 860 006f AD050000 		.4byte	.LASF8
 861 0073 04       		.uleb128 0x4
 862 0074 23070000 		.4byte	.LASF9
 863 0078 05       		.byte	0x5
 864 0079 41       		.byte	0x41
 865 007a 7E000000 		.4byte	0x7e
 866 007e 02       		.uleb128 0x2
 867 007f 04       		.byte	0x4
 868 0080 07       		.byte	0x7
 869 0081 9B060000 		.4byte	.LASF10
 870 0085 02       		.uleb128 0x2
 871 0086 08       		.byte	0x8
 872 0087 05       		.byte	0x5
 873 0088 3F040000 		.4byte	.LASF11
 874 008c 02       		.uleb128 0x2
 875 008d 08       		.byte	0x8
 876 008e 07       		.byte	0x7
 877 008f 89020000 		.4byte	.LASF12
 878 0093 04       		.uleb128 0x4
 879 0094 FA030000 		.4byte	.LASF13
 880 0098 06       		.byte	0x6
 881 0099 18       		.byte	0x18
 882 009a 41000000 		.4byte	0x41
 883 009e 04       		.uleb128 0x4
 884 009f BB060000 		.4byte	.LASF14
 885 00a3 06       		.byte	0x6
 886 00a4 2C       		.byte	0x2c
 887 00a5 61000000 		.4byte	0x61
 888 00a9 04       		.uleb128 0x4
 889 00aa 5B020000 		.4byte	.LASF15
 890 00ae 06       		.byte	0x6
 891 00af 30       		.byte	0x30
 892 00b0 73000000 		.4byte	0x73
 893 00b4 02       		.uleb128 0x2
 894 00b5 08       		.byte	0x8
 895 00b6 04       		.byte	0x4
 896 00b7 07050000 		.4byte	.LASF16
 897 00bb 05       		.uleb128 0x5
 898 00bc 62070000 		.4byte	.LASF109
 899 00c0 02       		.uleb128 0x2
 900 00c1 04       		.byte	0x4
 901 00c2 07       		.byte	0x7
 902 00c3 92060000 		.4byte	.LASF17
 903 00c7 02       		.uleb128 0x2
 904 00c8 01       		.byte	0x1
ARM GAS  C:\msys64\tmp\cceMltjI.s 			page 17


 905 00c9 08       		.byte	0x8
 906 00ca 99030000 		.4byte	.LASF18
 907 00ce 02       		.uleb128 0x2
 908 00cf 08       		.byte	0x8
 909 00d0 04       		.byte	0x4
 910 00d1 F4070000 		.4byte	.LASF19
 911 00d5 06       		.uleb128 0x6
 912 00d6 01       		.byte	0x1
 913 00d7 4C000000 		.4byte	0x4c
 914 00db 07       		.byte	0x7
 915 00dc 35       		.byte	0x35
 916 00dd 06010000 		.4byte	0x106
 917 00e1 07       		.uleb128 0x7
 918 00e2 42070000 		.4byte	.LASF20
 919 00e6 00       		.byte	0
 920 00e7 07       		.uleb128 0x7
 921 00e8 C7050000 		.4byte	.LASF21
 922 00ec 01       		.byte	0x1
 923 00ed 07       		.uleb128 0x7
 924 00ee 75020000 		.4byte	.LASF22
 925 00f2 02       		.byte	0x2
 926 00f3 07       		.uleb128 0x7
 927 00f4 1D030000 		.4byte	.LASF23
 928 00f8 03       		.byte	0x3
 929 00f9 07       		.uleb128 0x7
 930 00fa F5040000 		.4byte	.LASF24
 931 00fe 04       		.byte	0x4
 932 00ff 07       		.uleb128 0x7
 933 0100 5E040000 		.4byte	.LASF25
 934 0104 05       		.byte	0x5
 935 0105 00       		.byte	0
 936 0106 08       		.uleb128 0x8
 937 0107 04       		.byte	0x4
 938 0108 0C010000 		.4byte	0x10c
 939 010c 09       		.uleb128 0x9
 940 010d 25000000 		.4byte	0x25
 941 0111 08       		.uleb128 0x8
 942 0112 04       		.byte	0x4
 943 0113 25000000 		.4byte	0x25
 944 0117 0A       		.uleb128 0xa
 945 0118 64737000 		.ascii	"dsp\000"
 946 011c 03       		.byte	0x3
 947 011d 31       		.byte	0x31
 948 011e 64040000 		.4byte	0x464
 949 0122 0B       		.uleb128 0xb
 950 0123 BB030000 		.4byte	.LASF56
 951 0127 1C       		.byte	0x1c
 952 0128 03       		.byte	0x3
 953 0129 36       		.byte	0x36
 954 012a 0C       		.uleb128 0xc
 955 012b BE070000 		.4byte	.LASF54
 956 012f 14       		.byte	0x14
 957 0130 03       		.byte	0x3
 958 0131 41       		.byte	0x41
 959 0132 92030000 		.4byte	0x392
 960 0136 0D       		.uleb128 0xd
 961 0137 66663000 		.ascii	"ff0\000"
ARM GAS  C:\msys64\tmp\cceMltjI.s 			page 18


 962 013b 03       		.byte	0x3
 963 013c 42       		.byte	0x42
 964 013d 25000000 		.4byte	0x25
 965 0141 00       		.byte	0
 966 0142 0D       		.uleb128 0xd
 967 0143 66663100 		.ascii	"ff1\000"
 968 0147 03       		.byte	0x3
 969 0148 43       		.byte	0x43
 970 0149 25000000 		.4byte	0x25
 971 014d 04       		.byte	0x4
 972 014e 0D       		.uleb128 0xd
 973 014f 66663200 		.ascii	"ff2\000"
 974 0153 03       		.byte	0x3
 975 0154 44       		.byte	0x44
 976 0155 25000000 		.4byte	0x25
 977 0159 08       		.byte	0x8
 978 015a 0D       		.uleb128 0xd
 979 015b 66623100 		.ascii	"fb1\000"
 980 015f 03       		.byte	0x3
 981 0160 45       		.byte	0x45
 982 0161 25000000 		.4byte	0x25
 983 0165 0C       		.byte	0xc
 984 0166 0D       		.uleb128 0xd
 985 0167 66623200 		.ascii	"fb2\000"
 986 016b 03       		.byte	0x3
 987 016c 46       		.byte	0x46
 988 016d 25000000 		.4byte	0x25
 989 0171 10       		.byte	0x10
 990 0172 0E       		.uleb128 0xe
 991 0173 BE070000 		.4byte	.LASF54
 992 0177 03       		.byte	0x3
 993 0178 4B       		.byte	0x4b
 994 0179 FB070000 		.4byte	.LASF110
 995 017d 64040000 		.4byte	0x464
 996 0181 89010000 		.4byte	0x189
 997 0185 8F010000 		.4byte	0x18f
 998 0189 0F       		.uleb128 0xf
 999 018a 64040000 		.4byte	0x464
 1000 018e 00       		.byte	0
 1001 018f 10       		.uleb128 0x10
 1002 0190 776300   		.ascii	"wc\000"
 1003 0193 03       		.byte	0x3
 1004 0194 59       		.byte	0x59
 1005 0195 01030000 		.4byte	.LASF111
 1006 0199 25000000 		.4byte	0x25
 1007 019d AC010000 		.4byte	0x1ac
 1008 01a1 11       		.uleb128 0x11
 1009 01a2 25000000 		.4byte	0x25
 1010 01a6 11       		.uleb128 0x11
 1011 01a7 25000000 		.4byte	0x25
 1012 01ab 00       		.byte	0
 1013 01ac 12       		.uleb128 0x12
 1014 01ad A8040000 		.4byte	.LASF26
 1015 01b1 03       		.byte	0x3
 1016 01b2 65       		.byte	0x65
 1017 01b3 74070000 		.4byte	.LASF28
 1018 01b7 BF010000 		.4byte	0x1bf
ARM GAS  C:\msys64\tmp\cceMltjI.s 			page 19


 1019 01bb CA010000 		.4byte	0x1ca
 1020 01bf 0F       		.uleb128 0xf
 1021 01c0 64040000 		.4byte	0x464
 1022 01c4 11       		.uleb128 0x11
 1023 01c5 25000000 		.4byte	0x25
 1024 01c9 00       		.byte	0
 1025 01ca 12       		.uleb128 0x12
 1026 01cb E2020000 		.4byte	.LASF27
 1027 01cf 03       		.byte	0x3
 1028 01d0 71       		.byte	0x71
 1029 01d1 7E040000 		.4byte	.LASF29
 1030 01d5 DD010000 		.4byte	0x1dd
 1031 01d9 E8010000 		.4byte	0x1e8
 1032 01dd 0F       		.uleb128 0xf
 1033 01de 64040000 		.4byte	0x464
 1034 01e2 11       		.uleb128 0x11
 1035 01e3 25000000 		.4byte	0x25
 1036 01e7 00       		.byte	0
 1037 01e8 12       		.uleb128 0x12
 1038 01e9 A0040000 		.4byte	.LASF30
 1039 01ed 03       		.byte	0x3
 1040 01ee 7D       		.byte	0x7d
 1041 01ef A0020000 		.4byte	.LASF31
 1042 01f3 FB010000 		.4byte	0x1fb
 1043 01f7 06020000 		.4byte	0x206
 1044 01fb 0F       		.uleb128 0xf
 1045 01fc 64040000 		.4byte	0x464
 1046 0200 11       		.uleb128 0x11
 1047 0201 25000000 		.4byte	0x25
 1048 0205 00       		.byte	0
 1049 0206 12       		.uleb128 0x12
 1050 0207 DE010000 		.4byte	.LASF32
 1051 020b 03       		.byte	0x3
 1052 020c 8A       		.byte	0x8a
 1053 020d 7C000000 		.4byte	.LASF33
 1054 0211 19020000 		.4byte	0x219
 1055 0215 24020000 		.4byte	0x224
 1056 0219 0F       		.uleb128 0xf
 1057 021a 64040000 		.4byte	0x464
 1058 021e 11       		.uleb128 0x11
 1059 021f 25000000 		.4byte	0x25
 1060 0223 00       		.byte	0
 1061 0224 12       		.uleb128 0x12
 1062 0225 04070000 		.4byte	.LASF34
 1063 0229 03       		.byte	0x3
 1064 022a 98       		.byte	0x98
 1065 022b C3060000 		.4byte	.LASF35
 1066 022f 37020000 		.4byte	0x237
 1067 0233 42020000 		.4byte	0x242
 1068 0237 0F       		.uleb128 0xf
 1069 0238 64040000 		.4byte	0x464
 1070 023c 11       		.uleb128 0x11
 1071 023d 25000000 		.4byte	0x25
 1072 0241 00       		.byte	0
 1073 0242 12       		.uleb128 0x12
 1074 0243 44030000 		.4byte	.LASF36
 1075 0247 03       		.byte	0x3
ARM GAS  C:\msys64\tmp\cceMltjI.s 			page 20


 1076 0248 A8       		.byte	0xa8
 1077 0249 DB050000 		.4byte	.LASF37
 1078 024d 55020000 		.4byte	0x255
 1079 0251 60020000 		.4byte	0x260
 1080 0255 0F       		.uleb128 0xf
 1081 0256 64040000 		.4byte	0x464
 1082 025a 11       		.uleb128 0x11
 1083 025b 25000000 		.4byte	0x25
 1084 025f 00       		.byte	0
 1085 0260 12       		.uleb128 0x12
 1086 0261 00000000 		.4byte	.LASF38
 1087 0265 03       		.byte	0x3
 1088 0266 B9       		.byte	0xb9
 1089 0267 5A050000 		.4byte	.LASF39
 1090 026b 73020000 		.4byte	0x273
 1091 026f 7E020000 		.4byte	0x27e
 1092 0273 0F       		.uleb128 0xf
 1093 0274 64040000 		.4byte	0x464
 1094 0278 11       		.uleb128 0x11
 1095 0279 25000000 		.4byte	0x25
 1096 027d 00       		.byte	0
 1097 027e 12       		.uleb128 0x12
 1098 027f 9C000000 		.4byte	.LASF40
 1099 0283 03       		.byte	0x3
 1100 0284 C8       		.byte	0xc8
 1101 0285 03020000 		.4byte	.LASF41
 1102 0289 91020000 		.4byte	0x291
 1103 028d 9C020000 		.4byte	0x29c
 1104 0291 0F       		.uleb128 0xf
 1105 0292 64040000 		.4byte	0x464
 1106 0296 11       		.uleb128 0x11
 1107 0297 25000000 		.4byte	0x25
 1108 029b 00       		.byte	0
 1109 029c 12       		.uleb128 0x12
 1110 029d E6040000 		.4byte	.LASF42
 1111 02a1 03       		.byte	0x3
 1112 02a2 D6       		.byte	0xd6
 1113 02a3 15080000 		.4byte	.LASF43
 1114 02a7 AF020000 		.4byte	0x2af
 1115 02ab BF020000 		.4byte	0x2bf
 1116 02af 0F       		.uleb128 0xf
 1117 02b0 64040000 		.4byte	0x464
 1118 02b4 11       		.uleb128 0x11
 1119 02b5 25000000 		.4byte	0x25
 1120 02b9 11       		.uleb128 0x11
 1121 02ba 25000000 		.4byte	0x25
 1122 02be 00       		.byte	0
 1123 02bf 12       		.uleb128 0x12
 1124 02c0 31030000 		.4byte	.LASF44
 1125 02c4 03       		.byte	0x3
 1126 02c5 E8       		.byte	0xe8
 1127 02c6 15040000 		.4byte	.LASF45
 1128 02ca D2020000 		.4byte	0x2d2
 1129 02ce E2020000 		.4byte	0x2e2
 1130 02d2 0F       		.uleb128 0xf
 1131 02d3 64040000 		.4byte	0x464
 1132 02d7 11       		.uleb128 0x11
ARM GAS  C:\msys64\tmp\cceMltjI.s 			page 21


 1133 02d8 25000000 		.4byte	0x25
 1134 02dc 11       		.uleb128 0x11
 1135 02dd 25000000 		.4byte	0x25
 1136 02e1 00       		.byte	0
 1137 02e2 12       		.uleb128 0x12
 1138 02e3 E4070000 		.4byte	.LASF46
 1139 02e7 03       		.byte	0x3
 1140 02e8 FA       		.byte	0xfa
 1141 02e9 B8040000 		.4byte	.LASF47
 1142 02ed F5020000 		.4byte	0x2f5
 1143 02f1 05030000 		.4byte	0x305
 1144 02f5 0F       		.uleb128 0xf
 1145 02f6 64040000 		.4byte	0x464
 1146 02fa 11       		.uleb128 0x11
 1147 02fb 25000000 		.4byte	0x25
 1148 02ff 11       		.uleb128 0x11
 1149 0300 25000000 		.4byte	0x25
 1150 0304 00       		.byte	0
 1151 0305 13       		.uleb128 0x13
 1152 0306 EC070000 		.4byte	.LASF48
 1153 030a 03       		.byte	0x3
 1154 030b 0D01     		.2byte	0x10d
 1155 030d 1B060000 		.4byte	.LASF50
 1156 0311 19030000 		.4byte	0x319
 1157 0315 29030000 		.4byte	0x329
 1158 0319 0F       		.uleb128 0xf
 1159 031a 64040000 		.4byte	0x464
 1160 031e 11       		.uleb128 0x11
 1161 031f 25000000 		.4byte	0x25
 1162 0323 11       		.uleb128 0x11
 1163 0324 25000000 		.4byte	0x25
 1164 0328 00       		.byte	0
 1165 0329 13       		.uleb128 0x13
 1166 032a 0C040000 		.4byte	.LASF49
 1167 032e 03       		.byte	0x3
 1168 032f 1E01     		.2byte	0x11e
 1169 0331 C0020000 		.4byte	.LASF51
 1170 0335 3D030000 		.4byte	0x33d
 1171 0339 4D030000 		.4byte	0x34d
 1172 033d 0F       		.uleb128 0xf
 1173 033e 64040000 		.4byte	0x464
 1174 0342 11       		.uleb128 0x11
 1175 0343 25000000 		.4byte	0x25
 1176 0347 11       		.uleb128 0x11
 1177 0348 25000000 		.4byte	0x25
 1178 034c 00       		.byte	0
 1179 034d 13       		.uleb128 0x13
 1180 034e 5F060000 		.4byte	.LASF52
 1181 0352 03       		.byte	0x3
 1182 0353 3201     		.2byte	0x132
 1183 0355 2F020000 		.4byte	.LASF53
 1184 0359 61030000 		.4byte	0x361
 1185 035d 71030000 		.4byte	0x371
 1186 0361 0F       		.uleb128 0xf
 1187 0362 64040000 		.4byte	0x464
 1188 0366 11       		.uleb128 0x11
 1189 0367 25000000 		.4byte	0x25
ARM GAS  C:\msys64\tmp\cceMltjI.s 			page 22


 1190 036b 11       		.uleb128 0x11
 1191 036c 25000000 		.4byte	0x25
 1192 0370 00       		.byte	0
 1193 0371 14       		.uleb128 0x14
 1194 0372 36040000 		.4byte	.LASF112
 1195 0376 03       		.byte	0x3
 1196 0377 4501     		.2byte	0x145
 1197 0379 C2030000 		.4byte	.LASF113
 1198 037d 81030000 		.4byte	0x381
 1199 0381 0F       		.uleb128 0xf
 1200 0382 64040000 		.4byte	0x464
 1201 0386 11       		.uleb128 0x11
 1202 0387 25000000 		.4byte	0x25
 1203 038b 11       		.uleb128 0x11
 1204 038c 25000000 		.4byte	0x25
 1205 0390 00       		.byte	0
 1206 0391 00       		.byte	0
 1207 0392 15       		.uleb128 0x15
 1208 0393 BE070000 		.4byte	.LASF54
 1209 0397 03       		.byte	0x3
 1210 0398 4F01     		.2byte	0x14f
 1211 039a 2A010000 		.4byte	0x12a
 1212 039e 16       		.uleb128 0x16
 1213 039f 52050000 		.4byte	.LASF55
 1214 03a3 03       		.byte	0x3
 1215 03a4 9801     		.2byte	0x198
 1216 03a6 92030000 		.4byte	0x392
 1217 03aa 00       		.byte	0
 1218 03ab 17       		.uleb128 0x17
 1219 03ac 6D5A3100 		.ascii	"mZ1\000"
 1220 03b0 03       		.byte	0x3
 1221 03b1 9901     		.2byte	0x199
 1222 03b3 25000000 		.4byte	0x25
 1223 03b7 14       		.byte	0x14
 1224 03b8 17       		.uleb128 0x17
 1225 03b9 6D5A3200 		.ascii	"mZ2\000"
 1226 03bd 03       		.byte	0x3
 1227 03be 9901     		.2byte	0x199
 1228 03c0 25000000 		.4byte	0x25
 1229 03c4 18       		.byte	0x18
 1230 03c5 18       		.uleb128 0x18
 1231 03c6 BB030000 		.4byte	.LASF56
 1232 03ca 03       		.byte	0x3
 1233 03cb 5801     		.2byte	0x158
 1234 03cd 4C030000 		.4byte	.LASF60
 1235 03d1 6A040000 		.4byte	0x46a
 1236 03d5 DD030000 		.4byte	0x3dd
 1237 03d9 E3030000 		.4byte	0x3e3
 1238 03dd 0F       		.uleb128 0xf
 1239 03de 6A040000 		.4byte	0x46a
 1240 03e2 00       		.byte	0
 1241 03e3 13       		.uleb128 0x13
 1242 03e4 6D060000 		.4byte	.LASF57
 1243 03e8 03       		.byte	0x3
 1244 03e9 6301     		.2byte	0x163
 1245 03eb 04060000 		.4byte	.LASF58
 1246 03ef F7030000 		.4byte	0x3f7
ARM GAS  C:\msys64\tmp\cceMltjI.s 			page 23


 1247 03f3 FD030000 		.4byte	0x3fd
 1248 03f7 0F       		.uleb128 0xf
 1249 03f8 6A040000 		.4byte	0x46a
 1250 03fc 00       		.byte	0
 1251 03fd 18       		.uleb128 0x18
 1252 03fe 3C060000 		.4byte	.LASF59
 1253 0402 03       		.byte	0x3
 1254 0403 6F01     		.2byte	0x16f
 1255 0405 6B030000 		.4byte	.LASF61
 1256 0409 25000000 		.4byte	0x25
 1257 040d 15040000 		.4byte	0x415
 1258 0411 20040000 		.4byte	0x420
 1259 0415 0F       		.uleb128 0xf
 1260 0416 6A040000 		.4byte	0x46a
 1261 041a 11       		.uleb128 0x11
 1262 041b 25000000 		.4byte	0x25
 1263 041f 00       		.byte	0
 1264 0420 18       		.uleb128 0x18
 1265 0421 96070000 		.4byte	.LASF62
 1266 0425 03       		.byte	0x3
 1267 0426 8001     		.2byte	0x180
 1268 0428 A1070000 		.4byte	.LASF63
 1269 042c 25000000 		.4byte	0x25
 1270 0430 38040000 		.4byte	0x438
 1271 0434 43040000 		.4byte	0x443
 1272 0438 0F       		.uleb128 0xf
 1273 0439 6A040000 		.4byte	0x46a
 1274 043d 11       		.uleb128 0x11
 1275 043e 25000000 		.4byte	0x25
 1276 0442 00       		.byte	0
 1277 0443 19       		.uleb128 0x19
 1278 0444 A4000000 		.4byte	.LASF64
 1279 0448 03       		.byte	0x3
 1280 0449 8F01     		.2byte	0x18f
 1281 044b EB060000 		.4byte	.LASF65
 1282 044f 25000000 		.4byte	0x25
 1283 0453 57040000 		.4byte	0x457
 1284 0457 0F       		.uleb128 0xf
 1285 0458 6A040000 		.4byte	0x46a
 1286 045c 11       		.uleb128 0x11
 1287 045d 25000000 		.4byte	0x25
 1288 0461 00       		.byte	0
 1289 0462 00       		.byte	0
 1290 0463 00       		.byte	0
 1291 0464 08       		.uleb128 0x8
 1292 0465 04       		.byte	0x4
 1293 0466 2A010000 		.4byte	0x12a
 1294 046a 08       		.uleb128 0x8
 1295 046b 04       		.byte	0x4
 1296 046c 22010000 		.4byte	0x122
 1297 0470 1A       		.uleb128 0x1a
 1298 0471 68060000 		.4byte	.LASF66
 1299 0475 04       		.byte	0x4
 1300 0476 C0       		.byte	0xc0
 1301 0477 25000000 		.4byte	0x25
 1302 047b 03       		.byte	0x3
 1303 047c 9C040000 		.4byte	0x49c
ARM GAS  C:\msys64\tmp\cceMltjI.s 			page 24


 1304 0480 1B       		.uleb128 0x1b
 1305 0481 6100     		.ascii	"a\000"
 1306 0483 04       		.byte	0x4
 1307 0484 C0       		.byte	0xc0
 1308 0485 0C010000 		.4byte	0x10c
 1309 0489 1B       		.uleb128 0x1b
 1310 048a 6200     		.ascii	"b\000"
 1311 048c 04       		.byte	0x4
 1312 048d C0       		.byte	0xc0
 1313 048e 0C010000 		.4byte	0x10c
 1314 0492 1B       		.uleb128 0x1b
 1315 0493 6300     		.ascii	"c\000"
 1316 0495 04       		.byte	0x4
 1317 0496 C0       		.byte	0xc0
 1318 0497 0C010000 		.4byte	0x10c
 1319 049b 00       		.byte	0
 1320 049c 1C       		.uleb128 0x1c
 1321 049d 51020000 		.4byte	.LASF67
 1322 04a1 04       		.byte	0x4
 1323 04a2 3C01     		.2byte	0x13c
 1324 04a4 25000000 		.4byte	0x25
 1325 04a8 03       		.byte	0x3
 1326 04a9 D0040000 		.4byte	0x4d0
 1327 04ad 1D       		.uleb128 0x1d
 1328 04ae 6D696E00 		.ascii	"min\000"
 1329 04b2 04       		.byte	0x4
 1330 04b3 3C01     		.2byte	0x13c
 1331 04b5 0C010000 		.4byte	0x10c
 1332 04b9 1D       		.uleb128 0x1d
 1333 04ba 7800     		.ascii	"x\000"
 1334 04bc 04       		.byte	0x4
 1335 04bd 3C01     		.2byte	0x13c
 1336 04bf 25000000 		.4byte	0x25
 1337 04c3 1D       		.uleb128 0x1d
 1338 04c4 6D617800 		.ascii	"max\000"
 1339 04c8 04       		.byte	0x4
 1340 04c9 3C01     		.2byte	0x13c
 1341 04cb 0C010000 		.4byte	0x10c
 1342 04cf 00       		.byte	0
 1343 04d0 1C       		.uleb128 0x1c
 1344 04d1 E3060000 		.4byte	.LASF68
 1345 04d5 04       		.byte	0x4
 1346 04d6 3903     		.2byte	0x339
 1347 04d8 25000000 		.4byte	0x25
 1348 04dc 03       		.byte	0x3
 1349 04dd 03050000 		.4byte	0x503
 1350 04e1 1D       		.uleb128 0x1d
 1351 04e2 667200   		.ascii	"fr\000"
 1352 04e5 04       		.byte	0x4
 1353 04e6 3903     		.2byte	0x339
 1354 04e8 0C010000 		.4byte	0x10c
 1355 04ec 1D       		.uleb128 0x1d
 1356 04ed 783000   		.ascii	"x0\000"
 1357 04f0 04       		.byte	0x4
 1358 04f1 3903     		.2byte	0x339
 1359 04f3 0C010000 		.4byte	0x10c
 1360 04f7 1D       		.uleb128 0x1d
ARM GAS  C:\msys64\tmp\cceMltjI.s 			page 25


 1361 04f8 783100   		.ascii	"x1\000"
 1362 04fb 04       		.byte	0x4
 1363 04fc 3903     		.2byte	0x339
 1364 04fe 0C010000 		.4byte	0x10c
 1365 0502 00       		.byte	0
 1366 0503 1E       		.uleb128 0x1e
 1367 0504 E3030000 		.4byte	0x3e3
 1368 0508 03       		.byte	0x3
 1369 0509 11050000 		.4byte	0x511
 1370 050d 1B050000 		.4byte	0x51b
 1371 0511 1F       		.uleb128 0x1f
 1372 0512 13050000 		.4byte	.LASF69
 1373 0516 1B050000 		.4byte	0x51b
 1374 051a 00       		.byte	0
 1375 051b 09       		.uleb128 0x9
 1376 051c 6A040000 		.4byte	0x46a
 1377 0520 1E       		.uleb128 0x1e
 1378 0521 BF020000 		.4byte	0x2bf
 1379 0525 03       		.byte	0x3
 1380 0526 2E050000 		.4byte	0x52e
 1381 052a 60050000 		.4byte	0x560
 1382 052e 1F       		.uleb128 0x1f
 1383 052f 13050000 		.4byte	.LASF69
 1384 0533 60050000 		.4byte	0x560
 1385 0537 1B       		.uleb128 0x1b
 1386 0538 6B00     		.ascii	"k\000"
 1387 053a 03       		.byte	0x3
 1388 053b E8       		.byte	0xe8
 1389 053c 0C010000 		.4byte	0x10c
 1390 0540 1B       		.uleb128 0x1b
 1391 0541 7100     		.ascii	"q\000"
 1392 0543 03       		.byte	0x3
 1393 0544 E8       		.byte	0xe8
 1394 0545 0C010000 		.4byte	0x10c
 1395 0549 20       		.uleb128 0x20
 1396 054a 716B3200 		.ascii	"qk2\000"
 1397 054e 03       		.byte	0x3
 1398 054f EB       		.byte	0xeb
 1399 0550 0C010000 		.4byte	0x10c
 1400 0554 21       		.uleb128 0x21
 1401 0555 8F030000 		.4byte	.LASF70
 1402 0559 03       		.byte	0x3
 1403 055a EC       		.byte	0xec
 1404 055b 0C010000 		.4byte	0x10c
 1405 055f 00       		.byte	0
 1406 0560 09       		.uleb128 0x9
 1407 0561 64040000 		.4byte	0x464
 1408 0565 1A       		.uleb128 0x1a
 1409 0566 F9010000 		.4byte	.LASF71
 1410 056a 02       		.byte	0x2
 1411 056b E9       		.byte	0xe9
 1412 056c 25000000 		.4byte	0x25
 1413 0570 03       		.byte	0x3
 1414 0571 A9050000 		.4byte	0x5a9
 1415 0575 1B       		.uleb128 0x1b
 1416 0576 7800     		.ascii	"x\000"
 1417 0578 02       		.byte	0x2
ARM GAS  C:\msys64\tmp\cceMltjI.s 			page 26


 1418 0579 E9       		.byte	0xe9
 1419 057a 25000000 		.4byte	0x25
 1420 057e 21       		.uleb128 0x21
 1421 057f 8D060000 		.4byte	.LASF72
 1422 0583 02       		.byte	0x2
 1423 0584 EA       		.byte	0xea
 1424 0585 0C010000 		.4byte	0x10c
 1425 0589 20       		.uleb128 0x20
 1426 058a 69647800 		.ascii	"idx\000"
 1427 058e 02       		.byte	0x2
 1428 058f EB       		.byte	0xeb
 1429 0590 A9050000 		.4byte	0x5a9
 1430 0594 20       		.uleb128 0x20
 1431 0595 793000   		.ascii	"y0\000"
 1432 0598 02       		.byte	0x2
 1433 0599 EC       		.byte	0xec
 1434 059a 0C010000 		.4byte	0x10c
 1435 059e 20       		.uleb128 0x20
 1436 059f 793100   		.ascii	"y1\000"
 1437 05a2 02       		.byte	0x2
 1438 05a3 ED       		.byte	0xed
 1439 05a4 0C010000 		.4byte	0x10c
 1440 05a8 00       		.byte	0
 1441 05a9 09       		.uleb128 0x9
 1442 05aa A9000000 		.4byte	0xa9
 1443 05ae 1E       		.uleb128 0x1e
 1444 05af FD030000 		.4byte	0x3fd
 1445 05b3 03       		.byte	0x3
 1446 05b4 BC050000 		.4byte	0x5bc
 1447 05b8 DD050000 		.4byte	0x5dd
 1448 05bc 1F       		.uleb128 0x1f
 1449 05bd 13050000 		.4byte	.LASF69
 1450 05c1 1B050000 		.4byte	0x51b
 1451 05c5 1D       		.uleb128 0x1d
 1452 05c6 786E00   		.ascii	"xn\000"
 1453 05c9 03       		.byte	0x3
 1454 05ca 6F01     		.2byte	0x16f
 1455 05cc 0C010000 		.4byte	0x10c
 1456 05d0 22       		.uleb128 0x22
 1457 05d1 61636300 		.ascii	"acc\000"
 1458 05d5 03       		.byte	0x3
 1459 05d6 7001     		.2byte	0x170
 1460 05d8 25000000 		.4byte	0x25
 1461 05dc 00       		.byte	0
 1462 05dd 1C       		.uleb128 0x1c
 1463 05de 5F030000 		.4byte	.LASF73
 1464 05e2 04       		.byte	0x4
 1465 05e3 9101     		.2byte	0x191
 1466 05e5 25000000 		.4byte	0x25
 1467 05e9 03       		.byte	0x3
 1468 05ea 11060000 		.4byte	0x611
 1469 05ee 1D       		.uleb128 0x1d
 1470 05ef 6D696E00 		.ascii	"min\000"
 1471 05f3 04       		.byte	0x4
 1472 05f4 9101     		.2byte	0x191
 1473 05f6 0C010000 		.4byte	0x10c
 1474 05fa 1D       		.uleb128 0x1d
ARM GAS  C:\msys64\tmp\cceMltjI.s 			page 27


 1475 05fb 7800     		.ascii	"x\000"
 1476 05fd 04       		.byte	0x4
 1477 05fe 9101     		.2byte	0x191
 1478 0600 0C010000 		.4byte	0x10c
 1479 0604 1D       		.uleb128 0x1d
 1480 0605 6D617800 		.ascii	"max\000"
 1481 0609 04       		.byte	0x4
 1482 060a 9101     		.2byte	0x191
 1483 060c 0C010000 		.4byte	0x10c
 1484 0610 00       		.byte	0
 1485 0611 23       		.uleb128 0x23
 1486 0612 FB050000 		.4byte	.LASF74
 1487 0616 01       		.byte	0x1
 1488 0617 13       		.byte	0x13
 1489 0618 71040000 		.4byte	.LASF75
 1490 061c 25000000 		.4byte	0x25
 1491 0620 01       		.byte	0x1
 1492 0621 31060000 		.4byte	0x631
 1493 0625 24       		.uleb128 0x24
 1494 0626 64020000 		.4byte	.LASF76
 1495 062a 01       		.byte	0x1
 1496 062b 13       		.byte	0x13
 1497 062c 25000000 		.4byte	0x25
 1498 0630 00       		.byte	0
 1499 0631 25       		.uleb128 0x25
 1500 0632 28050000 		.4byte	.LASF114
 1501 0636 01       		.byte	0x1
 1502 0637 52060000 		.4byte	0x652
 1503 063b 24       		.uleb128 0x24
 1504 063c F2020000 		.4byte	.LASF77
 1505 0640 01       		.byte	0x1
 1506 0641 43       		.byte	0x43
 1507 0642 2C000000 		.4byte	0x2c
 1508 0646 24       		.uleb128 0x24
 1509 0647 39030000 		.4byte	.LASF78
 1510 064b 01       		.byte	0x1
 1511 064c 43       		.byte	0x43
 1512 064d 2C000000 		.4byte	0x2c
 1513 0651 00       		.byte	0
 1514 0652 26       		.uleb128 0x26
 1515 0653 89050000 		.4byte	.LASF79
 1516 0657 01       		.byte	0x1
 1517 0658 0B       		.byte	0xb
 1518 0659 00000000 		.4byte	.LFB270
 1519 065d C0000000 		.4byte	.LFE270-.LFB270
 1520 0661 01       		.uleb128 0x1
 1521 0662 9C       		.byte	0x9c
 1522 0663 60070000 		.4byte	0x760
 1523 0667 27       		.uleb128 0x27
 1524 0668 F0010000 		.4byte	.LASF80
 1525 066c 01       		.byte	0x1
 1526 066d 0B       		.byte	0xb
 1527 066e A9000000 		.4byte	0xa9
 1528 0672 00000000 		.4byte	.LLST0
 1529 0676 28       		.uleb128 0x28
 1530 0677 61706900 		.ascii	"api\000"
 1531 067b 01       		.byte	0x1
ARM GAS  C:\msys64\tmp\cceMltjI.s 			page 28


 1532 067c 0B       		.byte	0xb
 1533 067d A9000000 		.4byte	0xa9
 1534 0681 21000000 		.4byte	.LLST1
 1535 0685 29       		.uleb128 0x29
 1536 0686 65050000 		.4byte	0x565
 1537 068a 04000000 		.4byte	.LBB67
 1538 068e 00000000 		.4byte	.Ldebug_ranges0+0
 1539 0692 01       		.byte	0x1
 1540 0693 0E       		.byte	0xe
 1541 0694 EA060000 		.4byte	0x6ea
 1542 0698 2A       		.uleb128 0x2a
 1543 0699 75050000 		.4byte	0x575
 1544 069d 42000000 		.4byte	.LLST2
 1545 06a1 2B       		.uleb128 0x2b
 1546 06a2 00000000 		.4byte	.Ldebug_ranges0+0
 1547 06a6 2C       		.uleb128 0x2c
 1548 06a7 7E050000 		.4byte	0x57e
 1549 06ab 02       		.uleb128 0x2
 1550 06ac 90       		.byte	0x90
 1551 06ad 4E       		.uleb128 0x4e
 1552 06ae 2D       		.uleb128 0x2d
 1553 06af 89050000 		.4byte	0x589
 1554 06b3 59000000 		.4byte	.LLST3
 1555 06b7 2D       		.uleb128 0x2d
 1556 06b8 94050000 		.4byte	0x594
 1557 06bc 6C000000 		.4byte	.LLST4
 1558 06c0 2E       		.uleb128 0x2e
 1559 06c1 9E050000 		.4byte	0x59e
 1560 06c5 2F       		.uleb128 0x2f
 1561 06c6 D0040000 		.4byte	0x4d0
 1562 06ca 22000000 		.4byte	.LBB69
 1563 06ce 40000000 		.4byte	.Ldebug_ranges0+0x40
 1564 06d2 02       		.byte	0x2
 1565 06d3 EE       		.byte	0xee
 1566 06d4 30       		.uleb128 0x30
 1567 06d5 F7040000 		.4byte	0x4f7
 1568 06d9 2A       		.uleb128 0x2a
 1569 06da EC040000 		.4byte	0x4ec
 1570 06de 6C000000 		.4byte	.LLST4
 1571 06e2 30       		.uleb128 0x30
 1572 06e3 E1040000 		.4byte	0x4e1
 1573 06e7 00       		.byte	0
 1574 06e8 00       		.byte	0
 1575 06e9 00       		.byte	0
 1576 06ea 29       		.uleb128 0x29
 1577 06eb 03050000 		.4byte	0x503
 1578 06ef 0E000000 		.4byte	.LBB83
 1579 06f3 68000000 		.4byte	.Ldebug_ranges0+0x68
 1580 06f7 01       		.byte	0x1
 1581 06f8 0D       		.byte	0xd
 1582 06f9 07070000 		.4byte	0x707
 1583 06fd 2A       		.uleb128 0x2a
 1584 06fe 11050000 		.4byte	0x511
 1585 0702 80000000 		.4byte	.LLST6
 1586 0706 00       		.byte	0
 1587 0707 29       		.uleb128 0x29
 1588 0708 20050000 		.4byte	0x520
ARM GAS  C:\msys64\tmp\cceMltjI.s 			page 29


 1589 070c 14000000 		.4byte	.LBB89
 1590 0710 90000000 		.4byte	.Ldebug_ranges0+0x90
 1591 0714 01       		.byte	0x1
 1592 0715 0E       		.byte	0xe
 1593 0716 4A070000 		.4byte	0x74a
 1594 071a 2A       		.uleb128 0x2a
 1595 071b 40050000 		.4byte	0x540
 1596 071f 98000000 		.4byte	.LLST7
 1597 0723 30       		.uleb128 0x30
 1598 0724 37050000 		.4byte	0x537
 1599 0728 2A       		.uleb128 0x2a
 1600 0729 2E050000 		.4byte	0x52e
 1601 072d AC000000 		.4byte	.LLST8
 1602 0731 2B       		.uleb128 0x2b
 1603 0732 90000000 		.4byte	.Ldebug_ranges0+0x90
 1604 0736 2D       		.uleb128 0x2d
 1605 0737 49050000 		.4byte	0x549
 1606 073b C4000000 		.4byte	.LLST9
 1607 073f 2D       		.uleb128 0x2d
 1608 0740 54050000 		.4byte	0x554
 1609 0744 DE000000 		.4byte	.LLST10
 1610 0748 00       		.byte	0
 1611 0749 00       		.byte	0
 1612 074a 31       		.uleb128 0x31
 1613 074b 03050000 		.4byte	0x503
 1614 074f 4A000000 		.4byte	.LBB101
 1615 0753 04000000 		.4byte	.LBE101-.LBB101
 1616 0757 01       		.byte	0x1
 1617 0758 0F       		.byte	0xf
 1618 0759 30       		.uleb128 0x30
 1619 075a 11050000 		.4byte	0x511
 1620 075e 00       		.byte	0
 1621 075f 00       		.byte	0
 1622 0760 32       		.uleb128 0x32
 1623 0761 11060000 		.4byte	0x611
 1624 0765 71040000 		.4byte	.LASF75
 1625 0769 C0000000 		.4byte	.LFB271
 1626 076d 10000000 		.4byte	.LFE271-.LFB271
 1627 0771 01       		.uleb128 0x1
 1628 0772 9C       		.byte	0x9c
 1629 0773 81070000 		.4byte	0x781
 1630 0777 2A       		.uleb128 0x2a
 1631 0778 25060000 		.4byte	0x625
 1632 077c F2000000 		.4byte	.LLST11
 1633 0780 00       		.byte	0
 1634 0781 26       		.uleb128 0x26
 1635 0782 7B050000 		.4byte	.LASF81
 1636 0786 01       		.byte	0x1
 1637 0787 1A       		.byte	0x1a
 1638 0788 D0000000 		.4byte	.LFB272
 1639 078c A8000000 		.4byte	.LFE272-.LFB272
 1640 0790 01       		.uleb128 0x1
 1641 0791 9C       		.byte	0x9c
 1642 0792 5D080000 		.4byte	0x85d
 1643 0796 28       		.uleb128 0x28
 1644 0797 786E00   		.ascii	"xn\000"
 1645 079a 01       		.byte	0x1
ARM GAS  C:\msys64\tmp\cceMltjI.s 			page 30


 1646 079b 1A       		.byte	0x1a
 1647 079c 06010000 		.4byte	0x106
 1648 07a0 16010000 		.4byte	.LLST12
 1649 07a4 28       		.uleb128 0x28
 1650 07a5 796E00   		.ascii	"yn\000"
 1651 07a8 01       		.byte	0x1
 1652 07a9 1A       		.byte	0x1a
 1653 07aa 11010000 		.4byte	0x111
 1654 07ae 5B010000 		.4byte	.LLST13
 1655 07b2 27       		.uleb128 0x27
 1656 07b3 57040000 		.4byte	.LASF82
 1657 07b7 01       		.byte	0x1
 1658 07b8 1B       		.byte	0x1b
 1659 07b9 06010000 		.4byte	0x106
 1660 07bd DD010000 		.4byte	.LLST14
 1661 07c1 27       		.uleb128 0x27
 1662 07c2 EE040000 		.4byte	.LASF83
 1663 07c6 01       		.byte	0x1
 1664 07c7 1B       		.byte	0x1b
 1665 07c8 11010000 		.4byte	0x111
 1666 07cc FE010000 		.4byte	.LLST15
 1667 07d0 27       		.uleb128 0x27
 1668 07d1 E4030000 		.4byte	.LASF84
 1669 07d5 01       		.byte	0x1
 1670 07d6 1C       		.byte	0x1c
 1671 07d7 A9000000 		.4byte	0xa9
 1672 07db 1F020000 		.4byte	.LLST16
 1673 07df 33       		.uleb128 0x33
 1674 07e0 D4000000 		.4byte	.LBB105
 1675 07e4 A4000000 		.4byte	.LBE105-.LBB105
 1676 07e8 34       		.uleb128 0x34
 1677 07e9 6900     		.ascii	"i\000"
 1678 07eb 01       		.byte	0x1
 1679 07ec 1E       		.byte	0x1e
 1680 07ed 2C000000 		.4byte	0x2c
 1681 07f1 3F020000 		.4byte	.LLST17
 1682 07f5 29       		.uleb128 0x29
 1683 07f6 AE050000 		.4byte	0x5ae
 1684 07fa D4000000 		.4byte	.LBB106
 1685 07fe B0000000 		.4byte	.Ldebug_ranges0+0xb0
 1686 0802 01       		.byte	0x1
 1687 0803 23       		.byte	0x23
 1688 0804 2A080000 		.4byte	0x82a
 1689 0808 2A       		.uleb128 0x2a
 1690 0809 C5050000 		.4byte	0x5c5
 1691 080d 76020000 		.4byte	.LLST18
 1692 0811 2A       		.uleb128 0x2a
 1693 0812 BC050000 		.4byte	0x5bc
 1694 0816 8A020000 		.4byte	.LLST19
 1695 081a 2B       		.uleb128 0x2b
 1696 081b B0000000 		.4byte	.Ldebug_ranges0+0xb0
 1697 081f 2D       		.uleb128 0x2d
 1698 0820 D0050000 		.4byte	0x5d0
 1699 0824 A2020000 		.4byte	.LLST20
 1700 0828 00       		.byte	0
 1701 0829 00       		.byte	0
 1702 082a 2F       		.uleb128 0x2f
ARM GAS  C:\msys64\tmp\cceMltjI.s 			page 31


 1703 082b AE050000 		.4byte	0x5ae
 1704 082f 16010000 		.4byte	.LBB118
 1705 0833 F0000000 		.4byte	.Ldebug_ranges0+0xf0
 1706 0837 01       		.byte	0x1
 1707 0838 24       		.byte	0x24
 1708 0839 2A       		.uleb128 0x2a
 1709 083a C5050000 		.4byte	0x5c5
 1710 083e B6020000 		.4byte	.LLST21
 1711 0842 2A       		.uleb128 0x2a
 1712 0843 BC050000 		.4byte	0x5bc
 1713 0847 CA020000 		.4byte	.LLST22
 1714 084b 2B       		.uleb128 0x2b
 1715 084c F0000000 		.4byte	.Ldebug_ranges0+0xf0
 1716 0850 2D       		.uleb128 0x2d
 1717 0851 D0050000 		.4byte	0x5d0
 1718 0855 E2020000 		.4byte	.LLST23
 1719 0859 00       		.byte	0
 1720 085a 00       		.byte	0
 1721 085b 00       		.byte	0
 1722 085c 00       		.byte	0
 1723 085d 26       		.uleb128 0x26
 1724 085e 09000000 		.4byte	.LASF85
 1725 0862 01       		.byte	0x1
 1726 0863 2B       		.byte	0x2b
 1727 0864 78010000 		.4byte	.LFB273
 1728 0868 30010000 		.4byte	.LFE273-.LFB273
 1729 086c 01       		.uleb128 0x1
 1730 086d 9C       		.byte	0x9c
 1731 086e 590A0000 		.4byte	0xa59
 1732 0872 27       		.uleb128 0x27
 1733 0873 6F020000 		.4byte	.LASF86
 1734 0877 01       		.byte	0x1
 1735 0878 2B       		.byte	0x2b
 1736 0879 93000000 		.4byte	0x93
 1737 087d F6020000 		.4byte	.LLST24
 1738 0881 27       		.uleb128 0x27
 1739 0882 EC020000 		.4byte	.LASF87
 1740 0886 01       		.byte	0x1
 1741 0887 2B       		.byte	0x2b
 1742 0888 9E000000 		.4byte	0x9e
 1743 088c 17030000 		.4byte	.LLST25
 1744 0890 35       		.uleb128 0x35
 1745 0891 64020000 		.4byte	.LASF76
 1746 0895 01       		.byte	0x1
 1747 0896 2D       		.byte	0x2d
 1748 0897 0C010000 		.4byte	0x10c
 1749 089b 38030000 		.4byte	.LLST26
 1750 089f 21       		.uleb128 0x21
 1751 08a0 D9040000 		.4byte	.LASF88
 1752 08a4 01       		.byte	0x1
 1753 08a5 2E       		.byte	0x2e
 1754 08a6 25000000 		.4byte	0x25
 1755 08aa 35       		.uleb128 0x35
 1756 08ab B2040000 		.4byte	.LASF89
 1757 08af 01       		.byte	0x1
 1758 08b0 2F       		.byte	0x2f
 1759 08b1 25000000 		.4byte	0x25
ARM GAS  C:\msys64\tmp\cceMltjI.s 			page 32


 1760 08b5 89030000 		.4byte	.LLST27
 1761 08b9 29       		.uleb128 0x29
 1762 08ba 65050000 		.4byte	0x565
 1763 08be 92010000 		.4byte	.LBB128
 1764 08c2 18010000 		.4byte	.Ldebug_ranges0+0x118
 1765 08c6 01       		.byte	0x1
 1766 08c7 37       		.byte	0x37
 1767 08c8 23090000 		.4byte	0x923
 1768 08cc 2A       		.uleb128 0x2a
 1769 08cd 75050000 		.4byte	0x575
 1770 08d1 A1030000 		.4byte	.LLST28
 1771 08d5 2B       		.uleb128 0x2b
 1772 08d6 18010000 		.4byte	.Ldebug_ranges0+0x118
 1773 08da 2D       		.uleb128 0x2d
 1774 08db 7E050000 		.4byte	0x57e
 1775 08df C4030000 		.4byte	.LLST29
 1776 08e3 2D       		.uleb128 0x2d
 1777 08e4 89050000 		.4byte	0x589
 1778 08e8 F3030000 		.4byte	.LLST30
 1779 08ec 2D       		.uleb128 0x2d
 1780 08ed 94050000 		.4byte	0x594
 1781 08f1 06040000 		.4byte	.LLST31
 1782 08f5 2E       		.uleb128 0x2e
 1783 08f6 9E050000 		.4byte	0x59e
 1784 08fa 2F       		.uleb128 0x2f
 1785 08fb D0040000 		.4byte	0x4d0
 1786 08ff 06020000 		.4byte	.LBB130
 1787 0903 40010000 		.4byte	.Ldebug_ranges0+0x140
 1788 0907 02       		.byte	0x2
 1789 0908 EE       		.byte	0xee
 1790 0909 30       		.uleb128 0x30
 1791 090a F7040000 		.4byte	0x4f7
 1792 090e 2A       		.uleb128 0x2a
 1793 090f EC040000 		.4byte	0x4ec
 1794 0913 06040000 		.4byte	.LLST31
 1795 0917 2A       		.uleb128 0x2a
 1796 0918 E1040000 		.4byte	0x4e1
 1797 091c 1A040000 		.4byte	.LLST33
 1798 0920 00       		.byte	0
 1799 0921 00       		.byte	0
 1800 0922 00       		.byte	0
 1801 0923 29       		.uleb128 0x29
 1802 0924 03050000 		.4byte	0x503
 1803 0928 94010000 		.4byte	.LBB139
 1804 092c 60010000 		.4byte	.Ldebug_ranges0+0x160
 1805 0930 01       		.byte	0x1
 1806 0931 36       		.byte	0x36
 1807 0932 3C090000 		.4byte	0x93c
 1808 0936 30       		.uleb128 0x30
 1809 0937 11050000 		.4byte	0x511
 1810 093b 00       		.byte	0
 1811 093c 29       		.uleb128 0x29
 1812 093d DD050000 		.4byte	0x5dd
 1813 0941 9E010000 		.4byte	.LBB143
 1814 0945 80010000 		.4byte	.Ldebug_ranges0+0x180
 1815 0949 01       		.byte	0x1
 1816 094a 34       		.byte	0x34
ARM GAS  C:\msys64\tmp\cceMltjI.s 			page 33


 1817 094b E3090000 		.4byte	0x9e3
 1818 094f 2A       		.uleb128 0x2a
 1819 0950 04060000 		.4byte	0x604
 1820 0954 43040000 		.4byte	.LLST34
 1821 0958 30       		.uleb128 0x30
 1822 0959 FA050000 		.4byte	0x5fa
 1823 095d 2A       		.uleb128 0x2a
 1824 095e EE050000 		.4byte	0x5ee
 1825 0962 5B040000 		.4byte	.LLST35
 1826 0966 36       		.uleb128 0x36
 1827 0967 9C040000 		.4byte	0x49c
 1828 096b 9E010000 		.4byte	.LBB144
 1829 096f 80010000 		.4byte	.Ldebug_ranges0+0x180
 1830 0973 04       		.byte	0x4
 1831 0974 9201     		.2byte	0x192
 1832 0976 2A       		.uleb128 0x2a
 1833 0977 C3040000 		.4byte	0x4c3
 1834 097b 43040000 		.4byte	.LLST34
 1835 097f 30       		.uleb128 0x30
 1836 0980 B9040000 		.4byte	0x4b9
 1837 0984 2A       		.uleb128 0x2a
 1838 0985 AD040000 		.4byte	0x4ad
 1839 0989 5B040000 		.4byte	.LLST35
 1840 098d 37       		.uleb128 0x37
 1841 098e 70040000 		.4byte	0x470
 1842 0992 9E010000 		.4byte	.LBB146
 1843 0996 B0010000 		.4byte	.Ldebug_ranges0+0x1b0
 1844 099a 04       		.byte	0x4
 1845 099b 3E01     		.2byte	0x13e
 1846 099d B9090000 		.4byte	0x9b9
 1847 09a1 2A       		.uleb128 0x2a
 1848 09a2 92040000 		.4byte	0x492
 1849 09a6 73040000 		.4byte	.LLST38
 1850 09aa 30       		.uleb128 0x30
 1851 09ab 89040000 		.4byte	0x489
 1852 09af 2A       		.uleb128 0x2a
 1853 09b0 80040000 		.4byte	0x480
 1854 09b4 8B040000 		.4byte	.LLST39
 1855 09b8 00       		.byte	0
 1856 09b9 36       		.uleb128 0x36
 1857 09ba 70040000 		.4byte	0x470
 1858 09be CE010000 		.4byte	.LBB154
 1859 09c2 D8010000 		.4byte	.Ldebug_ranges0+0x1d8
 1860 09c6 04       		.byte	0x4
 1861 09c7 3F01     		.2byte	0x13f
 1862 09c9 30       		.uleb128 0x30
 1863 09ca 92040000 		.4byte	0x492
 1864 09ce 2A       		.uleb128 0x2a
 1865 09cf 89040000 		.4byte	0x489
 1866 09d3 B5040000 		.4byte	.LLST40
 1867 09d7 2A       		.uleb128 0x2a
 1868 09d8 80040000 		.4byte	0x480
 1869 09dc CD040000 		.4byte	.LLST41
 1870 09e0 00       		.byte	0
 1871 09e1 00       		.byte	0
 1872 09e2 00       		.byte	0
 1873 09e3 29       		.uleb128 0x29
ARM GAS  C:\msys64\tmp\cceMltjI.s 			page 34


 1874 09e4 11060000 		.4byte	0x611
 1875 09e8 A8010000 		.4byte	.LBB169
 1876 09ec F0010000 		.4byte	.Ldebug_ranges0+0x1f0
 1877 09f0 01       		.byte	0x1
 1878 09f1 33       		.byte	0x33
 1879 09f2 000A0000 		.4byte	0xa00
 1880 09f6 2A       		.uleb128 0x2a
 1881 09f7 25060000 		.4byte	0x625
 1882 09fb 0D050000 		.4byte	.LLST42
 1883 09ff 00       		.byte	0
 1884 0a00 29       		.uleb128 0x29
 1885 0a01 03050000 		.4byte	0x503
 1886 0a05 BE010000 		.4byte	.LBB174
 1887 0a09 08020000 		.4byte	.Ldebug_ranges0+0x208
 1888 0a0d 01       		.byte	0x1
 1889 0a0e 38       		.byte	0x38
 1890 0a0f 190A0000 		.4byte	0xa19
 1891 0a13 30       		.uleb128 0x30
 1892 0a14 11050000 		.4byte	0x511
 1893 0a18 00       		.byte	0
 1894 0a19 2F       		.uleb128 0x2f
 1895 0a1a 20050000 		.4byte	0x520
 1896 0a1e 2E020000 		.4byte	.LBB183
 1897 0a22 20020000 		.4byte	.Ldebug_ranges0+0x220
 1898 0a26 01       		.byte	0x1
 1899 0a27 37       		.byte	0x37
 1900 0a28 2A       		.uleb128 0x2a
 1901 0a29 40050000 		.4byte	0x540
 1902 0a2d 21050000 		.4byte	.LLST43
 1903 0a31 30       		.uleb128 0x30
 1904 0a32 37050000 		.4byte	0x537
 1905 0a36 2A       		.uleb128 0x2a
 1906 0a37 2E050000 		.4byte	0x52e
 1907 0a3b 35050000 		.4byte	.LLST44
 1908 0a3f 2B       		.uleb128 0x2b
 1909 0a40 20020000 		.4byte	.Ldebug_ranges0+0x220
 1910 0a44 2D       		.uleb128 0x2d
 1911 0a45 49050000 		.4byte	0x549
 1912 0a49 4D050000 		.4byte	.LLST45
 1913 0a4d 2D       		.uleb128 0x2d
 1914 0a4e 54050000 		.4byte	0x554
 1915 0a52 67050000 		.4byte	.LLST46
 1916 0a56 00       		.byte	0
 1917 0a57 00       		.byte	0
 1918 0a58 00       		.byte	0
 1919 0a59 1E       		.uleb128 0x1e
 1920 0a5a C5030000 		.4byte	0x3c5
 1921 0a5e 02       		.byte	0x2
 1922 0a5f 670A0000 		.4byte	0xa67
 1923 0a63 710A0000 		.4byte	0xa71
 1924 0a67 1F       		.uleb128 0x1f
 1925 0a68 13050000 		.4byte	.LASF69
 1926 0a6c 1B050000 		.4byte	0x51b
 1927 0a70 00       		.byte	0
 1928 0a71 1E       		.uleb128 0x1e
 1929 0a72 72010000 		.4byte	0x172
 1930 0a76 02       		.byte	0x2
ARM GAS  C:\msys64\tmp\cceMltjI.s 			page 35


 1931 0a77 7F0A0000 		.4byte	0xa7f
 1932 0a7b 890A0000 		.4byte	0xa89
 1933 0a7f 1F       		.uleb128 0x1f
 1934 0a80 13050000 		.4byte	.LASF69
 1935 0a84 60050000 		.4byte	0x560
 1936 0a88 00       		.byte	0
 1937 0a89 38       		.uleb128 0x38
 1938 0a8a 73060000 		.4byte	.LASF115
 1939 0a8e 00000000 		.4byte	.LFB275
 1940 0a92 28000000 		.4byte	.LFE275-.LFB275
 1941 0a96 01       		.uleb128 0x1
 1942 0a97 9C       		.byte	0x9c
 1943 0a98 290B0000 		.4byte	0xb29
 1944 0a9c 31       		.uleb128 0x31
 1945 0a9d 31060000 		.4byte	0x631
 1946 0aa1 00000000 		.4byte	.LBB201
 1947 0aa5 28000000 		.4byte	.LBE201-.LBB201
 1948 0aa9 01       		.byte	0x1
 1949 0aaa 43       		.byte	0x43
 1950 0aab 2A       		.uleb128 0x2a
 1951 0aac 3B060000 		.4byte	0x63b
 1952 0ab0 7B050000 		.4byte	.LLST47
 1953 0ab4 2A       		.uleb128 0x2a
 1954 0ab5 46060000 		.4byte	0x646
 1955 0ab9 8F050000 		.4byte	.LLST48
 1956 0abd 39       		.uleb128 0x39
 1957 0abe 590A0000 		.4byte	0xa59
 1958 0ac2 00000000 		.4byte	.LBB202
 1959 0ac6 12000000 		.4byte	.LBE202-.LBB202
 1960 0aca 01       		.byte	0x1
 1961 0acb 07       		.byte	0x7
 1962 0acc F40A0000 		.4byte	0xaf4
 1963 0ad0 2A       		.uleb128 0x2a
 1964 0ad1 670A0000 		.4byte	0xa67
 1965 0ad5 A5050000 		.4byte	.LLST49
 1966 0ad9 3A       		.uleb128 0x3a
 1967 0ada 710A0000 		.4byte	0xa71
 1968 0ade 00000000 		.4byte	.LBB204
 1969 0ae2 0E000000 		.4byte	.LBE204-.LBB204
 1970 0ae6 03       		.byte	0x3
 1971 0ae7 5801     		.2byte	0x158
 1972 0ae9 2A       		.uleb128 0x2a
 1973 0aea 7F0A0000 		.4byte	0xa7f
 1974 0aee BD050000 		.4byte	.LLST50
 1975 0af2 00       		.byte	0
 1976 0af3 00       		.byte	0
 1977 0af4 31       		.uleb128 0x31
 1978 0af5 590A0000 		.4byte	0xa59
 1979 0af9 12000000 		.4byte	.LBB206
 1980 0afd 16000000 		.4byte	.LBE206-.LBB206
 1981 0b01 01       		.byte	0x1
 1982 0b02 07       		.byte	0x7
 1983 0b03 2A       		.uleb128 0x2a
 1984 0b04 670A0000 		.4byte	0xa67
 1985 0b08 D5050000 		.4byte	.LLST51
 1986 0b0c 3A       		.uleb128 0x3a
 1987 0b0d 710A0000 		.4byte	0xa71
ARM GAS  C:\msys64\tmp\cceMltjI.s 			page 36


 1988 0b11 12000000 		.4byte	.LBB208
 1989 0b15 0A000000 		.4byte	.LBE208-.LBB208
 1990 0b19 03       		.byte	0x3
 1991 0b1a 5801     		.2byte	0x158
 1992 0b1c 2A       		.uleb128 0x2a
 1993 0b1d 7F0A0000 		.4byte	0xa7f
 1994 0b21 ED050000 		.4byte	.LLST52
 1995 0b25 00       		.byte	0
 1996 0b26 00       		.byte	0
 1997 0b27 00       		.byte	0
 1998 0b28 00       		.byte	0
 1999 0b29 3B       		.uleb128 0x3b
 2000 0b2a A9030000 		.4byte	.LASF90
 2001 0b2e 02       		.byte	0x2
 2002 0b2f 46       		.byte	0x46
 2003 0b30 A9050000 		.4byte	0x5a9
 2004 0b34 3B       		.uleb128 0x3b
 2005 0b35 B6050000 		.4byte	.LASF91
 2006 0b39 02       		.byte	0x2
 2007 0b3a 4B       		.byte	0x4b
 2008 0b3b A9050000 		.4byte	0x5a9
 2009 0b3f 3C       		.uleb128 0x3c
 2010 0b40 0C010000 		.4byte	0x10c
 2011 0b44 4F0B0000 		.4byte	0xb4f
 2012 0b48 3D       		.uleb128 0x3d
 2013 0b49 C0000000 		.4byte	0xc0
 2014 0b4d 80       		.byte	0x80
 2015 0b4e 00       		.byte	0
 2016 0b4f 3B       		.uleb128 0x3b
 2017 0b50 AD060000 		.4byte	.LASF92
 2018 0b54 02       		.byte	0x2
 2019 0b55 82       		.byte	0x82
 2020 0b56 5A0B0000 		.4byte	0xb5a
 2021 0b5a 09       		.uleb128 0x9
 2022 0b5b 3F0B0000 		.4byte	0xb3f
 2023 0b5f 3C       		.uleb128 0x3c
 2024 0b60 0C010000 		.4byte	0x10c
 2025 0b64 700B0000 		.4byte	0xb70
 2026 0b68 3E       		.uleb128 0x3e
 2027 0b69 C0000000 		.4byte	0xc0
 2028 0b6d 0001     		.2byte	0x100
 2029 0b6f 00       		.byte	0
 2030 0b70 3B       		.uleb128 0x3b
 2031 0b71 02040000 		.4byte	.LASF93
 2032 0b75 02       		.byte	0x2
 2033 0b76 C9       		.byte	0xc9
 2034 0b77 7B0B0000 		.4byte	0xb7b
 2035 0b7b 09       		.uleb128 0x9
 2036 0b7c 5F0B0000 		.4byte	0xb5f
 2037 0b80 3B       		.uleb128 0x3b
 2038 0b81 23020000 		.4byte	.LASF94
 2039 0b85 02       		.byte	0x2
 2040 0b86 E0       		.byte	0xe0
 2041 0b87 8B0B0000 		.4byte	0xb8b
 2042 0b8b 09       		.uleb128 0x9
 2043 0b8c 5F0B0000 		.4byte	0xb5f
 2044 0b90 3B       		.uleb128 0x3b
ARM GAS  C:\msys64\tmp\cceMltjI.s 			page 37


 2045 0b91 18050000 		.4byte	.LASF95
 2046 0b95 02       		.byte	0x2
 2047 0b96 F8       		.byte	0xf8
 2048 0b97 9B0B0000 		.4byte	0xb9b
 2049 0b9b 09       		.uleb128 0x9
 2050 0b9c 5F0B0000 		.4byte	0xb5f
 2051 0ba0 3F       		.uleb128 0x3f
 2052 0ba1 9E030000 		.4byte	.LASF96
 2053 0ba5 02       		.byte	0x2
 2054 0ba6 0F01     		.2byte	0x10f
 2055 0ba8 AC0B0000 		.4byte	0xbac
 2056 0bac 09       		.uleb128 0x9
 2057 0bad 5F0B0000 		.4byte	0xb5f
 2058 0bb1 3F       		.uleb128 0x3f
 2059 0bb2 9E050000 		.4byte	.LASF97
 2060 0bb6 02       		.byte	0x2
 2061 0bb7 3E01     		.2byte	0x13e
 2062 0bb9 BD0B0000 		.4byte	0xbbd
 2063 0bbd 09       		.uleb128 0x9
 2064 0bbe 3F0B0000 		.4byte	0xb3f
 2065 0bc2 3F       		.uleb128 0x3f
 2066 0bc3 EB030000 		.4byte	.LASF98
 2067 0bc7 02       		.byte	0x2
 2068 0bc8 5301     		.2byte	0x153
 2069 0bca CE0B0000 		.4byte	0xbce
 2070 0bce 09       		.uleb128 0x9
 2071 0bcf 3F0B0000 		.4byte	0xb3f
 2072 0bd3 3F       		.uleb128 0x3f
 2073 0bd4 D1010000 		.4byte	.LASF99
 2074 0bd8 02       		.byte	0x2
 2075 0bd9 7001     		.2byte	0x170
 2076 0bdb DF0B0000 		.4byte	0xbdf
 2077 0bdf 09       		.uleb128 0x9
 2078 0be0 3F0B0000 		.4byte	0xb3f
 2079 0be4 40       		.uleb128 0x40
 2080 0be5 37070000 		.4byte	.LASF100
 2081 0be9 01       		.byte	0x1
 2082 0bea 05       		.byte	0x5
 2083 0beb 25000000 		.4byte	0x25
 2084 0bef 05       		.uleb128 0x5
 2085 0bf0 03       		.byte	0x3
 2086 0bf1 00000000 		.4byte	curSampleL
 2087 0bf5 40       		.uleb128 0x40
 2088 0bf6 57070000 		.4byte	.LASF101
 2089 0bfa 01       		.byte	0x1
 2090 0bfb 05       		.byte	0x5
 2091 0bfc 25000000 		.4byte	0x25
 2092 0c00 05       		.uleb128 0x5
 2093 0c01 03       		.byte	0x3
 2094 0c02 00000000 		.4byte	curSampleR
 2095 0c06 41       		.uleb128 0x41
 2096 0c07 1A070000 		.4byte	.LASF102
 2097 0c0b 01       		.byte	0x1
 2098 0c0c 07       		.byte	0x7
 2099 0c0d 22010000 		.4byte	0x122
 2100 0c11 05       		.uleb128 0x5
 2101 0c12 03       		.byte	0x3
ARM GAS  C:\msys64\tmp\cceMltjI.s 			page 38


 2102 0c13 00000000 		.4byte	_ZL8filter_l
 2103 0c17 41       		.uleb128 0x41
 2104 0c18 2E070000 		.4byte	.LASF103
 2105 0c1c 01       		.byte	0x1
 2106 0c1d 07       		.byte	0x7
 2107 0c1e 22010000 		.4byte	0x122
 2108 0c22 05       		.uleb128 0x5
 2109 0c23 03       		.byte	0x3
 2110 0c24 1C000000 		.4byte	_ZL8filter_r
 2111 0c28 40       		.uleb128 0x40
 2112 0c29 4D040000 		.4byte	.LASF104
 2113 0c2d 01       		.byte	0x1
 2114 0c2e 08       		.byte	0x8
 2115 0c2f 25000000 		.4byte	0x25
 2116 0c33 05       		.uleb128 0x5
 2117 0c34 03       		.byte	0x3
 2118 0c35 00000000 		.4byte	resonance
 2119 0c39 40       		.uleb128 0x40
 2120 0c3a 88030000 		.4byte	.LASF105
 2121 0c3e 01       		.byte	0x1
 2122 0c3f 09       		.byte	0x9
 2123 0c40 25000000 		.4byte	0x25
 2124 0c44 05       		.uleb128 0x5
 2125 0c45 03       		.byte	0x3
 2126 0c46 00000000 		.4byte	cutoff
 2127 0c4a 00       		.byte	0
 2128              		.section	.debug_abbrev,"",%progbits
 2129              	.Ldebug_abbrev0:
 2130 0000 01       		.uleb128 0x1
 2131 0001 11       		.uleb128 0x11
 2132 0002 01       		.byte	0x1
 2133 0003 25       		.uleb128 0x25
 2134 0004 0E       		.uleb128 0xe
 2135 0005 13       		.uleb128 0x13
 2136 0006 0B       		.uleb128 0xb
 2137 0007 03       		.uleb128 0x3
 2138 0008 0E       		.uleb128 0xe
 2139 0009 1B       		.uleb128 0x1b
 2140 000a 0E       		.uleb128 0xe
 2141 000b 55       		.uleb128 0x55
 2142 000c 17       		.uleb128 0x17
 2143 000d 11       		.uleb128 0x11
 2144 000e 01       		.uleb128 0x1
 2145 000f 10       		.uleb128 0x10
 2146 0010 17       		.uleb128 0x17
 2147 0011 00       		.byte	0
 2148 0012 00       		.byte	0
 2149 0013 02       		.uleb128 0x2
 2150 0014 24       		.uleb128 0x24
 2151 0015 00       		.byte	0
 2152 0016 0B       		.uleb128 0xb
 2153 0017 0B       		.uleb128 0xb
 2154 0018 3E       		.uleb128 0x3e
 2155 0019 0B       		.uleb128 0xb
 2156 001a 03       		.uleb128 0x3
 2157 001b 0E       		.uleb128 0xe
 2158 001c 00       		.byte	0
ARM GAS  C:\msys64\tmp\cceMltjI.s 			page 39


 2159 001d 00       		.byte	0
 2160 001e 03       		.uleb128 0x3
 2161 001f 24       		.uleb128 0x24
 2162 0020 00       		.byte	0
 2163 0021 0B       		.uleb128 0xb
 2164 0022 0B       		.uleb128 0xb
 2165 0023 3E       		.uleb128 0x3e
 2166 0024 0B       		.uleb128 0xb
 2167 0025 03       		.uleb128 0x3
 2168 0026 08       		.uleb128 0x8
 2169 0027 00       		.byte	0
 2170 0028 00       		.byte	0
 2171 0029 04       		.uleb128 0x4
 2172 002a 16       		.uleb128 0x16
 2173 002b 00       		.byte	0
 2174 002c 03       		.uleb128 0x3
 2175 002d 0E       		.uleb128 0xe
 2176 002e 3A       		.uleb128 0x3a
 2177 002f 0B       		.uleb128 0xb
 2178 0030 3B       		.uleb128 0x3b
 2179 0031 0B       		.uleb128 0xb
 2180 0032 49       		.uleb128 0x49
 2181 0033 13       		.uleb128 0x13
 2182 0034 00       		.byte	0
 2183 0035 00       		.byte	0
 2184 0036 05       		.uleb128 0x5
 2185 0037 3B       		.uleb128 0x3b
 2186 0038 00       		.byte	0
 2187 0039 03       		.uleb128 0x3
 2188 003a 0E       		.uleb128 0xe
 2189 003b 00       		.byte	0
 2190 003c 00       		.byte	0
 2191 003d 06       		.uleb128 0x6
 2192 003e 04       		.uleb128 0x4
 2193 003f 01       		.byte	0x1
 2194 0040 0B       		.uleb128 0xb
 2195 0041 0B       		.uleb128 0xb
 2196 0042 49       		.uleb128 0x49
 2197 0043 13       		.uleb128 0x13
 2198 0044 3A       		.uleb128 0x3a
 2199 0045 0B       		.uleb128 0xb
 2200 0046 3B       		.uleb128 0x3b
 2201 0047 0B       		.uleb128 0xb
 2202 0048 01       		.uleb128 0x1
 2203 0049 13       		.uleb128 0x13
 2204 004a 00       		.byte	0
 2205 004b 00       		.byte	0
 2206 004c 07       		.uleb128 0x7
 2207 004d 28       		.uleb128 0x28
 2208 004e 00       		.byte	0
 2209 004f 03       		.uleb128 0x3
 2210 0050 0E       		.uleb128 0xe
 2211 0051 1C       		.uleb128 0x1c
 2212 0052 0B       		.uleb128 0xb
 2213 0053 00       		.byte	0
 2214 0054 00       		.byte	0
 2215 0055 08       		.uleb128 0x8
ARM GAS  C:\msys64\tmp\cceMltjI.s 			page 40


 2216 0056 0F       		.uleb128 0xf
 2217 0057 00       		.byte	0
 2218 0058 0B       		.uleb128 0xb
 2219 0059 0B       		.uleb128 0xb
 2220 005a 49       		.uleb128 0x49
 2221 005b 13       		.uleb128 0x13
 2222 005c 00       		.byte	0
 2223 005d 00       		.byte	0
 2224 005e 09       		.uleb128 0x9
 2225 005f 26       		.uleb128 0x26
 2226 0060 00       		.byte	0
 2227 0061 49       		.uleb128 0x49
 2228 0062 13       		.uleb128 0x13
 2229 0063 00       		.byte	0
 2230 0064 00       		.byte	0
 2231 0065 0A       		.uleb128 0xa
 2232 0066 39       		.uleb128 0x39
 2233 0067 01       		.byte	0x1
 2234 0068 03       		.uleb128 0x3
 2235 0069 08       		.uleb128 0x8
 2236 006a 3A       		.uleb128 0x3a
 2237 006b 0B       		.uleb128 0xb
 2238 006c 3B       		.uleb128 0x3b
 2239 006d 0B       		.uleb128 0xb
 2240 006e 01       		.uleb128 0x1
 2241 006f 13       		.uleb128 0x13
 2242 0070 00       		.byte	0
 2243 0071 00       		.byte	0
 2244 0072 0B       		.uleb128 0xb
 2245 0073 13       		.uleb128 0x13
 2246 0074 01       		.byte	0x1
 2247 0075 03       		.uleb128 0x3
 2248 0076 0E       		.uleb128 0xe
 2249 0077 0B       		.uleb128 0xb
 2250 0078 0B       		.uleb128 0xb
 2251 0079 3A       		.uleb128 0x3a
 2252 007a 0B       		.uleb128 0xb
 2253 007b 3B       		.uleb128 0x3b
 2254 007c 0B       		.uleb128 0xb
 2255 007d 00       		.byte	0
 2256 007e 00       		.byte	0
 2257 007f 0C       		.uleb128 0xc
 2258 0080 13       		.uleb128 0x13
 2259 0081 01       		.byte	0x1
 2260 0082 03       		.uleb128 0x3
 2261 0083 0E       		.uleb128 0xe
 2262 0084 0B       		.uleb128 0xb
 2263 0085 0B       		.uleb128 0xb
 2264 0086 3A       		.uleb128 0x3a
 2265 0087 0B       		.uleb128 0xb
 2266 0088 3B       		.uleb128 0x3b
 2267 0089 0B       		.uleb128 0xb
 2268 008a 01       		.uleb128 0x1
 2269 008b 13       		.uleb128 0x13
 2270 008c 00       		.byte	0
 2271 008d 00       		.byte	0
 2272 008e 0D       		.uleb128 0xd
ARM GAS  C:\msys64\tmp\cceMltjI.s 			page 41


 2273 008f 0D       		.uleb128 0xd
 2274 0090 00       		.byte	0
 2275 0091 03       		.uleb128 0x3
 2276 0092 08       		.uleb128 0x8
 2277 0093 3A       		.uleb128 0x3a
 2278 0094 0B       		.uleb128 0xb
 2279 0095 3B       		.uleb128 0x3b
 2280 0096 0B       		.uleb128 0xb
 2281 0097 49       		.uleb128 0x49
 2282 0098 13       		.uleb128 0x13
 2283 0099 38       		.uleb128 0x38
 2284 009a 0B       		.uleb128 0xb
 2285 009b 00       		.byte	0
 2286 009c 00       		.byte	0
 2287 009d 0E       		.uleb128 0xe
 2288 009e 2E       		.uleb128 0x2e
 2289 009f 01       		.byte	0x1
 2290 00a0 3F       		.uleb128 0x3f
 2291 00a1 19       		.uleb128 0x19
 2292 00a2 03       		.uleb128 0x3
 2293 00a3 0E       		.uleb128 0xe
 2294 00a4 3A       		.uleb128 0x3a
 2295 00a5 0B       		.uleb128 0xb
 2296 00a6 3B       		.uleb128 0x3b
 2297 00a7 0B       		.uleb128 0xb
 2298 00a8 6E       		.uleb128 0x6e
 2299 00a9 0E       		.uleb128 0xe
 2300 00aa 49       		.uleb128 0x49
 2301 00ab 13       		.uleb128 0x13
 2302 00ac 3C       		.uleb128 0x3c
 2303 00ad 19       		.uleb128 0x19
 2304 00ae 64       		.uleb128 0x64
 2305 00af 13       		.uleb128 0x13
 2306 00b0 01       		.uleb128 0x1
 2307 00b1 13       		.uleb128 0x13
 2308 00b2 00       		.byte	0
 2309 00b3 00       		.byte	0
 2310 00b4 0F       		.uleb128 0xf
 2311 00b5 05       		.uleb128 0x5
 2312 00b6 00       		.byte	0
 2313 00b7 49       		.uleb128 0x49
 2314 00b8 13       		.uleb128 0x13
 2315 00b9 34       		.uleb128 0x34
 2316 00ba 19       		.uleb128 0x19
 2317 00bb 00       		.byte	0
 2318 00bc 00       		.byte	0
 2319 00bd 10       		.uleb128 0x10
 2320 00be 2E       		.uleb128 0x2e
 2321 00bf 01       		.byte	0x1
 2322 00c0 3F       		.uleb128 0x3f
 2323 00c1 19       		.uleb128 0x19
 2324 00c2 03       		.uleb128 0x3
 2325 00c3 08       		.uleb128 0x8
 2326 00c4 3A       		.uleb128 0x3a
 2327 00c5 0B       		.uleb128 0xb
 2328 00c6 3B       		.uleb128 0x3b
 2329 00c7 0B       		.uleb128 0xb
ARM GAS  C:\msys64\tmp\cceMltjI.s 			page 42


 2330 00c8 6E       		.uleb128 0x6e
 2331 00c9 0E       		.uleb128 0xe
 2332 00ca 49       		.uleb128 0x49
 2333 00cb 13       		.uleb128 0x13
 2334 00cc 3C       		.uleb128 0x3c
 2335 00cd 19       		.uleb128 0x19
 2336 00ce 01       		.uleb128 0x1
 2337 00cf 13       		.uleb128 0x13
 2338 00d0 00       		.byte	0
 2339 00d1 00       		.byte	0
 2340 00d2 11       		.uleb128 0x11
 2341 00d3 05       		.uleb128 0x5
 2342 00d4 00       		.byte	0
 2343 00d5 49       		.uleb128 0x49
 2344 00d6 13       		.uleb128 0x13
 2345 00d7 00       		.byte	0
 2346 00d8 00       		.byte	0
 2347 00d9 12       		.uleb128 0x12
 2348 00da 2E       		.uleb128 0x2e
 2349 00db 01       		.byte	0x1
 2350 00dc 3F       		.uleb128 0x3f
 2351 00dd 19       		.uleb128 0x19
 2352 00de 03       		.uleb128 0x3
 2353 00df 0E       		.uleb128 0xe
 2354 00e0 3A       		.uleb128 0x3a
 2355 00e1 0B       		.uleb128 0xb
 2356 00e2 3B       		.uleb128 0x3b
 2357 00e3 0B       		.uleb128 0xb
 2358 00e4 6E       		.uleb128 0x6e
 2359 00e5 0E       		.uleb128 0xe
 2360 00e6 3C       		.uleb128 0x3c
 2361 00e7 19       		.uleb128 0x19
 2362 00e8 64       		.uleb128 0x64
 2363 00e9 13       		.uleb128 0x13
 2364 00ea 01       		.uleb128 0x1
 2365 00eb 13       		.uleb128 0x13
 2366 00ec 00       		.byte	0
 2367 00ed 00       		.byte	0
 2368 00ee 13       		.uleb128 0x13
 2369 00ef 2E       		.uleb128 0x2e
 2370 00f0 01       		.byte	0x1
 2371 00f1 3F       		.uleb128 0x3f
 2372 00f2 19       		.uleb128 0x19
 2373 00f3 03       		.uleb128 0x3
 2374 00f4 0E       		.uleb128 0xe
 2375 00f5 3A       		.uleb128 0x3a
 2376 00f6 0B       		.uleb128 0xb
 2377 00f7 3B       		.uleb128 0x3b
 2378 00f8 05       		.uleb128 0x5
 2379 00f9 6E       		.uleb128 0x6e
 2380 00fa 0E       		.uleb128 0xe
 2381 00fb 3C       		.uleb128 0x3c
 2382 00fc 19       		.uleb128 0x19
 2383 00fd 64       		.uleb128 0x64
 2384 00fe 13       		.uleb128 0x13
 2385 00ff 01       		.uleb128 0x1
 2386 0100 13       		.uleb128 0x13
ARM GAS  C:\msys64\tmp\cceMltjI.s 			page 43


 2387 0101 00       		.byte	0
 2388 0102 00       		.byte	0
 2389 0103 14       		.uleb128 0x14
 2390 0104 2E       		.uleb128 0x2e
 2391 0105 01       		.byte	0x1
 2392 0106 3F       		.uleb128 0x3f
 2393 0107 19       		.uleb128 0x19
 2394 0108 03       		.uleb128 0x3
 2395 0109 0E       		.uleb128 0xe
 2396 010a 3A       		.uleb128 0x3a
 2397 010b 0B       		.uleb128 0xb
 2398 010c 3B       		.uleb128 0x3b
 2399 010d 05       		.uleb128 0x5
 2400 010e 6E       		.uleb128 0x6e
 2401 010f 0E       		.uleb128 0xe
 2402 0110 3C       		.uleb128 0x3c
 2403 0111 19       		.uleb128 0x19
 2404 0112 64       		.uleb128 0x64
 2405 0113 13       		.uleb128 0x13
 2406 0114 00       		.byte	0
 2407 0115 00       		.byte	0
 2408 0116 15       		.uleb128 0x15
 2409 0117 16       		.uleb128 0x16
 2410 0118 00       		.byte	0
 2411 0119 03       		.uleb128 0x3
 2412 011a 0E       		.uleb128 0xe
 2413 011b 3A       		.uleb128 0x3a
 2414 011c 0B       		.uleb128 0xb
 2415 011d 3B       		.uleb128 0x3b
 2416 011e 05       		.uleb128 0x5
 2417 011f 49       		.uleb128 0x49
 2418 0120 13       		.uleb128 0x13
 2419 0121 00       		.byte	0
 2420 0122 00       		.byte	0
 2421 0123 16       		.uleb128 0x16
 2422 0124 0D       		.uleb128 0xd
 2423 0125 00       		.byte	0
 2424 0126 03       		.uleb128 0x3
 2425 0127 0E       		.uleb128 0xe
 2426 0128 3A       		.uleb128 0x3a
 2427 0129 0B       		.uleb128 0xb
 2428 012a 3B       		.uleb128 0x3b
 2429 012b 05       		.uleb128 0x5
 2430 012c 49       		.uleb128 0x49
 2431 012d 13       		.uleb128 0x13
 2432 012e 38       		.uleb128 0x38
 2433 012f 0B       		.uleb128 0xb
 2434 0130 00       		.byte	0
 2435 0131 00       		.byte	0
 2436 0132 17       		.uleb128 0x17
 2437 0133 0D       		.uleb128 0xd
 2438 0134 00       		.byte	0
 2439 0135 03       		.uleb128 0x3
 2440 0136 08       		.uleb128 0x8
 2441 0137 3A       		.uleb128 0x3a
 2442 0138 0B       		.uleb128 0xb
 2443 0139 3B       		.uleb128 0x3b
ARM GAS  C:\msys64\tmp\cceMltjI.s 			page 44


 2444 013a 05       		.uleb128 0x5
 2445 013b 49       		.uleb128 0x49
 2446 013c 13       		.uleb128 0x13
 2447 013d 38       		.uleb128 0x38
 2448 013e 0B       		.uleb128 0xb
 2449 013f 00       		.byte	0
 2450 0140 00       		.byte	0
 2451 0141 18       		.uleb128 0x18
 2452 0142 2E       		.uleb128 0x2e
 2453 0143 01       		.byte	0x1
 2454 0144 3F       		.uleb128 0x3f
 2455 0145 19       		.uleb128 0x19
 2456 0146 03       		.uleb128 0x3
 2457 0147 0E       		.uleb128 0xe
 2458 0148 3A       		.uleb128 0x3a
 2459 0149 0B       		.uleb128 0xb
 2460 014a 3B       		.uleb128 0x3b
 2461 014b 05       		.uleb128 0x5
 2462 014c 6E       		.uleb128 0x6e
 2463 014d 0E       		.uleb128 0xe
 2464 014e 49       		.uleb128 0x49
 2465 014f 13       		.uleb128 0x13
 2466 0150 3C       		.uleb128 0x3c
 2467 0151 19       		.uleb128 0x19
 2468 0152 64       		.uleb128 0x64
 2469 0153 13       		.uleb128 0x13
 2470 0154 01       		.uleb128 0x1
 2471 0155 13       		.uleb128 0x13
 2472 0156 00       		.byte	0
 2473 0157 00       		.byte	0
 2474 0158 19       		.uleb128 0x19
 2475 0159 2E       		.uleb128 0x2e
 2476 015a 01       		.byte	0x1
 2477 015b 3F       		.uleb128 0x3f
 2478 015c 19       		.uleb128 0x19
 2479 015d 03       		.uleb128 0x3
 2480 015e 0E       		.uleb128 0xe
 2481 015f 3A       		.uleb128 0x3a
 2482 0160 0B       		.uleb128 0xb
 2483 0161 3B       		.uleb128 0x3b
 2484 0162 05       		.uleb128 0x5
 2485 0163 6E       		.uleb128 0x6e
 2486 0164 0E       		.uleb128 0xe
 2487 0165 49       		.uleb128 0x49
 2488 0166 13       		.uleb128 0x13
 2489 0167 3C       		.uleb128 0x3c
 2490 0168 19       		.uleb128 0x19
 2491 0169 64       		.uleb128 0x64
 2492 016a 13       		.uleb128 0x13
 2493 016b 00       		.byte	0
 2494 016c 00       		.byte	0
 2495 016d 1A       		.uleb128 0x1a
 2496 016e 2E       		.uleb128 0x2e
 2497 016f 01       		.byte	0x1
 2498 0170 03       		.uleb128 0x3
 2499 0171 0E       		.uleb128 0xe
 2500 0172 3A       		.uleb128 0x3a
ARM GAS  C:\msys64\tmp\cceMltjI.s 			page 45


 2501 0173 0B       		.uleb128 0xb
 2502 0174 3B       		.uleb128 0x3b
 2503 0175 0B       		.uleb128 0xb
 2504 0176 49       		.uleb128 0x49
 2505 0177 13       		.uleb128 0x13
 2506 0178 20       		.uleb128 0x20
 2507 0179 0B       		.uleb128 0xb
 2508 017a 01       		.uleb128 0x1
 2509 017b 13       		.uleb128 0x13
 2510 017c 00       		.byte	0
 2511 017d 00       		.byte	0
 2512 017e 1B       		.uleb128 0x1b
 2513 017f 05       		.uleb128 0x5
 2514 0180 00       		.byte	0
 2515 0181 03       		.uleb128 0x3
 2516 0182 08       		.uleb128 0x8
 2517 0183 3A       		.uleb128 0x3a
 2518 0184 0B       		.uleb128 0xb
 2519 0185 3B       		.uleb128 0x3b
 2520 0186 0B       		.uleb128 0xb
 2521 0187 49       		.uleb128 0x49
 2522 0188 13       		.uleb128 0x13
 2523 0189 00       		.byte	0
 2524 018a 00       		.byte	0
 2525 018b 1C       		.uleb128 0x1c
 2526 018c 2E       		.uleb128 0x2e
 2527 018d 01       		.byte	0x1
 2528 018e 03       		.uleb128 0x3
 2529 018f 0E       		.uleb128 0xe
 2530 0190 3A       		.uleb128 0x3a
 2531 0191 0B       		.uleb128 0xb
 2532 0192 3B       		.uleb128 0x3b
 2533 0193 05       		.uleb128 0x5
 2534 0194 49       		.uleb128 0x49
 2535 0195 13       		.uleb128 0x13
 2536 0196 20       		.uleb128 0x20
 2537 0197 0B       		.uleb128 0xb
 2538 0198 01       		.uleb128 0x1
 2539 0199 13       		.uleb128 0x13
 2540 019a 00       		.byte	0
 2541 019b 00       		.byte	0
 2542 019c 1D       		.uleb128 0x1d
 2543 019d 05       		.uleb128 0x5
 2544 019e 00       		.byte	0
 2545 019f 03       		.uleb128 0x3
 2546 01a0 08       		.uleb128 0x8
 2547 01a1 3A       		.uleb128 0x3a
 2548 01a2 0B       		.uleb128 0xb
 2549 01a3 3B       		.uleb128 0x3b
 2550 01a4 05       		.uleb128 0x5
 2551 01a5 49       		.uleb128 0x49
 2552 01a6 13       		.uleb128 0x13
 2553 01a7 00       		.byte	0
 2554 01a8 00       		.byte	0
 2555 01a9 1E       		.uleb128 0x1e
 2556 01aa 2E       		.uleb128 0x2e
 2557 01ab 01       		.byte	0x1
ARM GAS  C:\msys64\tmp\cceMltjI.s 			page 46


 2558 01ac 47       		.uleb128 0x47
 2559 01ad 13       		.uleb128 0x13
 2560 01ae 20       		.uleb128 0x20
 2561 01af 0B       		.uleb128 0xb
 2562 01b0 64       		.uleb128 0x64
 2563 01b1 13       		.uleb128 0x13
 2564 01b2 01       		.uleb128 0x1
 2565 01b3 13       		.uleb128 0x13
 2566 01b4 00       		.byte	0
 2567 01b5 00       		.byte	0
 2568 01b6 1F       		.uleb128 0x1f
 2569 01b7 05       		.uleb128 0x5
 2570 01b8 00       		.byte	0
 2571 01b9 03       		.uleb128 0x3
 2572 01ba 0E       		.uleb128 0xe
 2573 01bb 49       		.uleb128 0x49
 2574 01bc 13       		.uleb128 0x13
 2575 01bd 34       		.uleb128 0x34
 2576 01be 19       		.uleb128 0x19
 2577 01bf 00       		.byte	0
 2578 01c0 00       		.byte	0
 2579 01c1 20       		.uleb128 0x20
 2580 01c2 34       		.uleb128 0x34
 2581 01c3 00       		.byte	0
 2582 01c4 03       		.uleb128 0x3
 2583 01c5 08       		.uleb128 0x8
 2584 01c6 3A       		.uleb128 0x3a
 2585 01c7 0B       		.uleb128 0xb
 2586 01c8 3B       		.uleb128 0x3b
 2587 01c9 0B       		.uleb128 0xb
 2588 01ca 49       		.uleb128 0x49
 2589 01cb 13       		.uleb128 0x13
 2590 01cc 00       		.byte	0
 2591 01cd 00       		.byte	0
 2592 01ce 21       		.uleb128 0x21
 2593 01cf 34       		.uleb128 0x34
 2594 01d0 00       		.byte	0
 2595 01d1 03       		.uleb128 0x3
 2596 01d2 0E       		.uleb128 0xe
 2597 01d3 3A       		.uleb128 0x3a
 2598 01d4 0B       		.uleb128 0xb
 2599 01d5 3B       		.uleb128 0x3b
 2600 01d6 0B       		.uleb128 0xb
 2601 01d7 49       		.uleb128 0x49
 2602 01d8 13       		.uleb128 0x13
 2603 01d9 00       		.byte	0
 2604 01da 00       		.byte	0
 2605 01db 22       		.uleb128 0x22
 2606 01dc 34       		.uleb128 0x34
 2607 01dd 00       		.byte	0
 2608 01de 03       		.uleb128 0x3
 2609 01df 08       		.uleb128 0x8
 2610 01e0 3A       		.uleb128 0x3a
 2611 01e1 0B       		.uleb128 0xb
 2612 01e2 3B       		.uleb128 0x3b
 2613 01e3 05       		.uleb128 0x5
 2614 01e4 49       		.uleb128 0x49
ARM GAS  C:\msys64\tmp\cceMltjI.s 			page 47


 2615 01e5 13       		.uleb128 0x13
 2616 01e6 00       		.byte	0
 2617 01e7 00       		.byte	0
 2618 01e8 23       		.uleb128 0x23
 2619 01e9 2E       		.uleb128 0x2e
 2620 01ea 01       		.byte	0x1
 2621 01eb 3F       		.uleb128 0x3f
 2622 01ec 19       		.uleb128 0x19
 2623 01ed 03       		.uleb128 0x3
 2624 01ee 0E       		.uleb128 0xe
 2625 01ef 3A       		.uleb128 0x3a
 2626 01f0 0B       		.uleb128 0xb
 2627 01f1 3B       		.uleb128 0x3b
 2628 01f2 0B       		.uleb128 0xb
 2629 01f3 6E       		.uleb128 0x6e
 2630 01f4 0E       		.uleb128 0xe
 2631 01f5 49       		.uleb128 0x49
 2632 01f6 13       		.uleb128 0x13
 2633 01f7 20       		.uleb128 0x20
 2634 01f8 0B       		.uleb128 0xb
 2635 01f9 01       		.uleb128 0x1
 2636 01fa 13       		.uleb128 0x13
 2637 01fb 00       		.byte	0
 2638 01fc 00       		.byte	0
 2639 01fd 24       		.uleb128 0x24
 2640 01fe 05       		.uleb128 0x5
 2641 01ff 00       		.byte	0
 2642 0200 03       		.uleb128 0x3
 2643 0201 0E       		.uleb128 0xe
 2644 0202 3A       		.uleb128 0x3a
 2645 0203 0B       		.uleb128 0xb
 2646 0204 3B       		.uleb128 0x3b
 2647 0205 0B       		.uleb128 0xb
 2648 0206 49       		.uleb128 0x49
 2649 0207 13       		.uleb128 0x13
 2650 0208 00       		.byte	0
 2651 0209 00       		.byte	0
 2652 020a 25       		.uleb128 0x25
 2653 020b 2E       		.uleb128 0x2e
 2654 020c 01       		.byte	0x1
 2655 020d 03       		.uleb128 0x3
 2656 020e 0E       		.uleb128 0xe
 2657 020f 34       		.uleb128 0x34
 2658 0210 19       		.uleb128 0x19
 2659 0211 20       		.uleb128 0x20
 2660 0212 0B       		.uleb128 0xb
 2661 0213 01       		.uleb128 0x1
 2662 0214 13       		.uleb128 0x13
 2663 0215 00       		.byte	0
 2664 0216 00       		.byte	0
 2665 0217 26       		.uleb128 0x26
 2666 0218 2E       		.uleb128 0x2e
 2667 0219 01       		.byte	0x1
 2668 021a 3F       		.uleb128 0x3f
 2669 021b 19       		.uleb128 0x19
 2670 021c 03       		.uleb128 0x3
 2671 021d 0E       		.uleb128 0xe
ARM GAS  C:\msys64\tmp\cceMltjI.s 			page 48


 2672 021e 3A       		.uleb128 0x3a
 2673 021f 0B       		.uleb128 0xb
 2674 0220 3B       		.uleb128 0x3b
 2675 0221 0B       		.uleb128 0xb
 2676 0222 11       		.uleb128 0x11
 2677 0223 01       		.uleb128 0x1
 2678 0224 12       		.uleb128 0x12
 2679 0225 06       		.uleb128 0x6
 2680 0226 40       		.uleb128 0x40
 2681 0227 18       		.uleb128 0x18
 2682 0228 9742     		.uleb128 0x2117
 2683 022a 19       		.uleb128 0x19
 2684 022b 01       		.uleb128 0x1
 2685 022c 13       		.uleb128 0x13
 2686 022d 00       		.byte	0
 2687 022e 00       		.byte	0
 2688 022f 27       		.uleb128 0x27
 2689 0230 05       		.uleb128 0x5
 2690 0231 00       		.byte	0
 2691 0232 03       		.uleb128 0x3
 2692 0233 0E       		.uleb128 0xe
 2693 0234 3A       		.uleb128 0x3a
 2694 0235 0B       		.uleb128 0xb
 2695 0236 3B       		.uleb128 0x3b
 2696 0237 0B       		.uleb128 0xb
 2697 0238 49       		.uleb128 0x49
 2698 0239 13       		.uleb128 0x13
 2699 023a 02       		.uleb128 0x2
 2700 023b 17       		.uleb128 0x17
 2701 023c 00       		.byte	0
 2702 023d 00       		.byte	0
 2703 023e 28       		.uleb128 0x28
 2704 023f 05       		.uleb128 0x5
 2705 0240 00       		.byte	0
 2706 0241 03       		.uleb128 0x3
 2707 0242 08       		.uleb128 0x8
 2708 0243 3A       		.uleb128 0x3a
 2709 0244 0B       		.uleb128 0xb
 2710 0245 3B       		.uleb128 0x3b
 2711 0246 0B       		.uleb128 0xb
 2712 0247 49       		.uleb128 0x49
 2713 0248 13       		.uleb128 0x13
 2714 0249 02       		.uleb128 0x2
 2715 024a 17       		.uleb128 0x17
 2716 024b 00       		.byte	0
 2717 024c 00       		.byte	0
 2718 024d 29       		.uleb128 0x29
 2719 024e 1D       		.uleb128 0x1d
 2720 024f 01       		.byte	0x1
 2721 0250 31       		.uleb128 0x31
 2722 0251 13       		.uleb128 0x13
 2723 0252 52       		.uleb128 0x52
 2724 0253 01       		.uleb128 0x1
 2725 0254 55       		.uleb128 0x55
 2726 0255 17       		.uleb128 0x17
 2727 0256 58       		.uleb128 0x58
 2728 0257 0B       		.uleb128 0xb
ARM GAS  C:\msys64\tmp\cceMltjI.s 			page 49


 2729 0258 59       		.uleb128 0x59
 2730 0259 0B       		.uleb128 0xb
 2731 025a 01       		.uleb128 0x1
 2732 025b 13       		.uleb128 0x13
 2733 025c 00       		.byte	0
 2734 025d 00       		.byte	0
 2735 025e 2A       		.uleb128 0x2a
 2736 025f 05       		.uleb128 0x5
 2737 0260 00       		.byte	0
 2738 0261 31       		.uleb128 0x31
 2739 0262 13       		.uleb128 0x13
 2740 0263 02       		.uleb128 0x2
 2741 0264 17       		.uleb128 0x17
 2742 0265 00       		.byte	0
 2743 0266 00       		.byte	0
 2744 0267 2B       		.uleb128 0x2b
 2745 0268 0B       		.uleb128 0xb
 2746 0269 01       		.byte	0x1
 2747 026a 55       		.uleb128 0x55
 2748 026b 17       		.uleb128 0x17
 2749 026c 00       		.byte	0
 2750 026d 00       		.byte	0
 2751 026e 2C       		.uleb128 0x2c
 2752 026f 34       		.uleb128 0x34
 2753 0270 00       		.byte	0
 2754 0271 31       		.uleb128 0x31
 2755 0272 13       		.uleb128 0x13
 2756 0273 02       		.uleb128 0x2
 2757 0274 18       		.uleb128 0x18
 2758 0275 00       		.byte	0
 2759 0276 00       		.byte	0
 2760 0277 2D       		.uleb128 0x2d
 2761 0278 34       		.uleb128 0x34
 2762 0279 00       		.byte	0
 2763 027a 31       		.uleb128 0x31
 2764 027b 13       		.uleb128 0x13
 2765 027c 02       		.uleb128 0x2
 2766 027d 17       		.uleb128 0x17
 2767 027e 00       		.byte	0
 2768 027f 00       		.byte	0
 2769 0280 2E       		.uleb128 0x2e
 2770 0281 34       		.uleb128 0x34
 2771 0282 00       		.byte	0
 2772 0283 31       		.uleb128 0x31
 2773 0284 13       		.uleb128 0x13
 2774 0285 00       		.byte	0
 2775 0286 00       		.byte	0
 2776 0287 2F       		.uleb128 0x2f
 2777 0288 1D       		.uleb128 0x1d
 2778 0289 01       		.byte	0x1
 2779 028a 31       		.uleb128 0x31
 2780 028b 13       		.uleb128 0x13
 2781 028c 52       		.uleb128 0x52
 2782 028d 01       		.uleb128 0x1
 2783 028e 55       		.uleb128 0x55
 2784 028f 17       		.uleb128 0x17
 2785 0290 58       		.uleb128 0x58
ARM GAS  C:\msys64\tmp\cceMltjI.s 			page 50


 2786 0291 0B       		.uleb128 0xb
 2787 0292 59       		.uleb128 0x59
 2788 0293 0B       		.uleb128 0xb
 2789 0294 00       		.byte	0
 2790 0295 00       		.byte	0
 2791 0296 30       		.uleb128 0x30
 2792 0297 05       		.uleb128 0x5
 2793 0298 00       		.byte	0
 2794 0299 31       		.uleb128 0x31
 2795 029a 13       		.uleb128 0x13
 2796 029b 00       		.byte	0
 2797 029c 00       		.byte	0
 2798 029d 31       		.uleb128 0x31
 2799 029e 1D       		.uleb128 0x1d
 2800 029f 01       		.byte	0x1
 2801 02a0 31       		.uleb128 0x31
 2802 02a1 13       		.uleb128 0x13
 2803 02a2 11       		.uleb128 0x11
 2804 02a3 01       		.uleb128 0x1
 2805 02a4 12       		.uleb128 0x12
 2806 02a5 06       		.uleb128 0x6
 2807 02a6 58       		.uleb128 0x58
 2808 02a7 0B       		.uleb128 0xb
 2809 02a8 59       		.uleb128 0x59
 2810 02a9 0B       		.uleb128 0xb
 2811 02aa 00       		.byte	0
 2812 02ab 00       		.byte	0
 2813 02ac 32       		.uleb128 0x32
 2814 02ad 2E       		.uleb128 0x2e
 2815 02ae 01       		.byte	0x1
 2816 02af 31       		.uleb128 0x31
 2817 02b0 13       		.uleb128 0x13
 2818 02b1 6E       		.uleb128 0x6e
 2819 02b2 0E       		.uleb128 0xe
 2820 02b3 11       		.uleb128 0x11
 2821 02b4 01       		.uleb128 0x1
 2822 02b5 12       		.uleb128 0x12
 2823 02b6 06       		.uleb128 0x6
 2824 02b7 40       		.uleb128 0x40
 2825 02b8 18       		.uleb128 0x18
 2826 02b9 9742     		.uleb128 0x2117
 2827 02bb 19       		.uleb128 0x19
 2828 02bc 01       		.uleb128 0x1
 2829 02bd 13       		.uleb128 0x13
 2830 02be 00       		.byte	0
 2831 02bf 00       		.byte	0
 2832 02c0 33       		.uleb128 0x33
 2833 02c1 0B       		.uleb128 0xb
 2834 02c2 01       		.byte	0x1
 2835 02c3 11       		.uleb128 0x11
 2836 02c4 01       		.uleb128 0x1
 2837 02c5 12       		.uleb128 0x12
 2838 02c6 06       		.uleb128 0x6
 2839 02c7 00       		.byte	0
 2840 02c8 00       		.byte	0
 2841 02c9 34       		.uleb128 0x34
 2842 02ca 34       		.uleb128 0x34
ARM GAS  C:\msys64\tmp\cceMltjI.s 			page 51


 2843 02cb 00       		.byte	0
 2844 02cc 03       		.uleb128 0x3
 2845 02cd 08       		.uleb128 0x8
 2846 02ce 3A       		.uleb128 0x3a
 2847 02cf 0B       		.uleb128 0xb
 2848 02d0 3B       		.uleb128 0x3b
 2849 02d1 0B       		.uleb128 0xb
 2850 02d2 49       		.uleb128 0x49
 2851 02d3 13       		.uleb128 0x13
 2852 02d4 02       		.uleb128 0x2
 2853 02d5 17       		.uleb128 0x17
 2854 02d6 00       		.byte	0
 2855 02d7 00       		.byte	0
 2856 02d8 35       		.uleb128 0x35
 2857 02d9 34       		.uleb128 0x34
 2858 02da 00       		.byte	0
 2859 02db 03       		.uleb128 0x3
 2860 02dc 0E       		.uleb128 0xe
 2861 02dd 3A       		.uleb128 0x3a
 2862 02de 0B       		.uleb128 0xb
 2863 02df 3B       		.uleb128 0x3b
 2864 02e0 0B       		.uleb128 0xb
 2865 02e1 49       		.uleb128 0x49
 2866 02e2 13       		.uleb128 0x13
 2867 02e3 02       		.uleb128 0x2
 2868 02e4 17       		.uleb128 0x17
 2869 02e5 00       		.byte	0
 2870 02e6 00       		.byte	0
 2871 02e7 36       		.uleb128 0x36
 2872 02e8 1D       		.uleb128 0x1d
 2873 02e9 01       		.byte	0x1
 2874 02ea 31       		.uleb128 0x31
 2875 02eb 13       		.uleb128 0x13
 2876 02ec 52       		.uleb128 0x52
 2877 02ed 01       		.uleb128 0x1
 2878 02ee 55       		.uleb128 0x55
 2879 02ef 17       		.uleb128 0x17
 2880 02f0 58       		.uleb128 0x58
 2881 02f1 0B       		.uleb128 0xb
 2882 02f2 59       		.uleb128 0x59
 2883 02f3 05       		.uleb128 0x5
 2884 02f4 00       		.byte	0
 2885 02f5 00       		.byte	0
 2886 02f6 37       		.uleb128 0x37
 2887 02f7 1D       		.uleb128 0x1d
 2888 02f8 01       		.byte	0x1
 2889 02f9 31       		.uleb128 0x31
 2890 02fa 13       		.uleb128 0x13
 2891 02fb 52       		.uleb128 0x52
 2892 02fc 01       		.uleb128 0x1
 2893 02fd 55       		.uleb128 0x55
 2894 02fe 17       		.uleb128 0x17
 2895 02ff 58       		.uleb128 0x58
 2896 0300 0B       		.uleb128 0xb
 2897 0301 59       		.uleb128 0x59
 2898 0302 05       		.uleb128 0x5
 2899 0303 01       		.uleb128 0x1
ARM GAS  C:\msys64\tmp\cceMltjI.s 			page 52


 2900 0304 13       		.uleb128 0x13
 2901 0305 00       		.byte	0
 2902 0306 00       		.byte	0
 2903 0307 38       		.uleb128 0x38
 2904 0308 2E       		.uleb128 0x2e
 2905 0309 01       		.byte	0x1
 2906 030a 03       		.uleb128 0x3
 2907 030b 0E       		.uleb128 0xe
 2908 030c 34       		.uleb128 0x34
 2909 030d 19       		.uleb128 0x19
 2910 030e 11       		.uleb128 0x11
 2911 030f 01       		.uleb128 0x1
 2912 0310 12       		.uleb128 0x12
 2913 0311 06       		.uleb128 0x6
 2914 0312 40       		.uleb128 0x40
 2915 0313 18       		.uleb128 0x18
 2916 0314 9742     		.uleb128 0x2117
 2917 0316 19       		.uleb128 0x19
 2918 0317 01       		.uleb128 0x1
 2919 0318 13       		.uleb128 0x13
 2920 0319 00       		.byte	0
 2921 031a 00       		.byte	0
 2922 031b 39       		.uleb128 0x39
 2923 031c 1D       		.uleb128 0x1d
 2924 031d 01       		.byte	0x1
 2925 031e 31       		.uleb128 0x31
 2926 031f 13       		.uleb128 0x13
 2927 0320 11       		.uleb128 0x11
 2928 0321 01       		.uleb128 0x1
 2929 0322 12       		.uleb128 0x12
 2930 0323 06       		.uleb128 0x6
 2931 0324 58       		.uleb128 0x58
 2932 0325 0B       		.uleb128 0xb
 2933 0326 59       		.uleb128 0x59
 2934 0327 0B       		.uleb128 0xb
 2935 0328 01       		.uleb128 0x1
 2936 0329 13       		.uleb128 0x13
 2937 032a 00       		.byte	0
 2938 032b 00       		.byte	0
 2939 032c 3A       		.uleb128 0x3a
 2940 032d 1D       		.uleb128 0x1d
 2941 032e 01       		.byte	0x1
 2942 032f 31       		.uleb128 0x31
 2943 0330 13       		.uleb128 0x13
 2944 0331 11       		.uleb128 0x11
 2945 0332 01       		.uleb128 0x1
 2946 0333 12       		.uleb128 0x12
 2947 0334 06       		.uleb128 0x6
 2948 0335 58       		.uleb128 0x58
 2949 0336 0B       		.uleb128 0xb
 2950 0337 59       		.uleb128 0x59
 2951 0338 05       		.uleb128 0x5
 2952 0339 00       		.byte	0
 2953 033a 00       		.byte	0
 2954 033b 3B       		.uleb128 0x3b
 2955 033c 34       		.uleb128 0x34
 2956 033d 00       		.byte	0
ARM GAS  C:\msys64\tmp\cceMltjI.s 			page 53


 2957 033e 03       		.uleb128 0x3
 2958 033f 0E       		.uleb128 0xe
 2959 0340 3A       		.uleb128 0x3a
 2960 0341 0B       		.uleb128 0xb
 2961 0342 3B       		.uleb128 0x3b
 2962 0343 0B       		.uleb128 0xb
 2963 0344 49       		.uleb128 0x49
 2964 0345 13       		.uleb128 0x13
 2965 0346 3F       		.uleb128 0x3f
 2966 0347 19       		.uleb128 0x19
 2967 0348 3C       		.uleb128 0x3c
 2968 0349 19       		.uleb128 0x19
 2969 034a 00       		.byte	0
 2970 034b 00       		.byte	0
 2971 034c 3C       		.uleb128 0x3c
 2972 034d 01       		.uleb128 0x1
 2973 034e 01       		.byte	0x1
 2974 034f 49       		.uleb128 0x49
 2975 0350 13       		.uleb128 0x13
 2976 0351 01       		.uleb128 0x1
 2977 0352 13       		.uleb128 0x13
 2978 0353 00       		.byte	0
 2979 0354 00       		.byte	0
 2980 0355 3D       		.uleb128 0x3d
 2981 0356 21       		.uleb128 0x21
 2982 0357 00       		.byte	0
 2983 0358 49       		.uleb128 0x49
 2984 0359 13       		.uleb128 0x13
 2985 035a 2F       		.uleb128 0x2f
 2986 035b 0B       		.uleb128 0xb
 2987 035c 00       		.byte	0
 2988 035d 00       		.byte	0
 2989 035e 3E       		.uleb128 0x3e
 2990 035f 21       		.uleb128 0x21
 2991 0360 00       		.byte	0
 2992 0361 49       		.uleb128 0x49
 2993 0362 13       		.uleb128 0x13
 2994 0363 2F       		.uleb128 0x2f
 2995 0364 05       		.uleb128 0x5
 2996 0365 00       		.byte	0
 2997 0366 00       		.byte	0
 2998 0367 3F       		.uleb128 0x3f
 2999 0368 34       		.uleb128 0x34
 3000 0369 00       		.byte	0
 3001 036a 03       		.uleb128 0x3
 3002 036b 0E       		.uleb128 0xe
 3003 036c 3A       		.uleb128 0x3a
 3004 036d 0B       		.uleb128 0xb
 3005 036e 3B       		.uleb128 0x3b
 3006 036f 05       		.uleb128 0x5
 3007 0370 49       		.uleb128 0x49
 3008 0371 13       		.uleb128 0x13
 3009 0372 3F       		.uleb128 0x3f
 3010 0373 19       		.uleb128 0x19
 3011 0374 3C       		.uleb128 0x3c
 3012 0375 19       		.uleb128 0x19
 3013 0376 00       		.byte	0
ARM GAS  C:\msys64\tmp\cceMltjI.s 			page 54


 3014 0377 00       		.byte	0
 3015 0378 40       		.uleb128 0x40
 3016 0379 34       		.uleb128 0x34
 3017 037a 00       		.byte	0
 3018 037b 03       		.uleb128 0x3
 3019 037c 0E       		.uleb128 0xe
 3020 037d 3A       		.uleb128 0x3a
 3021 037e 0B       		.uleb128 0xb
 3022 037f 3B       		.uleb128 0x3b
 3023 0380 0B       		.uleb128 0xb
 3024 0381 49       		.uleb128 0x49
 3025 0382 13       		.uleb128 0x13
 3026 0383 3F       		.uleb128 0x3f
 3027 0384 19       		.uleb128 0x19
 3028 0385 02       		.uleb128 0x2
 3029 0386 18       		.uleb128 0x18
 3030 0387 00       		.byte	0
 3031 0388 00       		.byte	0
 3032 0389 41       		.uleb128 0x41
 3033 038a 34       		.uleb128 0x34
 3034 038b 00       		.byte	0
 3035 038c 03       		.uleb128 0x3
 3036 038d 0E       		.uleb128 0xe
 3037 038e 3A       		.uleb128 0x3a
 3038 038f 0B       		.uleb128 0xb
 3039 0390 3B       		.uleb128 0x3b
 3040 0391 0B       		.uleb128 0xb
 3041 0392 49       		.uleb128 0x49
 3042 0393 13       		.uleb128 0x13
 3043 0394 02       		.uleb128 0x2
 3044 0395 18       		.uleb128 0x18
 3045 0396 00       		.byte	0
 3046 0397 00       		.byte	0
 3047 0398 00       		.byte	0
 3048              		.section	.debug_loc,"",%progbits
 3049              	.Ldebug_loc0:
 3050              	.LLST0:
 3051 0000 00000000 		.4byte	.LVL0
 3052 0004 22000000 		.4byte	.LVL2
 3053 0008 0100     		.2byte	0x1
 3054 000a 50       		.byte	0x50
 3055 000b 22000000 		.4byte	.LVL2
 3056 000f C0000000 		.4byte	.LFE270
 3057 0013 0400     		.2byte	0x4
 3058 0015 F3       		.byte	0xf3
 3059 0016 01       		.uleb128 0x1
 3060 0017 50       		.byte	0x50
 3061 0018 9F       		.byte	0x9f
 3062 0019 00000000 		.4byte	0
 3063 001d 00000000 		.4byte	0
 3064              	.LLST1:
 3065 0021 00000000 		.4byte	.LVL0
 3066 0025 0E000000 		.4byte	.LVL1
 3067 0029 0100     		.2byte	0x1
 3068 002b 51       		.byte	0x51
 3069 002c 0E000000 		.4byte	.LVL1
 3070 0030 C0000000 		.4byte	.LFE270
ARM GAS  C:\msys64\tmp\cceMltjI.s 			page 55


 3071 0034 0400     		.2byte	0x4
 3072 0036 F3       		.byte	0xf3
 3073 0037 01       		.uleb128 0x1
 3074 0038 51       		.byte	0x51
 3075 0039 9F       		.byte	0x9f
 3076 003a 00000000 		.4byte	0
 3077 003e 00000000 		.4byte	0
 3078              	.LLST2:
 3079 0042 3E000000 		.4byte	.LVL3
 3080 0046 4A000000 		.4byte	.LVL4
 3081 004a 0500     		.2byte	0x5
 3082 004c 03       		.byte	0x3
 3083 004d 00000000 		.4byte	cutoff
 3084 0051 00000000 		.4byte	0
 3085 0055 00000000 		.4byte	0
 3086              	.LLST3:
 3087 0059 3E000000 		.4byte	.LVL3
 3088 005d 4A000000 		.4byte	.LVL4
 3089 0061 0100     		.2byte	0x1
 3090 0063 50       		.byte	0x50
 3091 0064 00000000 		.4byte	0
 3092 0068 00000000 		.4byte	0
 3093              	.LLST4:
 3094 006c 3E000000 		.4byte	.LVL3
 3095 0070 4A000000 		.4byte	.LVL4
 3096 0074 0200     		.2byte	0x2
 3097 0076 90       		.byte	0x90
 3098 0077 4F       		.uleb128 0x4f
 3099 0078 00000000 		.4byte	0
 3100 007c 00000000 		.4byte	0
 3101              	.LLST6:
 3102 0080 00000000 		.4byte	.LVL0
 3103 0084 3E000000 		.4byte	.LVL3
 3104 0088 0600     		.2byte	0x6
 3105 008a 03       		.byte	0x3
 3106 008b 00000000 		.4byte	_ZL8filter_l
 3107 008f 9F       		.byte	0x9f
 3108 0090 00000000 		.4byte	0
 3109 0094 00000000 		.4byte	0
 3110              	.LLST7:
 3111 0098 52000000 		.4byte	.LVL5
 3112 009c A4000000 		.4byte	.LVL9
 3113 00a0 0200     		.2byte	0x2
 3114 00a2 90       		.byte	0x90
 3115 00a3 4D       		.uleb128 0x4d
 3116 00a4 00000000 		.4byte	0
 3117 00a8 00000000 		.4byte	0
 3118              	.LLST8:
 3119 00ac 52000000 		.4byte	.LVL5
 3120 00b0 A4000000 		.4byte	.LVL9
 3121 00b4 0600     		.2byte	0x6
 3122 00b6 03       		.byte	0x3
 3123 00b7 00000000 		.4byte	_ZL8filter_l
 3124 00bb 9F       		.byte	0x9f
 3125 00bc 00000000 		.4byte	0
 3126 00c0 00000000 		.4byte	0
 3127              	.LLST9:
ARM GAS  C:\msys64\tmp\cceMltjI.s 			page 56


 3128 00c4 56000000 		.4byte	.LVL6
 3129 00c8 8C000000 		.4byte	.LVL8
 3130 00cc 0800     		.2byte	0x8
 3131 00ce F5       		.byte	0xf5
 3132 00cf 4B       		.uleb128 0x4b
 3133 00d0 25       		.uleb128 0x25
 3134 00d1 F5       		.byte	0xf5
 3135 00d2 4F       		.uleb128 0x4f
 3136 00d3 25       		.uleb128 0x25
 3137 00d4 1E       		.byte	0x1e
 3138 00d5 9F       		.byte	0x9f
 3139 00d6 00000000 		.4byte	0
 3140 00da 00000000 		.4byte	0
 3141              	.LLST10:
 3142 00de 68000000 		.4byte	.LVL7
 3143 00e2 A4000000 		.4byte	.LVL9
 3144 00e6 0200     		.2byte	0x2
 3145 00e8 90       		.byte	0x90
 3146 00e9 4C       		.uleb128 0x4c
 3147 00ea 00000000 		.4byte	0
 3148 00ee 00000000 		.4byte	0
 3149              	.LLST11:
 3150 00f2 C0000000 		.4byte	.LVL10
 3151 00f6 CE000000 		.4byte	.LVL11
 3152 00fa 0200     		.2byte	0x2
 3153 00fc 90       		.byte	0x90
 3154 00fd 40       		.uleb128 0x40
 3155 00fe CE000000 		.4byte	.LVL11
 3156 0102 D0000000 		.4byte	.LFE271
 3157 0106 0600     		.2byte	0x6
 3158 0108 F3       		.byte	0xf3
 3159 0109 03       		.uleb128 0x3
 3160 010a F5       		.byte	0xf5
 3161 010b 40       		.uleb128 0x40
 3162 010c 25       		.uleb128 0x25
 3163 010d 9F       		.byte	0x9f
 3164 010e 00000000 		.4byte	0
 3165 0112 00000000 		.4byte	0
 3166              	.LLST12:
 3167 0116 D0000000 		.4byte	.LVL12
 3168 011a DE000000 		.4byte	.LVL15
 3169 011e 0100     		.2byte	0x1
 3170 0120 50       		.byte	0x50
 3171 0121 DE000000 		.4byte	.LVL15
 3172 0125 E4000000 		.4byte	.LVL16
 3173 0129 0300     		.2byte	0x3
 3174 012b 70       		.byte	0x70
 3175 012c 78       		.sleb128 -8
 3176 012d 9F       		.byte	0x9f
 3177 012e E4000000 		.4byte	.LVL16
 3178 0132 E8000000 		.4byte	.LVL17
 3179 0136 0300     		.2byte	0x3
 3180 0138 70       		.byte	0x70
 3181 0139 7C       		.sleb128 -4
 3182 013a 9F       		.byte	0x9f
 3183 013b E8000000 		.4byte	.LVL17
 3184 013f 72010000 		.4byte	.LVL26
ARM GAS  C:\msys64\tmp\cceMltjI.s 			page 57


 3185 0143 0100     		.2byte	0x1
 3186 0145 50       		.byte	0x50
 3187 0146 72010000 		.4byte	.LVL26
 3188 014a 78010000 		.4byte	.LFE272
 3189 014e 0300     		.2byte	0x3
 3190 0150 70       		.byte	0x70
 3191 0151 78       		.sleb128 -8
 3192 0152 9F       		.byte	0x9f
 3193 0153 00000000 		.4byte	0
 3194 0157 00000000 		.4byte	0
 3195              	.LLST13:
 3196 015b D0000000 		.4byte	.LVL12
 3197 015f D8000000 		.4byte	.LVL14
 3198 0163 0100     		.2byte	0x1
 3199 0165 51       		.byte	0x51
 3200 0166 D8000000 		.4byte	.LVL14
 3201 016a DE000000 		.4byte	.LVL15
 3202 016e 0B00     		.2byte	0xb
 3203 0170 F3       		.byte	0xf3
 3204 0171 01       		.uleb128 0x1
 3205 0172 51       		.byte	0x51
 3206 0173 70       		.byte	0x70
 3207 0174 00       		.sleb128 0
 3208 0175 22       		.byte	0x22
 3209 0176 F3       		.byte	0xf3
 3210 0177 01       		.uleb128 0x1
 3211 0178 50       		.byte	0x50
 3212 0179 1C       		.byte	0x1c
 3213 017a 9F       		.byte	0x9f
 3214 017b DE000000 		.4byte	.LVL15
 3215 017f 66010000 		.4byte	.LVL24
 3216 0183 0D00     		.2byte	0xd
 3217 0185 70       		.byte	0x70
 3218 0186 00       		.sleb128 0
 3219 0187 F3       		.byte	0xf3
 3220 0188 01       		.uleb128 0x1
 3221 0189 51       		.byte	0x51
 3222 018a 22       		.byte	0x22
 3223 018b F3       		.byte	0xf3
 3224 018c 01       		.uleb128 0x1
 3225 018d 50       		.byte	0x50
 3226 018e 1C       		.byte	0x1c
 3227 018f 38       		.byte	0x38
 3228 0190 1C       		.byte	0x1c
 3229 0191 9F       		.byte	0x9f
 3230 0192 66010000 		.4byte	.LVL24
 3231 0196 6A010000 		.4byte	.LVL25
 3232 019a 0D00     		.2byte	0xd
 3233 019c 70       		.byte	0x70
 3234 019d 00       		.sleb128 0
 3235 019e F3       		.byte	0xf3
 3236 019f 01       		.uleb128 0x1
 3237 01a0 50       		.byte	0x50
 3238 01a1 1C       		.byte	0x1c
 3239 01a2 F3       		.byte	0xf3
 3240 01a3 01       		.uleb128 0x1
 3241 01a4 51       		.byte	0x51
ARM GAS  C:\msys64\tmp\cceMltjI.s 			page 58


 3242 01a5 22       		.byte	0x22
 3243 01a6 34       		.byte	0x34
 3244 01a7 1C       		.byte	0x1c
 3245 01a8 9F       		.byte	0x9f
 3246 01a9 6A010000 		.4byte	.LVL25
 3247 01ad 72010000 		.4byte	.LVL26
 3248 01b1 0B00     		.2byte	0xb
 3249 01b3 F3       		.byte	0xf3
 3250 01b4 01       		.uleb128 0x1
 3251 01b5 51       		.byte	0x51
 3252 01b6 70       		.byte	0x70
 3253 01b7 00       		.sleb128 0
 3254 01b8 22       		.byte	0x22
 3255 01b9 F3       		.byte	0xf3
 3256 01ba 01       		.uleb128 0x1
 3257 01bb 50       		.byte	0x50
 3258 01bc 1C       		.byte	0x1c
 3259 01bd 9F       		.byte	0x9f
 3260 01be 72010000 		.4byte	.LVL26
 3261 01c2 78010000 		.4byte	.LFE272
 3262 01c6 0D00     		.2byte	0xd
 3263 01c8 70       		.byte	0x70
 3264 01c9 00       		.sleb128 0
 3265 01ca F3       		.byte	0xf3
 3266 01cb 01       		.uleb128 0x1
 3267 01cc 51       		.byte	0x51
 3268 01cd 22       		.byte	0x22
 3269 01ce F3       		.byte	0xf3
 3270 01cf 01       		.uleb128 0x1
 3271 01d0 50       		.byte	0x50
 3272 01d1 1C       		.byte	0x1c
 3273 01d2 38       		.byte	0x38
 3274 01d3 1C       		.byte	0x1c
 3275 01d4 9F       		.byte	0x9f
 3276 01d5 00000000 		.4byte	0
 3277 01d9 00000000 		.4byte	0
 3278              	.LLST14:
 3279 01dd D0000000 		.4byte	.LVL12
 3280 01e1 D8000000 		.4byte	.LVL14
 3281 01e5 0100     		.2byte	0x1
 3282 01e7 52       		.byte	0x52
 3283 01e8 D8000000 		.4byte	.LVL14
 3284 01ec 78010000 		.4byte	.LFE272
 3285 01f0 0400     		.2byte	0x4
 3286 01f2 F3       		.byte	0xf3
 3287 01f3 01       		.uleb128 0x1
 3288 01f4 52       		.byte	0x52
 3289 01f5 9F       		.byte	0x9f
 3290 01f6 00000000 		.4byte	0
 3291 01fa 00000000 		.4byte	0
 3292              	.LLST15:
 3293 01fe D0000000 		.4byte	.LVL12
 3294 0202 D6000000 		.4byte	.LVL13
 3295 0206 0100     		.2byte	0x1
 3296 0208 53       		.byte	0x53
 3297 0209 D6000000 		.4byte	.LVL13
 3298 020d 78010000 		.4byte	.LFE272
ARM GAS  C:\msys64\tmp\cceMltjI.s 			page 59


 3299 0211 0400     		.2byte	0x4
 3300 0213 F3       		.byte	0xf3
 3301 0214 01       		.uleb128 0x1
 3302 0215 53       		.byte	0x53
 3303 0216 9F       		.byte	0x9f
 3304 0217 00000000 		.4byte	0
 3305 021b 00000000 		.4byte	0
 3306              	.LLST16:
 3307 021f D0000000 		.4byte	.LVL12
 3308 0223 74010000 		.4byte	.LVL27
 3309 0227 0200     		.2byte	0x2
 3310 0229 91       		.byte	0x91
 3311 022a 00       		.sleb128 0
 3312 022b 74010000 		.4byte	.LVL27
 3313 022f 78010000 		.4byte	.LFE272
 3314 0233 0200     		.2byte	0x2
 3315 0235 7D       		.byte	0x7d
 3316 0236 00       		.sleb128 0
 3317 0237 00000000 		.4byte	0
 3318 023b 00000000 		.4byte	0
 3319              	.LLST17:
 3320 023f D0000000 		.4byte	.LVL12
 3321 0243 D8000000 		.4byte	.LVL14
 3322 0247 0200     		.2byte	0x2
 3323 0249 30       		.byte	0x30
 3324 024a 9F       		.byte	0x9f
 3325 024b D8000000 		.4byte	.LVL14
 3326 024f 02010000 		.4byte	.LVL20
 3327 0253 0100     		.2byte	0x1
 3328 0255 52       		.byte	0x52
 3329 0256 02010000 		.4byte	.LVL20
 3330 025a 6A010000 		.4byte	.LVL25
 3331 025e 0300     		.2byte	0x3
 3332 0260 72       		.byte	0x72
 3333 0261 7F       		.sleb128 -1
 3334 0262 9F       		.byte	0x9f
 3335 0263 6A010000 		.4byte	.LVL25
 3336 0267 78010000 		.4byte	.LFE272
 3337 026b 0100     		.2byte	0x1
 3338 026d 52       		.byte	0x52
 3339 026e 00000000 		.4byte	0
 3340 0272 00000000 		.4byte	0
 3341              	.LLST18:
 3342 0276 F8000000 		.4byte	.LVL18
 3343 027a 2E010000 		.4byte	.LVL21
 3344 027e 0200     		.2byte	0x2
 3345 0280 90       		.byte	0x90
 3346 0281 4D       		.uleb128 0x4d
 3347 0282 00000000 		.4byte	0
 3348 0286 00000000 		.4byte	0
 3349              	.LLST19:
 3350 028a F8000000 		.4byte	.LVL18
 3351 028e 32010000 		.4byte	.LVL22
 3352 0292 0600     		.2byte	0x6
 3353 0294 03       		.byte	0x3
 3354 0295 00000000 		.4byte	_ZL8filter_l
 3355 0299 9F       		.byte	0x9f
ARM GAS  C:\msys64\tmp\cceMltjI.s 			page 60


 3356 029a 00000000 		.4byte	0
 3357 029e 00000000 		.4byte	0
 3358              	.LLST20:
 3359 02a2 00010000 		.4byte	.LVL19
 3360 02a6 32010000 		.4byte	.LVL22
 3361 02aa 0200     		.2byte	0x2
 3362 02ac 90       		.byte	0x90
 3363 02ad 4F       		.uleb128 0x4f
 3364 02ae 00000000 		.4byte	0
 3365 02b2 00000000 		.4byte	0
 3366              	.LLST21:
 3367 02b6 32010000 		.4byte	.LVL22
 3368 02ba 66010000 		.4byte	.LVL24
 3369 02be 0200     		.2byte	0x2
 3370 02c0 90       		.byte	0x90
 3371 02c1 4C       		.uleb128 0x4c
 3372 02c2 00000000 		.4byte	0
 3373 02c6 00000000 		.4byte	0
 3374              	.LLST22:
 3375 02ca 32010000 		.4byte	.LVL22
 3376 02ce 66010000 		.4byte	.LVL24
 3377 02d2 0600     		.2byte	0x6
 3378 02d4 03       		.byte	0x3
 3379 02d5 1C000000 		.4byte	_ZL8filter_r
 3380 02d9 9F       		.byte	0x9f
 3381 02da 00000000 		.4byte	0
 3382 02de 00000000 		.4byte	0
 3383              	.LLST23:
 3384 02e2 3E010000 		.4byte	.LVL23
 3385 02e6 66010000 		.4byte	.LVL24
 3386 02ea 0200     		.2byte	0x2
 3387 02ec 90       		.byte	0x90
 3388 02ed 4E       		.uleb128 0x4e
 3389 02ee 00000000 		.4byte	0
 3390 02f2 00000000 		.4byte	0
 3391              	.LLST24:
 3392 02f6 78010000 		.4byte	.LVL28
 3393 02fa 06020000 		.4byte	.LVL42
 3394 02fe 0100     		.2byte	0x1
 3395 0300 50       		.byte	0x50
 3396 0301 06020000 		.4byte	.LVL42
 3397 0305 A8020000 		.4byte	.LFE273
 3398 0309 0400     		.2byte	0x4
 3399 030b F3       		.byte	0xf3
 3400 030c 01       		.uleb128 0x1
 3401 030d 50       		.byte	0x50
 3402 030e 9F       		.byte	0x9f
 3403 030f 00000000 		.4byte	0
 3404 0313 00000000 		.4byte	0
 3405              	.LLST25:
 3406 0317 78010000 		.4byte	.LVL28
 3407 031b 94010000 		.4byte	.LVL31
 3408 031f 0100     		.2byte	0x1
 3409 0321 51       		.byte	0x51
 3410 0322 94010000 		.4byte	.LVL31
 3411 0326 A8020000 		.4byte	.LFE273
 3412 032a 0400     		.2byte	0x4
ARM GAS  C:\msys64\tmp\cceMltjI.s 			page 61


 3413 032c F3       		.byte	0xf3
 3414 032d 01       		.uleb128 0x1
 3415 032e 51       		.byte	0x51
 3416 032f 9F       		.byte	0x9f
 3417 0330 00000000 		.4byte	0
 3418 0334 00000000 		.4byte	0
 3419              	.LLST26:
 3420 0338 7E010000 		.4byte	.LVL29
 3421 033c 8C010000 		.4byte	.LVL30
 3422 0340 0F00     		.2byte	0xf
 3423 0342 71       		.byte	0x71
 3424 0343 00       		.sleb128 0
 3425 0344 F7       		.byte	0xf7
 3426 0345 2C       		.uleb128 0x2c
 3427 0346 F7       		.byte	0xf7
 3428 0347 25       		.uleb128 0x25
 3429 0348 F4       		.byte	0xf4
 3430 0349 25       		.uleb128 0x25
 3431 034a 04       		.byte	0x4
 3432 034b 00000030 		.4byte	0x30000000
 3433 034f 1E       		.byte	0x1e
 3434 0350 9F       		.byte	0x9f
 3435 0351 8C010000 		.4byte	.LVL30
 3436 0355 B4010000 		.4byte	.LVL32
 3437 0359 0C00     		.2byte	0xc
 3438 035b F5       		.byte	0xf5
 3439 035c 4F       		.uleb128 0x4f
 3440 035d 25       		.uleb128 0x25
 3441 035e F4       		.byte	0xf4
 3442 035f 25       		.uleb128 0x25
 3443 0360 04       		.byte	0x4
 3444 0361 00000030 		.4byte	0x30000000
 3445 0365 1E       		.byte	0x1e
 3446 0366 9F       		.byte	0x9f
 3447 0367 B4010000 		.4byte	.LVL32
 3448 036b A8020000 		.4byte	.LFE273
 3449 036f 1000     		.2byte	0x10
 3450 0371 F3       		.byte	0xf3
 3451 0372 01       		.uleb128 0x1
 3452 0373 51       		.byte	0x51
 3453 0374 F7       		.byte	0xf7
 3454 0375 2C       		.uleb128 0x2c
 3455 0376 F7       		.byte	0xf7
 3456 0377 25       		.uleb128 0x25
 3457 0378 F4       		.byte	0xf4
 3458 0379 25       		.uleb128 0x25
 3459 037a 04       		.byte	0x4
 3460 037b 00000030 		.4byte	0x30000000
 3461 037f 1E       		.byte	0x1e
 3462 0380 9F       		.byte	0x9f
 3463 0381 00000000 		.4byte	0
 3464 0385 00000000 		.4byte	0
 3465              	.LLST27:
 3466 0389 7E010000 		.4byte	.LVL29
 3467 038d E6010000 		.4byte	.LVL38
 3468 0391 0600     		.2byte	0x6
 3469 0393 9E       		.byte	0x9e
ARM GAS  C:\msys64\tmp\cceMltjI.s 			page 62


 3470 0394 04       		.uleb128 0x4
 3471 0395 00000000 		.4byte	0
 3472 0399 00000000 		.4byte	0
 3473 039d 00000000 		.4byte	0
 3474              	.LLST28:
 3475 03a1 FA010000 		.4byte	.LVL39
 3476 03a5 02020000 		.4byte	.LVL41
 3477 03a9 0200     		.2byte	0x2
 3478 03ab 90       		.byte	0x90
 3479 03ac 4F       		.uleb128 0x4f
 3480 03ad 02020000 		.4byte	.LVL41
 3481 03b1 2A020000 		.4byte	.LVL45
 3482 03b5 0500     		.2byte	0x5
 3483 03b7 03       		.byte	0x3
 3484 03b8 00000000 		.4byte	cutoff
 3485 03bc 00000000 		.4byte	0
 3486 03c0 00000000 		.4byte	0
 3487              	.LLST29:
 3488 03c4 FE010000 		.4byte	.LVL40
 3489 03c8 1A020000 		.4byte	.LVL44
 3490 03cc 0200     		.2byte	0x2
 3491 03ce 90       		.byte	0x90
 3492 03cf 4E       		.uleb128 0x4e
 3493 03d0 1A020000 		.4byte	.LVL44
 3494 03d4 2A020000 		.4byte	.LVL45
 3495 03d8 1100     		.2byte	0x11
 3496 03da 03       		.byte	0x3
 3497 03db 00000000 		.4byte	cutoff
 3498 03df F6       		.byte	0xf6
 3499 03e0 04       		.byte	0x4
 3500 03e1 25       		.uleb128 0x25
 3501 03e2 F4       		.byte	0xf4
 3502 03e3 25       		.uleb128 0x25
 3503 03e4 04       		.byte	0x4
 3504 03e5 BC9C0244 		.4byte	0x44029cbc
 3505 03e9 1E       		.byte	0x1e
 3506 03ea 9F       		.byte	0x9f
 3507 03eb 00000000 		.4byte	0
 3508 03ef 00000000 		.4byte	0
 3509              	.LLST30:
 3510 03f3 06020000 		.4byte	.LVL42
 3511 03f7 2A020000 		.4byte	.LVL45
 3512 03fb 0100     		.2byte	0x1
 3513 03fd 50       		.byte	0x50
 3514 03fe 00000000 		.4byte	0
 3515 0402 00000000 		.4byte	0
 3516              	.LLST31:
 3517 0406 16020000 		.4byte	.LVL43
 3518 040a 2A020000 		.4byte	.LVL45
 3519 040e 0200     		.2byte	0x2
 3520 0410 90       		.byte	0x90
 3521 0411 4F       		.uleb128 0x4f
 3522 0412 00000000 		.4byte	0
 3523 0416 00000000 		.4byte	0
 3524              	.LLST33:
 3525 041a 16020000 		.4byte	.LVL43
 3526 041e 1A020000 		.4byte	.LVL44
ARM GAS  C:\msys64\tmp\cceMltjI.s 			page 63


 3527 0422 0B00     		.2byte	0xb
 3528 0424 F5       		.byte	0xf5
 3529 0425 4E       		.uleb128 0x4e
 3530 0426 25       		.uleb128 0x25
 3531 0427 70       		.byte	0x70
 3532 0428 00       		.sleb128 0
 3533 0429 F7       		.byte	0xf7
 3534 042a 33       		.uleb128 0x33
 3535 042b F7       		.byte	0xf7
 3536 042c 25       		.uleb128 0x25
 3537 042d 1C       		.byte	0x1c
 3538 042e 9F       		.byte	0x9f
 3539 042f 1A020000 		.4byte	.LVL44
 3540 0433 2A020000 		.4byte	.LVL45
 3541 0437 0200     		.2byte	0x2
 3542 0439 90       		.byte	0x90
 3543 043a 4E       		.uleb128 0x4e
 3544 043b 00000000 		.4byte	0
 3545 043f 00000000 		.4byte	0
 3546              	.LLST34:
 3547 0443 BA010000 		.4byte	.LVL33
 3548 0447 E6010000 		.4byte	.LVL38
 3549 044b 0600     		.2byte	0x6
 3550 044d 9E       		.byte	0x9e
 3551 044e 04       		.uleb128 0x4
 3552 044f 0000803F 		.4byte	0x3f800000
 3553 0453 00000000 		.4byte	0
 3554 0457 00000000 		.4byte	0
 3555              	.LLST35:
 3556 045b BA010000 		.4byte	.LVL33
 3557 045f E6010000 		.4byte	.LVL38
 3558 0463 0600     		.2byte	0x6
 3559 0465 9E       		.byte	0x9e
 3560 0466 04       		.uleb128 0x4
 3561 0467 6F12833A 		.4byte	0x3a83126f
 3562 046b 00000000 		.4byte	0
 3563 046f 00000000 		.4byte	0
 3564              	.LLST38:
 3565 0473 BA010000 		.4byte	.LVL33
 3566 0477 CE010000 		.4byte	.LVL35
 3567 047b 0600     		.2byte	0x6
 3568 047d 9E       		.byte	0x9e
 3569 047e 04       		.uleb128 0x4
 3570 047f 6F12833A 		.4byte	0x3a83126f
 3571 0483 00000000 		.4byte	0
 3572 0487 00000000 		.4byte	0
 3573              	.LLST39:
 3574 048b BA010000 		.4byte	.LVL33
 3575 048f BE010000 		.4byte	.LVL34
 3576 0493 0C00     		.2byte	0xc
 3577 0495 F5       		.byte	0xf5
 3578 0496 4F       		.uleb128 0x4f
 3579 0497 25       		.uleb128 0x25
 3580 0498 F4       		.byte	0xf4
 3581 0499 25       		.uleb128 0x25
 3582 049a 04       		.byte	0x4
 3583 049b 6F12833A 		.4byte	0x3a83126f
ARM GAS  C:\msys64\tmp\cceMltjI.s 			page 64


 3584 049f 1C       		.byte	0x1c
 3585 04a0 9F       		.byte	0x9f
 3586 04a1 BE010000 		.4byte	.LVL34
 3587 04a5 CE010000 		.4byte	.LVL35
 3588 04a9 0200     		.2byte	0x2
 3589 04ab 90       		.byte	0x90
 3590 04ac 4C       		.uleb128 0x4c
 3591 04ad 00000000 		.4byte	0
 3592 04b1 00000000 		.4byte	0
 3593              	.LLST40:
 3594 04b5 CE010000 		.4byte	.LVL35
 3595 04b9 E6010000 		.4byte	.LVL38
 3596 04bd 0600     		.2byte	0x6
 3597 04bf 9E       		.byte	0x9e
 3598 04c0 04       		.uleb128 0x4
 3599 04c1 0000803F 		.4byte	0x3f800000
 3600 04c5 00000000 		.4byte	0
 3601 04c9 00000000 		.4byte	0
 3602              	.LLST41:
 3603 04cd CE010000 		.4byte	.LVL35
 3604 04d1 D2010000 		.4byte	.LVL36
 3605 04d5 0C00     		.2byte	0xc
 3606 04d7 F5       		.byte	0xf5
 3607 04d8 4F       		.uleb128 0x4f
 3608 04d9 25       		.uleb128 0x25
 3609 04da F4       		.byte	0xf4
 3610 04db 25       		.uleb128 0x25
 3611 04dc 04       		.byte	0x4
 3612 04dd 0000803F 		.4byte	0x3f800000
 3613 04e1 1C       		.byte	0x1c
 3614 04e2 9F       		.byte	0x9f
 3615 04e3 D2010000 		.4byte	.LVL36
 3616 04e7 E0010000 		.4byte	.LVL37
 3617 04eb 0200     		.2byte	0x2
 3618 04ed 90       		.byte	0x90
 3619 04ee 4E       		.uleb128 0x4e
 3620 04ef E0010000 		.4byte	.LVL37
 3621 04f3 E6010000 		.4byte	.LVL38
 3622 04f7 0C00     		.2byte	0xc
 3623 04f9 F5       		.byte	0xf5
 3624 04fa 4F       		.uleb128 0x4f
 3625 04fb 25       		.uleb128 0x25
 3626 04fc F4       		.byte	0xf4
 3627 04fd 25       		.uleb128 0x25
 3628 04fe 04       		.byte	0x4
 3629 04ff 0000803F 		.4byte	0x3f800000
 3630 0503 1C       		.byte	0x1c
 3631 0504 9F       		.byte	0x9f
 3632 0505 00000000 		.4byte	0
 3633 0509 00000000 		.4byte	0
 3634              	.LLST42:
 3635 050d B4010000 		.4byte	.LVL32
 3636 0511 BA010000 		.4byte	.LVL33
 3637 0515 0200     		.2byte	0x2
 3638 0517 90       		.byte	0x90
 3639 0518 4C       		.uleb128 0x4c
 3640 0519 00000000 		.4byte	0
ARM GAS  C:\msys64\tmp\cceMltjI.s 			page 65


 3641 051d 00000000 		.4byte	0
 3642              	.LLST43:
 3643 0521 2E020000 		.4byte	.LVL46
 3644 0525 80020000 		.4byte	.LVL50
 3645 0529 0200     		.2byte	0x2
 3646 052b 90       		.byte	0x90
 3647 052c 4C       		.uleb128 0x4c
 3648 052d 00000000 		.4byte	0
 3649 0531 00000000 		.4byte	0
 3650              	.LLST44:
 3651 0535 2E020000 		.4byte	.LVL46
 3652 0539 80020000 		.4byte	.LVL50
 3653 053d 0600     		.2byte	0x6
 3654 053f 03       		.byte	0x3
 3655 0540 00000000 		.4byte	_ZL8filter_l
 3656 0544 9F       		.byte	0x9f
 3657 0545 00000000 		.4byte	0
 3658 0549 00000000 		.4byte	0
 3659              	.LLST45:
 3660 054d 32020000 		.4byte	.LVL47
 3661 0551 68020000 		.4byte	.LVL49
 3662 0555 0800     		.2byte	0x8
 3663 0557 F5       		.byte	0xf5
 3664 0558 4A       		.uleb128 0x4a
 3665 0559 25       		.uleb128 0x25
 3666 055a F5       		.byte	0xf5
 3667 055b 4F       		.uleb128 0x4f
 3668 055c 25       		.uleb128 0x25
 3669 055d 1E       		.byte	0x1e
 3670 055e 9F       		.byte	0x9f
 3671 055f 00000000 		.4byte	0
 3672 0563 00000000 		.4byte	0
 3673              	.LLST46:
 3674 0567 44020000 		.4byte	.LVL48
 3675 056b 80020000 		.4byte	.LVL50
 3676 056f 0200     		.2byte	0x2
 3677 0571 90       		.byte	0x90
 3678 0572 4B       		.uleb128 0x4b
 3679 0573 00000000 		.4byte	0
 3680 0577 00000000 		.4byte	0
 3681              	.LLST47:
 3682 057b 00000000 		.4byte	.LVL51
 3683 057f 20000000 		.4byte	.LVL55
 3684 0583 0200     		.2byte	0x2
 3685 0585 31       		.byte	0x31
 3686 0586 9F       		.byte	0x9f
 3687 0587 00000000 		.4byte	0
 3688 058b 00000000 		.4byte	0
 3689              	.LLST48:
 3690 058f 00000000 		.4byte	.LVL51
 3691 0593 20000000 		.4byte	.LVL55
 3692 0597 0400     		.2byte	0x4
 3693 0599 0A       		.byte	0xa
 3694 059a FFFF     		.2byte	0xffff
 3695 059c 9F       		.byte	0x9f
 3696 059d 00000000 		.4byte	0
 3697 05a1 00000000 		.4byte	0
ARM GAS  C:\msys64\tmp\cceMltjI.s 			page 66


 3698              	.LLST49:
 3699 05a5 00000000 		.4byte	.LVL51
 3700 05a9 12000000 		.4byte	.LVL53
 3701 05ad 0600     		.2byte	0x6
 3702 05af 03       		.byte	0x3
 3703 05b0 00000000 		.4byte	_ZL8filter_l
 3704 05b4 9F       		.byte	0x9f
 3705 05b5 00000000 		.4byte	0
 3706 05b9 00000000 		.4byte	0
 3707              	.LLST50:
 3708 05bd 00000000 		.4byte	.LVL51
 3709 05c1 0E000000 		.4byte	.LVL52
 3710 05c5 0600     		.2byte	0x6
 3711 05c7 03       		.byte	0x3
 3712 05c8 00000000 		.4byte	_ZL8filter_l
 3713 05cc 9F       		.byte	0x9f
 3714 05cd 00000000 		.4byte	0
 3715 05d1 00000000 		.4byte	0
 3716              	.LLST51:
 3717 05d5 12000000 		.4byte	.LVL53
 3718 05d9 20000000 		.4byte	.LVL55
 3719 05dd 0600     		.2byte	0x6
 3720 05df 03       		.byte	0x3
 3721 05e0 1C000000 		.4byte	_ZL8filter_r
 3722 05e4 9F       		.byte	0x9f
 3723 05e5 00000000 		.4byte	0
 3724 05e9 00000000 		.4byte	0
 3725              	.LLST52:
 3726 05ed 12000000 		.4byte	.LVL53
 3727 05f1 1C000000 		.4byte	.LVL54
 3728 05f5 0600     		.2byte	0x6
 3729 05f7 03       		.byte	0x3
 3730 05f8 1C000000 		.4byte	_ZL8filter_r
 3731 05fc 9F       		.byte	0x9f
 3732 05fd 00000000 		.4byte	0
 3733 0601 00000000 		.4byte	0
 3734              		.section	.debug_aranges,"",%progbits
 3735 0000 24000000 		.4byte	0x24
 3736 0004 0200     		.2byte	0x2
 3737 0006 00000000 		.4byte	.Ldebug_info0
 3738 000a 04       		.byte	0x4
 3739 000b 00       		.byte	0
 3740 000c 0000     		.2byte	0
 3741 000e 0000     		.2byte	0
 3742 0010 00000000 		.4byte	.Ltext0
 3743 0014 A8020000 		.4byte	.Letext0-.Ltext0
 3744 0018 00000000 		.4byte	.LFB275
 3745 001c 28000000 		.4byte	.LFE275-.LFB275
 3746 0020 00000000 		.4byte	0
 3747 0024 00000000 		.4byte	0
 3748              		.section	.debug_ranges,"",%progbits
 3749              	.Ldebug_ranges0:
 3750 0000 04000000 		.4byte	.LBB67
 3751 0004 0E000000 		.4byte	.LBE67
 3752 0008 10000000 		.4byte	.LBB88
 3753 000c 14000000 		.4byte	.LBE88
 3754 0010 18000000 		.4byte	.LBB93
ARM GAS  C:\msys64\tmp\cceMltjI.s 			page 67


 3755 0014 1C000000 		.4byte	.LBE93
 3756 0018 1E000000 		.4byte	.LBB95
 3757 001c 32000000 		.4byte	.LBE95
 3758 0020 34000000 		.4byte	.LBB97
 3759 0024 3C000000 		.4byte	.LBE97
 3760 0028 3E000000 		.4byte	.LBB99
 3761 002c 42000000 		.4byte	.LBE99
 3762 0030 46000000 		.4byte	.LBB100
 3763 0034 4A000000 		.4byte	.LBE100
 3764 0038 00000000 		.4byte	0
 3765 003c 00000000 		.4byte	0
 3766 0040 22000000 		.4byte	.LBB69
 3767 0044 2A000000 		.4byte	.LBE69
 3768 0048 34000000 		.4byte	.LBB74
 3769 004c 3C000000 		.4byte	.LBE74
 3770 0050 3E000000 		.4byte	.LBB75
 3771 0054 42000000 		.4byte	.LBE75
 3772 0058 46000000 		.4byte	.LBB76
 3773 005c 4A000000 		.4byte	.LBE76
 3774 0060 00000000 		.4byte	0
 3775 0064 00000000 		.4byte	0
 3776 0068 0E000000 		.4byte	.LBB83
 3777 006c 10000000 		.4byte	.LBE83
 3778 0070 1C000000 		.4byte	.LBB94
 3779 0074 1E000000 		.4byte	.LBE94
 3780 0078 32000000 		.4byte	.LBB96
 3781 007c 34000000 		.4byte	.LBE96
 3782 0080 3C000000 		.4byte	.LBB98
 3783 0084 3E000000 		.4byte	.LBE98
 3784 0088 00000000 		.4byte	0
 3785 008c 00000000 		.4byte	0
 3786 0090 14000000 		.4byte	.LBB89
 3787 0094 18000000 		.4byte	.LBE89
 3788 0098 52000000 		.4byte	.LBB103
 3789 009c 5E000000 		.4byte	.LBE103
 3790 00a0 60000000 		.4byte	.LBB104
 3791 00a4 A4000000 		.4byte	.LBE104
 3792 00a8 00000000 		.4byte	0
 3793 00ac 00000000 		.4byte	0
 3794 00b0 D4000000 		.4byte	.LBB106
 3795 00b4 D6000000 		.4byte	.LBE106
 3796 00b8 E8000000 		.4byte	.LBB114
 3797 00bc F4000000 		.4byte	.LBE114
 3798 00c0 F8000000 		.4byte	.LBB115
 3799 00c4 00010000 		.4byte	.LBE115
 3800 00c8 02010000 		.4byte	.LBB116
 3801 00cc 06010000 		.4byte	.LBE116
 3802 00d0 0A010000 		.4byte	.LBB117
 3803 00d4 16010000 		.4byte	.LBE117
 3804 00d8 1A010000 		.4byte	.LBB123
 3805 00dc 2A010000 		.4byte	.LBE123
 3806 00e0 2E010000 		.4byte	.LBB125
 3807 00e4 32010000 		.4byte	.LBE125
 3808 00e8 00000000 		.4byte	0
 3809 00ec 00000000 		.4byte	0
 3810 00f0 16010000 		.4byte	.LBB118
 3811 00f4 1A010000 		.4byte	.LBE118
ARM GAS  C:\msys64\tmp\cceMltjI.s 			page 68


 3812 00f8 2A010000 		.4byte	.LBB124
 3813 00fc 2E010000 		.4byte	.LBE124
 3814 0100 32010000 		.4byte	.LBB126
 3815 0104 42010000 		.4byte	.LBE126
 3816 0108 46010000 		.4byte	.LBB127
 3817 010c 66010000 		.4byte	.LBE127
 3818 0110 00000000 		.4byte	0
 3819 0114 00000000 		.4byte	0
 3820 0118 92010000 		.4byte	.LBB128
 3821 011c 94010000 		.4byte	.LBE128
 3822 0120 F2010000 		.4byte	.LBB180
 3823 0124 F6010000 		.4byte	.LBE180
 3824 0128 FA010000 		.4byte	.LBB181
 3825 012c 22020000 		.4byte	.LBE181
 3826 0130 26020000 		.4byte	.LBB182
 3827 0134 2A020000 		.4byte	.LBE182
 3828 0138 00000000 		.4byte	0
 3829 013c 00000000 		.4byte	0
 3830 0140 06020000 		.4byte	.LBB130
 3831 0144 0E020000 		.4byte	.LBE130
 3832 0148 16020000 		.4byte	.LBB134
 3833 014c 22020000 		.4byte	.LBE134
 3834 0150 26020000 		.4byte	.LBB135
 3835 0154 2A020000 		.4byte	.LBE135
 3836 0158 00000000 		.4byte	0
 3837 015c 00000000 		.4byte	0
 3838 0160 94010000 		.4byte	.LBB139
 3839 0164 96010000 		.4byte	.LBE139
 3840 0168 A0010000 		.4byte	.LBB166
 3841 016c A2010000 		.4byte	.LBE166
 3842 0170 A6010000 		.4byte	.LBB168
 3843 0174 A8010000 		.4byte	.LBE168
 3844 0178 00000000 		.4byte	0
 3845 017c 00000000 		.4byte	0
 3846 0180 9E010000 		.4byte	.LBB143
 3847 0184 A0010000 		.4byte	.LBE143
 3848 0188 A2010000 		.4byte	.LBB167
 3849 018c A6010000 		.4byte	.LBE167
 3850 0190 BA010000 		.4byte	.LBB173
 3851 0194 BE010000 		.4byte	.LBE173
 3852 0198 C0010000 		.4byte	.LBB177
 3853 019c D2010000 		.4byte	.LBE177
 3854 01a0 D4010000 		.4byte	.LBB179
 3855 01a4 E6010000 		.4byte	.LBE179
 3856 01a8 00000000 		.4byte	0
 3857 01ac 00000000 		.4byte	0
 3858 01b0 9E010000 		.4byte	.LBB146
 3859 01b4 A0010000 		.4byte	.LBE146
 3860 01b8 A2010000 		.4byte	.LBB151
 3861 01bc A6010000 		.4byte	.LBE151
 3862 01c0 BA010000 		.4byte	.LBB152
 3863 01c4 BE010000 		.4byte	.LBE152
 3864 01c8 C0010000 		.4byte	.LBB153
 3865 01cc CE010000 		.4byte	.LBE153
 3866 01d0 00000000 		.4byte	0
 3867 01d4 00000000 		.4byte	0
 3868 01d8 CE010000 		.4byte	.LBB154
ARM GAS  C:\msys64\tmp\cceMltjI.s 			page 69


 3869 01dc D2010000 		.4byte	.LBE154
 3870 01e0 D4010000 		.4byte	.LBB157
 3871 01e4 E6010000 		.4byte	.LBE157
 3872 01e8 00000000 		.4byte	0
 3873 01ec 00000000 		.4byte	0
 3874 01f0 A8010000 		.4byte	.LBB169
 3875 01f4 B0010000 		.4byte	.LBE169
 3876 01f8 B4010000 		.4byte	.LBB172
 3877 01fc BA010000 		.4byte	.LBE172
 3878 0200 00000000 		.4byte	0
 3879 0204 00000000 		.4byte	0
 3880 0208 BE010000 		.4byte	.LBB174
 3881 020c C0010000 		.4byte	.LBE174
 3882 0210 D2010000 		.4byte	.LBB178
 3883 0214 D4010000 		.4byte	.LBE178
 3884 0218 00000000 		.4byte	0
 3885 021c 00000000 		.4byte	0
 3886 0220 2E020000 		.4byte	.LBB183
 3887 0224 3A020000 		.4byte	.LBE183
 3888 0228 3C020000 		.4byte	.LBB186
 3889 022c 80020000 		.4byte	.LBE186
 3890 0230 00000000 		.4byte	0
 3891 0234 00000000 		.4byte	0
 3892 0238 00000000 		.4byte	.Ltext0
 3893 023c A8020000 		.4byte	.Letext0
 3894 0240 00000000 		.4byte	.LFB275
 3895 0244 28000000 		.4byte	.LFE275
 3896 0248 00000000 		.4byte	0
 3897 024c 00000000 		.4byte	0
 3898              		.section	.debug_line,"",%progbits
 3899              	.Ldebug_line0:
 3900 0000 DC030000 		.section	.debug_str,"MS",%progbits,1
 3900      0200A401 
 3900      00000201 
 3900      FB0E0D00 
 3900      01010101 
 3901              	.LASF38:
 3902 0000 73657446 		.ascii	"setFOAP2\000"
 3902      4F415032 
 3902      00
 3903              	.LASF85:
 3904 0009 5F686F6F 		.ascii	"_hook_param\000"
 3904      6B5F7061 
 3904      72616D00 
 3905              	.LASF108:
 3906 0015 433A5C75 		.ascii	"C:\\users\\bradl\\Desktop\\Code Projects\\KorgFX\\K"
 3906      73657273 
 3906      5C627261 
 3906      646C5C44 
 3906      65736B74 
 3907 0042 6F726744 		.ascii	"orgDelayFXSet\\Delays\\platform\\minilogue-xd\\High"
 3907      656C6179 
 3907      46585365 
 3907      745C4465 
 3907      6C617973 
 3908 0071 50617373 		.ascii	"PassFilter\000"
 3908      46696C74 
ARM GAS  C:\msys64\tmp\cceMltjI.s 			page 70


 3908      657200
 3909              	.LASF33:
 3910 007c 5F5A4E33 		.ascii	"_ZN3dsp6BiQuad6Coeffs7setFOLPEf\000"
 3910      64737036 
 3910      42695175 
 3910      61643643 
 3910      6F656666 
 3911              	.LASF40:
 3912 009c 73657453 		.ascii	"setSODC\000"
 3912      4F444300 
 3913              	.LASF64:
 3914 00a4 70726F63 		.ascii	"process\000"
 3914      65737300 
 3915              	.LASF106:
 3916 00ac 474E5520 		.ascii	"GNU C++11 5.4.1 20160919 (release) [ARM/embedded-5-"
 3916      432B2B31 
 3916      3120352E 
 3916      342E3120 
 3916      32303136 
 3917 00df 6272616E 		.ascii	"branch revision 240496] -mcpu=cortex-m4 -mthumb -mn"
 3917      63682072 
 3917      65766973 
 3917      696F6E20 
 3917      32343034 
 3918 0112 6F2D7468 		.ascii	"o-thumb-interwork -mlittle-endian -mfloat-abi=hard "
 3918      756D622D 
 3918      696E7465 
 3918      72776F72 
 3918      6B202D6D 
 3919 0145 2D6D6670 		.ascii	"-mfpu=fpv4-sp-d16 -g -Os -std=c++11 -fsingle-precis"
 3919      753D6670 
 3919      76342D73 
 3919      702D6431 
 3919      36202D67 
 3920 0178 696F6E2D 		.ascii	"ion-constant -fcheck-new -fno-rtti -fno-exceptions "
 3920      636F6E73 
 3920      74616E74 
 3920      202D6663 
 3920      6865636B 
 3921 01ab 2D666E6F 		.ascii	"-fno-non-call-exceptions\000"
 3921      2D6E6F6E 
 3921      2D63616C 
 3921      6C2D6578 
 3921      63657074 
 3922              	.LASF1:
 3923 01c4 756E7369 		.ascii	"unsigned int\000"
 3923      676E6564 
 3923      20696E74 
 3923      00
 3924              	.LASF99:
 3925 01d1 62697472 		.ascii	"bitres_lut_f\000"
 3925      65735F6C 
 3925      75745F66 
 3925      00
 3926              	.LASF32:
 3927 01de 73657446 		.ascii	"setFOLP\000"
 3927      4F4C5000 
ARM GAS  C:\msys64\tmp\cceMltjI.s 			page 71


 3928              	.LASF7:
 3929 01e6 5F5F696E 		.ascii	"__int32_t\000"
 3929      7433325F 
 3929      7400
 3930              	.LASF80:
 3931 01f0 706C6174 		.ascii	"platform\000"
 3931      666F726D 
 3931      00
 3932              	.LASF71:
 3933 01f9 66785F74 		.ascii	"fx_tanpif\000"
 3933      616E7069 
 3933      6600
 3934              	.LASF41:
 3935 0203 5F5A4E33 		.ascii	"_ZN3dsp6BiQuad6Coeffs7setSODCEf\000"
 3935      64737036 
 3935      42695175 
 3935      61643643 
 3935      6F656666 
 3936              	.LASF94:
 3937 0223 74616E70 		.ascii	"tanpi_lut_f\000"
 3937      695F6C75 
 3937      745F6600 
 3938              	.LASF53:
 3939 022f 5F5A4E33 		.ascii	"_ZN3dsp6BiQuad6Coeffs8setSOAP2Eff\000"
 3939      64737036 
 3939      42695175 
 3939      61643643 
 3939      6F656666 
 3940              	.LASF67:
 3941 0251 636C616D 		.ascii	"clampfsel\000"
 3941      70667365 
 3941      6C00
 3942              	.LASF15:
 3943 025b 75696E74 		.ascii	"uint32_t\000"
 3943      33325F74 
 3943      00
 3944              	.LASF76:
 3945 0264 76616C66 		.ascii	"valf\000"
 3945      00
 3946              	.LASF0:
 3947 0269 666C6F61 		.ascii	"float\000"
 3947      7400
 3948              	.LASF86:
 3949 026f 696E6465 		.ascii	"index\000"
 3949      7800
 3950              	.LASF22:
 3951 0275 6B5F7573 		.ascii	"k_user_module_delfx\000"
 3951      65725F6D 
 3951      6F64756C 
 3951      655F6465 
 3951      6C667800 
 3952              	.LASF12:
 3953 0289 6C6F6E67 		.ascii	"long long unsigned int\000"
 3953      206C6F6E 
 3953      6720756E 
 3953      7369676E 
 3953      65642069 
ARM GAS  C:\msys64\tmp\cceMltjI.s 			page 72


 3954              	.LASF31:
 3955 02a0 5F5A4E33 		.ascii	"_ZN3dsp6BiQuad6Coeffs7setFODCEf\000"
 3955      64737036 
 3955      42695175 
 3955      61643643 
 3955      6F656666 
 3956              	.LASF51:
 3957 02c0 5F5A4E33 		.ascii	"_ZN3dsp6BiQuad6Coeffs8setSOAP1Eff\000"
 3957      64737036 
 3957      42695175 
 3957      61643643 
 3957      6F656666 
 3958              	.LASF27:
 3959 02e2 73657450 		.ascii	"setPoleHP\000"
 3959      6F6C6548 
 3959      5000
 3960              	.LASF87:
 3961 02ec 76616C75 		.ascii	"value\000"
 3961      6500
 3962              	.LASF77:
 3963 02f2 5F5F696E 		.ascii	"__initialize_p\000"
 3963      69746961 
 3963      6C697A65 
 3963      5F7000
 3964              	.LASF111:
 3965 0301 5F5A4E33 		.ascii	"_ZN3dsp6BiQuad6Coeffs2wcEff\000"
 3965      64737036 
 3965      42695175 
 3965      61643643 
 3965      6F656666 
 3966              	.LASF23:
 3967 031d 6B5F7573 		.ascii	"k_user_module_revfx\000"
 3967      65725F6D 
 3967      6F64756C 
 3967      655F7265 
 3967      76667800 
 3968              	.LASF44:
 3969 0331 73657453 		.ascii	"setSOHP\000"
 3969      4F485000 
 3970              	.LASF78:
 3971 0339 5F5F7072 		.ascii	"__priority\000"
 3971      696F7269 
 3971      747900
 3972              	.LASF36:
 3973 0344 73657446 		.ascii	"setFOAP\000"
 3973      4F415000 
 3974              	.LASF60:
 3975 034c 5F5A4E33 		.ascii	"_ZN3dsp6BiQuadC4Ev\000"
 3975      64737036 
 3975      42695175 
 3975      61644334 
 3975      457600
 3976              	.LASF73:
 3977 035f 636C6970 		.ascii	"clipminmaxf\000"
 3977      6D696E6D 
 3977      61786600 
 3978              	.LASF61:
ARM GAS  C:\msys64\tmp\cceMltjI.s 			page 73


 3979 036b 5F5A4E33 		.ascii	"_ZN3dsp6BiQuad10process_soEf\000"
 3979      64737036 
 3979      42695175 
 3979      61643130 
 3979      70726F63 
 3980              	.LASF105:
 3981 0388 6375746F 		.ascii	"cutoff\000"
 3981      666600
 3982              	.LASF70:
 3983 038f 716B325F 		.ascii	"qk2_k_q_r\000"
 3983      6B5F715F 
 3983      7200
 3984              	.LASF18:
 3985 0399 63686172 		.ascii	"char\000"
 3985      00
 3986              	.LASF96:
 3987 039e 706F7732 		.ascii	"pow2_lut_f\000"
 3987      5F6C7574 
 3987      5F6600
 3988              	.LASF90:
 3989 03a9 6B5F6678 		.ascii	"k_fx_api_platform\000"
 3989      5F617069 
 3989      5F706C61 
 3989      74666F72 
 3989      6D00
 3990              	.LASF56:
 3991 03bb 42695175 		.ascii	"BiQuad\000"
 3991      616400
 3992              	.LASF113:
 3993 03c2 5F5A4E33 		.ascii	"_ZN3dsp6BiQuad6Coeffs8setSOAP3Eff\000"
 3993      64737036 
 3993      42695175 
 3993      61643643 
 3993      6F656666 
 3994              	.LASF84:
 3995 03e4 6672616D 		.ascii	"frames\000"
 3995      657300
 3996              	.LASF98:
 3997 03eb 73636865 		.ascii	"schetzen_lut_f\000"
 3997      747A656E 
 3997      5F6C7574 
 3997      5F6600
 3998              	.LASF13:
 3999 03fa 75696E74 		.ascii	"uint8_t\000"
 3999      385F7400 
 4000              	.LASF93:
 4001 0402 6C6F675F 		.ascii	"log_lut_f\000"
 4001      6C75745F 
 4001      6600
 4002              	.LASF49:
 4003 040c 73657453 		.ascii	"setSOAP1\000"
 4003      4F415031 
 4003      00
 4004              	.LASF45:
 4005 0415 5F5A4E33 		.ascii	"_ZN3dsp6BiQuad6Coeffs7setSOHPEff\000"
 4005      64737036 
 4005      42695175 
ARM GAS  C:\msys64\tmp\cceMltjI.s 			page 74


 4005      61643643 
 4005      6F656666 
 4006              	.LASF112:
 4007 0436 73657453 		.ascii	"setSOAP3\000"
 4007      4F415033 
 4007      00
 4008              	.LASF11:
 4009 043f 6C6F6E67 		.ascii	"long long int\000"
 4009      206C6F6E 
 4009      6720696E 
 4009      7400
 4010              	.LASF104:
 4011 044d 7265736F 		.ascii	"resonance\000"
 4011      6E616E63 
 4011      6500
 4012              	.LASF82:
 4013 0457 7375625F 		.ascii	"sub_xn\000"
 4013      786E00
 4014              	.LASF25:
 4015 045e 6B5F6E75 		.ascii	"k_num_user_modules\000"
 4015      6D5F7573 
 4015      65725F6D 
 4015      6F64756C 
 4015      657300
 4016              	.LASF75:
 4017 0471 5F5A3861 		.ascii	"_Z8absolutef\000"
 4017      62736F6C 
 4017      75746566 
 4017      00
 4018              	.LASF29:
 4019 047e 5F5A4E33 		.ascii	"_ZN3dsp6BiQuad6Coeffs9setPoleHPEf\000"
 4019      64737036 
 4019      42695175 
 4019      61643643 
 4019      6F656666 
 4020              	.LASF30:
 4021 04a0 73657446 		.ascii	"setFODC\000"
 4021      4F444300 
 4022              	.LASF26:
 4023 04a8 73657450 		.ascii	"setPoleLP\000"
 4023      6F6C654C 
 4023      5000
 4024              	.LASF89:
 4025 04b2 72616E67 		.ascii	"range\000"
 4025      6500
 4026              	.LASF47:
 4027 04b8 5F5A4E33 		.ascii	"_ZN3dsp6BiQuad6Coeffs7setSOBPEff\000"
 4027      64737036 
 4027      42695175 
 4027      61643643 
 4027      6F656666 
 4028              	.LASF88:
 4029 04d9 696E7665 		.ascii	"invertedValf\000"
 4029      72746564 
 4029      56616C66 
 4029      00
 4030              	.LASF42:
ARM GAS  C:\msys64\tmp\cceMltjI.s 			page 75


 4031 04e6 73657453 		.ascii	"setSOLP\000"
 4031      4F4C5000 
 4032              	.LASF83:
 4033 04ee 7375625F 		.ascii	"sub_yn\000"
 4033      796E00
 4034              	.LASF24:
 4035 04f5 6B5F7573 		.ascii	"k_user_module_osc\000"
 4035      65725F6D 
 4035      6F64756C 
 4035      655F6F73 
 4035      6300
 4036              	.LASF16:
 4037 0507 6C6F6E67 		.ascii	"long double\000"
 4037      20646F75 
 4037      626C6500 
 4038              	.LASF69:
 4039 0513 74686973 		.ascii	"this\000"
 4039      00
 4040              	.LASF95:
 4041 0518 73717274 		.ascii	"sqrtm2log_lut_f\000"
 4041      6D326C6F 
 4041      675F6C75 
 4041      745F6600 
 4042              	.LASF114:
 4043 0528 5F5F7374 		.ascii	"__static_initialization_and_destruction_0\000"
 4043      61746963 
 4043      5F696E69 
 4043      7469616C 
 4043      697A6174 
 4044              	.LASF55:
 4045 0552 6D436F65 		.ascii	"mCoeffs\000"
 4045      66667300 
 4046              	.LASF39:
 4047 055a 5F5A4E33 		.ascii	"_ZN3dsp6BiQuad6Coeffs8setFOAP2Ef\000"
 4047      64737036 
 4047      42695175 
 4047      61643643 
 4047      6F656666 
 4048              	.LASF81:
 4049 057b 5F686F6F 		.ascii	"_hook_process\000"
 4049      6B5F7072 
 4049      6F636573 
 4049      7300
 4050              	.LASF79:
 4051 0589 5F686F6F 		.ascii	"_hook_init\000"
 4051      6B5F696E 
 4051      697400
 4052              	.LASF4:
 4053 0594 73686F72 		.ascii	"short int\000"
 4053      7420696E 
 4053      7400
 4054              	.LASF97:
 4055 059e 63756269 		.ascii	"cubicsat_lut_f\000"
 4055      63736174 
 4055      5F6C7574 
 4055      5F6600
 4056              	.LASF8:
ARM GAS  C:\msys64\tmp\cceMltjI.s 			page 76


 4057 05ad 6C6F6E67 		.ascii	"long int\000"
 4057      20696E74 
 4057      00
 4058              	.LASF91:
 4059 05b6 6B5F6678 		.ascii	"k_fx_api_version\000"
 4059      5F617069 
 4059      5F766572 
 4059      73696F6E 
 4059      00
 4060              	.LASF21:
 4061 05c7 6B5F7573 		.ascii	"k_user_module_modfx\000"
 4061      65725F6D 
 4061      6F64756C 
 4061      655F6D6F 
 4061      64667800 
 4062              	.LASF37:
 4063 05db 5F5A4E33 		.ascii	"_ZN3dsp6BiQuad6Coeffs7setFOAPEf\000"
 4063      64737036 
 4063      42695175 
 4063      61643643 
 4063      6F656666 
 4064              	.LASF74:
 4065 05fb 6162736F 		.ascii	"absolute\000"
 4065      6C757465 
 4065      00
 4066              	.LASF58:
 4067 0604 5F5A4E33 		.ascii	"_ZN3dsp6BiQuad5flushEv\000"
 4067      64737036 
 4067      42695175 
 4067      61643566 
 4067      6C757368 
 4068              	.LASF50:
 4069 061b 5F5A4E33 		.ascii	"_ZN3dsp6BiQuad6Coeffs7setSOBREff\000"
 4069      64737036 
 4069      42695175 
 4069      61643643 
 4069      6F656666 
 4070              	.LASF59:
 4071 063c 70726F63 		.ascii	"process_so\000"
 4071      6573735F 
 4071      736F00
 4072              	.LASF107:
 4073 0647 2E2F7372 		.ascii	"./src/HPF.cpp\000"
 4073      632F4850 
 4073      462E6370 
 4073      7000
 4074              	.LASF6:
 4075 0655 5F5F7569 		.ascii	"__uint8_t\000"
 4075      6E74385F 
 4075      7400
 4076              	.LASF52:
 4077 065f 73657453 		.ascii	"setSOAP2\000"
 4077      4F415032 
 4077      00
 4078              	.LASF66:
 4079 0668 6673656C 		.ascii	"fsel\000"
 4079      00
ARM GAS  C:\msys64\tmp\cceMltjI.s 			page 77


 4080              	.LASF57:
 4081 066d 666C7573 		.ascii	"flush\000"
 4081      6800
 4082              	.LASF115:
 4083 0673 5F474C4F 		.ascii	"_GLOBAL__sub_I_curSampleL\000"
 4083      42414C5F 
 4083      5F737562 
 4083      5F495F63 
 4083      75725361 
 4084              	.LASF72:
 4085 068d 69647866 		.ascii	"idxf\000"
 4085      00
 4086              	.LASF17:
 4087 0692 73697A65 		.ascii	"sizetype\000"
 4087      74797065 
 4087      00
 4088              	.LASF10:
 4089 069b 6C6F6E67 		.ascii	"long unsigned int\000"
 4089      20756E73 
 4089      69676E65 
 4089      6420696E 
 4089      7400
 4090              	.LASF92:
 4091 06ad 77745F73 		.ascii	"wt_sine_lut_f\000"
 4091      696E655F 
 4091      6C75745F 
 4091      6600
 4092              	.LASF14:
 4093 06bb 696E7433 		.ascii	"int32_t\000"
 4093      325F7400 
 4094              	.LASF35:
 4095 06c3 5F5A4E33 		.ascii	"_ZN3dsp6BiQuad6Coeffs7setFOHPEf\000"
 4095      64737036 
 4095      42695175 
 4095      61643643 
 4095      6F656666 
 4096              	.LASF68:
 4097 06e3 6C696E69 		.ascii	"linintf\000"
 4097      6E746600 
 4098              	.LASF65:
 4099 06eb 5F5A4E33 		.ascii	"_ZN3dsp6BiQuad7processEf\000"
 4099      64737036 
 4099      42695175 
 4099      61643770 
 4099      726F6365 
 4100              	.LASF34:
 4101 0704 73657446 		.ascii	"setFOHP\000"
 4101      4F485000 
 4102              	.LASF3:
 4103 070c 756E7369 		.ascii	"unsigned char\000"
 4103      676E6564 
 4103      20636861 
 4103      7200
 4104              	.LASF102:
 4105 071a 66696C74 		.ascii	"filter_l\000"
 4105      65725F6C 
 4105      00
ARM GAS  C:\msys64\tmp\cceMltjI.s 			page 78


 4106              	.LASF9:
 4107 0723 5F5F7569 		.ascii	"__uint32_t\000"
 4107      6E743332 
 4107      5F7400
 4108              	.LASF103:
 4109 072e 66696C74 		.ascii	"filter_r\000"
 4109      65725F72 
 4109      00
 4110              	.LASF100:
 4111 0737 63757253 		.ascii	"curSampleL\000"
 4111      616D706C 
 4111      654C00
 4112              	.LASF20:
 4113 0742 6B5F7573 		.ascii	"k_user_module_global\000"
 4113      65725F6D 
 4113      6F64756C 
 4113      655F676C 
 4113      6F62616C 
 4114              	.LASF101:
 4115 0757 63757253 		.ascii	"curSampleR\000"
 4115      616D706C 
 4115      655200
 4116              	.LASF109:
 4117 0762 6465636C 		.ascii	"decltype(nullptr)\000"
 4117      74797065 
 4117      286E756C 
 4117      6C707472 
 4117      2900
 4118              	.LASF28:
 4119 0774 5F5A4E33 		.ascii	"_ZN3dsp6BiQuad6Coeffs9setPoleLPEf\000"
 4119      64737036 
 4119      42695175 
 4119      61643643 
 4119      6F656666 
 4120              	.LASF62:
 4121 0796 70726F63 		.ascii	"process_fo\000"
 4121      6573735F 
 4121      666F00
 4122              	.LASF63:
 4123 07a1 5F5A4E33 		.ascii	"_ZN3dsp6BiQuad10process_foEf\000"
 4123      64737036 
 4123      42695175 
 4123      61643130 
 4123      70726F63 
 4124              	.LASF54:
 4125 07be 436F6566 		.ascii	"Coeffs\000"
 4125      667300
 4126              	.LASF2:
 4127 07c5 7369676E 		.ascii	"signed char\000"
 4127      65642063 
 4127      68617200 
 4128              	.LASF5:
 4129 07d1 73686F72 		.ascii	"short unsigned int\000"
 4129      7420756E 
 4129      7369676E 
 4129      65642069 
 4129      6E7400
ARM GAS  C:\msys64\tmp\cceMltjI.s 			page 79


 4130              	.LASF46:
 4131 07e4 73657453 		.ascii	"setSOBP\000"
 4131      4F425000 
 4132              	.LASF48:
 4133 07ec 73657453 		.ascii	"setSOBR\000"
 4133      4F425200 
 4134              	.LASF19:
 4135 07f4 646F7562 		.ascii	"double\000"
 4135      6C6500
 4136              	.LASF110:
 4137 07fb 5F5A4E33 		.ascii	"_ZN3dsp6BiQuad6CoeffsC4Ev\000"
 4137      64737036 
 4137      42695175 
 4137      61643643 
 4137      6F656666 
 4138              	.LASF43:
 4139 0815 5F5A4E33 		.ascii	"_ZN3dsp6BiQuad6Coeffs7setSOLPEff\000"
 4139      64737036 
 4139      42695175 
 4139      61643643 
 4139      6F656666 
 4140              		.ident	"GCC: (GNU Tools for ARM Embedded Processors) 5.4.1 20160919 (release) [ARM/embedded-5-bran
ARM GAS  C:\msys64\tmp\cceMltjI.s 			page 80


DEFINED SYMBOLS
                            *ABS*:00000000 HPF.cpp
C:\msys64\tmp\cceMltjI.s:21     .text:00000000 $t
C:\msys64\tmp\cceMltjI.s:26     .text:00000000 _hook_init
C:\msys64\tmp\cceMltjI.s:215    .text:000000b0 $d
C:\msys64\tmp\cceMltjI.s:222    .text:000000c0 $t
C:\msys64\tmp\cceMltjI.s:227    .text:000000c0 _Z8absolutef
C:\msys64\tmp\cceMltjI.s:252    .text:000000d0 _hook_process
C:\msys64\tmp\cceMltjI.s:401    .text:00000174 $d
C:\msys64\tmp\cceMltjI.s:406    .text:00000178 $t
C:\msys64\tmp\cceMltjI.s:411    .text:00000178 _hook_param
C:\msys64\tmp\cceMltjI.s:690    .text:0000028c $d
C:\msys64\tmp\cceMltjI.s:701    .text.startup:00000000 $t
C:\msys64\tmp\cceMltjI.s:705    .text.startup:00000000 _GLOBAL__sub_I_curSampleL
C:\msys64\tmp\cceMltjI.s:756    .text.startup:00000024 $d
C:\msys64\tmp\cceMltjI.s:764    .init_array:00000000 $d
C:\msys64\tmp\cceMltjI.s:775    .data:00000000 cutoff
C:\msys64\tmp\cceMltjI.s:779    .data:00000004 resonance
C:\msys64\tmp\cceMltjI.s:798    .bss:0000003c curSampleR
C:\msys64\tmp\cceMltjI.s:794    .bss:00000038 curSampleL
C:\msys64\tmp\cceMltjI.s:771    .data:00000000 $d
C:\msys64\tmp\cceMltjI.s:782    .bss:00000000 $d
C:\msys64\tmp\cceMltjI.s:786    .bss:00000000 _ZL8filter_l
C:\msys64\tmp\cceMltjI.s:790    .bss:0000001c _ZL8filter_r
                     .debug_frame:00000010 $d

UNDEFINED SYMBOLS
tanpi_lut_f
