ARM GAS  C:\msys64\tmp\ccgwlbQp.s 			page 1


   1              		.syntax unified
   2              		.cpu cortex-m4
   3              		.eabi_attribute 27, 1
   4              		.eabi_attribute 28, 1
   5              		.fpu fpv4-sp-d16
   6              		.eabi_attribute 20, 1
   7              		.eabi_attribute 21, 1
   8              		.eabi_attribute 23, 3
   9              		.eabi_attribute 24, 1
  10              		.eabi_attribute 25, 1
  11              		.eabi_attribute 26, 1
  12              		.eabi_attribute 30, 4
  13              		.eabi_attribute 34, 1
  14              		.eabi_attribute 18, 4
  15              		.thumb
  16              		.syntax unified
  17              		.file	"HPF.cpp"
  18              		.text
  19              	.Ltext0:
  20              		.cfi_sections	.debug_frame
  21              		.align	1
  22              		.global	_hook_init
  23              		.thumb
  24              		.thumb_func
  25              		.type	_hook_init, %function
  26              	_hook_init:
  27              	.LFB270:
  28              		.file 1 "./src/HPF.cpp"
  29              		.loc 1 15 0
  30              		.cfi_startproc
  31              		@ args = 0, pretend = 0, frame = 0
  32              		@ frame_needed = 0, uses_anonymous_args = 0
  33              	.LVL0:
  34 0000 30B5     		push	{r4, r5, lr}
  35              		.cfi_def_cfa_offset 12
  36              		.cfi_offset 4, -12
  37              		.cfi_offset 5, -8
  38              		.cfi_offset 14, -4
  39              		.loc 1 17 0
  40 0002 2B4C     		ldr	r4, .L2
  41              	.LBB63:
  42              	.LBB64:
  43              		.file 2 "./inc/fx_api.h"
  44              		.loc 2 234 0
  45 0004 9FED2B7A 		vldr.32	s14, .L2+4
  46 0008 D4ED007A 		vldr.32	s15, [r4]
  47              		.loc 2 236 0
  48 000c 2A49     		ldr	r1, .L2+8
  49              	.LVL1:
  50              	.LBE64:
  51              	.LBE63:
  52              	.LBB79:
  53              	.LBB80:
  54              		.file 3 "../inc/dsp/biquad.hpp"
  55              		.loc 3 356 0
  56 000e 2B4B     		ldr	r3, .L2+12
  57              	.LBE80:
ARM GAS  C:\msys64\tmp\ccgwlbQp.s 			page 2


  58              	.LBE79:
  59              	.LBB84:
  60              	.LBB73:
  61              		.loc 2 234 0
  62 0010 27EE877A 		vmul.f32	s14, s15, s14
  63              	.LBE73:
  64              	.LBE84:
  65              	.LBB85:
  66              	.LBB86:
  67              		.loc 3 236 0
  68 0014 B7EE005A 		vmov.f32	s10, #1.0e+0
  69              	.LBE86:
  70              	.LBE85:
  71              	.LBB89:
  72              	.LBB74:
  73              		.loc 2 235 0
  74 0018 FCEEC77A 		vcvt.u32.f32	s15, s14
  75              	.LBE74:
  76              	.LBE89:
  77              	.LBB90:
  78              	.LBB81:
  79              		.loc 3 356 0
  80 001c 0022     		movs	r2, #0
  81              	.LBE81:
  82              	.LBE90:
  83              	.LBB91:
  84              	.LBB75:
  85              		.loc 2 235 0
  86 001e 17EE900A 		vmov	r0, s15	@ int
  87              	.LVL2:
  88              	.LBB65:
  89              	.LBB66:
  90              		.file 4 "../inc/utils/float_math.h"
  91              		.loc 4 826 0
  92 0022 06EE900A 		vmov	s13, r0	@ int
  93 0026 F8EE666A 		vcvt.f32.u32	s13, s13
  94              	.LBE66:
  95              	.LBE65:
  96              		.loc 2 236 0
  97 002a 01EB8005 		add	r5, r1, r0, lsl #2
  98 002e D5ED007A 		vldr.32	s15, [r5]
  99              	.LBE75:
 100              	.LBE91:
 101              	.LBB92:
 102              	.LBB82:
 103              		.loc 3 356 0
 104 0032 9A61     		str	r2, [r3, #24]	@ float
 105              	.LBE82:
 106              	.LBE92:
 107              	.LBB93:
 108              	.LBB76:
 109              	.LBB70:
 110              	.LBB67:
 111              		.loc 4 826 0
 112 0034 37EE667A 		vsub.f32	s14, s14, s13
 113 0038 D5ED016A 		vldr.32	s13, [r5, #4]
 114              	.LBE67:
ARM GAS  C:\msys64\tmp\ccgwlbQp.s 			page 3


 115              	.LBE70:
 116              	.LBE76:
 117              	.LBE93:
 118              	.LBB94:
 119              	.LBB83:
 120              		.loc 3 356 0
 121 003c 5A61     		str	r2, [r3, #20]	@ float
 122              	.LVL3:
 123              	.LBE83:
 124              	.LBE94:
 125              	.LBB95:
 126              	.LBB77:
 127              	.LBB71:
 128              	.LBB68:
 129              		.loc 4 826 0
 130 003e 76EEE76A 		vsub.f32	s13, s13, s15
 131              	.LBE68:
 132              	.LBE71:
 133              	.LBE77:
 134              	.LBE95:
 135              		.loc 1 19 0
 136 0042 03F11C05 		add	r5, r3, #28
 137              	.LBB96:
 138              	.LBB78:
 139              	.LBB72:
 140              	.LBB69:
 141              		.loc 4 826 0
 142 0046 E7EE267A 		vfma.f32	s15, s14, s13
 143              	.LVL4:
 144              	.LBE69:
 145              	.LBE72:
 146              	.LBE78:
 147              	.LBE96:
 148              	.LBB97:
 149              	.LBB98:
 150              		.loc 3 356 0
 151 004a 5A63     		str	r2, [r3, #52]	@ float
 152 004c 1A63     		str	r2, [r3, #48]	@ float
 153              	.LBE98:
 154              	.LBE97:
 155              		.loc 1 17 0
 156 004e D4ED016A 		vldr.32	s13, [r4, #4]
 157              	.LVL5:
 158              	.LBB99:
 159              	.LBB87:
 160              		.loc 3 235 0
 161 0052 66EEA75A 		vmul.f32	s11, s13, s15
 162              	.LVL6:
 163              		.loc 3 236 0
 164 0056 B0EE677A 		vmov.f32	s14, s15
 165 005a A5EEA77A 		vfma.f32	s14, s11, s15
 166              	.LBE87:
 167              	.LBE99:
 168              		.loc 1 19 0
 169 005e 1C46     		mov	r4, r3
 170              	.LBB100:
 171              	.LBB88:
ARM GAS  C:\msys64\tmp\ccgwlbQp.s 			page 4


 172              		.loc 3 236 0
 173 0060 37EE267A 		vadd.f32	s14, s14, s13
 174 0064 85EE076A 		vdiv.f32	s12, s10, s14
 175              	.LVL7:
 176              		.loc 3 238 0
 177 0068 B8EE005A 		vmov.f32	s10, #-2.0e+0
 178              		.loc 3 237 0
 179 006c 26EE867A 		vmul.f32	s14, s13, s12
 180 0070 83ED027A 		vstr.32	s14, [r3, #8]
 181 0074 83ED007A 		vstr.32	s14, [r3]
 182              		.loc 3 238 0
 183 0078 27EE057A 		vmul.f32	s14, s14, s10
 184 007c 83ED017A 		vstr.32	s14, [r3, #4]
 185              		.loc 3 239 0
 186 0080 B0EE667A 		vmov.f32	s14, s13
 187 0084 95EEA77A 		vfnms.f32	s14, s11, s15
 188              		.loc 3 240 0
 189 0088 D5EEA77A 		vfnms.f32	s15, s11, s15
 190              	.LVL8:
 191              		.loc 3 239 0
 192 008c 27EE067A 		vmul.f32	s14, s14, s12
 193              		.loc 3 240 0
 194 0090 77EEA67A 		vadd.f32	s15, s15, s13
 195              		.loc 3 239 0
 196 0094 37EE077A 		vadd.f32	s14, s14, s14
 197              		.loc 3 240 0
 198 0098 67EE867A 		vmul.f32	s15, s15, s12
 199              		.loc 3 239 0
 200 009c 83ED037A 		vstr.32	s14, [r3, #12]
 201              		.loc 3 240 0
 202 00a0 C3ED047A 		vstr.32	s15, [r3, #16]
 203              	.LVL9:
 204              	.LBE88:
 205              	.LBE100:
 206              		.loc 1 19 0
 207 00a4 0FCC     		ldmia	r4!, {r0, r1, r2, r3}
 208 00a6 0FC5     		stmia	r5!, {r0, r1, r2, r3}
 209 00a8 2368     		ldr	r3, [r4]
 210 00aa 2B60     		str	r3, [r5]
 211 00ac 30BD     		pop	{r4, r5, pc}
 212              	.L3:
 213 00ae 00BF     		.align	2
 214              	.L2:
 215 00b0 00000000 		.word	.LANCHOR1
 216 00b4 BC9C0244 		.word	1141021884
 217 00b8 00000000 		.word	tanpi_lut_f
 218 00bc 00000000 		.word	.LANCHOR0
 219              		.cfi_endproc
 220              	.LFE270:
 221              		.size	_hook_init, .-_hook_init
 222              		.align	1
 223              		.global	_Z8absolutef
 224              		.thumb
 225              		.thumb_func
 226              		.type	_Z8absolutef, %function
 227              	_Z8absolutef:
 228              	.LFB271:
ARM GAS  C:\msys64\tmp\ccgwlbQp.s 			page 5


 229              		.loc 1 23 0
 230              		.cfi_startproc
 231              		@ args = 0, pretend = 0, frame = 0
 232              		@ frame_needed = 0, uses_anonymous_args = 0
 233              		@ link register save eliminated.
 234              	.LVL10:
 235              		.loc 1 24 0
 236 00c0 B5EEC00A 		vcmpe.f32	s0, #0
 237 00c4 F1EE10FA 		vmrs	APSR_nzcv, FPSCR
 238              		.loc 1 25 0
 239 00c8 48BF     		it	mi
 240 00ca B1EE400A 		vnegmi.f32	s0, s0
 241              	.LVL11:
 242              		.loc 1 27 0
 243 00ce 7047     		bx	lr
 244              		.cfi_endproc
 245              	.LFE271:
 246              		.size	_Z8absolutef, .-_Z8absolutef
 247              		.align	1
 248              		.global	_hook_process
 249              		.thumb
 250              		.thumb_func
 251              		.type	_hook_process, %function
 252              	_hook_process:
 253              	.LFB272:
 254              		.loc 1 32 0
 255              		.cfi_startproc
 256              		@ args = 4, pretend = 0, frame = 0
 257              		@ frame_needed = 0, uses_anonymous_args = 0
 258              	.LVL12:
 259 00d0 30B5     		push	{r4, r5, lr}
 260              		.cfi_def_cfa_offset 12
 261              		.cfi_offset 4, -12
 262              		.cfi_offset 5, -8
 263              		.cfi_offset 14, -4
 264              		.loc 1 32 0
 265 00d2 039D     		ldr	r5, [sp, #12]
 266              	.LBB101:
 267              	.LBB102:
 268              	.LBB103:
 269              		.loc 3 368 0
 270 00d4 274B     		ldr	r3, .L15
 271              	.LVL13:
 272              	.LBE103:
 273              	.LBE102:
 274              		.loc 1 33 0
 275 00d6 0022     		movs	r2, #0
 276              	.LVL14:
 277              	.L12:
 278              		.loc 1 33 0 is_stmt 0 discriminator 3
 279 00d8 AA42     		cmp	r2, r5
 280 00da 00F10800 		add	r0, r0, #8
 281              	.LVL15:
 282 00de 01F10801 		add	r1, r1, #8
 283 00e2 46D0     		beq	.L10
 284              	.LVL16:
 285              		.loc 1 35 0 is_stmt 1 discriminator 2
ARM GAS  C:\msys64\tmp\ccgwlbQp.s 			page 6


 286 00e4 50ED026A 		vldr.32	s13, [r0, #-8]
 287              	.LVL17:
 288              	.LBB110:
 289              	.LBB104:
 290              		.loc 3 368 0 discriminator 2
 291 00e8 93ED007A 		vldr.32	s14, [r3]
 292 00ec D3ED057A 		vldr.32	s15, [r3, #20]
 293              		.loc 3 371 0 discriminator 2
 294 00f0 93ED015A 		vldr.32	s10, [r3, #4]
 295              	.LBE104:
 296              	.LBE110:
 297              		.loc 1 36 0 discriminator 2
 298 00f4 10ED016A 		vldr.32	s12, [r0, #-4]
 299              	.LVL18:
 300              	.LBB111:
 301              	.LBB105:
 302              		.loc 3 370 0 discriminator 2
 303 00f8 D3ED025A 		vldr.32	s11, [r3, #8]
 304              		.loc 3 368 0 discriminator 2
 305 00fc E6EE877A 		vfma.f32	s15, s13, s14
 306              	.LVL19:
 307              	.LBE105:
 308              	.LBE111:
 309              		.loc 1 33 0 discriminator 2
 310 0100 0132     		adds	r2, r2, #1
 311              	.LVL20:
 312              	.LBB112:
 313              	.LBB106:
 314              		.loc 3 371 0 discriminator 2
 315 0102 93ED067A 		vldr.32	s14, [r3, #24]
 316              	.LBE106:
 317              	.LBE112:
 318              		.loc 1 38 0 discriminator 2
 319 0106 C3ED0E7A 		vstr.32	s15, [r3, #56]
 320              	.LBB113:
 321              	.LBB107:
 322              		.loc 3 371 0 discriminator 2
 323 010a A6EE857A 		vfma.f32	s14, s13, s10
 324 010e 93ED035A 		vldr.32	s10, [r3, #12]
 325 0112 A7EEC57A 		vfms.f32	s14, s15, s10
 326              	.LBE107:
 327              	.LBE113:
 328              	.LBB114:
 329              	.LBB115:
 330 0116 93ED085A 		vldr.32	s10, [r3, #32]
 331              	.LBE115:
 332              	.LBE114:
 333              	.LBB119:
 334              	.LBB108:
 335 011a 83ED057A 		vstr.32	s14, [r3, #20]
 336              		.loc 3 372 0 discriminator 2
 337 011e 93ED047A 		vldr.32	s14, [r3, #16]
 338 0122 27EE677A 		vnmul.f32	s14, s14, s15
 339 0126 A6EEA57A 		vfma.f32	s14, s13, s11
 340              	.LBE108:
 341              	.LBE119:
 342              	.LBB120:
ARM GAS  C:\msys64\tmp\ccgwlbQp.s 			page 7


 343              	.LBB116:
 344              		.loc 3 368 0 discriminator 2
 345 012a D3ED076A 		vldr.32	s13, [r3, #28]
 346              	.LVL21:
 347              	.LBE116:
 348              	.LBE120:
 349              	.LBB121:
 350              	.LBB109:
 351              		.loc 3 372 0 discriminator 2
 352 012e 83ED067A 		vstr.32	s14, [r3, #24]
 353              	.LVL22:
 354              	.LBE109:
 355              	.LBE121:
 356              	.LBB122:
 357              	.LBB117:
 358              		.loc 3 368 0 discriminator 2
 359 0132 93ED0C7A 		vldr.32	s14, [r3, #48]
 360              		.loc 3 370 0 discriminator 2
 361 0136 D3ED095A 		vldr.32	s11, [r3, #36]
 362              		.loc 3 368 0 discriminator 2
 363 013a A6EE267A 		vfma.f32	s14, s12, s13
 364              	.LVL23:
 365              		.loc 3 371 0 discriminator 2
 366 013e D3ED0D6A 		vldr.32	s13, [r3, #52]
 367              	.LBE117:
 368              	.LBE122:
 369              		.loc 1 39 0 discriminator 2
 370 0142 83ED0F7A 		vstr.32	s14, [r3, #60]
 371              	.LBB123:
 372              	.LBB118:
 373              		.loc 3 371 0 discriminator 2
 374 0146 E6EE056A 		vfma.f32	s13, s12, s10
 375 014a 93ED0A5A 		vldr.32	s10, [r3, #40]
 376 014e E7EE456A 		vfms.f32	s13, s14, s10
 377 0152 C3ED0C6A 		vstr.32	s13, [r3, #48]
 378              		.loc 3 372 0 discriminator 2
 379 0156 D3ED0B6A 		vldr.32	s13, [r3, #44]
 380 015a 66EEC76A 		vnmul.f32	s13, s13, s14
 381 015e E6EE256A 		vfma.f32	s13, s12, s11
 382 0162 C3ED0D6A 		vstr.32	s13, [r3, #52]
 383              	.LVL24:
 384              	.LBE118:
 385              	.LBE123:
 386              		.loc 1 41 0 discriminator 2
 387 0166 41ED027A 		vstr.32	s15, [r1, #-8]
 388              	.LVL25:
 389              		.loc 1 42 0 discriminator 2
 390 016a DC6B     		ldr	r4, [r3, #60]	@ float
 391 016c 41F8044C 		str	r4, [r1, #-4]	@ float
 392              		.loc 1 33 0 discriminator 2
 393 0170 B2E7     		b	.L12
 394              	.LVL26:
 395              	.L10:
 396 0172 30BD     		pop	{r4, r5, pc}
 397              	.LVL27:
 398              	.L16:
 399              		.align	2
ARM GAS  C:\msys64\tmp\ccgwlbQp.s 			page 8


 400              	.L15:
 401 0174 00000000 		.word	.LANCHOR0
 402              	.LBE101:
 403              		.cfi_endproc
 404              	.LFE272:
 405              		.size	_hook_process, .-_hook_process
 406              		.align	1
 407              		.global	_hook_param
 408              		.thumb
 409              		.thumb_func
 410              		.type	_hook_param, %function
 411              	_hook_param:
 412              	.LFB274:
 413              		.loc 1 53 0
 414              		.cfi_startproc
 415              		@ args = 0, pretend = 0, frame = 0
 416              		@ frame_needed = 0, uses_anonymous_args = 0
 417              	.LVL28:
 418 0178 30B5     		push	{r4, r5, lr}
 419              		.cfi_def_cfa_offset 12
 420              		.cfi_offset 4, -12
 421              		.cfi_offset 5, -8
 422              		.cfi_offset 14, -4
 423              		.loc 1 53 0
 424 017a 07EE901A 		vmov	s15, r1	@ int
 425              	.LVL29:
 426              		.loc 1 57 0
 427 017e 0028     		cmp	r0, #0
 428 0180 40F08980 		bne	.L17
 429              		.loc 1 60 0
 430 0184 F7EE006A 		vmov.f32	s13, #1.0e+0
 431 0188 F8EEE77A 		vcvt.f32.s32	s15, s15
 432              	.LVL30:
 433 018c 9FED427A 		vldr.32	s14, .L27
 434              	.LBB124:
 435              	.LBB125:
 436              		.loc 1 48 0
 437 0190 424B     		ldr	r3, .L27+4
 438 0192 4349     		ldr	r1, .L27+8
 439              	.LVL31:
 440              	.LBE125:
 441              	.LBE124:
 442              	.LBB129:
 443              	.LBB130:
 444              		.loc 2 236 0
 445 0194 434A     		ldr	r2, .L27+12
 446              	.LBE130:
 447              	.LBE129:
 448              		.loc 1 60 0
 449 0196 B0EE666A 		vmov.f32	s12, s13
 450 019a A7EEC76A 		vfms.f32	s12, s15, s14
 451              		.loc 1 65 0
 452 019e 03F11C05 		add	r5, r3, #28
 453              	.LBB141:
 454              	.LBB142:
 455              	.LBB143:
 456              	.LBB144:
ARM GAS  C:\msys64\tmp\ccgwlbQp.s 			page 9


 457              	.LBB145:
 458              		.loc 4 193 0
 459 01a2 9FED417A 		vldr.32	s14, .L27+16
 460              	.LBE145:
 461              	.LBE144:
 462              	.LBE143:
 463              	.LBE142:
 464              	.LBE141:
 465              	.LBB156:
 466              	.LBB157:
 467              		.loc 1 24 0
 468 01a6 B5EEC06A 		vcmpe.f32	s12, #0
 469 01aa F1EE10FA 		vmrs	APSR_nzcv, FPSCR
 470              	.LBE157:
 471              	.LBE156:
 472              		.loc 1 60 0
 473 01ae F0EE467A 		vmov.f32	s15, s12
 474              	.LVL32:
 475              	.LBB159:
 476              	.LBB158:
 477              		.loc 1 25 0
 478 01b2 48BF     		it	mi
 479 01b4 F1EE467A 		vnegmi.f32	s15, s12
 480              	.LVL33:
 481              	.LBE158:
 482              	.LBE159:
 483              	.LBB160:
 484              	.LBB154:
 485              	.LBB152:
 486              	.LBB147:
 487              	.LBB146:
 488              		.loc 4 193 0
 489 01b8 37EEC76A 		vsub.f32	s12, s15, s14
 490              	.LVL34:
 491 01bc B5EEC06A 		vcmpe.f32	s12, #0
 492 01c0 F1EE10FA 		vmrs	APSR_nzcv, FPSCR
 493 01c4 B8BF     		it	lt
 494 01c6 F0EE477A 		vmovlt.f32	s15, s14
 495              	.LVL35:
 496              	.LBE146:
 497              	.LBE147:
 498              	.LBB148:
 499              	.LBB149:
 500 01ca 37EEE67A 		vsub.f32	s14, s15, s13
 501              	.LVL36:
 502              	.LBE149:
 503              	.LBE148:
 504              	.LBE152:
 505              	.LBE154:
 506              	.LBE160:
 507              	.LBB161:
 508              	.LBB126:
 509              		.loc 1 48 0
 510 01ce 91ED026A 		vldr.32	s12, [r1, #8]
 511              	.LBE126:
 512              	.LBE161:
 513              	.LBB162:
ARM GAS  C:\msys64\tmp\ccgwlbQp.s 			page 10


 514              	.LBB155:
 515              	.LBB153:
 516              	.LBB151:
 517              	.LBB150:
 518              		.loc 4 193 0
 519 01d2 B5EE407A 		vcmp.f32	s14, #0
 520 01d6 F1EE10FA 		vmrs	APSR_nzcv, FPSCR
 521 01da B7EE007A 		vmov.f32	s14, #1.0e+0
 522              	.LVL37:
 523 01de A8BF     		it	ge
 524 01e0 F0EE477A 		vmovge.f32	s15, s14
 525              	.LVL38:
 526              	.LBE150:
 527              	.LBE151:
 528              	.LBE153:
 529              	.LBE155:
 530              	.LBE162:
 531              	.LBB163:
 532              	.LBB127:
 533              		.loc 1 48 0
 534 01e4 86EEA77A 		vdiv.f32	s14, s13, s15
 535 01e8 DFED307A 		vldr.32	s15, .L27+20
 536              	.LVL39:
 537 01ec 27EE277A 		vmul.f32	s14, s14, s15
 538              	.LVL40:
 539 01f0 D3ED107A 		vldr.32	s15, [r3, #64]
 540 01f4 67EE867A 		vmul.f32	s15, s15, s12
 541 01f8 93ED116A 		vldr.32	s12, [r3, #68]
 542 01fc E7EE067A 		vfma.f32	s15, s14, s12
 543              	.LBE127:
 544              	.LBE163:
 545              	.LBB164:
 546              	.LBB137:
 547              		.loc 2 234 0
 548 0200 9FED2B7A 		vldr.32	s14, .L27+24
 549              	.LVL41:
 550              	.LBE137:
 551              	.LBE164:
 552              	.LBB165:
 553              	.LBB128:
 554              		.loc 1 48 0
 555 0204 C3ED107A 		vstr.32	s15, [r3, #64]
 556              	.LVL42:
 557              	.LBE128:
 558              	.LBE165:
 559              	.LBB166:
 560              	.LBB138:
 561              		.loc 2 234 0
 562 0208 27EE877A 		vmul.f32	s14, s15, s14
 563              	.LBE138:
 564              	.LBE166:
 565              		.loc 1 63 0
 566 020c C1ED007A 		vstr.32	s15, [r1]
 567              	.LVL43:
 568              	.LBB167:
 569              	.LBB139:
 570              		.loc 2 235 0
ARM GAS  C:\msys64\tmp\ccgwlbQp.s 			page 11


 571 0210 FCEEC77A 		vcvt.u32.f32	s15, s14
 572              	.LVL44:
 573 0214 17EE900A 		vmov	r0, s15	@ int
 574              	.LVL45:
 575              	.LBB131:
 576              	.LBB132:
 577              		.loc 4 826 0
 578 0218 06EE100A 		vmov	s12, r0	@ int
 579 021c B8EE466A 		vcvt.f32.u32	s12, s12
 580              	.LBE132:
 581              	.LBE131:
 582              		.loc 2 236 0
 583 0220 02EB8004 		add	r4, r2, r0, lsl #2
 584 0224 D4ED007A 		vldr.32	s15, [r4]
 585              	.LVL46:
 586              	.LBB135:
 587              	.LBB133:
 588              		.loc 4 826 0
 589 0228 37EE467A 		vsub.f32	s14, s14, s12
 590              	.LVL47:
 591 022c 94ED016A 		vldr.32	s12, [r4, #4]
 592 0230 36EE676A 		vsub.f32	s12, s12, s15
 593              	.LBE133:
 594              	.LBE135:
 595              	.LBE139:
 596              	.LBE167:
 597              		.loc 1 65 0
 598 0234 1C46     		mov	r4, r3
 599              	.LBB168:
 600              	.LBB140:
 601              	.LBB136:
 602              	.LBB134:
 603              		.loc 4 826 0
 604 0236 E7EE067A 		vfma.f32	s15, s14, s12
 605              	.LVL48:
 606              	.LBE134:
 607              	.LBE136:
 608              	.LBE140:
 609              	.LBE168:
 610              		.loc 1 64 0
 611 023a 91ED016A 		vldr.32	s12, [r1, #4]
 612              	.LVL49:
 613              	.LBB169:
 614              	.LBB170:
 615              		.loc 3 235 0
 616 023e 26EE275A 		vmul.f32	s10, s12, s15
 617              	.LVL50:
 618              		.loc 3 236 0
 619 0242 B0EE677A 		vmov.f32	s14, s15
 620 0246 A5EE277A 		vfma.f32	s14, s10, s15
 621 024a 37EE067A 		vadd.f32	s14, s14, s12
 622 024e C6EE875A 		vdiv.f32	s11, s13, s14
 623              	.LVL51:
 624              		.loc 3 238 0
 625 0252 F8EE006A 		vmov.f32	s13, #-2.0e+0
 626              		.loc 3 237 0
 627 0256 26EE257A 		vmul.f32	s14, s12, s11
ARM GAS  C:\msys64\tmp\ccgwlbQp.s 			page 12


 628 025a 83ED027A 		vstr.32	s14, [r3, #8]
 629 025e 83ED007A 		vstr.32	s14, [r3]
 630              		.loc 3 238 0
 631 0262 27EE267A 		vmul.f32	s14, s14, s13
 632 0266 83ED017A 		vstr.32	s14, [r3, #4]
 633              		.loc 3 239 0
 634 026a B0EE467A 		vmov.f32	s14, s12
 635 026e 95EE277A 		vfnms.f32	s14, s10, s15
 636              		.loc 3 240 0
 637 0272 D5EE277A 		vfnms.f32	s15, s10, s15
 638              	.LVL52:
 639              		.loc 3 239 0
 640 0276 27EE257A 		vmul.f32	s14, s14, s11
 641              		.loc 3 240 0
 642 027a 77EE867A 		vadd.f32	s15, s15, s12
 643              		.loc 3 239 0
 644 027e 37EE077A 		vadd.f32	s14, s14, s14
 645              		.loc 3 240 0
 646 0282 67EEA57A 		vmul.f32	s15, s15, s11
 647              		.loc 3 239 0
 648 0286 83ED037A 		vstr.32	s14, [r3, #12]
 649              		.loc 3 240 0
 650 028a C3ED047A 		vstr.32	s15, [r3, #16]
 651              	.LVL53:
 652              	.LBE170:
 653              	.LBE169:
 654              		.loc 1 65 0
 655 028e 0FCC     		ldmia	r4!, {r0, r1, r2, r3}
 656 0290 0FC5     		stmia	r5!, {r0, r1, r2, r3}
 657 0292 2368     		ldr	r3, [r4]
 658 0294 2B60     		str	r3, [r5]
 659              	.L17:
 660 0296 30BD     		pop	{r4, r5, pc}
 661              	.L28:
 662              		.align	2
 663              	.L27:
 664 0298 00000030 		.word	805306368
 665 029c 00000000 		.word	.LANCHOR0
 666 02a0 00000000 		.word	.LANCHOR1
 667 02a4 00000000 		.word	tanpi_lut_f
 668 02a8 6F12833A 		.word	981668463
 669 02ac 8FC2F539 		.word	972407439
 670 02b0 BC9C0244 		.word	1141021884
 671              		.cfi_endproc
 672              	.LFE274:
 673              		.size	_hook_param, .-_hook_param
 674              		.section	.text.startup,"ax",%progbits
 675              		.align	1
 676              		.thumb
 677              		.thumb_func
 678              		.type	_GLOBAL__sub_I_curSampleL, %function
 679              	_GLOBAL__sub_I_curSampleL:
 680              	.LFB276:
 681              		.loc 1 74 0
 682              		.cfi_startproc
 683              		@ args = 0, pretend = 0, frame = 0
 684              		@ frame_needed = 0, uses_anonymous_args = 0
ARM GAS  C:\msys64\tmp\ccgwlbQp.s 			page 13


 685              		@ link register save eliminated.
 686              	.LVL54:
 687              	.LBB185:
 688              	.LBB186:
 689              	.LBB187:
 690              	.LBB188:
 691              	.LBB189:
 692              	.LBB190:
 693              		.loc 3 77 0
 694 0000 0C4B     		ldr	r3, .L30
 695 0002 0022     		movs	r2, #0
 696 0004 1A60     		str	r2, [r3]	@ float
 697 0006 5A60     		str	r2, [r3, #4]	@ float
 698 0008 9A60     		str	r2, [r3, #8]	@ float
 699 000a DA60     		str	r2, [r3, #12]	@ float
 700 000c 1A61     		str	r2, [r3, #16]	@ float
 701              	.LVL55:
 702              	.LBE190:
 703              	.LBE189:
 704              		.loc 3 344 0
 705 000e 5A61     		str	r2, [r3, #20]	@ float
 706 0010 9A61     		str	r2, [r3, #24]	@ float
 707              	.LVL56:
 708              	.LBE188:
 709              	.LBE187:
 710              	.LBB191:
 711              	.LBB192:
 712              	.LBB193:
 713              	.LBB194:
 714              		.loc 3 77 0
 715 0012 DA61     		str	r2, [r3, #28]	@ float
 716 0014 1A62     		str	r2, [r3, #32]	@ float
 717 0016 5A62     		str	r2, [r3, #36]	@ float
 718 0018 9A62     		str	r2, [r3, #40]	@ float
 719 001a DA62     		str	r2, [r3, #44]	@ float
 720              	.LVL57:
 721              	.LBE194:
 722              	.LBE193:
 723              		.loc 3 344 0
 724 001c 1A63     		str	r2, [r3, #48]	@ float
 725 001e 5A63     		str	r2, [r3, #52]	@ float
 726              	.LVL58:
 727              	.LBE192:
 728              	.LBE191:
 729              		.loc 1 12 0
 730 0020 054A     		ldr	r2, .L30+4
 731 0022 92ED027A 		vldr.32	s14, [r2, #8]
 732 0026 F7EE007A 		vmov.f32	s15, #1.0e+0
 733 002a 77EEC77A 		vsub.f32	s15, s15, s14
 734 002e C3ED117A 		vstr.32	s15, [r3, #68]
 735              	.LVL59:
 736 0032 7047     		bx	lr
 737              	.L31:
 738              		.align	2
 739              	.L30:
 740 0034 00000000 		.word	.LANCHOR0
 741 0038 00000000 		.word	.LANCHOR1
ARM GAS  C:\msys64\tmp\ccgwlbQp.s 			page 14


 742              	.LBE186:
 743              	.LBE185:
 744              		.cfi_endproc
 745              	.LFE276:
 746              		.size	_GLOBAL__sub_I_curSampleL, .-_GLOBAL__sub_I_curSampleL
 747              		.section	.init_array,"aw",%init_array
 748              		.align	2
 749 0000 00000000 		.word	_GLOBAL__sub_I_curSampleL(target1)
 750              		.global	b
 751              		.global	a
 752              		.global	z
 753              		.global	cutoff
 754              		.global	resonance
 755              		.global	curSampleR
 756              		.global	curSampleL
 757              		.data
 758              		.align	2
 759              		.set	.LANCHOR1,. + 0
 760              		.type	cutoff, %object
 761              		.size	cutoff, 4
 762              	cutoff:
 763 0000 48E1FA3E 		.word	1056629064
 764              		.type	resonance, %object
 765              		.size	resonance, 4
 766              	resonance:
 767 0004 8CB9B33F 		.word	1068743052
 768              		.type	a, %object
 769              		.size	a, 4
 770              	a:
 771 0008 CDCC4C3D 		.word	1028443341
 772              		.bss
 773              		.align	2
 774              		.set	.LANCHOR0,. + 0
 775              		.type	_ZL8filter_l, %object
 776              		.size	_ZL8filter_l, 28
 777              	_ZL8filter_l:
 778 0000 00000000 		.space	28
 778      00000000 
 778      00000000 
 778      00000000 
 778      00000000 
 779              		.type	_ZL8filter_r, %object
 780              		.size	_ZL8filter_r, 28
 781              	_ZL8filter_r:
 782 001c 00000000 		.space	28
 782      00000000 
 782      00000000 
 782      00000000 
 782      00000000 
 783              		.type	curSampleL, %object
 784              		.size	curSampleL, 4
 785              	curSampleL:
 786 0038 00000000 		.space	4
 787              		.type	curSampleR, %object
 788              		.size	curSampleR, 4
 789              	curSampleR:
 790 003c 00000000 		.space	4
ARM GAS  C:\msys64\tmp\ccgwlbQp.s 			page 15


 791              		.type	z, %object
 792              		.size	z, 4
 793              	z:
 794 0040 00000000 		.space	4
 795              		.type	b, %object
 796              		.size	b, 4
 797              	b:
 798 0044 00000000 		.space	4
 799              		.text
 800              	.Letext0:
 801              		.file 5 "c:\\users\\bradl\\desktop\\code projects\\korgfx\\korgdelayfxset\\delays\\tools\\gcc\\gcc
 802              		.file 6 "c:\\users\\bradl\\desktop\\code projects\\korgfx\\korgdelayfxset\\delays\\tools\\gcc\\gcc
 803              		.file 7 "./inc/userprg.h"