ARM GAS  C:\msys64\tmp\cclifTvb.s 			page 1


   1              		.syntax unified
   2              		.cpu cortex-m4
   3              		.eabi_attribute 27, 1
   4              		.eabi_attribute 28, 1
   5              		.fpu fpv4-sp-d16
   6              		.eabi_attribute 20, 1
   7              		.eabi_attribute 21, 1
   8              		.eabi_attribute 23, 3
   9              		.eabi_attribute 24, 1
  10              		.eabi_attribute 25, 1
  11              		.eabi_attribute 26, 1
  12              		.eabi_attribute 30, 4
  13              		.eabi_attribute 34, 1
  14              		.eabi_attribute 18, 4
  15              		.thumb
  16              		.syntax unified
  17              		.file	"HPF.cpp"
  18              		.text
  19              	.Ltext0:
  20              		.cfi_sections	.debug_frame
  21              		.align	1
  22              		.global	_hook_init
  23              		.thumb
  24              		.thumb_func
  25              		.type	_hook_init, %function
  26              	_hook_init:
  27              	.LFB270:
  28              		.file 1 "./src/HPF.cpp"
  29              		.loc 1 12 0
  30              		.cfi_startproc
  31              		@ args = 0, pretend = 0, frame = 0
  32              		@ frame_needed = 0, uses_anonymous_args = 0
  33              	.LVL0:
  34 0000 30B5     		push	{r4, r5, lr}
  35              		.cfi_def_cfa_offset 12
  36              		.cfi_offset 4, -12
  37              		.cfi_offset 5, -8
  38              		.cfi_offset 14, -4
  39              		.loc 1 14 0
  40 0002 294C     		ldr	r4, .L2
  41              	.LBB67:
  42              	.LBB68:
  43              		.file 2 "./inc/fx_api.h"
  44              		.loc 2 234 0
  45 0004 9FED297A 		vldr.32	s14, .L2+4
  46 0008 D4ED007A 		vldr.32	s15, [r4]
  47              		.loc 2 236 0
  48 000c 2849     		ldr	r1, .L2+8
  49              	.LVL1:
  50              	.LBE68:
  51              	.LBE67:
  52              		.loc 1 14 0
  53 000e 94ED016A 		vldr.32	s12, [r4, #4]
  54              	.LBB83:
  55              	.LBB84:
  56              		.file 3 "../inc/dsp/biquad.hpp"
  57              		.loc 3 356 0
ARM GAS  C:\msys64\tmp\cclifTvb.s 			page 2


  58 0012 284B     		ldr	r3, .L2+12
  59              	.LBE84:
  60              	.LBE83:
  61              	.LBB88:
  62              	.LBB77:
  63              		.loc 2 234 0
  64 0014 67EE877A 		vmul.f32	s15, s15, s14
  65              	.LBE77:
  66              	.LBE88:
  67              	.LBB89:
  68              	.LBB90:
  69              		.loc 3 218 0
  70 0018 B7EE005A 		vmov.f32	s10, #1.0e+0
  71              	.LBE90:
  72              	.LBE89:
  73              	.LBB92:
  74              	.LBB78:
  75              		.loc 2 235 0
  76 001c BCEEE77A 		vcvt.u32.f32	s14, s15
  77              	.LBE78:
  78              	.LBE92:
  79              	.LBB93:
  80              	.LBB85:
  81              		.loc 3 356 0
  82 0020 0022     		movs	r2, #0
  83              	.LBE85:
  84              	.LBE93:
  85              	.LBB94:
  86              	.LBB79:
  87              		.loc 2 235 0
  88 0022 17EE100A 		vmov	r0, s14	@ int
  89              	.LVL2:
  90              	.LBB69:
  91              	.LBB70:
  92              		.file 4 "../inc/utils/float_math.h"
  93              		.loc 4 826 0
  94 0026 06EE900A 		vmov	s13, r0	@ int
  95 002a F8EE666A 		vcvt.f32.u32	s13, s13
  96              	.LBE70:
  97              	.LBE69:
  98              		.loc 2 236 0
  99 002e 01EB8005 		add	r5, r1, r0, lsl #2
 100 0032 95ED007A 		vldr.32	s14, [r5]
 101              	.LBE79:
 102              	.LBE94:
 103              	.LBB95:
 104              	.LBB86:
 105              		.loc 3 356 0
 106 0036 9A61     		str	r2, [r3, #24]	@ float
 107              	.LBE86:
 108              	.LBE95:
 109              	.LBB96:
 110              	.LBB80:
 111              	.LBB74:
 112              	.LBB71:
 113              		.loc 4 826 0
 114 0038 77EEE67A 		vsub.f32	s15, s15, s13
ARM GAS  C:\msys64\tmp\cclifTvb.s 			page 3


 115 003c D5ED016A 		vldr.32	s13, [r5, #4]
 116              	.LBE71:
 117              	.LBE74:
 118              	.LBE80:
 119              	.LBE96:
 120              	.LBB97:
 121              	.LBB87:
 122              		.loc 3 356 0
 123 0040 5A61     		str	r2, [r3, #20]	@ float
 124              	.LVL3:
 125              	.LBE87:
 126              	.LBE97:
 127              	.LBB98:
 128              	.LBB81:
 129              	.LBB75:
 130              	.LBB72:
 131              		.loc 4 826 0
 132 0042 76EEC76A 		vsub.f32	s13, s13, s14
 133              	.LBE72:
 134              	.LBE75:
 135              	.LBE81:
 136              	.LBE98:
 137              		.loc 1 16 0
 138 0046 1C46     		mov	r4, r3
 139              	.LBB99:
 140              	.LBB82:
 141              	.LBB76:
 142              	.LBB73:
 143              		.loc 4 826 0
 144 0048 A7EEA67A 		vfma.f32	s14, s15, s13
 145              	.LVL4:
 146              	.LBE73:
 147              	.LBE76:
 148              	.LBE82:
 149              	.LBE99:
 150              		.loc 1 16 0
 151 004c 03F11C05 		add	r5, r3, #28
 152              	.LBB100:
 153              	.LBB101:
 154              		.loc 3 356 0
 155 0050 5A63     		str	r2, [r3, #52]	@ float
 156 0052 1A63     		str	r2, [r3, #48]	@ float
 157              	.LBE101:
 158              	.LBE100:
 159              	.LBB102:
 160              	.LBB91:
 161              		.loc 3 217 0
 162 0054 66EE076A 		vmul.f32	s13, s12, s14
 163 0058 66EE877A 		vmul.f32	s15, s13, s14
 164              	.LVL5:
 165              		.loc 3 218 0
 166 005c 77EE876A 		vadd.f32	s13, s15, s14
 167              		.loc 3 222 0
 168 0060 37EEC77A 		vsub.f32	s14, s15, s14
 169              		.loc 3 218 0
 170 0064 76EE866A 		vadd.f32	s13, s13, s12
 171 0068 C5EE265A 		vdiv.f32	s11, s10, s13
ARM GAS  C:\msys64\tmp\cclifTvb.s 			page 4


 172              	.LVL6:
 173              		.loc 3 219 0
 174 006c 67EEA56A 		vmul.f32	s13, s15, s11
 175 0070 C3ED026A 		vstr.32	s13, [r3, #8]
 176 0074 C3ED006A 		vstr.32	s13, [r3]
 177              		.loc 3 220 0
 178 0078 76EEA66A 		vadd.f32	s13, s13, s13
 179 007c C3ED016A 		vstr.32	s13, [r3, #4]
 180              		.loc 3 221 0
 181 0080 77EEC66A 		vsub.f32	s13, s15, s12
 182              		.loc 3 222 0
 183 0084 77EE067A 		vadd.f32	s15, s14, s12
 184              	.LVL7:
 185              		.loc 3 221 0
 186 0088 66EEA56A 		vmul.f32	s13, s13, s11
 187              		.loc 3 222 0
 188 008c 67EEA57A 		vmul.f32	s15, s15, s11
 189              		.loc 3 221 0
 190 0090 76EEA66A 		vadd.f32	s13, s13, s13
 191              		.loc 3 222 0
 192 0094 C3ED047A 		vstr.32	s15, [r3, #16]
 193              	.LVL8:
 194              		.loc 3 221 0
 195 0098 C3ED036A 		vstr.32	s13, [r3, #12]
 196              	.LBE91:
 197              	.LBE102:
 198              		.loc 1 16 0
 199 009c 0FCC     		ldmia	r4!, {r0, r1, r2, r3}
 200 009e 0FC5     		stmia	r5!, {r0, r1, r2, r3}
 201 00a0 2368     		ldr	r3, [r4]
 202 00a2 2B60     		str	r3, [r5]
 203 00a4 30BD     		pop	{r4, r5, pc}
 204              	.L3:
 205 00a6 00BF     		.align	2
 206              	.L2:
 207 00a8 00000000 		.word	.LANCHOR1
 208 00ac BC9C0244 		.word	1141021884
 209 00b0 00000000 		.word	tanpi_lut_f
 210 00b4 00000000 		.word	.LANCHOR0
 211              		.cfi_endproc
 212              	.LFE270:
 213              		.size	_hook_init, .-_hook_init
 214              		.align	1
 215              		.global	_Z8absolutef
 216              		.thumb
 217              		.thumb_func
 218              		.type	_Z8absolutef, %function
 219              	_Z8absolutef:
 220              	.LFB271:
 221              		.loc 1 20 0
 222              		.cfi_startproc
 223              		@ args = 0, pretend = 0, frame = 0
 224              		@ frame_needed = 0, uses_anonymous_args = 0
 225              		@ link register save eliminated.
 226              	.LVL9:
 227              		.loc 1 21 0
 228 00b8 B5EEC00A 		vcmpe.f32	s0, #0
ARM GAS  C:\msys64\tmp\cclifTvb.s 			page 5


 229 00bc F1EE10FA 		vmrs	APSR_nzcv, FPSCR
 230              		.loc 1 22 0
 231 00c0 48BF     		it	mi
 232 00c2 B1EE400A 		vnegmi.f32	s0, s0
 233              	.LVL10:
 234              		.loc 1 24 0
 235 00c6 7047     		bx	lr
 236              		.cfi_endproc
 237              	.LFE271:
 238              		.size	_Z8absolutef, .-_Z8absolutef
 239              		.align	1
 240              		.global	_hook_process
 241              		.thumb
 242              		.thumb_func
 243              		.type	_hook_process, %function
 244              	_hook_process:
 245              	.LFB272:
 246              		.loc 1 29 0
 247              		.cfi_startproc
 248              		@ args = 4, pretend = 0, frame = 0
 249              		@ frame_needed = 0, uses_anonymous_args = 0
 250              	.LVL11:
 251 00c8 30B5     		push	{r4, r5, lr}
 252              		.cfi_def_cfa_offset 12
 253              		.cfi_offset 4, -12
 254              		.cfi_offset 5, -8
 255              		.cfi_offset 14, -4
 256              		.loc 1 29 0
 257 00ca 039D     		ldr	r5, [sp, #12]
 258              	.LBB103:
 259              	.LBB104:
 260              	.LBB105:
 261              		.loc 3 368 0
 262 00cc 274B     		ldr	r3, .L15
 263              	.LVL12:
 264              	.LBE105:
 265              	.LBE104:
 266              		.loc 1 30 0
 267 00ce 0022     		movs	r2, #0
 268              	.LVL13:
 269              	.L12:
 270              		.loc 1 30 0 is_stmt 0 discriminator 3
 271 00d0 AA42     		cmp	r2, r5
 272 00d2 00F10800 		add	r0, r0, #8
 273              	.LVL14:
 274 00d6 01F10801 		add	r1, r1, #8
 275 00da 46D0     		beq	.L10
 276              	.LVL15:
 277              		.loc 1 32 0 is_stmt 1 discriminator 2
 278 00dc 50ED026A 		vldr.32	s13, [r0, #-8]
 279              	.LVL16:
 280              	.LBB112:
 281              	.LBB106:
 282              		.loc 3 368 0 discriminator 2
 283 00e0 93ED007A 		vldr.32	s14, [r3]
 284 00e4 D3ED057A 		vldr.32	s15, [r3, #20]
 285              		.loc 3 371 0 discriminator 2
ARM GAS  C:\msys64\tmp\cclifTvb.s 			page 6


 286 00e8 93ED015A 		vldr.32	s10, [r3, #4]
 287              	.LBE106:
 288              	.LBE112:
 289              		.loc 1 33 0 discriminator 2
 290 00ec 10ED016A 		vldr.32	s12, [r0, #-4]
 291              	.LVL17:
 292              	.LBB113:
 293              	.LBB107:
 294              		.loc 3 370 0 discriminator 2
 295 00f0 D3ED025A 		vldr.32	s11, [r3, #8]
 296              		.loc 3 368 0 discriminator 2
 297 00f4 E6EE877A 		vfma.f32	s15, s13, s14
 298              	.LVL18:
 299              	.LBE107:
 300              	.LBE113:
 301              		.loc 1 30 0 discriminator 2
 302 00f8 0132     		adds	r2, r2, #1
 303              	.LVL19:
 304              	.LBB114:
 305              	.LBB108:
 306              		.loc 3 371 0 discriminator 2
 307 00fa 93ED067A 		vldr.32	s14, [r3, #24]
 308              	.LBE108:
 309              	.LBE114:
 310              		.loc 1 35 0 discriminator 2
 311 00fe C3ED0E7A 		vstr.32	s15, [r3, #56]
 312              	.LBB115:
 313              	.LBB109:
 314              		.loc 3 371 0 discriminator 2
 315 0102 A6EE857A 		vfma.f32	s14, s13, s10
 316 0106 93ED035A 		vldr.32	s10, [r3, #12]
 317 010a A7EEC57A 		vfms.f32	s14, s15, s10
 318              	.LBE109:
 319              	.LBE115:
 320              	.LBB116:
 321              	.LBB117:
 322 010e 93ED085A 		vldr.32	s10, [r3, #32]
 323              	.LBE117:
 324              	.LBE116:
 325              	.LBB121:
 326              	.LBB110:
 327 0112 83ED057A 		vstr.32	s14, [r3, #20]
 328              		.loc 3 372 0 discriminator 2
 329 0116 93ED047A 		vldr.32	s14, [r3, #16]
 330 011a 27EE677A 		vnmul.f32	s14, s14, s15
 331 011e A6EEA57A 		vfma.f32	s14, s13, s11
 332              	.LBE110:
 333              	.LBE121:
 334              	.LBB122:
 335              	.LBB118:
 336              		.loc 3 368 0 discriminator 2
 337 0122 D3ED076A 		vldr.32	s13, [r3, #28]
 338              	.LVL20:
 339              	.LBE118:
 340              	.LBE122:
 341              	.LBB123:
 342              	.LBB111:
ARM GAS  C:\msys64\tmp\cclifTvb.s 			page 7


 343              		.loc 3 372 0 discriminator 2
 344 0126 83ED067A 		vstr.32	s14, [r3, #24]
 345              	.LVL21:
 346              	.LBE111:
 347              	.LBE123:
 348              	.LBB124:
 349              	.LBB119:
 350              		.loc 3 368 0 discriminator 2
 351 012a 93ED0C7A 		vldr.32	s14, [r3, #48]
 352              		.loc 3 370 0 discriminator 2
 353 012e D3ED095A 		vldr.32	s11, [r3, #36]
 354              		.loc 3 368 0 discriminator 2
 355 0132 A6EE267A 		vfma.f32	s14, s12, s13
 356              	.LVL22:
 357              		.loc 3 371 0 discriminator 2
 358 0136 D3ED0D6A 		vldr.32	s13, [r3, #52]
 359              	.LBE119:
 360              	.LBE124:
 361              		.loc 1 36 0 discriminator 2
 362 013a 83ED0F7A 		vstr.32	s14, [r3, #60]
 363              	.LBB125:
 364              	.LBB120:
 365              		.loc 3 371 0 discriminator 2
 366 013e E6EE056A 		vfma.f32	s13, s12, s10
 367 0142 93ED0A5A 		vldr.32	s10, [r3, #40]
 368 0146 E7EE456A 		vfms.f32	s13, s14, s10
 369 014a C3ED0C6A 		vstr.32	s13, [r3, #48]
 370              		.loc 3 372 0 discriminator 2
 371 014e D3ED0B6A 		vldr.32	s13, [r3, #44]
 372 0152 66EEC76A 		vnmul.f32	s13, s13, s14
 373 0156 E6EE256A 		vfma.f32	s13, s12, s11
 374 015a C3ED0D6A 		vstr.32	s13, [r3, #52]
 375              	.LVL23:
 376              	.LBE120:
 377              	.LBE125:
 378              		.loc 1 38 0 discriminator 2
 379 015e 41ED027A 		vstr.32	s15, [r1, #-8]
 380              	.LVL24:
 381              		.loc 1 39 0 discriminator 2
 382 0162 DC6B     		ldr	r4, [r3, #60]	@ float
 383 0164 41F8044C 		str	r4, [r1, #-4]	@ float
 384              		.loc 1 30 0 discriminator 2
 385 0168 B2E7     		b	.L12
 386              	.LVL25:
 387              	.L10:
 388 016a 30BD     		pop	{r4, r5, pc}
 389              	.LVL26:
 390              	.L16:
 391              		.align	2
 392              	.L15:
 393 016c 00000000 		.word	.LANCHOR0
 394              	.LBE103:
 395              		.cfi_endproc
 396              	.LFE272:
 397              		.size	_hook_process, .-_hook_process
 398              		.align	1
 399              		.global	_hook_param
ARM GAS  C:\msys64\tmp\cclifTvb.s 			page 8


 400              		.thumb
 401              		.thumb_func
 402              		.type	_hook_param, %function
 403              	_hook_param:
 404              	.LFB273:
 405              		.loc 1 44 0
 406              		.cfi_startproc
 407              		@ args = 0, pretend = 0, frame = 0
 408              		@ frame_needed = 0, uses_anonymous_args = 0
 409              	.LVL27:
 410 0170 30B5     		push	{r4, r5, lr}
 411              		.cfi_def_cfa_offset 12
 412              		.cfi_offset 4, -12
 413              		.cfi_offset 5, -8
 414              		.cfi_offset 14, -4
 415              		.loc 1 44 0
 416 0172 07EE901A 		vmov	s15, r1	@ int
 417              	.LVL28:
 418              		.loc 1 48 0
 419 0176 0028     		cmp	r0, #0
 420 0178 7BD1     		bne	.L17
 421              		.loc 1 51 0
 422 017a B7EE006A 		vmov.f32	s12, #1.0e+0
 423 017e F8EEE77A 		vcvt.f32.s32	s15, s15
 424              	.LVL29:
 425 0182 9FED3C7A 		vldr.32	s14, .L27
 426              		.loc 1 53 0
 427 0186 3C4C     		ldr	r4, .L27+4
 428              	.LBB126:
 429              	.LBB127:
 430              		.loc 2 236 0
 431 0188 3C49     		ldr	r1, .L27+8
 432              	.LVL30:
 433              	.LBE127:
 434              	.LBE126:
 435              		.loc 1 55 0
 436 018a D4ED015A 		vldr.32	s11, [r4, #4]
 437              	.LBB138:
 438              	.LBB139:
 439              		.loc 3 356 0
 440 018e 3C4B     		ldr	r3, .L27+12
 441              	.LBE139:
 442              	.LBE138:
 443              		.loc 1 51 0
 444 0190 F0EE466A 		vmov.f32	s13, s12
 445 0194 E7EEC76A 		vfms.f32	s13, s15, s14
 446              	.LBB142:
 447              	.LBB143:
 448              	.LBB144:
 449              	.LBB145:
 450              	.LBB146:
 451              		.loc 4 193 0
 452 0198 0022     		movs	r2, #0
 453              	.LBE146:
 454              	.LBE145:
 455              	.LBE144:
 456              	.LBE143:
ARM GAS  C:\msys64\tmp\cclifTvb.s 			page 9


 457              	.LBE142:
 458              	.LBB165:
 459              	.LBB140:
 460              		.loc 3 356 0
 461 019a 9A61     		str	r2, [r3, #24]	@ float
 462              	.LBE140:
 463              	.LBE165:
 464              	.LBB166:
 465              	.LBB161:
 466              	.LBB157:
 467              	.LBB150:
 468              	.LBB147:
 469              		.loc 4 193 0
 470 019c 9FED397A 		vldr.32	s14, .L27+16
 471              	.LBE147:
 472              	.LBE150:
 473              	.LBE157:
 474              	.LBE161:
 475              	.LBE166:
 476              	.LBB167:
 477              	.LBB141:
 478              		.loc 3 356 0
 479 01a0 5A61     		str	r2, [r3, #20]	@ float
 480              	.LBE141:
 481              	.LBE167:
 482              	.LBB168:
 483              	.LBB169:
 484              		.loc 1 21 0
 485 01a2 F5EEC06A 		vcmpe.f32	s13, #0
 486 01a6 F1EE10FA 		vmrs	APSR_nzcv, FPSCR
 487              	.LBE169:
 488              	.LBE168:
 489              		.loc 1 51 0
 490 01aa F0EE667A 		vmov.f32	s15, s13
 491              	.LVL31:
 492              	.LBB171:
 493              	.LBB170:
 494              		.loc 1 22 0
 495 01ae 48BF     		it	mi
 496 01b0 F1EE667A 		vnegmi.f32	s15, s13
 497              	.LVL32:
 498              	.LBE170:
 499              	.LBE171:
 500              	.LBB172:
 501              	.LBB162:
 502              	.LBB158:
 503              	.LBB151:
 504              	.LBB148:
 505              		.loc 4 193 0
 506 01b4 77EEC76A 		vsub.f32	s13, s15, s14
 507              	.LVL33:
 508              	.LBE148:
 509              	.LBE151:
 510              	.LBE158:
 511              	.LBE162:
 512              	.LBE172:
 513              	.LBB173:
ARM GAS  C:\msys64\tmp\cclifTvb.s 			page 10


 514              	.LBB174:
 515              		.loc 3 356 0
 516 01b8 5A63     		str	r2, [r3, #52]	@ float
 517              	.LBE174:
 518              	.LBE173:
 519              	.LBB176:
 520              	.LBB163:
 521              	.LBB159:
 522              	.LBB152:
 523              	.LBB149:
 524              		.loc 4 193 0
 525 01ba F5EEC06A 		vcmpe.f32	s13, #0
 526 01be F1EE10FA 		vmrs	APSR_nzcv, FPSCR
 527 01c2 B8BF     		it	lt
 528 01c4 F0EE477A 		vmovlt.f32	s15, s14
 529              	.LVL34:
 530              	.LBE149:
 531              	.LBE152:
 532              	.LBB153:
 533              	.LBB154:
 534 01c8 37EEC67A 		vsub.f32	s14, s15, s12
 535              	.LVL35:
 536              	.LBE154:
 537              	.LBE153:
 538              	.LBE159:
 539              	.LBE163:
 540              	.LBE176:
 541              		.loc 1 53 0
 542 01cc DFED2E6A 		vldr.32	s13, .L27+20
 543              	.LBB177:
 544              	.LBB175:
 545              		.loc 3 356 0
 546 01d0 1A63     		str	r2, [r3, #48]	@ float
 547              	.LBE175:
 548              	.LBE177:
 549              	.LBB178:
 550              	.LBB164:
 551              	.LBB160:
 552              	.LBB156:
 553              	.LBB155:
 554              		.loc 4 193 0
 555 01d2 B5EE407A 		vcmp.f32	s14, #0
 556 01d6 F1EE10FA 		vmrs	APSR_nzcv, FPSCR
 557 01da B7EE007A 		vmov.f32	s14, #1.0e+0
 558              	.LVL36:
 559 01de A8BF     		it	ge
 560 01e0 F0EE477A 		vmovge.f32	s15, s14
 561              	.LVL37:
 562              	.LBE155:
 563              	.LBE156:
 564              	.LBE160:
 565              	.LBE164:
 566              	.LBE178:
 567              		.loc 1 53 0
 568 01e4 86EE277A 		vdiv.f32	s14, s12, s15
 569 01e8 67EE267A 		vmul.f32	s15, s14, s13
 570              	.LBB179:
ARM GAS  C:\msys64\tmp\cclifTvb.s 			page 11


 571              	.LBB134:
 572              		.loc 2 234 0
 573 01ec DFED276A 		vldr.32	s13, .L27+24
 574              	.LBE134:
 575              	.LBE179:
 576              		.loc 1 53 0
 577 01f0 C4ED007A 		vstr.32	s15, [r4]
 578              	.LVL38:
 579              	.LBB180:
 580              	.LBB135:
 581              		.loc 2 234 0
 582 01f4 67EEA66A 		vmul.f32	s13, s15, s13
 583              	.LVL39:
 584              	.LBE135:
 585              	.LBE180:
 586              		.loc 1 57 0
 587 01f8 1C46     		mov	r4, r3
 588              	.LBB181:
 589              	.LBB136:
 590              		.loc 2 235 0
 591 01fa FCEEE67A 		vcvt.u32.f32	s15, s13
 592              	.LVL40:
 593 01fe 17EE900A 		vmov	r0, s15	@ int
 594              	.LVL41:
 595              	.LBB128:
 596              	.LBB129:
 597              		.loc 4 826 0
 598 0202 F8EE677A 		vcvt.f32.u32	s15, s15
 599              	.LBE129:
 600              	.LBE128:
 601              		.loc 2 236 0
 602 0206 01EB8005 		add	r5, r1, r0, lsl #2
 603 020a 95ED007A 		vldr.32	s14, [r5]
 604              	.LVL42:
 605              	.LBB132:
 606              	.LBB130:
 607              		.loc 4 826 0
 608 020e 76EEE76A 		vsub.f32	s13, s13, s15
 609              	.LVL43:
 610 0212 D5ED017A 		vldr.32	s15, [r5, #4]
 611 0216 77EEC77A 		vsub.f32	s15, s15, s14
 612              	.LBE130:
 613              	.LBE132:
 614              	.LBE136:
 615              	.LBE181:
 616              		.loc 1 57 0
 617 021a 03F11C05 		add	r5, r3, #28
 618              	.LBB182:
 619              	.LBB137:
 620              	.LBB133:
 621              	.LBB131:
 622              		.loc 4 826 0
 623 021e A6EEA77A 		vfma.f32	s14, s13, s15
 624              	.LVL44:
 625              	.LBE131:
 626              	.LBE133:
 627              	.LBE137:
ARM GAS  C:\msys64\tmp\cclifTvb.s 			page 12


 628              	.LBE182:
 629              	.LBB183:
 630              	.LBB184:
 631              		.loc 3 217 0
 632 0222 65EE876A 		vmul.f32	s13, s11, s14
 633 0226 66EE877A 		vmul.f32	s15, s13, s14
 634              	.LVL45:
 635              		.loc 3 218 0
 636 022a 77EE876A 		vadd.f32	s13, s15, s14
 637              		.loc 3 222 0
 638 022e 37EEC77A 		vsub.f32	s14, s15, s14
 639              		.loc 3 218 0
 640 0232 76EEA56A 		vadd.f32	s13, s13, s11
 641 0236 86EE265A 		vdiv.f32	s10, s12, s13
 642              	.LVL46:
 643              		.loc 3 219 0
 644 023a 67EE856A 		vmul.f32	s13, s15, s10
 645 023e C3ED026A 		vstr.32	s13, [r3, #8]
 646 0242 C3ED006A 		vstr.32	s13, [r3]
 647              		.loc 3 220 0
 648 0246 76EEA66A 		vadd.f32	s13, s13, s13
 649 024a C3ED016A 		vstr.32	s13, [r3, #4]
 650              		.loc 3 221 0
 651 024e 77EEE56A 		vsub.f32	s13, s15, s11
 652              		.loc 3 222 0
 653 0252 77EE257A 		vadd.f32	s15, s14, s11
 654              	.LVL47:
 655              		.loc 3 221 0
 656 0256 66EE856A 		vmul.f32	s13, s13, s10
 657              		.loc 3 222 0
 658 025a 67EE857A 		vmul.f32	s15, s15, s10
 659              		.loc 3 221 0
 660 025e 76EEA66A 		vadd.f32	s13, s13, s13
 661              		.loc 3 222 0
 662 0262 C3ED047A 		vstr.32	s15, [r3, #16]
 663              	.LVL48:
 664              		.loc 3 221 0
 665 0266 C3ED036A 		vstr.32	s13, [r3, #12]
 666              	.LBE184:
 667              	.LBE183:
 668              		.loc 1 57 0
 669 026a 0FCC     		ldmia	r4!, {r0, r1, r2, r3}
 670 026c 0FC5     		stmia	r5!, {r0, r1, r2, r3}
 671 026e 2368     		ldr	r3, [r4]
 672 0270 2B60     		str	r3, [r5]
 673              	.L17:
 674 0272 30BD     		pop	{r4, r5, pc}
 675              	.L28:
 676              		.align	2
 677              	.L27:
 678 0274 00000030 		.word	805306368
 679 0278 00000000 		.word	.LANCHOR1
 680 027c 00000000 		.word	tanpi_lut_f
 681 0280 00000000 		.word	.LANCHOR0
 682 0284 6F12833A 		.word	981668463
 683 0288 8FC2F539 		.word	972407439
 684 028c BC9C0244 		.word	1141021884
ARM GAS  C:\msys64\tmp\cclifTvb.s 			page 13


 685              		.cfi_endproc
 686              	.LFE273:
 687              		.size	_hook_param, .-_hook_param
 688              		.section	.text.startup,"ax",%progbits
 689              		.align	1
 690              		.thumb
 691              		.thumb_func
 692              		.type	_GLOBAL__sub_I_curSampleL, %function
 693              	_GLOBAL__sub_I_curSampleL:
 694              	.LFB275:
 695              		.loc 1 67 0
 696              		.cfi_startproc
 697              		@ args = 0, pretend = 0, frame = 0
 698              		@ frame_needed = 0, uses_anonymous_args = 0
 699              		@ link register save eliminated.
 700              	.LVL49:
 701              	.LBB199:
 702              	.LBB200:
 703              	.LBB201:
 704              	.LBB202:
 705              	.LBB203:
 706              		.loc 3 77 0
 707 0000 084B     		ldr	r3, .L30
 708 0002 0022     		movs	r2, #0
 709 0004 1A60     		str	r2, [r3]	@ float
 710 0006 5A60     		str	r2, [r3, #4]	@ float
 711 0008 9A60     		str	r2, [r3, #8]	@ float
 712 000a DA60     		str	r2, [r3, #12]	@ float
 713 000c 1A61     		str	r2, [r3, #16]	@ float
 714              	.LVL50:
 715              	.LBE203:
 716              	.LBE202:
 717              		.loc 3 344 0
 718 000e 5A61     		str	r2, [r3, #20]	@ float
 719 0010 9A61     		str	r2, [r3, #24]	@ float
 720              	.LVL51:
 721              	.LBE201:
 722              	.LBE200:
 723              	.LBB204:
 724              	.LBB205:
 725              	.LBB206:
 726              	.LBB207:
 727              		.loc 3 77 0
 728 0012 DA61     		str	r2, [r3, #28]	@ float
 729 0014 1A62     		str	r2, [r3, #32]	@ float
 730 0016 5A62     		str	r2, [r3, #36]	@ float
 731 0018 9A62     		str	r2, [r3, #40]	@ float
 732 001a DA62     		str	r2, [r3, #44]	@ float
 733              	.LVL52:
 734              	.LBE207:
 735              	.LBE206:
 736              		.loc 3 344 0
 737 001c 1A63     		str	r2, [r3, #48]	@ float
 738 001e 5A63     		str	r2, [r3, #52]	@ float
 739              	.LVL53:
 740 0020 7047     		bx	lr
 741              	.L31:
ARM GAS  C:\msys64\tmp\cclifTvb.s 			page 14


 742 0022 00BF     		.align	2
 743              	.L30:
 744 0024 00000000 		.word	.LANCHOR0
 745              	.LBE205:
 746              	.LBE204:
 747              	.LBE199:
 748              		.cfi_endproc
 749              	.LFE275:
 750              		.size	_GLOBAL__sub_I_curSampleL, .-_GLOBAL__sub_I_curSampleL
 751              		.section	.init_array,"aw",%init_array
 752              		.align	2
 753 0000 00000000 		.word	_GLOBAL__sub_I_curSampleL(target1)
 754              		.global	cutoff
 755              		.global	resonance
 756              		.global	curSampleR
 757              		.global	curSampleL
 758              		.data
 759              		.align	2
 760              		.set	.LANCHOR1,. + 0
 761              		.type	cutoff, %object
 762              		.size	cutoff, 4
 763              	cutoff:
 764 0000 48E1FA3E 		.word	1056629064
 765              		.type	resonance, %object
 766              		.size	resonance, 4
 767              	resonance:
 768 0004 8CB9B33F 		.word	1068743052
 769              		.bss
 770              		.align	2
 771              		.set	.LANCHOR0,. + 0
 772              		.type	_ZL8filter_l, %object
 773              		.size	_ZL8filter_l, 28
 774              	_ZL8filter_l:
 775 0000 00000000 		.space	28
 775      00000000 
 775      00000000 
 775      00000000 
 775      00000000 
 776              		.type	_ZL8filter_r, %object
 777              		.size	_ZL8filter_r, 28
 778              	_ZL8filter_r:
 779 001c 00000000 		.space	28
 779      00000000 
 779      00000000 
 779      00000000 
 779      00000000 
 780              		.type	curSampleL, %object
 781              		.size	curSampleL, 4
 782              	curSampleL:
 783 0038 00000000 		.space	4
 784              		.type	curSampleR, %object
 785              		.size	curSampleR, 4
 786              	curSampleR:
 787 003c 00000000 		.space	4
 788              		.text
 789              	.Letext0:
 790              		.file 5 "c:\\users\\bradl\\desktop\\code projects\\korgfx\\korgdelayfxset\\delays\\tools\\gcc\\gcc
ARM GAS  C:\msys64\tmp\cclifTvb.s 			page 15


 791              		.file 6 "c:\\users\\bradl\\desktop\\code projects\\korgfx\\korgdelayfxset\\delays\\tools\\gcc\\gcc
 792              		.file 7 "./inc/userprg.h"
 793              		.section	.debug_info,"",%progbits
 794              	.Ldebug_info0:
 795 0000 4B0C0000 		.4byte	0xc4b
 796 0004 0400     		.2byte	0x4
 797 0006 00000000 		.4byte	.Ldebug_abbrev0
 798 000a 04       		.byte	0x4
 799 000b 01       		.uleb128 0x1
 800 000c 61000000 		.4byte	.LASF106
 801 0010 04       		.byte	0x4
 802 0011 47060000 		.4byte	.LASF107
 803 0015 AE010000 		.4byte	.LASF108
 804 0019 20020000 		.4byte	.Ldebug_ranges0+0x220
 805 001d 00000000 		.4byte	0
 806 0021 00000000 		.4byte	.Ldebug_line0
 807 0025 02       		.uleb128 0x2
 808 0026 04       		.byte	0x4
 809 0027 04       		.byte	0x4
 810 0028 85020000 		.4byte	.LASF0
 811 002c 02       		.uleb128 0x2
 812 002d 04       		.byte	0x4
 813 002e 07       		.byte	0x7
 814 002f 79010000 		.4byte	.LASF1
 815 0033 03       		.uleb128 0x3
 816 0034 04       		.byte	0x4
 817 0035 05       		.byte	0x5
 818 0036 696E7400 		.ascii	"int\000"
 819 003a 02       		.uleb128 0x2
 820 003b 01       		.byte	0x1
 821 003c 06       		.byte	0x6
 822 003d C5070000 		.4byte	.LASF2
 823 0041 04       		.uleb128 0x4
 824 0042 55060000 		.4byte	.LASF6
 825 0046 05       		.byte	0x5
 826 0047 1D       		.byte	0x1d
 827 0048 4C000000 		.4byte	0x4c
 828 004c 02       		.uleb128 0x2
 829 004d 01       		.byte	0x1
 830 004e 08       		.byte	0x8
 831 004f 0C070000 		.4byte	.LASF3
 832 0053 02       		.uleb128 0x2
 833 0054 02       		.byte	0x2
 834 0055 05       		.byte	0x5
 835 0056 94050000 		.4byte	.LASF4
 836 005a 02       		.uleb128 0x2
 837 005b 02       		.byte	0x2
 838 005c 07       		.byte	0x7
 839 005d D1070000 		.4byte	.LASF5
 840 0061 04       		.uleb128 0x4
 841 0062 9B010000 		.4byte	.LASF7
 842 0066 05       		.byte	0x5
 843 0067 3F       		.byte	0x3f
 844 0068 6C000000 		.4byte	0x6c
 845 006c 02       		.uleb128 0x2
 846 006d 04       		.byte	0x4
 847 006e 05       		.byte	0x5
ARM GAS  C:\msys64\tmp\cclifTvb.s 			page 16


 848 006f AD050000 		.4byte	.LASF8
 849 0073 04       		.uleb128 0x4
 850 0074 23070000 		.4byte	.LASF9
 851 0078 05       		.byte	0x5
 852 0079 41       		.byte	0x41
 853 007a 7E000000 		.4byte	0x7e
 854 007e 02       		.uleb128 0x2
 855 007f 04       		.byte	0x4
 856 0080 07       		.byte	0x7
 857 0081 9B060000 		.4byte	.LASF10
 858 0085 02       		.uleb128 0x2
 859 0086 08       		.byte	0x8
 860 0087 05       		.byte	0x5
 861 0088 3F040000 		.4byte	.LASF11
 862 008c 02       		.uleb128 0x2
 863 008d 08       		.byte	0x8
 864 008e 07       		.byte	0x7
 865 008f A5020000 		.4byte	.LASF12
 866 0093 04       		.uleb128 0x4
 867 0094 FA030000 		.4byte	.LASF13
 868 0098 06       		.byte	0x6
 869 0099 18       		.byte	0x18
 870 009a 41000000 		.4byte	0x41
 871 009e 04       		.uleb128 0x4
 872 009f BB060000 		.4byte	.LASF14
 873 00a3 06       		.byte	0x6
 874 00a4 2C       		.byte	0x2c
 875 00a5 61000000 		.4byte	0x61
 876 00a9 04       		.uleb128 0x4
 877 00aa 77020000 		.4byte	.LASF15
 878 00ae 06       		.byte	0x6
 879 00af 30       		.byte	0x30
 880 00b0 73000000 		.4byte	0x73
 881 00b4 02       		.uleb128 0x2
 882 00b5 08       		.byte	0x8
 883 00b6 04       		.byte	0x4
 884 00b7 07050000 		.4byte	.LASF16
 885 00bb 05       		.uleb128 0x5
 886 00bc 62070000 		.4byte	.LASF109
 887 00c0 02       		.uleb128 0x2
 888 00c1 04       		.byte	0x4
 889 00c2 07       		.byte	0x7
 890 00c3 92060000 		.4byte	.LASF17
 891 00c7 02       		.uleb128 0x2
 892 00c8 01       		.byte	0x1
 893 00c9 08       		.byte	0x8
 894 00ca 99030000 		.4byte	.LASF18
 895 00ce 02       		.uleb128 0x2
 896 00cf 08       		.byte	0x8
 897 00d0 04       		.byte	0x4
 898 00d1 F4070000 		.4byte	.LASF19
 899 00d5 06       		.uleb128 0x6
 900 00d6 01       		.byte	0x1
 901 00d7 4C000000 		.4byte	0x4c
 902 00db 07       		.byte	0x7
 903 00dc 35       		.byte	0x35
 904 00dd 06010000 		.4byte	0x106
ARM GAS  C:\msys64\tmp\cclifTvb.s 			page 17


 905 00e1 07       		.uleb128 0x7
 906 00e2 42070000 		.4byte	.LASF20
 907 00e6 00       		.byte	0
 908 00e7 07       		.uleb128 0x7
 909 00e8 C7050000 		.4byte	.LASF21
 910 00ec 01       		.byte	0x1
 911 00ed 07       		.uleb128 0x7
 912 00ee 91020000 		.4byte	.LASF22
 913 00f2 02       		.byte	0x2
 914 00f3 07       		.uleb128 0x7
 915 00f4 1D030000 		.4byte	.LASF23
 916 00f8 03       		.byte	0x3
 917 00f9 07       		.uleb128 0x7
 918 00fa F5040000 		.4byte	.LASF24
 919 00fe 04       		.byte	0x4
 920 00ff 07       		.uleb128 0x7
 921 0100 5E040000 		.4byte	.LASF25
 922 0104 05       		.byte	0x5
 923 0105 00       		.byte	0
 924 0106 08       		.uleb128 0x8
 925 0107 04       		.byte	0x4
 926 0108 0C010000 		.4byte	0x10c
 927 010c 09       		.uleb128 0x9
 928 010d 25000000 		.4byte	0x25
 929 0111 08       		.uleb128 0x8
 930 0112 04       		.byte	0x4
 931 0113 25000000 		.4byte	0x25
 932 0117 0A       		.uleb128 0xa
 933 0118 64737000 		.ascii	"dsp\000"
 934 011c 03       		.byte	0x3
 935 011d 31       		.byte	0x31
 936 011e 64040000 		.4byte	0x464
 937 0122 0B       		.uleb128 0xb
 938 0123 BB030000 		.4byte	.LASF56
 939 0127 1C       		.byte	0x1c
 940 0128 03       		.byte	0x3
 941 0129 36       		.byte	0x36
 942 012a 0C       		.uleb128 0xc
 943 012b BE070000 		.4byte	.LASF54
 944 012f 14       		.byte	0x14
 945 0130 03       		.byte	0x3
 946 0131 41       		.byte	0x41
 947 0132 92030000 		.4byte	0x392
 948 0136 0D       		.uleb128 0xd
 949 0137 66663000 		.ascii	"ff0\000"
 950 013b 03       		.byte	0x3
 951 013c 42       		.byte	0x42
 952 013d 25000000 		.4byte	0x25
 953 0141 00       		.byte	0
 954 0142 0D       		.uleb128 0xd
 955 0143 66663100 		.ascii	"ff1\000"
 956 0147 03       		.byte	0x3
 957 0148 43       		.byte	0x43
 958 0149 25000000 		.4byte	0x25
 959 014d 04       		.byte	0x4
 960 014e 0D       		.uleb128 0xd
 961 014f 66663200 		.ascii	"ff2\000"
ARM GAS  C:\msys64\tmp\cclifTvb.s 			page 18


 962 0153 03       		.byte	0x3
 963 0154 44       		.byte	0x44
 964 0155 25000000 		.4byte	0x25
 965 0159 08       		.byte	0x8
 966 015a 0D       		.uleb128 0xd
 967 015b 66623100 		.ascii	"fb1\000"
 968 015f 03       		.byte	0x3
 969 0160 45       		.byte	0x45
 970 0161 25000000 		.4byte	0x25
 971 0165 0C       		.byte	0xc
 972 0166 0D       		.uleb128 0xd
 973 0167 66623200 		.ascii	"fb2\000"
 974 016b 03       		.byte	0x3
 975 016c 46       		.byte	0x46
 976 016d 25000000 		.4byte	0x25
 977 0171 10       		.byte	0x10
 978 0172 0E       		.uleb128 0xe
 979 0173 BE070000 		.4byte	.LASF54
 980 0177 03       		.byte	0x3
 981 0178 4B       		.byte	0x4b
 982 0179 FB070000 		.4byte	.LASF110
 983 017d 64040000 		.4byte	0x464
 984 0181 89010000 		.4byte	0x189
 985 0185 8F010000 		.4byte	0x18f
 986 0189 0F       		.uleb128 0xf
 987 018a 64040000 		.4byte	0x464
 988 018e 00       		.byte	0
 989 018f 10       		.uleb128 0x10
 990 0190 776300   		.ascii	"wc\000"
 991 0193 03       		.byte	0x3
 992 0194 59       		.byte	0x59
 993 0195 15000000 		.4byte	.LASF111
 994 0199 25000000 		.4byte	0x25
 995 019d AC010000 		.4byte	0x1ac
 996 01a1 11       		.uleb128 0x11
 997 01a2 25000000 		.4byte	0x25
 998 01a6 11       		.uleb128 0x11
 999 01a7 25000000 		.4byte	0x25
 1000 01ab 00       		.byte	0
 1001 01ac 12       		.uleb128 0x12
 1002 01ad A8040000 		.4byte	.LASF26
 1003 01b1 03       		.byte	0x3
 1004 01b2 65       		.byte	0x65
 1005 01b3 74070000 		.4byte	.LASF28
 1006 01b7 BF010000 		.4byte	0x1bf
 1007 01bb CA010000 		.4byte	0x1ca
 1008 01bf 0F       		.uleb128 0xf
 1009 01c0 64040000 		.4byte	0x464
 1010 01c4 11       		.uleb128 0x11
 1011 01c5 25000000 		.4byte	0x25
 1012 01c9 00       		.byte	0
 1013 01ca 12       		.uleb128 0x12
 1014 01cb FE020000 		.4byte	.LASF27
 1015 01cf 03       		.byte	0x3
 1016 01d0 71       		.byte	0x71
 1017 01d1 7E040000 		.4byte	.LASF29
 1018 01d5 DD010000 		.4byte	0x1dd
ARM GAS  C:\msys64\tmp\cclifTvb.s 			page 19


 1019 01d9 E8010000 		.4byte	0x1e8
 1020 01dd 0F       		.uleb128 0xf
 1021 01de 64040000 		.4byte	0x464
 1022 01e2 11       		.uleb128 0x11
 1023 01e3 25000000 		.4byte	0x25
 1024 01e7 00       		.byte	0
 1025 01e8 12       		.uleb128 0x12
 1026 01e9 A0040000 		.4byte	.LASF30
 1027 01ed 03       		.byte	0x3
 1028 01ee 7D       		.byte	0x7d
 1029 01ef BC020000 		.4byte	.LASF31
 1030 01f3 FB010000 		.4byte	0x1fb
 1031 01f7 06020000 		.4byte	0x206
 1032 01fb 0F       		.uleb128 0xf
 1033 01fc 64040000 		.4byte	0x464
 1034 0200 11       		.uleb128 0x11
 1035 0201 25000000 		.4byte	0x25
 1036 0205 00       		.byte	0
 1037 0206 12       		.uleb128 0x12
 1038 0207 93010000 		.4byte	.LASF32
 1039 020b 03       		.byte	0x3
 1040 020c 8A       		.byte	0x8a
 1041 020d 31000000 		.4byte	.LASF33
 1042 0211 19020000 		.4byte	0x219
 1043 0215 24020000 		.4byte	0x224
 1044 0219 0F       		.uleb128 0xf
 1045 021a 64040000 		.4byte	0x464
 1046 021e 11       		.uleb128 0x11
 1047 021f 25000000 		.4byte	0x25
 1048 0223 00       		.byte	0
 1049 0224 12       		.uleb128 0x12
 1050 0225 04070000 		.4byte	.LASF34
 1051 0229 03       		.byte	0x3
 1052 022a 98       		.byte	0x98
 1053 022b C3060000 		.4byte	.LASF35
 1054 022f 37020000 		.4byte	0x237
 1055 0233 42020000 		.4byte	0x242
 1056 0237 0F       		.uleb128 0xf
 1057 0238 64040000 		.4byte	0x464
 1058 023c 11       		.uleb128 0x11
 1059 023d 25000000 		.4byte	0x25
 1060 0241 00       		.byte	0
 1061 0242 12       		.uleb128 0x12
 1062 0243 44030000 		.4byte	.LASF36
 1063 0247 03       		.byte	0x3
 1064 0248 A8       		.byte	0xa8
 1065 0249 DB050000 		.4byte	.LASF37
 1066 024d 55020000 		.4byte	0x255
 1067 0251 60020000 		.4byte	0x260
 1068 0255 0F       		.uleb128 0xf
 1069 0256 64040000 		.4byte	0x464
 1070 025a 11       		.uleb128 0x11
 1071 025b 25000000 		.4byte	0x25
 1072 025f 00       		.byte	0
 1073 0260 12       		.uleb128 0x12
 1074 0261 00000000 		.4byte	.LASF38
 1075 0265 03       		.byte	0x3
ARM GAS  C:\msys64\tmp\cclifTvb.s 			page 20


 1076 0266 B9       		.byte	0xb9
 1077 0267 5A050000 		.4byte	.LASF39
 1078 026b 73020000 		.4byte	0x273
 1079 026f 7E020000 		.4byte	0x27e
 1080 0273 0F       		.uleb128 0xf
 1081 0274 64040000 		.4byte	0x464
 1082 0278 11       		.uleb128 0x11
 1083 0279 25000000 		.4byte	0x25
 1084 027d 00       		.byte	0
 1085 027e 12       		.uleb128 0x12
 1086 027f 51000000 		.4byte	.LASF40
 1087 0283 03       		.byte	0x3
 1088 0284 C8       		.byte	0xc8
 1089 0285 1F020000 		.4byte	.LASF41
 1090 0289 91020000 		.4byte	0x291
 1091 028d 9C020000 		.4byte	0x29c
 1092 0291 0F       		.uleb128 0xf
 1093 0292 64040000 		.4byte	0x464
 1094 0296 11       		.uleb128 0x11
 1095 0297 25000000 		.4byte	0x25
 1096 029b 00       		.byte	0
 1097 029c 12       		.uleb128 0x12
 1098 029d E6040000 		.4byte	.LASF42
 1099 02a1 03       		.byte	0x3
 1100 02a2 D6       		.byte	0xd6
 1101 02a3 15080000 		.4byte	.LASF43
 1102 02a7 AF020000 		.4byte	0x2af
 1103 02ab BF020000 		.4byte	0x2bf
 1104 02af 0F       		.uleb128 0xf
 1105 02b0 64040000 		.4byte	0x464
 1106 02b4 11       		.uleb128 0x11
 1107 02b5 25000000 		.4byte	0x25
 1108 02b9 11       		.uleb128 0x11
 1109 02ba 25000000 		.4byte	0x25
 1110 02be 00       		.byte	0
 1111 02bf 12       		.uleb128 0x12
 1112 02c0 31030000 		.4byte	.LASF44
 1113 02c4 03       		.byte	0x3
 1114 02c5 E8       		.byte	0xe8
 1115 02c6 15040000 		.4byte	.LASF45
 1116 02ca D2020000 		.4byte	0x2d2
 1117 02ce E2020000 		.4byte	0x2e2
 1118 02d2 0F       		.uleb128 0xf
 1119 02d3 64040000 		.4byte	0x464
 1120 02d7 11       		.uleb128 0x11
 1121 02d8 25000000 		.4byte	0x25
 1122 02dc 11       		.uleb128 0x11
 1123 02dd 25000000 		.4byte	0x25
 1124 02e1 00       		.byte	0
 1125 02e2 12       		.uleb128 0x12
 1126 02e3 E4070000 		.4byte	.LASF46
 1127 02e7 03       		.byte	0x3
 1128 02e8 FA       		.byte	0xfa
 1129 02e9 B8040000 		.4byte	.LASF47
 1130 02ed F5020000 		.4byte	0x2f5
 1131 02f1 05030000 		.4byte	0x305
 1132 02f5 0F       		.uleb128 0xf
ARM GAS  C:\msys64\tmp\cclifTvb.s 			page 21


 1133 02f6 64040000 		.4byte	0x464
 1134 02fa 11       		.uleb128 0x11
 1135 02fb 25000000 		.4byte	0x25
 1136 02ff 11       		.uleb128 0x11
 1137 0300 25000000 		.4byte	0x25
 1138 0304 00       		.byte	0
 1139 0305 13       		.uleb128 0x13
 1140 0306 EC070000 		.4byte	.LASF48
 1141 030a 03       		.byte	0x3
 1142 030b 0D01     		.2byte	0x10d
 1143 030d 1B060000 		.4byte	.LASF50
 1144 0311 19030000 		.4byte	0x319
 1145 0315 29030000 		.4byte	0x329
 1146 0319 0F       		.uleb128 0xf
 1147 031a 64040000 		.4byte	0x464
 1148 031e 11       		.uleb128 0x11
 1149 031f 25000000 		.4byte	0x25
 1150 0323 11       		.uleb128 0x11
 1151 0324 25000000 		.4byte	0x25
 1152 0328 00       		.byte	0
 1153 0329 13       		.uleb128 0x13
 1154 032a 0C040000 		.4byte	.LASF49
 1155 032e 03       		.byte	0x3
 1156 032f 1E01     		.2byte	0x11e
 1157 0331 DC020000 		.4byte	.LASF51
 1158 0335 3D030000 		.4byte	0x33d
 1159 0339 4D030000 		.4byte	0x34d
 1160 033d 0F       		.uleb128 0xf
 1161 033e 64040000 		.4byte	0x464
 1162 0342 11       		.uleb128 0x11
 1163 0343 25000000 		.4byte	0x25
 1164 0347 11       		.uleb128 0x11
 1165 0348 25000000 		.4byte	0x25
 1166 034c 00       		.byte	0
 1167 034d 13       		.uleb128 0x13
 1168 034e 5F060000 		.4byte	.LASF52
 1169 0352 03       		.byte	0x3
 1170 0353 3201     		.2byte	0x132
 1171 0355 4B020000 		.4byte	.LASF53
 1172 0359 61030000 		.4byte	0x361
 1173 035d 71030000 		.4byte	0x371
 1174 0361 0F       		.uleb128 0xf
 1175 0362 64040000 		.4byte	0x464
 1176 0366 11       		.uleb128 0x11
 1177 0367 25000000 		.4byte	0x25
 1178 036b 11       		.uleb128 0x11
 1179 036c 25000000 		.4byte	0x25
 1180 0370 00       		.byte	0
 1181 0371 14       		.uleb128 0x14
 1182 0372 36040000 		.4byte	.LASF112
 1183 0376 03       		.byte	0x3
 1184 0377 4501     		.2byte	0x145
 1185 0379 C2030000 		.4byte	.LASF113
 1186 037d 81030000 		.4byte	0x381
 1187 0381 0F       		.uleb128 0xf
 1188 0382 64040000 		.4byte	0x464
 1189 0386 11       		.uleb128 0x11
ARM GAS  C:\msys64\tmp\cclifTvb.s 			page 22


 1190 0387 25000000 		.4byte	0x25
 1191 038b 11       		.uleb128 0x11
 1192 038c 25000000 		.4byte	0x25
 1193 0390 00       		.byte	0
 1194 0391 00       		.byte	0
 1195 0392 15       		.uleb128 0x15
 1196 0393 BE070000 		.4byte	.LASF54
 1197 0397 03       		.byte	0x3
 1198 0398 4F01     		.2byte	0x14f
 1199 039a 2A010000 		.4byte	0x12a
 1200 039e 16       		.uleb128 0x16
 1201 039f 52050000 		.4byte	.LASF55
 1202 03a3 03       		.byte	0x3
 1203 03a4 9801     		.2byte	0x198
 1204 03a6 92030000 		.4byte	0x392
 1205 03aa 00       		.byte	0
 1206 03ab 17       		.uleb128 0x17
 1207 03ac 6D5A3100 		.ascii	"mZ1\000"
 1208 03b0 03       		.byte	0x3
 1209 03b1 9901     		.2byte	0x199
 1210 03b3 25000000 		.4byte	0x25
 1211 03b7 14       		.byte	0x14
 1212 03b8 17       		.uleb128 0x17
 1213 03b9 6D5A3200 		.ascii	"mZ2\000"
 1214 03bd 03       		.byte	0x3
 1215 03be 9901     		.2byte	0x199
 1216 03c0 25000000 		.4byte	0x25
 1217 03c4 18       		.byte	0x18
 1218 03c5 18       		.uleb128 0x18
 1219 03c6 BB030000 		.4byte	.LASF56
 1220 03ca 03       		.byte	0x3
 1221 03cb 5801     		.2byte	0x158
 1222 03cd 4C030000 		.4byte	.LASF60
 1223 03d1 6A040000 		.4byte	0x46a
 1224 03d5 DD030000 		.4byte	0x3dd
 1225 03d9 E3030000 		.4byte	0x3e3
 1226 03dd 0F       		.uleb128 0xf
 1227 03de 6A040000 		.4byte	0x46a
 1228 03e2 00       		.byte	0
 1229 03e3 13       		.uleb128 0x13
 1230 03e4 6D060000 		.4byte	.LASF57
 1231 03e8 03       		.byte	0x3
 1232 03e9 6301     		.2byte	0x163
 1233 03eb 04060000 		.4byte	.LASF58
 1234 03ef F7030000 		.4byte	0x3f7
 1235 03f3 FD030000 		.4byte	0x3fd
 1236 03f7 0F       		.uleb128 0xf
 1237 03f8 6A040000 		.4byte	0x46a
 1238 03fc 00       		.byte	0
 1239 03fd 18       		.uleb128 0x18
 1240 03fe 3C060000 		.4byte	.LASF59
 1241 0402 03       		.byte	0x3
 1242 0403 6F01     		.2byte	0x16f
 1243 0405 6B030000 		.4byte	.LASF61
 1244 0409 25000000 		.4byte	0x25
 1245 040d 15040000 		.4byte	0x415
 1246 0411 20040000 		.4byte	0x420
ARM GAS  C:\msys64\tmp\cclifTvb.s 			page 23


 1247 0415 0F       		.uleb128 0xf
 1248 0416 6A040000 		.4byte	0x46a
 1249 041a 11       		.uleb128 0x11
 1250 041b 25000000 		.4byte	0x25
 1251 041f 00       		.byte	0
 1252 0420 18       		.uleb128 0x18
 1253 0421 96070000 		.4byte	.LASF62
 1254 0425 03       		.byte	0x3
 1255 0426 8001     		.2byte	0x180
 1256 0428 A1070000 		.4byte	.LASF63
 1257 042c 25000000 		.4byte	0x25
 1258 0430 38040000 		.4byte	0x438
 1259 0434 43040000 		.4byte	0x443
 1260 0438 0F       		.uleb128 0xf
 1261 0439 6A040000 		.4byte	0x46a
 1262 043d 11       		.uleb128 0x11
 1263 043e 25000000 		.4byte	0x25
 1264 0442 00       		.byte	0
 1265 0443 19       		.uleb128 0x19
 1266 0444 59000000 		.4byte	.LASF64
 1267 0448 03       		.byte	0x3
 1268 0449 8F01     		.2byte	0x18f
 1269 044b EB060000 		.4byte	.LASF65
 1270 044f 25000000 		.4byte	0x25
 1271 0453 57040000 		.4byte	0x457
 1272 0457 0F       		.uleb128 0xf
 1273 0458 6A040000 		.4byte	0x46a
 1274 045c 11       		.uleb128 0x11
 1275 045d 25000000 		.4byte	0x25
 1276 0461 00       		.byte	0
 1277 0462 00       		.byte	0
 1278 0463 00       		.byte	0
 1279 0464 08       		.uleb128 0x8
 1280 0465 04       		.byte	0x4
 1281 0466 2A010000 		.4byte	0x12a
 1282 046a 08       		.uleb128 0x8
 1283 046b 04       		.byte	0x4
 1284 046c 22010000 		.4byte	0x122
 1285 0470 1A       		.uleb128 0x1a
 1286 0471 68060000 		.4byte	.LASF66
 1287 0475 04       		.byte	0x4
 1288 0476 C0       		.byte	0xc0
 1289 0477 25000000 		.4byte	0x25
 1290 047b 03       		.byte	0x3
 1291 047c 9C040000 		.4byte	0x49c
 1292 0480 1B       		.uleb128 0x1b
 1293 0481 6100     		.ascii	"a\000"
 1294 0483 04       		.byte	0x4
 1295 0484 C0       		.byte	0xc0
 1296 0485 0C010000 		.4byte	0x10c
 1297 0489 1B       		.uleb128 0x1b
 1298 048a 6200     		.ascii	"b\000"
 1299 048c 04       		.byte	0x4
 1300 048d C0       		.byte	0xc0
 1301 048e 0C010000 		.4byte	0x10c
 1302 0492 1B       		.uleb128 0x1b
 1303 0493 6300     		.ascii	"c\000"
ARM GAS  C:\msys64\tmp\cclifTvb.s 			page 24


 1304 0495 04       		.byte	0x4
 1305 0496 C0       		.byte	0xc0
 1306 0497 0C010000 		.4byte	0x10c
 1307 049b 00       		.byte	0
 1308 049c 1C       		.uleb128 0x1c
 1309 049d 6D020000 		.4byte	.LASF67
 1310 04a1 04       		.byte	0x4
 1311 04a2 3C01     		.2byte	0x13c
 1312 04a4 25000000 		.4byte	0x25
 1313 04a8 03       		.byte	0x3
 1314 04a9 D0040000 		.4byte	0x4d0
 1315 04ad 1D       		.uleb128 0x1d
 1316 04ae 6D696E00 		.ascii	"min\000"
 1317 04b2 04       		.byte	0x4
 1318 04b3 3C01     		.2byte	0x13c
 1319 04b5 0C010000 		.4byte	0x10c
 1320 04b9 1D       		.uleb128 0x1d
 1321 04ba 7800     		.ascii	"x\000"
 1322 04bc 04       		.byte	0x4
 1323 04bd 3C01     		.2byte	0x13c
 1324 04bf 25000000 		.4byte	0x25
 1325 04c3 1D       		.uleb128 0x1d
 1326 04c4 6D617800 		.ascii	"max\000"
 1327 04c8 04       		.byte	0x4
 1328 04c9 3C01     		.2byte	0x13c
 1329 04cb 0C010000 		.4byte	0x10c
 1330 04cf 00       		.byte	0
 1331 04d0 1C       		.uleb128 0x1c
 1332 04d1 E3060000 		.4byte	.LASF68
 1333 04d5 04       		.byte	0x4
 1334 04d6 3903     		.2byte	0x339
 1335 04d8 25000000 		.4byte	0x25
 1336 04dc 03       		.byte	0x3
 1337 04dd 03050000 		.4byte	0x503
 1338 04e1 1D       		.uleb128 0x1d
 1339 04e2 667200   		.ascii	"fr\000"
 1340 04e5 04       		.byte	0x4
 1341 04e6 3903     		.2byte	0x339
 1342 04e8 0C010000 		.4byte	0x10c
 1343 04ec 1D       		.uleb128 0x1d
 1344 04ed 783000   		.ascii	"x0\000"
 1345 04f0 04       		.byte	0x4
 1346 04f1 3903     		.2byte	0x339
 1347 04f3 0C010000 		.4byte	0x10c
 1348 04f7 1D       		.uleb128 0x1d
 1349 04f8 783100   		.ascii	"x1\000"
 1350 04fb 04       		.byte	0x4
 1351 04fc 3903     		.2byte	0x339
 1352 04fe 0C010000 		.4byte	0x10c
 1353 0502 00       		.byte	0
 1354 0503 1E       		.uleb128 0x1e
 1355 0504 E3030000 		.4byte	0x3e3
 1356 0508 03       		.byte	0x3
 1357 0509 11050000 		.4byte	0x511
 1358 050d 1B050000 		.4byte	0x51b
 1359 0511 1F       		.uleb128 0x1f
 1360 0512 13050000 		.4byte	.LASF69
ARM GAS  C:\msys64\tmp\cclifTvb.s 			page 25


 1361 0516 1B050000 		.4byte	0x51b
 1362 051a 00       		.byte	0
 1363 051b 09       		.uleb128 0x9
 1364 051c 6A040000 		.4byte	0x46a
 1365 0520 1E       		.uleb128 0x1e
 1366 0521 9C020000 		.4byte	0x29c
 1367 0525 03       		.byte	0x3
 1368 0526 2E050000 		.4byte	0x52e
 1369 052a 60050000 		.4byte	0x560
 1370 052e 1F       		.uleb128 0x1f
 1371 052f 13050000 		.4byte	.LASF69
 1372 0533 60050000 		.4byte	0x560
 1373 0537 1B       		.uleb128 0x1b
 1374 0538 6B00     		.ascii	"k\000"
 1375 053a 03       		.byte	0x3
 1376 053b D6       		.byte	0xd6
 1377 053c 0C010000 		.4byte	0x10c
 1378 0540 1B       		.uleb128 0x1b
 1379 0541 7100     		.ascii	"q\000"
 1380 0543 03       		.byte	0x3
 1381 0544 D6       		.byte	0xd6
 1382 0545 0C010000 		.4byte	0x10c
 1383 0549 20       		.uleb128 0x20
 1384 054a 716B3200 		.ascii	"qk2\000"
 1385 054e 03       		.byte	0x3
 1386 054f D9       		.byte	0xd9
 1387 0550 0C010000 		.4byte	0x10c
 1388 0554 21       		.uleb128 0x21
 1389 0555 8F030000 		.4byte	.LASF70
 1390 0559 03       		.byte	0x3
 1391 055a DA       		.byte	0xda
 1392 055b 0C010000 		.4byte	0x10c
 1393 055f 00       		.byte	0
 1394 0560 09       		.uleb128 0x9
 1395 0561 64040000 		.4byte	0x464
 1396 0565 1A       		.uleb128 0x1a
 1397 0566 15020000 		.4byte	.LASF71
 1398 056a 02       		.byte	0x2
 1399 056b E9       		.byte	0xe9
 1400 056c 25000000 		.4byte	0x25
 1401 0570 03       		.byte	0x3
 1402 0571 A9050000 		.4byte	0x5a9
 1403 0575 1B       		.uleb128 0x1b
 1404 0576 7800     		.ascii	"x\000"
 1405 0578 02       		.byte	0x2
 1406 0579 E9       		.byte	0xe9
 1407 057a 25000000 		.4byte	0x25
 1408 057e 21       		.uleb128 0x21
 1409 057f 8D060000 		.4byte	.LASF72
 1410 0583 02       		.byte	0x2
 1411 0584 EA       		.byte	0xea
 1412 0585 0C010000 		.4byte	0x10c
 1413 0589 20       		.uleb128 0x20
 1414 058a 69647800 		.ascii	"idx\000"
 1415 058e 02       		.byte	0x2
 1416 058f EB       		.byte	0xeb
 1417 0590 A9050000 		.4byte	0x5a9
ARM GAS  C:\msys64\tmp\cclifTvb.s 			page 26


 1418 0594 20       		.uleb128 0x20
 1419 0595 793000   		.ascii	"y0\000"
 1420 0598 02       		.byte	0x2
 1421 0599 EC       		.byte	0xec
 1422 059a 0C010000 		.4byte	0x10c
 1423 059e 20       		.uleb128 0x20
 1424 059f 793100   		.ascii	"y1\000"
 1425 05a2 02       		.byte	0x2
 1426 05a3 ED       		.byte	0xed
 1427 05a4 0C010000 		.4byte	0x10c
 1428 05a8 00       		.byte	0
 1429 05a9 09       		.uleb128 0x9
 1430 05aa A9000000 		.4byte	0xa9
 1431 05ae 1E       		.uleb128 0x1e
 1432 05af FD030000 		.4byte	0x3fd
 1433 05b3 03       		.byte	0x3
 1434 05b4 BC050000 		.4byte	0x5bc
 1435 05b8 DD050000 		.4byte	0x5dd
 1436 05bc 1F       		.uleb128 0x1f
 1437 05bd 13050000 		.4byte	.LASF69
 1438 05c1 1B050000 		.4byte	0x51b
 1439 05c5 1D       		.uleb128 0x1d
 1440 05c6 786E00   		.ascii	"xn\000"
 1441 05c9 03       		.byte	0x3
 1442 05ca 6F01     		.2byte	0x16f
 1443 05cc 0C010000 		.4byte	0x10c
 1444 05d0 22       		.uleb128 0x22
 1445 05d1 61636300 		.ascii	"acc\000"
 1446 05d5 03       		.byte	0x3
 1447 05d6 7001     		.2byte	0x170
 1448 05d8 25000000 		.4byte	0x25
 1449 05dc 00       		.byte	0
 1450 05dd 1C       		.uleb128 0x1c
 1451 05de 5F030000 		.4byte	.LASF73
 1452 05e2 04       		.byte	0x4
 1453 05e3 9101     		.2byte	0x191
 1454 05e5 25000000 		.4byte	0x25
 1455 05e9 03       		.byte	0x3
 1456 05ea 11060000 		.4byte	0x611
 1457 05ee 1D       		.uleb128 0x1d
 1458 05ef 6D696E00 		.ascii	"min\000"
 1459 05f3 04       		.byte	0x4
 1460 05f4 9101     		.2byte	0x191
 1461 05f6 0C010000 		.4byte	0x10c
 1462 05fa 1D       		.uleb128 0x1d
 1463 05fb 7800     		.ascii	"x\000"
 1464 05fd 04       		.byte	0x4
 1465 05fe 9101     		.2byte	0x191
 1466 0600 0C010000 		.4byte	0x10c
 1467 0604 1D       		.uleb128 0x1d
 1468 0605 6D617800 		.ascii	"max\000"
 1469 0609 04       		.byte	0x4
 1470 060a 9101     		.2byte	0x191
 1471 060c 0C010000 		.4byte	0x10c
 1472 0610 00       		.byte	0
 1473 0611 23       		.uleb128 0x23
 1474 0612 FB050000 		.4byte	.LASF74
ARM GAS  C:\msys64\tmp\cclifTvb.s 			page 27


 1475 0616 01       		.byte	0x1
 1476 0617 13       		.byte	0x13
 1477 0618 71040000 		.4byte	.LASF75
 1478 061c 25000000 		.4byte	0x25
 1479 0620 01       		.byte	0x1
 1480 0621 31060000 		.4byte	0x631
 1481 0625 24       		.uleb128 0x24
 1482 0626 80020000 		.4byte	.LASF76
 1483 062a 01       		.byte	0x1
 1484 062b 13       		.byte	0x13
 1485 062c 25000000 		.4byte	0x25
 1486 0630 00       		.byte	0
 1487 0631 25       		.uleb128 0x25
 1488 0632 28050000 		.4byte	.LASF114
 1489 0636 01       		.byte	0x1
 1490 0637 52060000 		.4byte	0x652
 1491 063b 24       		.uleb128 0x24
 1492 063c 0E030000 		.4byte	.LASF77
 1493 0640 01       		.byte	0x1
 1494 0641 43       		.byte	0x43
 1495 0642 33000000 		.4byte	0x33
 1496 0646 24       		.uleb128 0x24
 1497 0647 39030000 		.4byte	.LASF78
 1498 064b 01       		.byte	0x1
 1499 064c 43       		.byte	0x43
 1500 064d 33000000 		.4byte	0x33
 1501 0651 00       		.byte	0
 1502 0652 26       		.uleb128 0x26
 1503 0653 89050000 		.4byte	.LASF79
 1504 0657 01       		.byte	0x1
 1505 0658 0B       		.byte	0xb
 1506 0659 00000000 		.4byte	.LFB270
 1507 065d B8000000 		.4byte	.LFE270-.LFB270
 1508 0661 01       		.uleb128 0x1
 1509 0662 9C       		.byte	0x9c
 1510 0663 60070000 		.4byte	0x760
 1511 0667 27       		.uleb128 0x27
 1512 0668 A5010000 		.4byte	.LASF80
 1513 066c 01       		.byte	0x1
 1514 066d 0B       		.byte	0xb
 1515 066e A9000000 		.4byte	0xa9
 1516 0672 00000000 		.4byte	.LLST0
 1517 0676 28       		.uleb128 0x28
 1518 0677 61706900 		.ascii	"api\000"
 1519 067b 01       		.byte	0x1
 1520 067c 0B       		.byte	0xb
 1521 067d A9000000 		.4byte	0xa9
 1522 0681 21000000 		.4byte	.LLST1
 1523 0685 29       		.uleb128 0x29
 1524 0686 65050000 		.4byte	0x565
 1525 068a 04000000 		.4byte	.LBB67
 1526 068e 00000000 		.4byte	.Ldebug_ranges0+0
 1527 0692 01       		.byte	0x1
 1528 0693 0E       		.byte	0xe
 1529 0694 EA060000 		.4byte	0x6ea
 1530 0698 2A       		.uleb128 0x2a
 1531 0699 75050000 		.4byte	0x575
ARM GAS  C:\msys64\tmp\cclifTvb.s 			page 28


 1532 069d 42000000 		.4byte	.LLST2
 1533 06a1 2B       		.uleb128 0x2b
 1534 06a2 00000000 		.4byte	.Ldebug_ranges0+0
 1535 06a6 2C       		.uleb128 0x2c
 1536 06a7 7E050000 		.4byte	0x57e
 1537 06ab 02       		.uleb128 0x2
 1538 06ac 90       		.byte	0x90
 1539 06ad 4F       		.uleb128 0x4f
 1540 06ae 2D       		.uleb128 0x2d
 1541 06af 89050000 		.4byte	0x589
 1542 06b3 59000000 		.4byte	.LLST3
 1543 06b7 2D       		.uleb128 0x2d
 1544 06b8 94050000 		.4byte	0x594
 1545 06bc 6C000000 		.4byte	.LLST4
 1546 06c0 2E       		.uleb128 0x2e
 1547 06c1 9E050000 		.4byte	0x59e
 1548 06c5 2F       		.uleb128 0x2f
 1549 06c6 D0040000 		.4byte	0x4d0
 1550 06ca 26000000 		.4byte	.LBB69
 1551 06ce 40000000 		.4byte	.Ldebug_ranges0+0x40
 1552 06d2 02       		.byte	0x2
 1553 06d3 EE       		.byte	0xee
 1554 06d4 30       		.uleb128 0x30
 1555 06d5 F7040000 		.4byte	0x4f7
 1556 06d9 2A       		.uleb128 0x2a
 1557 06da EC040000 		.4byte	0x4ec
 1558 06de 6C000000 		.4byte	.LLST4
 1559 06e2 30       		.uleb128 0x30
 1560 06e3 E1040000 		.4byte	0x4e1
 1561 06e7 00       		.byte	0
 1562 06e8 00       		.byte	0
 1563 06e9 00       		.byte	0
 1564 06ea 29       		.uleb128 0x29
 1565 06eb 03050000 		.4byte	0x503
 1566 06ef 12000000 		.4byte	.LBB83
 1567 06f3 68000000 		.4byte	.Ldebug_ranges0+0x68
 1568 06f7 01       		.byte	0x1
 1569 06f8 0D       		.byte	0xd
 1570 06f9 07070000 		.4byte	0x707
 1571 06fd 2A       		.uleb128 0x2a
 1572 06fe 11050000 		.4byte	0x511
 1573 0702 80000000 		.4byte	.LLST6
 1574 0706 00       		.byte	0
 1575 0707 29       		.uleb128 0x29
 1576 0708 20050000 		.4byte	0x520
 1577 070c 18000000 		.4byte	.LBB89
 1578 0710 90000000 		.4byte	.Ldebug_ranges0+0x90
 1579 0714 01       		.byte	0x1
 1580 0715 0E       		.byte	0xe
 1581 0716 4A070000 		.4byte	0x74a
 1582 071a 2A       		.uleb128 0x2a
 1583 071b 40050000 		.4byte	0x540
 1584 071f 98000000 		.4byte	.LLST7
 1585 0723 30       		.uleb128 0x30
 1586 0724 37050000 		.4byte	0x537
 1587 0728 2A       		.uleb128 0x2a
 1588 0729 2E050000 		.4byte	0x52e
ARM GAS  C:\msys64\tmp\cclifTvb.s 			page 29


 1589 072d AC000000 		.4byte	.LLST8
 1590 0731 2B       		.uleb128 0x2b
 1591 0732 90000000 		.4byte	.Ldebug_ranges0+0x90
 1592 0736 2D       		.uleb128 0x2d
 1593 0737 49050000 		.4byte	0x549
 1594 073b C4000000 		.4byte	.LLST9
 1595 073f 2D       		.uleb128 0x2d
 1596 0740 54050000 		.4byte	0x554
 1597 0744 D8000000 		.4byte	.LLST10
 1598 0748 00       		.byte	0
 1599 0749 00       		.byte	0
 1600 074a 31       		.uleb128 0x31
 1601 074b 03050000 		.4byte	0x503
 1602 074f 50000000 		.4byte	.LBB100
 1603 0753 04000000 		.4byte	.LBE100-.LBB100
 1604 0757 01       		.byte	0x1
 1605 0758 0F       		.byte	0xf
 1606 0759 30       		.uleb128 0x30
 1607 075a 11050000 		.4byte	0x511
 1608 075e 00       		.byte	0
 1609 075f 00       		.byte	0
 1610 0760 32       		.uleb128 0x32
 1611 0761 11060000 		.4byte	0x611
 1612 0765 71040000 		.4byte	.LASF75
 1613 0769 B8000000 		.4byte	.LFB271
 1614 076d 10000000 		.4byte	.LFE271-.LFB271
 1615 0771 01       		.uleb128 0x1
 1616 0772 9C       		.byte	0x9c
 1617 0773 81070000 		.4byte	0x781
 1618 0777 2A       		.uleb128 0x2a
 1619 0778 25060000 		.4byte	0x625
 1620 077c EC000000 		.4byte	.LLST11
 1621 0780 00       		.byte	0
 1622 0781 26       		.uleb128 0x26
 1623 0782 7B050000 		.4byte	.LASF81
 1624 0786 01       		.byte	0x1
 1625 0787 1A       		.byte	0x1a
 1626 0788 C8000000 		.4byte	.LFB272
 1627 078c A8000000 		.4byte	.LFE272-.LFB272
 1628 0790 01       		.uleb128 0x1
 1629 0791 9C       		.byte	0x9c
 1630 0792 5D080000 		.4byte	0x85d
 1631 0796 28       		.uleb128 0x28
 1632 0797 786E00   		.ascii	"xn\000"
 1633 079a 01       		.byte	0x1
 1634 079b 1A       		.byte	0x1a
 1635 079c 06010000 		.4byte	0x106
 1636 07a0 10010000 		.4byte	.LLST12
 1637 07a4 28       		.uleb128 0x28
 1638 07a5 796E00   		.ascii	"yn\000"
 1639 07a8 01       		.byte	0x1
 1640 07a9 1A       		.byte	0x1a
 1641 07aa 11010000 		.4byte	0x111
 1642 07ae 55010000 		.4byte	.LLST13
 1643 07b2 27       		.uleb128 0x27
 1644 07b3 57040000 		.4byte	.LASF82
 1645 07b7 01       		.byte	0x1
ARM GAS  C:\msys64\tmp\cclifTvb.s 			page 30


 1646 07b8 1B       		.byte	0x1b
 1647 07b9 06010000 		.4byte	0x106
 1648 07bd D7010000 		.4byte	.LLST14
 1649 07c1 27       		.uleb128 0x27
 1650 07c2 EE040000 		.4byte	.LASF83
 1651 07c6 01       		.byte	0x1
 1652 07c7 1B       		.byte	0x1b
 1653 07c8 11010000 		.4byte	0x111
 1654 07cc F8010000 		.4byte	.LLST15
 1655 07d0 27       		.uleb128 0x27
 1656 07d1 E4030000 		.4byte	.LASF84
 1657 07d5 01       		.byte	0x1
 1658 07d6 1C       		.byte	0x1c
 1659 07d7 A9000000 		.4byte	0xa9
 1660 07db 19020000 		.4byte	.LLST16
 1661 07df 33       		.uleb128 0x33
 1662 07e0 CC000000 		.4byte	.LBB103
 1663 07e4 A4000000 		.4byte	.LBE103-.LBB103
 1664 07e8 34       		.uleb128 0x34
 1665 07e9 6900     		.ascii	"i\000"
 1666 07eb 01       		.byte	0x1
 1667 07ec 1E       		.byte	0x1e
 1668 07ed 33000000 		.4byte	0x33
 1669 07f1 39020000 		.4byte	.LLST17
 1670 07f5 29       		.uleb128 0x29
 1671 07f6 AE050000 		.4byte	0x5ae
 1672 07fa CC000000 		.4byte	.LBB104
 1673 07fe A8000000 		.4byte	.Ldebug_ranges0+0xa8
 1674 0802 01       		.byte	0x1
 1675 0803 23       		.byte	0x23
 1676 0804 2A080000 		.4byte	0x82a
 1677 0808 2A       		.uleb128 0x2a
 1678 0809 C5050000 		.4byte	0x5c5
 1679 080d 70020000 		.4byte	.LLST18
 1680 0811 2A       		.uleb128 0x2a
 1681 0812 BC050000 		.4byte	0x5bc
 1682 0816 84020000 		.4byte	.LLST19
 1683 081a 2B       		.uleb128 0x2b
 1684 081b A8000000 		.4byte	.Ldebug_ranges0+0xa8
 1685 081f 2D       		.uleb128 0x2d
 1686 0820 D0050000 		.4byte	0x5d0
 1687 0824 9C020000 		.4byte	.LLST20
 1688 0828 00       		.byte	0
 1689 0829 00       		.byte	0
 1690 082a 2F       		.uleb128 0x2f
 1691 082b AE050000 		.4byte	0x5ae
 1692 082f 0E010000 		.4byte	.LBB116
 1693 0833 E8000000 		.4byte	.Ldebug_ranges0+0xe8
 1694 0837 01       		.byte	0x1
 1695 0838 24       		.byte	0x24
 1696 0839 2A       		.uleb128 0x2a
 1697 083a C5050000 		.4byte	0x5c5
 1698 083e B0020000 		.4byte	.LLST21
 1699 0842 2A       		.uleb128 0x2a
 1700 0843 BC050000 		.4byte	0x5bc
 1701 0847 C4020000 		.4byte	.LLST22
 1702 084b 2B       		.uleb128 0x2b
ARM GAS  C:\msys64\tmp\cclifTvb.s 			page 31


 1703 084c E8000000 		.4byte	.Ldebug_ranges0+0xe8
 1704 0850 2D       		.uleb128 0x2d
 1705 0851 D0050000 		.4byte	0x5d0
 1706 0855 DC020000 		.4byte	.LLST23
 1707 0859 00       		.byte	0
 1708 085a 00       		.byte	0
 1709 085b 00       		.byte	0
 1710 085c 00       		.byte	0
 1711 085d 26       		.uleb128 0x26
 1712 085e 09000000 		.4byte	.LASF85
 1713 0862 01       		.byte	0x1
 1714 0863 2B       		.byte	0x2b
 1715 0864 70010000 		.4byte	.LFB273
 1716 0868 20010000 		.4byte	.LFE273-.LFB273
 1717 086c 01       		.uleb128 0x1
 1718 086d 9C       		.byte	0x9c
 1719 086e 5D0A0000 		.4byte	0xa5d
 1720 0872 27       		.uleb128 0x27
 1721 0873 8B020000 		.4byte	.LASF86
 1722 0877 01       		.byte	0x1
 1723 0878 2B       		.byte	0x2b
 1724 0879 93000000 		.4byte	0x93
 1725 087d F0020000 		.4byte	.LLST24
 1726 0881 27       		.uleb128 0x27
 1727 0882 08030000 		.4byte	.LASF87
 1728 0886 01       		.byte	0x1
 1729 0887 2B       		.byte	0x2b
 1730 0888 9E000000 		.4byte	0x9e
 1731 088c 11030000 		.4byte	.LLST25
 1732 0890 35       		.uleb128 0x35
 1733 0891 80020000 		.4byte	.LASF76
 1734 0895 01       		.byte	0x1
 1735 0896 2D       		.byte	0x2d
 1736 0897 0C010000 		.4byte	0x10c
 1737 089b 32030000 		.4byte	.LLST26
 1738 089f 21       		.uleb128 0x21
 1739 08a0 D9040000 		.4byte	.LASF88
 1740 08a4 01       		.byte	0x1
 1741 08a5 2E       		.byte	0x2e
 1742 08a6 25000000 		.4byte	0x25
 1743 08aa 35       		.uleb128 0x35
 1744 08ab B2040000 		.4byte	.LASF89
 1745 08af 01       		.byte	0x1
 1746 08b0 2F       		.byte	0x2f
 1747 08b1 25000000 		.4byte	0x25
 1748 08b5 83030000 		.4byte	.LLST27
 1749 08b9 29       		.uleb128 0x29
 1750 08ba 65050000 		.4byte	0x565
 1751 08be 88010000 		.4byte	.LBB126
 1752 08c2 10010000 		.4byte	.Ldebug_ranges0+0x110
 1753 08c6 01       		.byte	0x1
 1754 08c7 37       		.byte	0x37
 1755 08c8 23090000 		.4byte	0x923
 1756 08cc 2A       		.uleb128 0x2a
 1757 08cd 75050000 		.4byte	0x575
 1758 08d1 9B030000 		.4byte	.LLST28
 1759 08d5 2B       		.uleb128 0x2b
ARM GAS  C:\msys64\tmp\cclifTvb.s 			page 32


 1760 08d6 10010000 		.4byte	.Ldebug_ranges0+0x110
 1761 08da 2D       		.uleb128 0x2d
 1762 08db 7E050000 		.4byte	0x57e
 1763 08df BE030000 		.4byte	.LLST29
 1764 08e3 2D       		.uleb128 0x2d
 1765 08e4 89050000 		.4byte	0x589
 1766 08e8 ED030000 		.4byte	.LLST30
 1767 08ec 2D       		.uleb128 0x2d
 1768 08ed 94050000 		.4byte	0x594
 1769 08f1 00040000 		.4byte	.LLST31
 1770 08f5 2E       		.uleb128 0x2e
 1771 08f6 9E050000 		.4byte	0x59e
 1772 08fa 2F       		.uleb128 0x2f
 1773 08fb D0040000 		.4byte	0x4d0
 1774 08ff 02020000 		.4byte	.LBB128
 1775 0903 40010000 		.4byte	.Ldebug_ranges0+0x140
 1776 0907 02       		.byte	0x2
 1777 0908 EE       		.byte	0xee
 1778 0909 30       		.uleb128 0x30
 1779 090a F7040000 		.4byte	0x4f7
 1780 090e 2A       		.uleb128 0x2a
 1781 090f EC040000 		.4byte	0x4ec
 1782 0913 00040000 		.4byte	.LLST31
 1783 0917 2A       		.uleb128 0x2a
 1784 0918 E1040000 		.4byte	0x4e1
 1785 091c 14040000 		.4byte	.LLST33
 1786 0920 00       		.byte	0
 1787 0921 00       		.byte	0
 1788 0922 00       		.byte	0
 1789 0923 29       		.uleb128 0x29
 1790 0924 03050000 		.4byte	0x503
 1791 0928 8E010000 		.4byte	.LBB138
 1792 092c 60010000 		.4byte	.Ldebug_ranges0+0x160
 1793 0930 01       		.byte	0x1
 1794 0931 36       		.byte	0x36
 1795 0932 3C090000 		.4byte	0x93c
 1796 0936 30       		.uleb128 0x30
 1797 0937 11050000 		.4byte	0x511
 1798 093b 00       		.byte	0
 1799 093c 29       		.uleb128 0x29
 1800 093d DD050000 		.4byte	0x5dd
 1801 0941 98010000 		.4byte	.LBB142
 1802 0945 80010000 		.4byte	.Ldebug_ranges0+0x180
 1803 0949 01       		.byte	0x1
 1804 094a 34       		.byte	0x34
 1805 094b E3090000 		.4byte	0x9e3
 1806 094f 2A       		.uleb128 0x2a
 1807 0950 04060000 		.4byte	0x604
 1808 0954 53040000 		.4byte	.LLST34
 1809 0958 30       		.uleb128 0x30
 1810 0959 FA050000 		.4byte	0x5fa
 1811 095d 2A       		.uleb128 0x2a
 1812 095e EE050000 		.4byte	0x5ee
 1813 0962 6B040000 		.4byte	.LLST35
 1814 0966 36       		.uleb128 0x36
 1815 0967 9C040000 		.4byte	0x49c
 1816 096b 98010000 		.4byte	.LBB143
ARM GAS  C:\msys64\tmp\cclifTvb.s 			page 33


 1817 096f 80010000 		.4byte	.Ldebug_ranges0+0x180
 1818 0973 04       		.byte	0x4
 1819 0974 9201     		.2byte	0x192
 1820 0976 2A       		.uleb128 0x2a
 1821 0977 C3040000 		.4byte	0x4c3
 1822 097b 53040000 		.4byte	.LLST34
 1823 097f 30       		.uleb128 0x30
 1824 0980 B9040000 		.4byte	0x4b9
 1825 0984 2A       		.uleb128 0x2a
 1826 0985 AD040000 		.4byte	0x4ad
 1827 0989 6B040000 		.4byte	.LLST35
 1828 098d 37       		.uleb128 0x37
 1829 098e 70040000 		.4byte	0x470
 1830 0992 98010000 		.4byte	.LBB145
 1831 0996 B0010000 		.4byte	.Ldebug_ranges0+0x1b0
 1832 099a 04       		.byte	0x4
 1833 099b 3E01     		.2byte	0x13e
 1834 099d B9090000 		.4byte	0x9b9
 1835 09a1 2A       		.uleb128 0x2a
 1836 09a2 92040000 		.4byte	0x492
 1837 09a6 83040000 		.4byte	.LLST38
 1838 09aa 30       		.uleb128 0x30
 1839 09ab 89040000 		.4byte	0x489
 1840 09af 2A       		.uleb128 0x2a
 1841 09b0 80040000 		.4byte	0x480
 1842 09b4 9B040000 		.4byte	.LLST39
 1843 09b8 00       		.byte	0
 1844 09b9 36       		.uleb128 0x36
 1845 09ba 70040000 		.4byte	0x470
 1846 09be C8010000 		.4byte	.LBB153
 1847 09c2 D8010000 		.4byte	.Ldebug_ranges0+0x1d8
 1848 09c6 04       		.byte	0x4
 1849 09c7 3F01     		.2byte	0x13f
 1850 09c9 30       		.uleb128 0x30
 1851 09ca 92040000 		.4byte	0x492
 1852 09ce 2A       		.uleb128 0x2a
 1853 09cf 89040000 		.4byte	0x489
 1854 09d3 C5040000 		.4byte	.LLST40
 1855 09d7 2A       		.uleb128 0x2a
 1856 09d8 80040000 		.4byte	0x480
 1857 09dc DD040000 		.4byte	.LLST41
 1858 09e0 00       		.byte	0
 1859 09e1 00       		.byte	0
 1860 09e2 00       		.byte	0
 1861 09e3 29       		.uleb128 0x29
 1862 09e4 11060000 		.4byte	0x611
 1863 09e8 A2010000 		.4byte	.LBB168
 1864 09ec F0010000 		.4byte	.Ldebug_ranges0+0x1f0
 1865 09f0 01       		.byte	0x1
 1866 09f1 33       		.byte	0x33
 1867 09f2 000A0000 		.4byte	0xa00
 1868 09f6 2A       		.uleb128 0x2a
 1869 09f7 25060000 		.4byte	0x625
 1870 09fb 1D050000 		.4byte	.LLST42
 1871 09ff 00       		.byte	0
 1872 0a00 29       		.uleb128 0x29
 1873 0a01 03050000 		.4byte	0x503
ARM GAS  C:\msys64\tmp\cclifTvb.s 			page 34


 1874 0a05 B8010000 		.4byte	.LBB173
 1875 0a09 08020000 		.4byte	.Ldebug_ranges0+0x208
 1876 0a0d 01       		.byte	0x1
 1877 0a0e 38       		.byte	0x38
 1878 0a0f 190A0000 		.4byte	0xa19
 1879 0a13 30       		.uleb128 0x30
 1880 0a14 11050000 		.4byte	0x511
 1881 0a18 00       		.byte	0
 1882 0a19 31       		.uleb128 0x31
 1883 0a1a 20050000 		.4byte	0x520
 1884 0a1e 22020000 		.4byte	.LBB183
 1885 0a22 48000000 		.4byte	.LBE183-.LBB183
 1886 0a26 01       		.byte	0x1
 1887 0a27 37       		.byte	0x37
 1888 0a28 2A       		.uleb128 0x2a
 1889 0a29 40050000 		.4byte	0x540
 1890 0a2d 31050000 		.4byte	.LLST43
 1891 0a31 30       		.uleb128 0x30
 1892 0a32 37050000 		.4byte	0x537
 1893 0a36 2A       		.uleb128 0x2a
 1894 0a37 2E050000 		.4byte	0x52e
 1895 0a3b 45050000 		.4byte	.LLST44
 1896 0a3f 33       		.uleb128 0x33
 1897 0a40 22020000 		.4byte	.LBB184
 1898 0a44 48000000 		.4byte	.LBE184-.LBB184
 1899 0a48 2D       		.uleb128 0x2d
 1900 0a49 49050000 		.4byte	0x549
 1901 0a4d 5D050000 		.4byte	.LLST45
 1902 0a51 2D       		.uleb128 0x2d
 1903 0a52 54050000 		.4byte	0x554
 1904 0a56 71050000 		.4byte	.LLST46
 1905 0a5a 00       		.byte	0
 1906 0a5b 00       		.byte	0
 1907 0a5c 00       		.byte	0
 1908 0a5d 1E       		.uleb128 0x1e
 1909 0a5e C5030000 		.4byte	0x3c5
 1910 0a62 02       		.byte	0x2
 1911 0a63 6B0A0000 		.4byte	0xa6b
 1912 0a67 750A0000 		.4byte	0xa75
 1913 0a6b 1F       		.uleb128 0x1f
 1914 0a6c 13050000 		.4byte	.LASF69
 1915 0a70 1B050000 		.4byte	0x51b
 1916 0a74 00       		.byte	0
 1917 0a75 1E       		.uleb128 0x1e
 1918 0a76 72010000 		.4byte	0x172
 1919 0a7a 02       		.byte	0x2
 1920 0a7b 830A0000 		.4byte	0xa83
 1921 0a7f 8D0A0000 		.4byte	0xa8d
 1922 0a83 1F       		.uleb128 0x1f
 1923 0a84 13050000 		.4byte	.LASF69
 1924 0a88 60050000 		.4byte	0x560
 1925 0a8c 00       		.byte	0
 1926 0a8d 38       		.uleb128 0x38
 1927 0a8e 73060000 		.4byte	.LASF115
 1928 0a92 00000000 		.4byte	.LFB275
 1929 0a96 28000000 		.4byte	.LFE275-.LFB275
 1930 0a9a 01       		.uleb128 0x1
ARM GAS  C:\msys64\tmp\cclifTvb.s 			page 35


 1931 0a9b 9C       		.byte	0x9c
 1932 0a9c 2D0B0000 		.4byte	0xb2d
 1933 0aa0 31       		.uleb128 0x31
 1934 0aa1 31060000 		.4byte	0x631
 1935 0aa5 00000000 		.4byte	.LBB199
 1936 0aa9 28000000 		.4byte	.LBE199-.LBB199
 1937 0aad 01       		.byte	0x1
 1938 0aae 43       		.byte	0x43
 1939 0aaf 2A       		.uleb128 0x2a
 1940 0ab0 3B060000 		.4byte	0x63b
 1941 0ab4 85050000 		.4byte	.LLST47
 1942 0ab8 2A       		.uleb128 0x2a
 1943 0ab9 46060000 		.4byte	0x646
 1944 0abd 99050000 		.4byte	.LLST48
 1945 0ac1 39       		.uleb128 0x39
 1946 0ac2 5D0A0000 		.4byte	0xa5d
 1947 0ac6 00000000 		.4byte	.LBB200
 1948 0aca 12000000 		.4byte	.LBE200-.LBB200
 1949 0ace 01       		.byte	0x1
 1950 0acf 07       		.byte	0x7
 1951 0ad0 F80A0000 		.4byte	0xaf8
 1952 0ad4 2A       		.uleb128 0x2a
 1953 0ad5 6B0A0000 		.4byte	0xa6b
 1954 0ad9 AF050000 		.4byte	.LLST49
 1955 0add 3A       		.uleb128 0x3a
 1956 0ade 750A0000 		.4byte	0xa75
 1957 0ae2 00000000 		.4byte	.LBB202
 1958 0ae6 0E000000 		.4byte	.LBE202-.LBB202
 1959 0aea 03       		.byte	0x3
 1960 0aeb 5801     		.2byte	0x158
 1961 0aed 2A       		.uleb128 0x2a
 1962 0aee 830A0000 		.4byte	0xa83
 1963 0af2 C7050000 		.4byte	.LLST50
 1964 0af6 00       		.byte	0
 1965 0af7 00       		.byte	0
 1966 0af8 31       		.uleb128 0x31
 1967 0af9 5D0A0000 		.4byte	0xa5d
 1968 0afd 12000000 		.4byte	.LBB204
 1969 0b01 16000000 		.4byte	.LBE204-.LBB204
 1970 0b05 01       		.byte	0x1
 1971 0b06 07       		.byte	0x7
 1972 0b07 2A       		.uleb128 0x2a
 1973 0b08 6B0A0000 		.4byte	0xa6b
 1974 0b0c DF050000 		.4byte	.LLST51
 1975 0b10 3A       		.uleb128 0x3a
 1976 0b11 750A0000 		.4byte	0xa75
 1977 0b15 12000000 		.4byte	.LBB206
 1978 0b19 0A000000 		.4byte	.LBE206-.LBB206
 1979 0b1d 03       		.byte	0x3
 1980 0b1e 5801     		.2byte	0x158
 1981 0b20 2A       		.uleb128 0x2a
 1982 0b21 830A0000 		.4byte	0xa83
 1983 0b25 F7050000 		.4byte	.LLST52
 1984 0b29 00       		.byte	0
 1985 0b2a 00       		.byte	0
 1986 0b2b 00       		.byte	0
 1987 0b2c 00       		.byte	0
ARM GAS  C:\msys64\tmp\cclifTvb.s 			page 36


 1988 0b2d 3B       		.uleb128 0x3b
 1989 0b2e A9030000 		.4byte	.LASF90
 1990 0b32 02       		.byte	0x2
 1991 0b33 46       		.byte	0x46
 1992 0b34 A9050000 		.4byte	0x5a9
 1993 0b38 3B       		.uleb128 0x3b
 1994 0b39 B6050000 		.4byte	.LASF91
 1995 0b3d 02       		.byte	0x2
 1996 0b3e 4B       		.byte	0x4b
 1997 0b3f A9050000 		.4byte	0x5a9
 1998 0b43 3C       		.uleb128 0x3c
 1999 0b44 0C010000 		.4byte	0x10c
 2000 0b48 530B0000 		.4byte	0xb53
 2001 0b4c 3D       		.uleb128 0x3d
 2002 0b4d C0000000 		.4byte	0xc0
 2003 0b51 80       		.byte	0x80
 2004 0b52 00       		.byte	0
 2005 0b53 3B       		.uleb128 0x3b
 2006 0b54 AD060000 		.4byte	.LASF92
 2007 0b58 02       		.byte	0x2
 2008 0b59 82       		.byte	0x82
 2009 0b5a 5E0B0000 		.4byte	0xb5e
 2010 0b5e 09       		.uleb128 0x9
 2011 0b5f 430B0000 		.4byte	0xb43
 2012 0b63 3C       		.uleb128 0x3c
 2013 0b64 0C010000 		.4byte	0x10c
 2014 0b68 740B0000 		.4byte	0xb74
 2015 0b6c 3E       		.uleb128 0x3e
 2016 0b6d C0000000 		.4byte	0xc0
 2017 0b71 0001     		.2byte	0x100
 2018 0b73 00       		.byte	0
 2019 0b74 3B       		.uleb128 0x3b
 2020 0b75 02040000 		.4byte	.LASF93
 2021 0b79 02       		.byte	0x2
 2022 0b7a C9       		.byte	0xc9
 2023 0b7b 7F0B0000 		.4byte	0xb7f
 2024 0b7f 09       		.uleb128 0x9
 2025 0b80 630B0000 		.4byte	0xb63
 2026 0b84 3B       		.uleb128 0x3b
 2027 0b85 3F020000 		.4byte	.LASF94
 2028 0b89 02       		.byte	0x2
 2029 0b8a E0       		.byte	0xe0
 2030 0b8b 8F0B0000 		.4byte	0xb8f
 2031 0b8f 09       		.uleb128 0x9
 2032 0b90 630B0000 		.4byte	0xb63
 2033 0b94 3B       		.uleb128 0x3b
 2034 0b95 18050000 		.4byte	.LASF95
 2035 0b99 02       		.byte	0x2
 2036 0b9a F8       		.byte	0xf8
 2037 0b9b 9F0B0000 		.4byte	0xb9f
 2038 0b9f 09       		.uleb128 0x9
 2039 0ba0 630B0000 		.4byte	0xb63
 2040 0ba4 3F       		.uleb128 0x3f
 2041 0ba5 9E030000 		.4byte	.LASF96
 2042 0ba9 02       		.byte	0x2
 2043 0baa 0F01     		.2byte	0x10f
 2044 0bac B00B0000 		.4byte	0xbb0
ARM GAS  C:\msys64\tmp\cclifTvb.s 			page 37


 2045 0bb0 09       		.uleb128 0x9
 2046 0bb1 630B0000 		.4byte	0xb63
 2047 0bb5 3F       		.uleb128 0x3f
 2048 0bb6 9E050000 		.4byte	.LASF97
 2049 0bba 02       		.byte	0x2
 2050 0bbb 3E01     		.2byte	0x13e
 2051 0bbd C10B0000 		.4byte	0xbc1
 2052 0bc1 09       		.uleb128 0x9
 2053 0bc2 430B0000 		.4byte	0xb43
 2054 0bc6 3F       		.uleb128 0x3f
 2055 0bc7 EB030000 		.4byte	.LASF98
 2056 0bcb 02       		.byte	0x2
 2057 0bcc 5301     		.2byte	0x153
 2058 0bce D20B0000 		.4byte	0xbd2
 2059 0bd2 09       		.uleb128 0x9
 2060 0bd3 430B0000 		.4byte	0xb43
 2061 0bd7 3F       		.uleb128 0x3f
 2062 0bd8 86010000 		.4byte	.LASF99
 2063 0bdc 02       		.byte	0x2
 2064 0bdd 7001     		.2byte	0x170
 2065 0bdf E30B0000 		.4byte	0xbe3
 2066 0be3 09       		.uleb128 0x9
 2067 0be4 430B0000 		.4byte	0xb43
 2068 0be8 40       		.uleb128 0x40
 2069 0be9 37070000 		.4byte	.LASF100
 2070 0bed 01       		.byte	0x1
 2071 0bee 05       		.byte	0x5
 2072 0bef 25000000 		.4byte	0x25
 2073 0bf3 05       		.uleb128 0x5
 2074 0bf4 03       		.byte	0x3
 2075 0bf5 00000000 		.4byte	curSampleL
 2076 0bf9 40       		.uleb128 0x40
 2077 0bfa 57070000 		.4byte	.LASF101
 2078 0bfe 01       		.byte	0x1
 2079 0bff 05       		.byte	0x5
 2080 0c00 25000000 		.4byte	0x25
 2081 0c04 05       		.uleb128 0x5
 2082 0c05 03       		.byte	0x3
 2083 0c06 00000000 		.4byte	curSampleR
 2084 0c0a 41       		.uleb128 0x41
 2085 0c0b 1A070000 		.4byte	.LASF102
 2086 0c0f 01       		.byte	0x1
 2087 0c10 07       		.byte	0x7
 2088 0c11 22010000 		.4byte	0x122
 2089 0c15 05       		.uleb128 0x5
 2090 0c16 03       		.byte	0x3
 2091 0c17 00000000 		.4byte	_ZL8filter_l
 2092 0c1b 41       		.uleb128 0x41
 2093 0c1c 2E070000 		.4byte	.LASF103
 2094 0c20 01       		.byte	0x1
 2095 0c21 07       		.byte	0x7
 2096 0c22 22010000 		.4byte	0x122
 2097 0c26 05       		.uleb128 0x5
 2098 0c27 03       		.byte	0x3
 2099 0c28 1C000000 		.4byte	_ZL8filter_r
 2100 0c2c 40       		.uleb128 0x40
 2101 0c2d 4D040000 		.4byte	.LASF104
ARM GAS  C:\msys64\tmp\cclifTvb.s 			page 38


 2102 0c31 01       		.byte	0x1
 2103 0c32 08       		.byte	0x8
 2104 0c33 25000000 		.4byte	0x25
 2105 0c37 05       		.uleb128 0x5
 2106 0c38 03       		.byte	0x3
 2107 0c39 00000000 		.4byte	resonance
 2108 0c3d 40       		.uleb128 0x40
 2109 0c3e 88030000 		.4byte	.LASF105
 2110 0c42 01       		.byte	0x1
 2111 0c43 09       		.byte	0x9
 2112 0c44 25000000 		.4byte	0x25
 2113 0c48 05       		.uleb128 0x5
 2114 0c49 03       		.byte	0x3
 2115 0c4a 00000000 		.4byte	cutoff
 2116 0c4e 00       		.byte	0
 2117              		.section	.debug_abbrev,"",%progbits
 2118              	.Ldebug_abbrev0:
 2119 0000 01       		.uleb128 0x1
 2120 0001 11       		.uleb128 0x11
 2121 0002 01       		.byte	0x1
 2122 0003 25       		.uleb128 0x25
 2123 0004 0E       		.uleb128 0xe
 2124 0005 13       		.uleb128 0x13
 2125 0006 0B       		.uleb128 0xb
 2126 0007 03       		.uleb128 0x3
 2127 0008 0E       		.uleb128 0xe
 2128 0009 1B       		.uleb128 0x1b
 2129 000a 0E       		.uleb128 0xe
 2130 000b 55       		.uleb128 0x55
 2131 000c 17       		.uleb128 0x17
 2132 000d 11       		.uleb128 0x11
 2133 000e 01       		.uleb128 0x1
 2134 000f 10       		.uleb128 0x10
 2135 0010 17       		.uleb128 0x17
 2136 0011 00       		.byte	0
 2137 0012 00       		.byte	0
 2138 0013 02       		.uleb128 0x2
 2139 0014 24       		.uleb128 0x24
 2140 0015 00       		.byte	0
 2141 0016 0B       		.uleb128 0xb
 2142 0017 0B       		.uleb128 0xb
 2143 0018 3E       		.uleb128 0x3e
 2144 0019 0B       		.uleb128 0xb
 2145 001a 03       		.uleb128 0x3
 2146 001b 0E       		.uleb128 0xe
 2147 001c 00       		.byte	0
 2148 001d 00       		.byte	0
 2149 001e 03       		.uleb128 0x3
 2150 001f 24       		.uleb128 0x24
 2151 0020 00       		.byte	0
 2152 0021 0B       		.uleb128 0xb
 2153 0022 0B       		.uleb128 0xb
 2154 0023 3E       		.uleb128 0x3e
 2155 0024 0B       		.uleb128 0xb
 2156 0025 03       		.uleb128 0x3
 2157 0026 08       		.uleb128 0x8
 2158 0027 00       		.byte	0
ARM GAS  C:\msys64\tmp\cclifTvb.s 			page 39


 2159 0028 00       		.byte	0
 2160 0029 04       		.uleb128 0x4
 2161 002a 16       		.uleb128 0x16
 2162 002b 00       		.byte	0
 2163 002c 03       		.uleb128 0x3
 2164 002d 0E       		.uleb128 0xe
 2165 002e 3A       		.uleb128 0x3a
 2166 002f 0B       		.uleb128 0xb
 2167 0030 3B       		.uleb128 0x3b
 2168 0031 0B       		.uleb128 0xb
 2169 0032 49       		.uleb128 0x49
 2170 0033 13       		.uleb128 0x13
 2171 0034 00       		.byte	0
 2172 0035 00       		.byte	0
 2173 0036 05       		.uleb128 0x5
 2174 0037 3B       		.uleb128 0x3b
 2175 0038 00       		.byte	0
 2176 0039 03       		.uleb128 0x3
 2177 003a 0E       		.uleb128 0xe
 2178 003b 00       		.byte	0
 2179 003c 00       		.byte	0
 2180 003d 06       		.uleb128 0x6
 2181 003e 04       		.uleb128 0x4
 2182 003f 01       		.byte	0x1
 2183 0040 0B       		.uleb128 0xb
 2184 0041 0B       		.uleb128 0xb
 2185 0042 49       		.uleb128 0x49
 2186 0043 13       		.uleb128 0x13
 2187 0044 3A       		.uleb128 0x3a
 2188 0045 0B       		.uleb128 0xb
 2189 0046 3B       		.uleb128 0x3b
 2190 0047 0B       		.uleb128 0xb
 2191 0048 01       		.uleb128 0x1
 2192 0049 13       		.uleb128 0x13
 2193 004a 00       		.byte	0
 2194 004b 00       		.byte	0
 2195 004c 07       		.uleb128 0x7
 2196 004d 28       		.uleb128 0x28
 2197 004e 00       		.byte	0
 2198 004f 03       		.uleb128 0x3
 2199 0050 0E       		.uleb128 0xe
 2200 0051 1C       		.uleb128 0x1c
 2201 0052 0B       		.uleb128 0xb
 2202 0053 00       		.byte	0
 2203 0054 00       		.byte	0
 2204 0055 08       		.uleb128 0x8
 2205 0056 0F       		.uleb128 0xf
 2206 0057 00       		.byte	0
 2207 0058 0B       		.uleb128 0xb
 2208 0059 0B       		.uleb128 0xb
 2209 005a 49       		.uleb128 0x49
 2210 005b 13       		.uleb128 0x13
 2211 005c 00       		.byte	0
 2212 005d 00       		.byte	0
 2213 005e 09       		.uleb128 0x9
 2214 005f 26       		.uleb128 0x26
 2215 0060 00       		.byte	0
ARM GAS  C:\msys64\tmp\cclifTvb.s 			page 40


 2216 0061 49       		.uleb128 0x49
 2217 0062 13       		.uleb128 0x13
 2218 0063 00       		.byte	0
 2219 0064 00       		.byte	0
 2220 0065 0A       		.uleb128 0xa
 2221 0066 39       		.uleb128 0x39
 2222 0067 01       		.byte	0x1
 2223 0068 03       		.uleb128 0x3
 2224 0069 08       		.uleb128 0x8
 2225 006a 3A       		.uleb128 0x3a
 2226 006b 0B       		.uleb128 0xb
 2227 006c 3B       		.uleb128 0x3b
 2228 006d 0B       		.uleb128 0xb
 2229 006e 01       		.uleb128 0x1
 2230 006f 13       		.uleb128 0x13
 2231 0070 00       		.byte	0
 2232 0071 00       		.byte	0
 2233 0072 0B       		.uleb128 0xb
 2234 0073 13       		.uleb128 0x13
 2235 0074 01       		.byte	0x1
 2236 0075 03       		.uleb128 0x3
 2237 0076 0E       		.uleb128 0xe
 2238 0077 0B       		.uleb128 0xb
 2239 0078 0B       		.uleb128 0xb
 2240 0079 3A       		.uleb128 0x3a
 2241 007a 0B       		.uleb128 0xb
 2242 007b 3B       		.uleb128 0x3b
 2243 007c 0B       		.uleb128 0xb
 2244 007d 00       		.byte	0
 2245 007e 00       		.byte	0
 2246 007f 0C       		.uleb128 0xc
 2247 0080 13       		.uleb128 0x13
 2248 0081 01       		.byte	0x1
 2249 0082 03       		.uleb128 0x3
 2250 0083 0E       		.uleb128 0xe
 2251 0084 0B       		.uleb128 0xb
 2252 0085 0B       		.uleb128 0xb
 2253 0086 3A       		.uleb128 0x3a
 2254 0087 0B       		.uleb128 0xb
 2255 0088 3B       		.uleb128 0x3b
 2256 0089 0B       		.uleb128 0xb
 2257 008a 01       		.uleb128 0x1
 2258 008b 13       		.uleb128 0x13
 2259 008c 00       		.byte	0
 2260 008d 00       		.byte	0
 2261 008e 0D       		.uleb128 0xd
 2262 008f 0D       		.uleb128 0xd
 2263 0090 00       		.byte	0
 2264 0091 03       		.uleb128 0x3
 2265 0092 08       		.uleb128 0x8
 2266 0093 3A       		.uleb128 0x3a
 2267 0094 0B       		.uleb128 0xb
 2268 0095 3B       		.uleb128 0x3b
 2269 0096 0B       		.uleb128 0xb
 2270 0097 49       		.uleb128 0x49
 2271 0098 13       		.uleb128 0x13
 2272 0099 38       		.uleb128 0x38
ARM GAS  C:\msys64\tmp\cclifTvb.s 			page 41


 2273 009a 0B       		.uleb128 0xb
 2274 009b 00       		.byte	0
 2275 009c 00       		.byte	0
 2276 009d 0E       		.uleb128 0xe
 2277 009e 2E       		.uleb128 0x2e
 2278 009f 01       		.byte	0x1
 2279 00a0 3F       		.uleb128 0x3f
 2280 00a1 19       		.uleb128 0x19
 2281 00a2 03       		.uleb128 0x3
 2282 00a3 0E       		.uleb128 0xe
 2283 00a4 3A       		.uleb128 0x3a
 2284 00a5 0B       		.uleb128 0xb
 2285 00a6 3B       		.uleb128 0x3b
 2286 00a7 0B       		.uleb128 0xb
 2287 00a8 6E       		.uleb128 0x6e
 2288 00a9 0E       		.uleb128 0xe
 2289 00aa 49       		.uleb128 0x49
 2290 00ab 13       		.uleb128 0x13
 2291 00ac 3C       		.uleb128 0x3c
 2292 00ad 19       		.uleb128 0x19
 2293 00ae 64       		.uleb128 0x64
 2294 00af 13       		.uleb128 0x13
 2295 00b0 01       		.uleb128 0x1
 2296 00b1 13       		.uleb128 0x13
 2297 00b2 00       		.byte	0
 2298 00b3 00       		.byte	0
 2299 00b4 0F       		.uleb128 0xf
 2300 00b5 05       		.uleb128 0x5
 2301 00b6 00       		.byte	0
 2302 00b7 49       		.uleb128 0x49
 2303 00b8 13       		.uleb128 0x13
 2304 00b9 34       		.uleb128 0x34
 2305 00ba 19       		.uleb128 0x19
 2306 00bb 00       		.byte	0
 2307 00bc 00       		.byte	0
 2308 00bd 10       		.uleb128 0x10
 2309 00be 2E       		.uleb128 0x2e
 2310 00bf 01       		.byte	0x1
 2311 00c0 3F       		.uleb128 0x3f
 2312 00c1 19       		.uleb128 0x19
 2313 00c2 03       		.uleb128 0x3
 2314 00c3 08       		.uleb128 0x8
 2315 00c4 3A       		.uleb128 0x3a
 2316 00c5 0B       		.uleb128 0xb
 2317 00c6 3B       		.uleb128 0x3b
 2318 00c7 0B       		.uleb128 0xb
 2319 00c8 6E       		.uleb128 0x6e
 2320 00c9 0E       		.uleb128 0xe
 2321 00ca 49       		.uleb128 0x49
 2322 00cb 13       		.uleb128 0x13
 2323 00cc 3C       		.uleb128 0x3c
 2324 00cd 19       		.uleb128 0x19
 2325 00ce 01       		.uleb128 0x1
 2326 00cf 13       		.uleb128 0x13
 2327 00d0 00       		.byte	0
 2328 00d1 00       		.byte	0
 2329 00d2 11       		.uleb128 0x11
ARM GAS  C:\msys64\tmp\cclifTvb.s 			page 42


 2330 00d3 05       		.uleb128 0x5
 2331 00d4 00       		.byte	0
 2332 00d5 49       		.uleb128 0x49
 2333 00d6 13       		.uleb128 0x13
 2334 00d7 00       		.byte	0
 2335 00d8 00       		.byte	0
 2336 00d9 12       		.uleb128 0x12
 2337 00da 2E       		.uleb128 0x2e
 2338 00db 01       		.byte	0x1
 2339 00dc 3F       		.uleb128 0x3f
 2340 00dd 19       		.uleb128 0x19
 2341 00de 03       		.uleb128 0x3
 2342 00df 0E       		.uleb128 0xe
 2343 00e0 3A       		.uleb128 0x3a
 2344 00e1 0B       		.uleb128 0xb
 2345 00e2 3B       		.uleb128 0x3b
 2346 00e3 0B       		.uleb128 0xb
 2347 00e4 6E       		.uleb128 0x6e
 2348 00e5 0E       		.uleb128 0xe
 2349 00e6 3C       		.uleb128 0x3c
 2350 00e7 19       		.uleb128 0x19
 2351 00e8 64       		.uleb128 0x64
 2352 00e9 13       		.uleb128 0x13
 2353 00ea 01       		.uleb128 0x1
 2354 00eb 13       		.uleb128 0x13
 2355 00ec 00       		.byte	0
 2356 00ed 00       		.byte	0
 2357 00ee 13       		.uleb128 0x13
 2358 00ef 2E       		.uleb128 0x2e
 2359 00f0 01       		.byte	0x1
 2360 00f1 3F       		.uleb128 0x3f
 2361 00f2 19       		.uleb128 0x19
 2362 00f3 03       		.uleb128 0x3
 2363 00f4 0E       		.uleb128 0xe
 2364 00f5 3A       		.uleb128 0x3a
 2365 00f6 0B       		.uleb128 0xb
 2366 00f7 3B       		.uleb128 0x3b
 2367 00f8 05       		.uleb128 0x5
 2368 00f9 6E       		.uleb128 0x6e
 2369 00fa 0E       		.uleb128 0xe
 2370 00fb 3C       		.uleb128 0x3c
 2371 00fc 19       		.uleb128 0x19
 2372 00fd 64       		.uleb128 0x64
 2373 00fe 13       		.uleb128 0x13
 2374 00ff 01       		.uleb128 0x1
 2375 0100 13       		.uleb128 0x13
 2376 0101 00       		.byte	0
 2377 0102 00       		.byte	0
 2378 0103 14       		.uleb128 0x14
 2379 0104 2E       		.uleb128 0x2e
 2380 0105 01       		.byte	0x1
 2381 0106 3F       		.uleb128 0x3f
 2382 0107 19       		.uleb128 0x19
 2383 0108 03       		.uleb128 0x3
 2384 0109 0E       		.uleb128 0xe
 2385 010a 3A       		.uleb128 0x3a
 2386 010b 0B       		.uleb128 0xb
ARM GAS  C:\msys64\tmp\cclifTvb.s 			page 43


 2387 010c 3B       		.uleb128 0x3b
 2388 010d 05       		.uleb128 0x5
 2389 010e 6E       		.uleb128 0x6e
 2390 010f 0E       		.uleb128 0xe
 2391 0110 3C       		.uleb128 0x3c
 2392 0111 19       		.uleb128 0x19
 2393 0112 64       		.uleb128 0x64
 2394 0113 13       		.uleb128 0x13
 2395 0114 00       		.byte	0
 2396 0115 00       		.byte	0
 2397 0116 15       		.uleb128 0x15
 2398 0117 16       		.uleb128 0x16
 2399 0118 00       		.byte	0
 2400 0119 03       		.uleb128 0x3
 2401 011a 0E       		.uleb128 0xe
 2402 011b 3A       		.uleb128 0x3a
 2403 011c 0B       		.uleb128 0xb
 2404 011d 3B       		.uleb128 0x3b
 2405 011e 05       		.uleb128 0x5
 2406 011f 49       		.uleb128 0x49
 2407 0120 13       		.uleb128 0x13
 2408 0121 00       		.byte	0
 2409 0122 00       		.byte	0
 2410 0123 16       		.uleb128 0x16
 2411 0124 0D       		.uleb128 0xd
 2412 0125 00       		.byte	0
 2413 0126 03       		.uleb128 0x3
 2414 0127 0E       		.uleb128 0xe
 2415 0128 3A       		.uleb128 0x3a
 2416 0129 0B       		.uleb128 0xb
 2417 012a 3B       		.uleb128 0x3b
 2418 012b 05       		.uleb128 0x5
 2419 012c 49       		.uleb128 0x49
 2420 012d 13       		.uleb128 0x13
 2421 012e 38       		.uleb128 0x38
 2422 012f 0B       		.uleb128 0xb
 2423 0130 00       		.byte	0
 2424 0131 00       		.byte	0
 2425 0132 17       		.uleb128 0x17
 2426 0133 0D       		.uleb128 0xd
 2427 0134 00       		.byte	0
 2428 0135 03       		.uleb128 0x3
 2429 0136 08       		.uleb128 0x8
 2430 0137 3A       		.uleb128 0x3a
 2431 0138 0B       		.uleb128 0xb
 2432 0139 3B       		.uleb128 0x3b
 2433 013a 05       		.uleb128 0x5
 2434 013b 49       		.uleb128 0x49
 2435 013c 13       		.uleb128 0x13
 2436 013d 38       		.uleb128 0x38
 2437 013e 0B       		.uleb128 0xb
 2438 013f 00       		.byte	0
 2439 0140 00       		.byte	0
 2440 0141 18       		.uleb128 0x18
 2441 0142 2E       		.uleb128 0x2e
 2442 0143 01       		.byte	0x1
 2443 0144 3F       		.uleb128 0x3f
ARM GAS  C:\msys64\tmp\cclifTvb.s 			page 44


 2444 0145 19       		.uleb128 0x19
 2445 0146 03       		.uleb128 0x3
 2446 0147 0E       		.uleb128 0xe
 2447 0148 3A       		.uleb128 0x3a
 2448 0149 0B       		.uleb128 0xb
 2449 014a 3B       		.uleb128 0x3b
 2450 014b 05       		.uleb128 0x5
 2451 014c 6E       		.uleb128 0x6e
 2452 014d 0E       		.uleb128 0xe
 2453 014e 49       		.uleb128 0x49
 2454 014f 13       		.uleb128 0x13
 2455 0150 3C       		.uleb128 0x3c
 2456 0151 19       		.uleb128 0x19
 2457 0152 64       		.uleb128 0x64
 2458 0153 13       		.uleb128 0x13
 2459 0154 01       		.uleb128 0x1
 2460 0155 13       		.uleb128 0x13
 2461 0156 00       		.byte	0
 2462 0157 00       		.byte	0
 2463 0158 19       		.uleb128 0x19
 2464 0159 2E       		.uleb128 0x2e
 2465 015a 01       		.byte	0x1
 2466 015b 3F       		.uleb128 0x3f
 2467 015c 19       		.uleb128 0x19
 2468 015d 03       		.uleb128 0x3
 2469 015e 0E       		.uleb128 0xe
 2470 015f 3A       		.uleb128 0x3a
 2471 0160 0B       		.uleb128 0xb
 2472 0161 3B       		.uleb128 0x3b
 2473 0162 05       		.uleb128 0x5
 2474 0163 6E       		.uleb128 0x6e
 2475 0164 0E       		.uleb128 0xe
 2476 0165 49       		.uleb128 0x49
 2477 0166 13       		.uleb128 0x13
 2478 0167 3C       		.uleb128 0x3c
 2479 0168 19       		.uleb128 0x19
 2480 0169 64       		.uleb128 0x64
 2481 016a 13       		.uleb128 0x13
 2482 016b 00       		.byte	0
 2483 016c 00       		.byte	0
 2484 016d 1A       		.uleb128 0x1a
 2485 016e 2E       		.uleb128 0x2e
 2486 016f 01       		.byte	0x1
 2487 0170 03       		.uleb128 0x3
 2488 0171 0E       		.uleb128 0xe
 2489 0172 3A       		.uleb128 0x3a
 2490 0173 0B       		.uleb128 0xb
 2491 0174 3B       		.uleb128 0x3b
 2492 0175 0B       		.uleb128 0xb
 2493 0176 49       		.uleb128 0x49
 2494 0177 13       		.uleb128 0x13
 2495 0178 20       		.uleb128 0x20
 2496 0179 0B       		.uleb128 0xb
 2497 017a 01       		.uleb128 0x1
 2498 017b 13       		.uleb128 0x13
 2499 017c 00       		.byte	0
 2500 017d 00       		.byte	0
ARM GAS  C:\msys64\tmp\cclifTvb.s 			page 45


 2501 017e 1B       		.uleb128 0x1b
 2502 017f 05       		.uleb128 0x5
 2503 0180 00       		.byte	0
 2504 0181 03       		.uleb128 0x3
 2505 0182 08       		.uleb128 0x8
 2506 0183 3A       		.uleb128 0x3a
 2507 0184 0B       		.uleb128 0xb
 2508 0185 3B       		.uleb128 0x3b
 2509 0186 0B       		.uleb128 0xb
 2510 0187 49       		.uleb128 0x49
 2511 0188 13       		.uleb128 0x13
 2512 0189 00       		.byte	0
 2513 018a 00       		.byte	0
 2514 018b 1C       		.uleb128 0x1c
 2515 018c 2E       		.uleb128 0x2e
 2516 018d 01       		.byte	0x1
 2517 018e 03       		.uleb128 0x3
 2518 018f 0E       		.uleb128 0xe
 2519 0190 3A       		.uleb128 0x3a
 2520 0191 0B       		.uleb128 0xb
 2521 0192 3B       		.uleb128 0x3b
 2522 0193 05       		.uleb128 0x5
 2523 0194 49       		.uleb128 0x49
 2524 0195 13       		.uleb128 0x13
 2525 0196 20       		.uleb128 0x20
 2526 0197 0B       		.uleb128 0xb
 2527 0198 01       		.uleb128 0x1
 2528 0199 13       		.uleb128 0x13
 2529 019a 00       		.byte	0
 2530 019b 00       		.byte	0
 2531 019c 1D       		.uleb128 0x1d
 2532 019d 05       		.uleb128 0x5
 2533 019e 00       		.byte	0
 2534 019f 03       		.uleb128 0x3
 2535 01a0 08       		.uleb128 0x8
 2536 01a1 3A       		.uleb128 0x3a
 2537 01a2 0B       		.uleb128 0xb
 2538 01a3 3B       		.uleb128 0x3b
 2539 01a4 05       		.uleb128 0x5
 2540 01a5 49       		.uleb128 0x49
 2541 01a6 13       		.uleb128 0x13
 2542 01a7 00       		.byte	0
 2543 01a8 00       		.byte	0
 2544 01a9 1E       		.uleb128 0x1e
 2545 01aa 2E       		.uleb128 0x2e
 2546 01ab 01       		.byte	0x1
 2547 01ac 47       		.uleb128 0x47
 2548 01ad 13       		.uleb128 0x13
 2549 01ae 20       		.uleb128 0x20
 2550 01af 0B       		.uleb128 0xb
 2551 01b0 64       		.uleb128 0x64
 2552 01b1 13       		.uleb128 0x13
 2553 01b2 01       		.uleb128 0x1
 2554 01b3 13       		.uleb128 0x13
 2555 01b4 00       		.byte	0
 2556 01b5 00       		.byte	0
 2557 01b6 1F       		.uleb128 0x1f
ARM GAS  C:\msys64\tmp\cclifTvb.s 			page 46


 2558 01b7 05       		.uleb128 0x5
 2559 01b8 00       		.byte	0
 2560 01b9 03       		.uleb128 0x3
 2561 01ba 0E       		.uleb128 0xe
 2562 01bb 49       		.uleb128 0x49
 2563 01bc 13       		.uleb128 0x13
 2564 01bd 34       		.uleb128 0x34
 2565 01be 19       		.uleb128 0x19
 2566 01bf 00       		.byte	0
 2567 01c0 00       		.byte	0
 2568 01c1 20       		.uleb128 0x20
 2569 01c2 34       		.uleb128 0x34
 2570 01c3 00       		.byte	0
 2571 01c4 03       		.uleb128 0x3
 2572 01c5 08       		.uleb128 0x8
 2573 01c6 3A       		.uleb128 0x3a
 2574 01c7 0B       		.uleb128 0xb
 2575 01c8 3B       		.uleb128 0x3b
 2576 01c9 0B       		.uleb128 0xb
 2577 01ca 49       		.uleb128 0x49
 2578 01cb 13       		.uleb128 0x13
 2579 01cc 00       		.byte	0
 2580 01cd 00       		.byte	0
 2581 01ce 21       		.uleb128 0x21
 2582 01cf 34       		.uleb128 0x34
 2583 01d0 00       		.byte	0
 2584 01d1 03       		.uleb128 0x3
 2585 01d2 0E       		.uleb128 0xe
 2586 01d3 3A       		.uleb128 0x3a
 2587 01d4 0B       		.uleb128 0xb
 2588 01d5 3B       		.uleb128 0x3b
 2589 01d6 0B       		.uleb128 0xb
 2590 01d7 49       		.uleb128 0x49
 2591 01d8 13       		.uleb128 0x13
 2592 01d9 00       		.byte	0
 2593 01da 00       		.byte	0
 2594 01db 22       		.uleb128 0x22
 2595 01dc 34       		.uleb128 0x34
 2596 01dd 00       		.byte	0
 2597 01de 03       		.uleb128 0x3
 2598 01df 08       		.uleb128 0x8
 2599 01e0 3A       		.uleb128 0x3a
 2600 01e1 0B       		.uleb128 0xb
 2601 01e2 3B       		.uleb128 0x3b
 2602 01e3 05       		.uleb128 0x5
 2603 01e4 49       		.uleb128 0x49
 2604 01e5 13       		.uleb128 0x13
 2605 01e6 00       		.byte	0
 2606 01e7 00       		.byte	0
 2607 01e8 23       		.uleb128 0x23
 2608 01e9 2E       		.uleb128 0x2e
 2609 01ea 01       		.byte	0x1
 2610 01eb 3F       		.uleb128 0x3f
 2611 01ec 19       		.uleb128 0x19
 2612 01ed 03       		.uleb128 0x3
 2613 01ee 0E       		.uleb128 0xe
 2614 01ef 3A       		.uleb128 0x3a
ARM GAS  C:\msys64\tmp\cclifTvb.s 			page 47


 2615 01f0 0B       		.uleb128 0xb
 2616 01f1 3B       		.uleb128 0x3b
 2617 01f2 0B       		.uleb128 0xb
 2618 01f3 6E       		.uleb128 0x6e
 2619 01f4 0E       		.uleb128 0xe
 2620 01f5 49       		.uleb128 0x49
 2621 01f6 13       		.uleb128 0x13
 2622 01f7 20       		.uleb128 0x20
 2623 01f8 0B       		.uleb128 0xb
 2624 01f9 01       		.uleb128 0x1
 2625 01fa 13       		.uleb128 0x13
 2626 01fb 00       		.byte	0
 2627 01fc 00       		.byte	0
 2628 01fd 24       		.uleb128 0x24
 2629 01fe 05       		.uleb128 0x5
 2630 01ff 00       		.byte	0
 2631 0200 03       		.uleb128 0x3
 2632 0201 0E       		.uleb128 0xe
 2633 0202 3A       		.uleb128 0x3a
 2634 0203 0B       		.uleb128 0xb
 2635 0204 3B       		.uleb128 0x3b
 2636 0205 0B       		.uleb128 0xb
 2637 0206 49       		.uleb128 0x49
 2638 0207 13       		.uleb128 0x13
 2639 0208 00       		.byte	0
 2640 0209 00       		.byte	0
 2641 020a 25       		.uleb128 0x25
 2642 020b 2E       		.uleb128 0x2e
 2643 020c 01       		.byte	0x1
 2644 020d 03       		.uleb128 0x3
 2645 020e 0E       		.uleb128 0xe
 2646 020f 34       		.uleb128 0x34
 2647 0210 19       		.uleb128 0x19
 2648 0211 20       		.uleb128 0x20
 2649 0212 0B       		.uleb128 0xb
 2650 0213 01       		.uleb128 0x1
 2651 0214 13       		.uleb128 0x13
 2652 0215 00       		.byte	0
 2653 0216 00       		.byte	0
 2654 0217 26       		.uleb128 0x26
 2655 0218 2E       		.uleb128 0x2e
 2656 0219 01       		.byte	0x1
 2657 021a 3F       		.uleb128 0x3f
 2658 021b 19       		.uleb128 0x19
 2659 021c 03       		.uleb128 0x3
 2660 021d 0E       		.uleb128 0xe
 2661 021e 3A       		.uleb128 0x3a
 2662 021f 0B       		.uleb128 0xb
 2663 0220 3B       		.uleb128 0x3b
 2664 0221 0B       		.uleb128 0xb
 2665 0222 11       		.uleb128 0x11
 2666 0223 01       		.uleb128 0x1
 2667 0224 12       		.uleb128 0x12
 2668 0225 06       		.uleb128 0x6
 2669 0226 40       		.uleb128 0x40
 2670 0227 18       		.uleb128 0x18
 2671 0228 9742     		.uleb128 0x2117
ARM GAS  C:\msys64\tmp\cclifTvb.s 			page 48


 2672 022a 19       		.uleb128 0x19
 2673 022b 01       		.uleb128 0x1
 2674 022c 13       		.uleb128 0x13
 2675 022d 00       		.byte	0
 2676 022e 00       		.byte	0
 2677 022f 27       		.uleb128 0x27
 2678 0230 05       		.uleb128 0x5
 2679 0231 00       		.byte	0
 2680 0232 03       		.uleb128 0x3
 2681 0233 0E       		.uleb128 0xe
 2682 0234 3A       		.uleb128 0x3a
 2683 0235 0B       		.uleb128 0xb
 2684 0236 3B       		.uleb128 0x3b
 2685 0237 0B       		.uleb128 0xb
 2686 0238 49       		.uleb128 0x49
 2687 0239 13       		.uleb128 0x13
 2688 023a 02       		.uleb128 0x2
 2689 023b 17       		.uleb128 0x17
 2690 023c 00       		.byte	0
 2691 023d 00       		.byte	0
 2692 023e 28       		.uleb128 0x28
 2693 023f 05       		.uleb128 0x5
 2694 0240 00       		.byte	0
 2695 0241 03       		.uleb128 0x3
 2696 0242 08       		.uleb128 0x8
 2697 0243 3A       		.uleb128 0x3a
 2698 0244 0B       		.uleb128 0xb
 2699 0245 3B       		.uleb128 0x3b
 2700 0246 0B       		.uleb128 0xb
 2701 0247 49       		.uleb128 0x49
 2702 0248 13       		.uleb128 0x13
 2703 0249 02       		.uleb128 0x2
 2704 024a 17       		.uleb128 0x17
 2705 024b 00       		.byte	0
 2706 024c 00       		.byte	0
 2707 024d 29       		.uleb128 0x29
 2708 024e 1D       		.uleb128 0x1d
 2709 024f 01       		.byte	0x1
 2710 0250 31       		.uleb128 0x31
 2711 0251 13       		.uleb128 0x13
 2712 0252 52       		.uleb128 0x52
 2713 0253 01       		.uleb128 0x1
 2714 0254 55       		.uleb128 0x55
 2715 0255 17       		.uleb128 0x17
 2716 0256 58       		.uleb128 0x58
 2717 0257 0B       		.uleb128 0xb
 2718 0258 59       		.uleb128 0x59
 2719 0259 0B       		.uleb128 0xb
 2720 025a 01       		.uleb128 0x1
 2721 025b 13       		.uleb128 0x13
 2722 025c 00       		.byte	0
 2723 025d 00       		.byte	0
 2724 025e 2A       		.uleb128 0x2a
 2725 025f 05       		.uleb128 0x5
 2726 0260 00       		.byte	0
 2727 0261 31       		.uleb128 0x31
 2728 0262 13       		.uleb128 0x13
ARM GAS  C:\msys64\tmp\cclifTvb.s 			page 49


 2729 0263 02       		.uleb128 0x2
 2730 0264 17       		.uleb128 0x17
 2731 0265 00       		.byte	0
 2732 0266 00       		.byte	0
 2733 0267 2B       		.uleb128 0x2b
 2734 0268 0B       		.uleb128 0xb
 2735 0269 01       		.byte	0x1
 2736 026a 55       		.uleb128 0x55
 2737 026b 17       		.uleb128 0x17
 2738 026c 00       		.byte	0
 2739 026d 00       		.byte	0
 2740 026e 2C       		.uleb128 0x2c
 2741 026f 34       		.uleb128 0x34
 2742 0270 00       		.byte	0
 2743 0271 31       		.uleb128 0x31
 2744 0272 13       		.uleb128 0x13
 2745 0273 02       		.uleb128 0x2
 2746 0274 18       		.uleb128 0x18
 2747 0275 00       		.byte	0
 2748 0276 00       		.byte	0
 2749 0277 2D       		.uleb128 0x2d
 2750 0278 34       		.uleb128 0x34
 2751 0279 00       		.byte	0
 2752 027a 31       		.uleb128 0x31
 2753 027b 13       		.uleb128 0x13
 2754 027c 02       		.uleb128 0x2
 2755 027d 17       		.uleb128 0x17
 2756 027e 00       		.byte	0
 2757 027f 00       		.byte	0
 2758 0280 2E       		.uleb128 0x2e
 2759 0281 34       		.uleb128 0x34
 2760 0282 00       		.byte	0
 2761 0283 31       		.uleb128 0x31
 2762 0284 13       		.uleb128 0x13
 2763 0285 00       		.byte	0
 2764 0286 00       		.byte	0
 2765 0287 2F       		.uleb128 0x2f
 2766 0288 1D       		.uleb128 0x1d
 2767 0289 01       		.byte	0x1
 2768 028a 31       		.uleb128 0x31
 2769 028b 13       		.uleb128 0x13
 2770 028c 52       		.uleb128 0x52
 2771 028d 01       		.uleb128 0x1
 2772 028e 55       		.uleb128 0x55
 2773 028f 17       		.uleb128 0x17
 2774 0290 58       		.uleb128 0x58
 2775 0291 0B       		.uleb128 0xb
 2776 0292 59       		.uleb128 0x59
 2777 0293 0B       		.uleb128 0xb
 2778 0294 00       		.byte	0
 2779 0295 00       		.byte	0
 2780 0296 30       		.uleb128 0x30
 2781 0297 05       		.uleb128 0x5
 2782 0298 00       		.byte	0
 2783 0299 31       		.uleb128 0x31
 2784 029a 13       		.uleb128 0x13
 2785 029b 00       		.byte	0
ARM GAS  C:\msys64\tmp\cclifTvb.s 			page 50


 2786 029c 00       		.byte	0
 2787 029d 31       		.uleb128 0x31
 2788 029e 1D       		.uleb128 0x1d
 2789 029f 01       		.byte	0x1
 2790 02a0 31       		.uleb128 0x31
 2791 02a1 13       		.uleb128 0x13
 2792 02a2 11       		.uleb128 0x11
 2793 02a3 01       		.uleb128 0x1
 2794 02a4 12       		.uleb128 0x12
 2795 02a5 06       		.uleb128 0x6
 2796 02a6 58       		.uleb128 0x58
 2797 02a7 0B       		.uleb128 0xb
 2798 02a8 59       		.uleb128 0x59
 2799 02a9 0B       		.uleb128 0xb
 2800 02aa 00       		.byte	0
 2801 02ab 00       		.byte	0
 2802 02ac 32       		.uleb128 0x32
 2803 02ad 2E       		.uleb128 0x2e
 2804 02ae 01       		.byte	0x1
 2805 02af 31       		.uleb128 0x31
 2806 02b0 13       		.uleb128 0x13
 2807 02b1 6E       		.uleb128 0x6e
 2808 02b2 0E       		.uleb128 0xe
 2809 02b3 11       		.uleb128 0x11
 2810 02b4 01       		.uleb128 0x1
 2811 02b5 12       		.uleb128 0x12
 2812 02b6 06       		.uleb128 0x6
 2813 02b7 40       		.uleb128 0x40
 2814 02b8 18       		.uleb128 0x18
 2815 02b9 9742     		.uleb128 0x2117
 2816 02bb 19       		.uleb128 0x19
 2817 02bc 01       		.uleb128 0x1
 2818 02bd 13       		.uleb128 0x13
 2819 02be 00       		.byte	0
 2820 02bf 00       		.byte	0
 2821 02c0 33       		.uleb128 0x33
 2822 02c1 0B       		.uleb128 0xb
 2823 02c2 01       		.byte	0x1
 2824 02c3 11       		.uleb128 0x11
 2825 02c4 01       		.uleb128 0x1
 2826 02c5 12       		.uleb128 0x12
 2827 02c6 06       		.uleb128 0x6
 2828 02c7 00       		.byte	0
 2829 02c8 00       		.byte	0
 2830 02c9 34       		.uleb128 0x34
 2831 02ca 34       		.uleb128 0x34
 2832 02cb 00       		.byte	0
 2833 02cc 03       		.uleb128 0x3
 2834 02cd 08       		.uleb128 0x8
 2835 02ce 3A       		.uleb128 0x3a
 2836 02cf 0B       		.uleb128 0xb
 2837 02d0 3B       		.uleb128 0x3b
 2838 02d1 0B       		.uleb128 0xb
 2839 02d2 49       		.uleb128 0x49
 2840 02d3 13       		.uleb128 0x13
 2841 02d4 02       		.uleb128 0x2
 2842 02d5 17       		.uleb128 0x17
ARM GAS  C:\msys64\tmp\cclifTvb.s 			page 51


 2843 02d6 00       		.byte	0
 2844 02d7 00       		.byte	0
 2845 02d8 35       		.uleb128 0x35
 2846 02d9 34       		.uleb128 0x34
 2847 02da 00       		.byte	0
 2848 02db 03       		.uleb128 0x3
 2849 02dc 0E       		.uleb128 0xe
 2850 02dd 3A       		.uleb128 0x3a
 2851 02de 0B       		.uleb128 0xb
 2852 02df 3B       		.uleb128 0x3b
 2853 02e0 0B       		.uleb128 0xb
 2854 02e1 49       		.uleb128 0x49
 2855 02e2 13       		.uleb128 0x13
 2856 02e3 02       		.uleb128 0x2
 2857 02e4 17       		.uleb128 0x17
 2858 02e5 00       		.byte	0
 2859 02e6 00       		.byte	0
 2860 02e7 36       		.uleb128 0x36
 2861 02e8 1D       		.uleb128 0x1d
 2862 02e9 01       		.byte	0x1
 2863 02ea 31       		.uleb128 0x31
 2864 02eb 13       		.uleb128 0x13
 2865 02ec 52       		.uleb128 0x52
 2866 02ed 01       		.uleb128 0x1
 2867 02ee 55       		.uleb128 0x55
 2868 02ef 17       		.uleb128 0x17
 2869 02f0 58       		.uleb128 0x58
 2870 02f1 0B       		.uleb128 0xb
 2871 02f2 59       		.uleb128 0x59
 2872 02f3 05       		.uleb128 0x5
 2873 02f4 00       		.byte	0
 2874 02f5 00       		.byte	0
 2875 02f6 37       		.uleb128 0x37
 2876 02f7 1D       		.uleb128 0x1d
 2877 02f8 01       		.byte	0x1
 2878 02f9 31       		.uleb128 0x31
 2879 02fa 13       		.uleb128 0x13
 2880 02fb 52       		.uleb128 0x52
 2881 02fc 01       		.uleb128 0x1
 2882 02fd 55       		.uleb128 0x55
 2883 02fe 17       		.uleb128 0x17
 2884 02ff 58       		.uleb128 0x58
 2885 0300 0B       		.uleb128 0xb
 2886 0301 59       		.uleb128 0x59
 2887 0302 05       		.uleb128 0x5
 2888 0303 01       		.uleb128 0x1
 2889 0304 13       		.uleb128 0x13
 2890 0305 00       		.byte	0
 2891 0306 00       		.byte	0
 2892 0307 38       		.uleb128 0x38
 2893 0308 2E       		.uleb128 0x2e
 2894 0309 01       		.byte	0x1
 2895 030a 03       		.uleb128 0x3
 2896 030b 0E       		.uleb128 0xe
 2897 030c 34       		.uleb128 0x34
 2898 030d 19       		.uleb128 0x19
 2899 030e 11       		.uleb128 0x11
ARM GAS  C:\msys64\tmp\cclifTvb.s 			page 52


 2900 030f 01       		.uleb128 0x1
 2901 0310 12       		.uleb128 0x12
 2902 0311 06       		.uleb128 0x6
 2903 0312 40       		.uleb128 0x40
 2904 0313 18       		.uleb128 0x18
 2905 0314 9742     		.uleb128 0x2117
 2906 0316 19       		.uleb128 0x19
 2907 0317 01       		.uleb128 0x1
 2908 0318 13       		.uleb128 0x13
 2909 0319 00       		.byte	0
 2910 031a 00       		.byte	0
 2911 031b 39       		.uleb128 0x39
 2912 031c 1D       		.uleb128 0x1d
 2913 031d 01       		.byte	0x1
 2914 031e 31       		.uleb128 0x31
 2915 031f 13       		.uleb128 0x13
 2916 0320 11       		.uleb128 0x11
 2917 0321 01       		.uleb128 0x1
 2918 0322 12       		.uleb128 0x12
 2919 0323 06       		.uleb128 0x6
 2920 0324 58       		.uleb128 0x58
 2921 0325 0B       		.uleb128 0xb
 2922 0326 59       		.uleb128 0x59
 2923 0327 0B       		.uleb128 0xb
 2924 0328 01       		.uleb128 0x1
 2925 0329 13       		.uleb128 0x13
 2926 032a 00       		.byte	0
 2927 032b 00       		.byte	0
 2928 032c 3A       		.uleb128 0x3a
 2929 032d 1D       		.uleb128 0x1d
 2930 032e 01       		.byte	0x1
 2931 032f 31       		.uleb128 0x31
 2932 0330 13       		.uleb128 0x13
 2933 0331 11       		.uleb128 0x11
 2934 0332 01       		.uleb128 0x1
 2935 0333 12       		.uleb128 0x12
 2936 0334 06       		.uleb128 0x6
 2937 0335 58       		.uleb128 0x58
 2938 0336 0B       		.uleb128 0xb
 2939 0337 59       		.uleb128 0x59
 2940 0338 05       		.uleb128 0x5
 2941 0339 00       		.byte	0
 2942 033a 00       		.byte	0
 2943 033b 3B       		.uleb128 0x3b
 2944 033c 34       		.uleb128 0x34
 2945 033d 00       		.byte	0
 2946 033e 03       		.uleb128 0x3
 2947 033f 0E       		.uleb128 0xe
 2948 0340 3A       		.uleb128 0x3a
 2949 0341 0B       		.uleb128 0xb
 2950 0342 3B       		.uleb128 0x3b
 2951 0343 0B       		.uleb128 0xb
 2952 0344 49       		.uleb128 0x49
 2953 0345 13       		.uleb128 0x13
 2954 0346 3F       		.uleb128 0x3f
 2955 0347 19       		.uleb128 0x19
 2956 0348 3C       		.uleb128 0x3c
ARM GAS  C:\msys64\tmp\cclifTvb.s 			page 53


 2957 0349 19       		.uleb128 0x19
 2958 034a 00       		.byte	0
 2959 034b 00       		.byte	0
 2960 034c 3C       		.uleb128 0x3c
 2961 034d 01       		.uleb128 0x1
 2962 034e 01       		.byte	0x1
 2963 034f 49       		.uleb128 0x49
 2964 0350 13       		.uleb128 0x13
 2965 0351 01       		.uleb128 0x1
 2966 0352 13       		.uleb128 0x13
 2967 0353 00       		.byte	0
 2968 0354 00       		.byte	0
 2969 0355 3D       		.uleb128 0x3d
 2970 0356 21       		.uleb128 0x21
 2971 0357 00       		.byte	0
 2972 0358 49       		.uleb128 0x49
 2973 0359 13       		.uleb128 0x13
 2974 035a 2F       		.uleb128 0x2f
 2975 035b 0B       		.uleb128 0xb
 2976 035c 00       		.byte	0
 2977 035d 00       		.byte	0
 2978 035e 3E       		.uleb128 0x3e
 2979 035f 21       		.uleb128 0x21
 2980 0360 00       		.byte	0
 2981 0361 49       		.uleb128 0x49
 2982 0362 13       		.uleb128 0x13
 2983 0363 2F       		.uleb128 0x2f
 2984 0364 05       		.uleb128 0x5
 2985 0365 00       		.byte	0
 2986 0366 00       		.byte	0
 2987 0367 3F       		.uleb128 0x3f
 2988 0368 34       		.uleb128 0x34
 2989 0369 00       		.byte	0
 2990 036a 03       		.uleb128 0x3
 2991 036b 0E       		.uleb128 0xe
 2992 036c 3A       		.uleb128 0x3a
 2993 036d 0B       		.uleb128 0xb
 2994 036e 3B       		.uleb128 0x3b
 2995 036f 05       		.uleb128 0x5
 2996 0370 49       		.uleb128 0x49
 2997 0371 13       		.uleb128 0x13
 2998 0372 3F       		.uleb128 0x3f
 2999 0373 19       		.uleb128 0x19
 3000 0374 3C       		.uleb128 0x3c
 3001 0375 19       		.uleb128 0x19
 3002 0376 00       		.byte	0
 3003 0377 00       		.byte	0
 3004 0378 40       		.uleb128 0x40
 3005 0379 34       		.uleb128 0x34
 3006 037a 00       		.byte	0
 3007 037b 03       		.uleb128 0x3
 3008 037c 0E       		.uleb128 0xe
 3009 037d 3A       		.uleb128 0x3a
 3010 037e 0B       		.uleb128 0xb
 3011 037f 3B       		.uleb128 0x3b
 3012 0380 0B       		.uleb128 0xb
 3013 0381 49       		.uleb128 0x49
ARM GAS  C:\msys64\tmp\cclifTvb.s 			page 54


 3014 0382 13       		.uleb128 0x13
 3015 0383 3F       		.uleb128 0x3f
 3016 0384 19       		.uleb128 0x19
 3017 0385 02       		.uleb128 0x2
 3018 0386 18       		.uleb128 0x18
 3019 0387 00       		.byte	0
 3020 0388 00       		.byte	0
 3021 0389 41       		.uleb128 0x41
 3022 038a 34       		.uleb128 0x34
 3023 038b 00       		.byte	0
 3024 038c 03       		.uleb128 0x3
 3025 038d 0E       		.uleb128 0xe
 3026 038e 3A       		.uleb128 0x3a
 3027 038f 0B       		.uleb128 0xb
 3028 0390 3B       		.uleb128 0x3b
 3029 0391 0B       		.uleb128 0xb
 3030 0392 49       		.uleb128 0x49
 3031 0393 13       		.uleb128 0x13
 3032 0394 02       		.uleb128 0x2
 3033 0395 18       		.uleb128 0x18
 3034 0396 00       		.byte	0
 3035 0397 00       		.byte	0
 3036 0398 00       		.byte	0
 3037              		.section	.debug_loc,"",%progbits
 3038              	.Ldebug_loc0:
 3039              	.LLST0:
 3040 0000 00000000 		.4byte	.LVL0
 3041 0004 26000000 		.4byte	.LVL2
 3042 0008 0100     		.2byte	0x1
 3043 000a 50       		.byte	0x50
 3044 000b 26000000 		.4byte	.LVL2
 3045 000f B8000000 		.4byte	.LFE270
 3046 0013 0400     		.2byte	0x4
 3047 0015 F3       		.byte	0xf3
 3048 0016 01       		.uleb128 0x1
 3049 0017 50       		.byte	0x50
 3050 0018 9F       		.byte	0x9f
 3051 0019 00000000 		.4byte	0
 3052 001d 00000000 		.4byte	0
 3053              	.LLST1:
 3054 0021 00000000 		.4byte	.LVL0
 3055 0025 0E000000 		.4byte	.LVL1
 3056 0029 0100     		.2byte	0x1
 3057 002b 51       		.byte	0x51
 3058 002c 0E000000 		.4byte	.LVL1
 3059 0030 B8000000 		.4byte	.LFE270
 3060 0034 0400     		.2byte	0x4
 3061 0036 F3       		.byte	0xf3
 3062 0037 01       		.uleb128 0x1
 3063 0038 51       		.byte	0x51
 3064 0039 9F       		.byte	0x9f
 3065 003a 00000000 		.4byte	0
 3066 003e 00000000 		.4byte	0
 3067              	.LLST2:
 3068 0042 42000000 		.4byte	.LVL3
 3069 0046 4C000000 		.4byte	.LVL4
 3070 004a 0500     		.2byte	0x5
ARM GAS  C:\msys64\tmp\cclifTvb.s 			page 55


 3071 004c 03       		.byte	0x3
 3072 004d 00000000 		.4byte	cutoff
 3073 0051 00000000 		.4byte	0
 3074 0055 00000000 		.4byte	0
 3075              	.LLST3:
 3076 0059 42000000 		.4byte	.LVL3
 3077 005d 4C000000 		.4byte	.LVL4
 3078 0061 0100     		.2byte	0x1
 3079 0063 50       		.byte	0x50
 3080 0064 00000000 		.4byte	0
 3081 0068 00000000 		.4byte	0
 3082              	.LLST4:
 3083 006c 42000000 		.4byte	.LVL3
 3084 0070 4C000000 		.4byte	.LVL4
 3085 0074 0200     		.2byte	0x2
 3086 0076 90       		.byte	0x90
 3087 0077 4E       		.uleb128 0x4e
 3088 0078 00000000 		.4byte	0
 3089 007c 00000000 		.4byte	0
 3090              	.LLST6:
 3091 0080 00000000 		.4byte	.LVL0
 3092 0084 42000000 		.4byte	.LVL3
 3093 0088 0600     		.2byte	0x6
 3094 008a 03       		.byte	0x3
 3095 008b 00000000 		.4byte	_ZL8filter_l
 3096 008f 9F       		.byte	0x9f
 3097 0090 00000000 		.4byte	0
 3098 0094 00000000 		.4byte	0
 3099              	.LLST7:
 3100 0098 4C000000 		.4byte	.LVL4
 3101 009c 98000000 		.4byte	.LVL8
 3102 00a0 0200     		.2byte	0x2
 3103 00a2 90       		.byte	0x90
 3104 00a3 4C       		.uleb128 0x4c
 3105 00a4 00000000 		.4byte	0
 3106 00a8 00000000 		.4byte	0
 3107              	.LLST8:
 3108 00ac 4C000000 		.4byte	.LVL4
 3109 00b0 98000000 		.4byte	.LVL8
 3110 00b4 0600     		.2byte	0x6
 3111 00b6 03       		.byte	0x3
 3112 00b7 00000000 		.4byte	_ZL8filter_l
 3113 00bb 9F       		.byte	0x9f
 3114 00bc 00000000 		.4byte	0
 3115 00c0 00000000 		.4byte	0
 3116              	.LLST9:
 3117 00c4 5C000000 		.4byte	.LVL5
 3118 00c8 88000000 		.4byte	.LVL7
 3119 00cc 0200     		.2byte	0x2
 3120 00ce 90       		.byte	0x90
 3121 00cf 4F       		.uleb128 0x4f
 3122 00d0 00000000 		.4byte	0
 3123 00d4 00000000 		.4byte	0
 3124              	.LLST10:
 3125 00d8 6C000000 		.4byte	.LVL6
 3126 00dc 98000000 		.4byte	.LVL8
 3127 00e0 0200     		.2byte	0x2
ARM GAS  C:\msys64\tmp\cclifTvb.s 			page 56


 3128 00e2 90       		.byte	0x90
 3129 00e3 4B       		.uleb128 0x4b
 3130 00e4 00000000 		.4byte	0
 3131 00e8 00000000 		.4byte	0
 3132              	.LLST11:
 3133 00ec B8000000 		.4byte	.LVL9
 3134 00f0 C6000000 		.4byte	.LVL10
 3135 00f4 0200     		.2byte	0x2
 3136 00f6 90       		.byte	0x90
 3137 00f7 40       		.uleb128 0x40
 3138 00f8 C6000000 		.4byte	.LVL10
 3139 00fc C8000000 		.4byte	.LFE271
 3140 0100 0600     		.2byte	0x6
 3141 0102 F3       		.byte	0xf3
 3142 0103 03       		.uleb128 0x3
 3143 0104 F5       		.byte	0xf5
 3144 0105 40       		.uleb128 0x40
 3145 0106 25       		.uleb128 0x25
 3146 0107 9F       		.byte	0x9f
 3147 0108 00000000 		.4byte	0
 3148 010c 00000000 		.4byte	0
 3149              	.LLST12:
 3150 0110 C8000000 		.4byte	.LVL11
 3151 0114 D6000000 		.4byte	.LVL14
 3152 0118 0100     		.2byte	0x1
 3153 011a 50       		.byte	0x50
 3154 011b D6000000 		.4byte	.LVL14
 3155 011f DC000000 		.4byte	.LVL15
 3156 0123 0300     		.2byte	0x3
 3157 0125 70       		.byte	0x70
 3158 0126 78       		.sleb128 -8
 3159 0127 9F       		.byte	0x9f
 3160 0128 DC000000 		.4byte	.LVL15
 3161 012c E0000000 		.4byte	.LVL16
 3162 0130 0300     		.2byte	0x3
 3163 0132 70       		.byte	0x70
 3164 0133 7C       		.sleb128 -4
 3165 0134 9F       		.byte	0x9f
 3166 0135 E0000000 		.4byte	.LVL16
 3167 0139 6A010000 		.4byte	.LVL25
 3168 013d 0100     		.2byte	0x1
 3169 013f 50       		.byte	0x50
 3170 0140 6A010000 		.4byte	.LVL25
 3171 0144 70010000 		.4byte	.LFE272
 3172 0148 0300     		.2byte	0x3
 3173 014a 70       		.byte	0x70
 3174 014b 78       		.sleb128 -8
 3175 014c 9F       		.byte	0x9f
 3176 014d 00000000 		.4byte	0
 3177 0151 00000000 		.4byte	0
 3178              	.LLST13:
 3179 0155 C8000000 		.4byte	.LVL11
 3180 0159 D0000000 		.4byte	.LVL13
 3181 015d 0100     		.2byte	0x1
 3182 015f 51       		.byte	0x51
 3183 0160 D0000000 		.4byte	.LVL13
 3184 0164 D6000000 		.4byte	.LVL14
ARM GAS  C:\msys64\tmp\cclifTvb.s 			page 57


 3185 0168 0B00     		.2byte	0xb
 3186 016a F3       		.byte	0xf3
 3187 016b 01       		.uleb128 0x1
 3188 016c 51       		.byte	0x51
 3189 016d 70       		.byte	0x70
 3190 016e 00       		.sleb128 0
 3191 016f 22       		.byte	0x22
 3192 0170 F3       		.byte	0xf3
 3193 0171 01       		.uleb128 0x1
 3194 0172 50       		.byte	0x50
 3195 0173 1C       		.byte	0x1c
 3196 0174 9F       		.byte	0x9f
 3197 0175 D6000000 		.4byte	.LVL14
 3198 0179 5E010000 		.4byte	.LVL23
 3199 017d 0D00     		.2byte	0xd
 3200 017f 70       		.byte	0x70
 3201 0180 00       		.sleb128 0
 3202 0181 F3       		.byte	0xf3
 3203 0182 01       		.uleb128 0x1
 3204 0183 51       		.byte	0x51
 3205 0184 22       		.byte	0x22
 3206 0185 F3       		.byte	0xf3
 3207 0186 01       		.uleb128 0x1
 3208 0187 50       		.byte	0x50
 3209 0188 1C       		.byte	0x1c
 3210 0189 38       		.byte	0x38
 3211 018a 1C       		.byte	0x1c
 3212 018b 9F       		.byte	0x9f
 3213 018c 5E010000 		.4byte	.LVL23
 3214 0190 62010000 		.4byte	.LVL24
 3215 0194 0D00     		.2byte	0xd
 3216 0196 70       		.byte	0x70
 3217 0197 00       		.sleb128 0
 3218 0198 F3       		.byte	0xf3
 3219 0199 01       		.uleb128 0x1
 3220 019a 50       		.byte	0x50
 3221 019b 1C       		.byte	0x1c
 3222 019c F3       		.byte	0xf3
 3223 019d 01       		.uleb128 0x1
 3224 019e 51       		.byte	0x51
 3225 019f 22       		.byte	0x22
 3226 01a0 34       		.byte	0x34
 3227 01a1 1C       		.byte	0x1c
 3228 01a2 9F       		.byte	0x9f
 3229 01a3 62010000 		.4byte	.LVL24
 3230 01a7 6A010000 		.4byte	.LVL25
 3231 01ab 0B00     		.2byte	0xb
 3232 01ad F3       		.byte	0xf3
 3233 01ae 01       		.uleb128 0x1
 3234 01af 51       		.byte	0x51
 3235 01b0 70       		.byte	0x70
 3236 01b1 00       		.sleb128 0
 3237 01b2 22       		.byte	0x22
 3238 01b3 F3       		.byte	0xf3
 3239 01b4 01       		.uleb128 0x1
 3240 01b5 50       		.byte	0x50
 3241 01b6 1C       		.byte	0x1c
ARM GAS  C:\msys64\tmp\cclifTvb.s 			page 58


 3242 01b7 9F       		.byte	0x9f
 3243 01b8 6A010000 		.4byte	.LVL25
 3244 01bc 70010000 		.4byte	.LFE272
 3245 01c0 0D00     		.2byte	0xd
 3246 01c2 70       		.byte	0x70
 3247 01c3 00       		.sleb128 0
 3248 01c4 F3       		.byte	0xf3
 3249 01c5 01       		.uleb128 0x1
 3250 01c6 51       		.byte	0x51
 3251 01c7 22       		.byte	0x22
 3252 01c8 F3       		.byte	0xf3
 3253 01c9 01       		.uleb128 0x1
 3254 01ca 50       		.byte	0x50
 3255 01cb 1C       		.byte	0x1c
 3256 01cc 38       		.byte	0x38
 3257 01cd 1C       		.byte	0x1c
 3258 01ce 9F       		.byte	0x9f
 3259 01cf 00000000 		.4byte	0
 3260 01d3 00000000 		.4byte	0
 3261              	.LLST14:
 3262 01d7 C8000000 		.4byte	.LVL11
 3263 01db D0000000 		.4byte	.LVL13
 3264 01df 0100     		.2byte	0x1
 3265 01e1 52       		.byte	0x52
 3266 01e2 D0000000 		.4byte	.LVL13
 3267 01e6 70010000 		.4byte	.LFE272
 3268 01ea 0400     		.2byte	0x4
 3269 01ec F3       		.byte	0xf3
 3270 01ed 01       		.uleb128 0x1
 3271 01ee 52       		.byte	0x52
 3272 01ef 9F       		.byte	0x9f
 3273 01f0 00000000 		.4byte	0
 3274 01f4 00000000 		.4byte	0
 3275              	.LLST15:
 3276 01f8 C8000000 		.4byte	.LVL11
 3277 01fc CE000000 		.4byte	.LVL12
 3278 0200 0100     		.2byte	0x1
 3279 0202 53       		.byte	0x53
 3280 0203 CE000000 		.4byte	.LVL12
 3281 0207 70010000 		.4byte	.LFE272
 3282 020b 0400     		.2byte	0x4
 3283 020d F3       		.byte	0xf3
 3284 020e 01       		.uleb128 0x1
 3285 020f 53       		.byte	0x53
 3286 0210 9F       		.byte	0x9f
 3287 0211 00000000 		.4byte	0
 3288 0215 00000000 		.4byte	0
 3289              	.LLST16:
 3290 0219 C8000000 		.4byte	.LVL11
 3291 021d 6C010000 		.4byte	.LVL26
 3292 0221 0200     		.2byte	0x2
 3293 0223 91       		.byte	0x91
 3294 0224 00       		.sleb128 0
 3295 0225 6C010000 		.4byte	.LVL26
 3296 0229 70010000 		.4byte	.LFE272
 3297 022d 0200     		.2byte	0x2
 3298 022f 7D       		.byte	0x7d
ARM GAS  C:\msys64\tmp\cclifTvb.s 			page 59


 3299 0230 00       		.sleb128 0
 3300 0231 00000000 		.4byte	0
 3301 0235 00000000 		.4byte	0
 3302              	.LLST17:
 3303 0239 C8000000 		.4byte	.LVL11
 3304 023d D0000000 		.4byte	.LVL13
 3305 0241 0200     		.2byte	0x2
 3306 0243 30       		.byte	0x30
 3307 0244 9F       		.byte	0x9f
 3308 0245 D0000000 		.4byte	.LVL13
 3309 0249 FA000000 		.4byte	.LVL19
 3310 024d 0100     		.2byte	0x1
 3311 024f 52       		.byte	0x52
 3312 0250 FA000000 		.4byte	.LVL19
 3313 0254 62010000 		.4byte	.LVL24
 3314 0258 0300     		.2byte	0x3
 3315 025a 72       		.byte	0x72
 3316 025b 7F       		.sleb128 -1
 3317 025c 9F       		.byte	0x9f
 3318 025d 62010000 		.4byte	.LVL24
 3319 0261 70010000 		.4byte	.LFE272
 3320 0265 0100     		.2byte	0x1
 3321 0267 52       		.byte	0x52
 3322 0268 00000000 		.4byte	0
 3323 026c 00000000 		.4byte	0
 3324              	.LLST18:
 3325 0270 F0000000 		.4byte	.LVL17
 3326 0274 26010000 		.4byte	.LVL20
 3327 0278 0200     		.2byte	0x2
 3328 027a 90       		.byte	0x90
 3329 027b 4D       		.uleb128 0x4d
 3330 027c 00000000 		.4byte	0
 3331 0280 00000000 		.4byte	0
 3332              	.LLST19:
 3333 0284 F0000000 		.4byte	.LVL17
 3334 0288 2A010000 		.4byte	.LVL21
 3335 028c 0600     		.2byte	0x6
 3336 028e 03       		.byte	0x3
 3337 028f 00000000 		.4byte	_ZL8filter_l
 3338 0293 9F       		.byte	0x9f
 3339 0294 00000000 		.4byte	0
 3340 0298 00000000 		.4byte	0
 3341              	.LLST20:
 3342 029c F8000000 		.4byte	.LVL18
 3343 02a0 2A010000 		.4byte	.LVL21
 3344 02a4 0200     		.2byte	0x2
 3345 02a6 90       		.byte	0x90
 3346 02a7 4F       		.uleb128 0x4f
 3347 02a8 00000000 		.4byte	0
 3348 02ac 00000000 		.4byte	0
 3349              	.LLST21:
 3350 02b0 2A010000 		.4byte	.LVL21
 3351 02b4 5E010000 		.4byte	.LVL23
 3352 02b8 0200     		.2byte	0x2
 3353 02ba 90       		.byte	0x90
 3354 02bb 4C       		.uleb128 0x4c
 3355 02bc 00000000 		.4byte	0
ARM GAS  C:\msys64\tmp\cclifTvb.s 			page 60


 3356 02c0 00000000 		.4byte	0
 3357              	.LLST22:
 3358 02c4 2A010000 		.4byte	.LVL21
 3359 02c8 5E010000 		.4byte	.LVL23
 3360 02cc 0600     		.2byte	0x6
 3361 02ce 03       		.byte	0x3
 3362 02cf 1C000000 		.4byte	_ZL8filter_r
 3363 02d3 9F       		.byte	0x9f
 3364 02d4 00000000 		.4byte	0
 3365 02d8 00000000 		.4byte	0
 3366              	.LLST23:
 3367 02dc 36010000 		.4byte	.LVL22
 3368 02e0 5E010000 		.4byte	.LVL23
 3369 02e4 0200     		.2byte	0x2
 3370 02e6 90       		.byte	0x90
 3371 02e7 4E       		.uleb128 0x4e
 3372 02e8 00000000 		.4byte	0
 3373 02ec 00000000 		.4byte	0
 3374              	.LLST24:
 3375 02f0 70010000 		.4byte	.LVL27
 3376 02f4 02020000 		.4byte	.LVL41
 3377 02f8 0100     		.2byte	0x1
 3378 02fa 50       		.byte	0x50
 3379 02fb 02020000 		.4byte	.LVL41
 3380 02ff 90020000 		.4byte	.LFE273
 3381 0303 0400     		.2byte	0x4
 3382 0305 F3       		.byte	0xf3
 3383 0306 01       		.uleb128 0x1
 3384 0307 50       		.byte	0x50
 3385 0308 9F       		.byte	0x9f
 3386 0309 00000000 		.4byte	0
 3387 030d 00000000 		.4byte	0
 3388              	.LLST25:
 3389 0311 70010000 		.4byte	.LVL27
 3390 0315 8A010000 		.4byte	.LVL30
 3391 0319 0100     		.2byte	0x1
 3392 031b 51       		.byte	0x51
 3393 031c 8A010000 		.4byte	.LVL30
 3394 0320 90020000 		.4byte	.LFE273
 3395 0324 0400     		.2byte	0x4
 3396 0326 F3       		.byte	0xf3
 3397 0327 01       		.uleb128 0x1
 3398 0328 51       		.byte	0x51
 3399 0329 9F       		.byte	0x9f
 3400 032a 00000000 		.4byte	0
 3401 032e 00000000 		.4byte	0
 3402              	.LLST26:
 3403 0332 76010000 		.4byte	.LVL28
 3404 0336 82010000 		.4byte	.LVL29
 3405 033a 0F00     		.2byte	0xf
 3406 033c 71       		.byte	0x71
 3407 033d 00       		.sleb128 0
 3408 033e F7       		.byte	0xf7
 3409 033f 33       		.uleb128 0x33
 3410 0340 F7       		.byte	0xf7
 3411 0341 25       		.uleb128 0x25
 3412 0342 F4       		.byte	0xf4
ARM GAS  C:\msys64\tmp\cclifTvb.s 			page 61


 3413 0343 25       		.uleb128 0x25
 3414 0344 04       		.byte	0x4
 3415 0345 00000030 		.4byte	0x30000000
 3416 0349 1E       		.byte	0x1e
 3417 034a 9F       		.byte	0x9f
 3418 034b 82010000 		.4byte	.LVL29
 3419 034f AE010000 		.4byte	.LVL31
 3420 0353 0C00     		.2byte	0xc
 3421 0355 F5       		.byte	0xf5
 3422 0356 4F       		.uleb128 0x4f
 3423 0357 25       		.uleb128 0x25
 3424 0358 F4       		.byte	0xf4
 3425 0359 25       		.uleb128 0x25
 3426 035a 04       		.byte	0x4
 3427 035b 00000030 		.4byte	0x30000000
 3428 035f 1E       		.byte	0x1e
 3429 0360 9F       		.byte	0x9f
 3430 0361 AE010000 		.4byte	.LVL31
 3431 0365 90020000 		.4byte	.LFE273
 3432 0369 1000     		.2byte	0x10
 3433 036b F3       		.byte	0xf3
 3434 036c 01       		.uleb128 0x1
 3435 036d 51       		.byte	0x51
 3436 036e F7       		.byte	0xf7
 3437 036f 33       		.uleb128 0x33
 3438 0370 F7       		.byte	0xf7
 3439 0371 25       		.uleb128 0x25
 3440 0372 F4       		.byte	0xf4
 3441 0373 25       		.uleb128 0x25
 3442 0374 04       		.byte	0x4
 3443 0375 00000030 		.4byte	0x30000000
 3444 0379 1E       		.byte	0x1e
 3445 037a 9F       		.byte	0x9f
 3446 037b 00000000 		.4byte	0
 3447 037f 00000000 		.4byte	0
 3448              	.LLST27:
 3449 0383 76010000 		.4byte	.LVL28
 3450 0387 E4010000 		.4byte	.LVL37
 3451 038b 0600     		.2byte	0x6
 3452 038d 9E       		.byte	0x9e
 3453 038e 04       		.uleb128 0x4
 3454 038f 00000000 		.4byte	0
 3455 0393 00000000 		.4byte	0
 3456 0397 00000000 		.4byte	0
 3457              	.LLST28:
 3458 039b F4010000 		.4byte	.LVL38
 3459 039f FE010000 		.4byte	.LVL40
 3460 03a3 0200     		.2byte	0x2
 3461 03a5 90       		.byte	0x90
 3462 03a6 4F       		.uleb128 0x4f
 3463 03a7 FE010000 		.4byte	.LVL40
 3464 03ab 22020000 		.4byte	.LVL44
 3465 03af 0500     		.2byte	0x5
 3466 03b1 03       		.byte	0x3
 3467 03b2 00000000 		.4byte	cutoff
 3468 03b6 00000000 		.4byte	0
 3469 03ba 00000000 		.4byte	0
ARM GAS  C:\msys64\tmp\cclifTvb.s 			page 62


 3470              	.LLST29:
 3471 03be F8010000 		.4byte	.LVL39
 3472 03c2 12020000 		.4byte	.LVL43
 3473 03c6 0200     		.2byte	0x2
 3474 03c8 90       		.byte	0x90
 3475 03c9 4D       		.uleb128 0x4d
 3476 03ca 12020000 		.4byte	.LVL43
 3477 03ce 22020000 		.4byte	.LVL44
 3478 03d2 1100     		.2byte	0x11
 3479 03d4 03       		.byte	0x3
 3480 03d5 00000000 		.4byte	cutoff
 3481 03d9 F6       		.byte	0xf6
 3482 03da 04       		.byte	0x4
 3483 03db 25       		.uleb128 0x25
 3484 03dc F4       		.byte	0xf4
 3485 03dd 25       		.uleb128 0x25
 3486 03de 04       		.byte	0x4
 3487 03df BC9C0244 		.4byte	0x44029cbc
 3488 03e3 1E       		.byte	0x1e
 3489 03e4 9F       		.byte	0x9f
 3490 03e5 00000000 		.4byte	0
 3491 03e9 00000000 		.4byte	0
 3492              	.LLST30:
 3493 03ed 02020000 		.4byte	.LVL41
 3494 03f1 22020000 		.4byte	.LVL44
 3495 03f5 0100     		.2byte	0x1
 3496 03f7 50       		.byte	0x50
 3497 03f8 00000000 		.4byte	0
 3498 03fc 00000000 		.4byte	0
 3499              	.LLST31:
 3500 0400 0E020000 		.4byte	.LVL42
 3501 0404 22020000 		.4byte	.LVL44
 3502 0408 0200     		.2byte	0x2
 3503 040a 90       		.byte	0x90
 3504 040b 4E       		.uleb128 0x4e
 3505 040c 00000000 		.4byte	0
 3506 0410 00000000 		.4byte	0
 3507              	.LLST33:
 3508 0414 0E020000 		.4byte	.LVL42
 3509 0418 12020000 		.4byte	.LVL43
 3510 041c 0B00     		.2byte	0xb
 3511 041e F5       		.byte	0xf5
 3512 041f 4D       		.uleb128 0x4d
 3513 0420 25       		.uleb128 0x25
 3514 0421 70       		.byte	0x70
 3515 0422 00       		.sleb128 0
 3516 0423 F7       		.byte	0xf7
 3517 0424 2C       		.uleb128 0x2c
 3518 0425 F7       		.byte	0xf7
 3519 0426 25       		.uleb128 0x25
 3520 0427 1C       		.byte	0x1c
 3521 0428 9F       		.byte	0x9f
 3522 0429 12020000 		.4byte	.LVL43
 3523 042d 22020000 		.4byte	.LVL44
 3524 0431 1800     		.2byte	0x18
 3525 0433 03       		.byte	0x3
 3526 0434 00000000 		.4byte	cutoff
ARM GAS  C:\msys64\tmp\cclifTvb.s 			page 63


 3527 0438 F6       		.byte	0xf6
 3528 0439 04       		.byte	0x4
 3529 043a 25       		.uleb128 0x25
 3530 043b F4       		.byte	0xf4
 3531 043c 25       		.uleb128 0x25
 3532 043d 04       		.byte	0x4
 3533 043e BC9C0244 		.4byte	0x44029cbc
 3534 0442 1E       		.byte	0x1e
 3535 0443 70       		.byte	0x70
 3536 0444 00       		.sleb128 0
 3537 0445 F7       		.byte	0xf7
 3538 0446 2C       		.uleb128 0x2c
 3539 0447 F7       		.byte	0xf7
 3540 0448 25       		.uleb128 0x25
 3541 0449 1C       		.byte	0x1c
 3542 044a 9F       		.byte	0x9f
 3543 044b 00000000 		.4byte	0
 3544 044f 00000000 		.4byte	0
 3545              	.LLST34:
 3546 0453 B4010000 		.4byte	.LVL32
 3547 0457 E4010000 		.4byte	.LVL37
 3548 045b 0600     		.2byte	0x6
 3549 045d 9E       		.byte	0x9e
 3550 045e 04       		.uleb128 0x4
 3551 045f 0000803F 		.4byte	0x3f800000
 3552 0463 00000000 		.4byte	0
 3553 0467 00000000 		.4byte	0
 3554              	.LLST35:
 3555 046b B4010000 		.4byte	.LVL32
 3556 046f E4010000 		.4byte	.LVL37
 3557 0473 0600     		.2byte	0x6
 3558 0475 9E       		.byte	0x9e
 3559 0476 04       		.uleb128 0x4
 3560 0477 6F12833A 		.4byte	0x3a83126f
 3561 047b 00000000 		.4byte	0
 3562 047f 00000000 		.4byte	0
 3563              	.LLST38:
 3564 0483 B4010000 		.4byte	.LVL32
 3565 0487 C8010000 		.4byte	.LVL34
 3566 048b 0600     		.2byte	0x6
 3567 048d 9E       		.byte	0x9e
 3568 048e 04       		.uleb128 0x4
 3569 048f 6F12833A 		.4byte	0x3a83126f
 3570 0493 00000000 		.4byte	0
 3571 0497 00000000 		.4byte	0
 3572              	.LLST39:
 3573 049b B4010000 		.4byte	.LVL32
 3574 049f B8010000 		.4byte	.LVL33
 3575 04a3 0C00     		.2byte	0xc
 3576 04a5 F5       		.byte	0xf5
 3577 04a6 4F       		.uleb128 0x4f
 3578 04a7 25       		.uleb128 0x25
 3579 04a8 F4       		.byte	0xf4
 3580 04a9 25       		.uleb128 0x25
 3581 04aa 04       		.byte	0x4
 3582 04ab 6F12833A 		.4byte	0x3a83126f
 3583 04af 1C       		.byte	0x1c
ARM GAS  C:\msys64\tmp\cclifTvb.s 			page 64


 3584 04b0 9F       		.byte	0x9f
 3585 04b1 B8010000 		.4byte	.LVL33
 3586 04b5 C8010000 		.4byte	.LVL34
 3587 04b9 0200     		.2byte	0x2
 3588 04bb 90       		.byte	0x90
 3589 04bc 4D       		.uleb128 0x4d
 3590 04bd 00000000 		.4byte	0
 3591 04c1 00000000 		.4byte	0
 3592              	.LLST40:
 3593 04c5 C8010000 		.4byte	.LVL34
 3594 04c9 E4010000 		.4byte	.LVL37
 3595 04cd 0600     		.2byte	0x6
 3596 04cf 9E       		.byte	0x9e
 3597 04d0 04       		.uleb128 0x4
 3598 04d1 0000803F 		.4byte	0x3f800000
 3599 04d5 00000000 		.4byte	0
 3600 04d9 00000000 		.4byte	0
 3601              	.LLST41:
 3602 04dd C8010000 		.4byte	.LVL34
 3603 04e1 CC010000 		.4byte	.LVL35
 3604 04e5 0C00     		.2byte	0xc
 3605 04e7 F5       		.byte	0xf5
 3606 04e8 4F       		.uleb128 0x4f
 3607 04e9 25       		.uleb128 0x25
 3608 04ea F4       		.byte	0xf4
 3609 04eb 25       		.uleb128 0x25
 3610 04ec 04       		.byte	0x4
 3611 04ed 0000803F 		.4byte	0x3f800000
 3612 04f1 1C       		.byte	0x1c
 3613 04f2 9F       		.byte	0x9f
 3614 04f3 CC010000 		.4byte	.LVL35
 3615 04f7 DE010000 		.4byte	.LVL36
 3616 04fb 0200     		.2byte	0x2
 3617 04fd 90       		.byte	0x90
 3618 04fe 4E       		.uleb128 0x4e
 3619 04ff DE010000 		.4byte	.LVL36
 3620 0503 E4010000 		.4byte	.LVL37
 3621 0507 0C00     		.2byte	0xc
 3622 0509 F5       		.byte	0xf5
 3623 050a 4F       		.uleb128 0x4f
 3624 050b 25       		.uleb128 0x25
 3625 050c F4       		.byte	0xf4
 3626 050d 25       		.uleb128 0x25
 3627 050e 04       		.byte	0x4
 3628 050f 0000803F 		.4byte	0x3f800000
 3629 0513 1C       		.byte	0x1c
 3630 0514 9F       		.byte	0x9f
 3631 0515 00000000 		.4byte	0
 3632 0519 00000000 		.4byte	0
 3633              	.LLST42:
 3634 051d AE010000 		.4byte	.LVL31
 3635 0521 B4010000 		.4byte	.LVL32
 3636 0525 0200     		.2byte	0x2
 3637 0527 90       		.byte	0x90
 3638 0528 4D       		.uleb128 0x4d
 3639 0529 00000000 		.4byte	0
 3640 052d 00000000 		.4byte	0
ARM GAS  C:\msys64\tmp\cclifTvb.s 			page 65


 3641              	.LLST43:
 3642 0531 22020000 		.4byte	.LVL44
 3643 0535 66020000 		.4byte	.LVL48
 3644 0539 0200     		.2byte	0x2
 3645 053b 90       		.byte	0x90
 3646 053c 4B       		.uleb128 0x4b
 3647 053d 00000000 		.4byte	0
 3648 0541 00000000 		.4byte	0
 3649              	.LLST44:
 3650 0545 22020000 		.4byte	.LVL44
 3651 0549 66020000 		.4byte	.LVL48
 3652 054d 0600     		.2byte	0x6
 3653 054f 03       		.byte	0x3
 3654 0550 00000000 		.4byte	_ZL8filter_l
 3655 0554 9F       		.byte	0x9f
 3656 0555 00000000 		.4byte	0
 3657 0559 00000000 		.4byte	0
 3658              	.LLST45:
 3659 055d 2A020000 		.4byte	.LVL45
 3660 0561 56020000 		.4byte	.LVL47
 3661 0565 0200     		.2byte	0x2
 3662 0567 90       		.byte	0x90
 3663 0568 4F       		.uleb128 0x4f
 3664 0569 00000000 		.4byte	0
 3665 056d 00000000 		.4byte	0
 3666              	.LLST46:
 3667 0571 3A020000 		.4byte	.LVL46
 3668 0575 66020000 		.4byte	.LVL48
 3669 0579 0200     		.2byte	0x2
 3670 057b 90       		.byte	0x90
 3671 057c 4A       		.uleb128 0x4a
 3672 057d 00000000 		.4byte	0
 3673 0581 00000000 		.4byte	0
 3674              	.LLST47:
 3675 0585 00000000 		.4byte	.LVL49
 3676 0589 20000000 		.4byte	.LVL53
 3677 058d 0200     		.2byte	0x2
 3678 058f 31       		.byte	0x31
 3679 0590 9F       		.byte	0x9f
 3680 0591 00000000 		.4byte	0
 3681 0595 00000000 		.4byte	0
 3682              	.LLST48:
 3683 0599 00000000 		.4byte	.LVL49
 3684 059d 20000000 		.4byte	.LVL53
 3685 05a1 0400     		.2byte	0x4
 3686 05a3 0A       		.byte	0xa
 3687 05a4 FFFF     		.2byte	0xffff
 3688 05a6 9F       		.byte	0x9f
 3689 05a7 00000000 		.4byte	0
 3690 05ab 00000000 		.4byte	0
 3691              	.LLST49:
 3692 05af 00000000 		.4byte	.LVL49
 3693 05b3 12000000 		.4byte	.LVL51
 3694 05b7 0600     		.2byte	0x6
 3695 05b9 03       		.byte	0x3
 3696 05ba 00000000 		.4byte	_ZL8filter_l
 3697 05be 9F       		.byte	0x9f
ARM GAS  C:\msys64\tmp\cclifTvb.s 			page 66


 3698 05bf 00000000 		.4byte	0
 3699 05c3 00000000 		.4byte	0
 3700              	.LLST50:
 3701 05c7 00000000 		.4byte	.LVL49
 3702 05cb 0E000000 		.4byte	.LVL50
 3703 05cf 0600     		.2byte	0x6
 3704 05d1 03       		.byte	0x3
 3705 05d2 00000000 		.4byte	_ZL8filter_l
 3706 05d6 9F       		.byte	0x9f
 3707 05d7 00000000 		.4byte	0
 3708 05db 00000000 		.4byte	0
 3709              	.LLST51:
 3710 05df 12000000 		.4byte	.LVL51
 3711 05e3 20000000 		.4byte	.LVL53
 3712 05e7 0600     		.2byte	0x6
 3713 05e9 03       		.byte	0x3
 3714 05ea 1C000000 		.4byte	_ZL8filter_r
 3715 05ee 9F       		.byte	0x9f
 3716 05ef 00000000 		.4byte	0
 3717 05f3 00000000 		.4byte	0
 3718              	.LLST52:
 3719 05f7 12000000 		.4byte	.LVL51
 3720 05fb 1C000000 		.4byte	.LVL52
 3721 05ff 0600     		.2byte	0x6
 3722 0601 03       		.byte	0x3
 3723 0602 1C000000 		.4byte	_ZL8filter_r
 3724 0606 9F       		.byte	0x9f
 3725 0607 00000000 		.4byte	0
 3726 060b 00000000 		.4byte	0
 3727              		.section	.debug_aranges,"",%progbits
 3728 0000 24000000 		.4byte	0x24
 3729 0004 0200     		.2byte	0x2
 3730 0006 00000000 		.4byte	.Ldebug_info0
 3731 000a 04       		.byte	0x4
 3732 000b 00       		.byte	0
 3733 000c 0000     		.2byte	0
 3734 000e 0000     		.2byte	0
 3735 0010 00000000 		.4byte	.Ltext0
 3736 0014 90020000 		.4byte	.Letext0-.Ltext0
 3737 0018 00000000 		.4byte	.LFB275
 3738 001c 28000000 		.4byte	.LFE275-.LFB275
 3739 0020 00000000 		.4byte	0
 3740 0024 00000000 		.4byte	0
 3741              		.section	.debug_ranges,"",%progbits
 3742              	.Ldebug_ranges0:
 3743 0000 04000000 		.4byte	.LBB67
 3744 0004 0E000000 		.4byte	.LBE67
 3745 0008 14000000 		.4byte	.LBB88
 3746 000c 18000000 		.4byte	.LBE88
 3747 0010 1C000000 		.4byte	.LBB92
 3748 0014 20000000 		.4byte	.LBE92
 3749 0018 22000000 		.4byte	.LBB94
 3750 001c 36000000 		.4byte	.LBE94
 3751 0020 38000000 		.4byte	.LBB96
 3752 0024 40000000 		.4byte	.LBE96
 3753 0028 42000000 		.4byte	.LBB98
 3754 002c 46000000 		.4byte	.LBE98
ARM GAS  C:\msys64\tmp\cclifTvb.s 			page 67


 3755 0030 48000000 		.4byte	.LBB99
 3756 0034 4C000000 		.4byte	.LBE99
 3757 0038 00000000 		.4byte	0
 3758 003c 00000000 		.4byte	0
 3759 0040 26000000 		.4byte	.LBB69
 3760 0044 2E000000 		.4byte	.LBE69
 3761 0048 38000000 		.4byte	.LBB74
 3762 004c 40000000 		.4byte	.LBE74
 3763 0050 42000000 		.4byte	.LBB75
 3764 0054 46000000 		.4byte	.LBE75
 3765 0058 48000000 		.4byte	.LBB76
 3766 005c 4C000000 		.4byte	.LBE76
 3767 0060 00000000 		.4byte	0
 3768 0064 00000000 		.4byte	0
 3769 0068 12000000 		.4byte	.LBB83
 3770 006c 14000000 		.4byte	.LBE83
 3771 0070 20000000 		.4byte	.LBB93
 3772 0074 22000000 		.4byte	.LBE93
 3773 0078 36000000 		.4byte	.LBB95
 3774 007c 38000000 		.4byte	.LBE95
 3775 0080 40000000 		.4byte	.LBB97
 3776 0084 42000000 		.4byte	.LBE97
 3777 0088 00000000 		.4byte	0
 3778 008c 00000000 		.4byte	0
 3779 0090 18000000 		.4byte	.LBB89
 3780 0094 1C000000 		.4byte	.LBE89
 3781 0098 54000000 		.4byte	.LBB102
 3782 009c 9C000000 		.4byte	.LBE102
 3783 00a0 00000000 		.4byte	0
 3784 00a4 00000000 		.4byte	0
 3785 00a8 CC000000 		.4byte	.LBB104
 3786 00ac CE000000 		.4byte	.LBE104
 3787 00b0 E0000000 		.4byte	.LBB112
 3788 00b4 EC000000 		.4byte	.LBE112
 3789 00b8 F0000000 		.4byte	.LBB113
 3790 00bc F8000000 		.4byte	.LBE113
 3791 00c0 FA000000 		.4byte	.LBB114
 3792 00c4 FE000000 		.4byte	.LBE114
 3793 00c8 02010000 		.4byte	.LBB115
 3794 00cc 0E010000 		.4byte	.LBE115
 3795 00d0 12010000 		.4byte	.LBB121
 3796 00d4 22010000 		.4byte	.LBE121
 3797 00d8 26010000 		.4byte	.LBB123
 3798 00dc 2A010000 		.4byte	.LBE123
 3799 00e0 00000000 		.4byte	0
 3800 00e4 00000000 		.4byte	0
 3801 00e8 0E010000 		.4byte	.LBB116
 3802 00ec 12010000 		.4byte	.LBE116
 3803 00f0 22010000 		.4byte	.LBB122
 3804 00f4 26010000 		.4byte	.LBE122
 3805 00f8 2A010000 		.4byte	.LBB124
 3806 00fc 3A010000 		.4byte	.LBE124
 3807 0100 3E010000 		.4byte	.LBB125
 3808 0104 5E010000 		.4byte	.LBE125
 3809 0108 00000000 		.4byte	0
 3810 010c 00000000 		.4byte	0
 3811 0110 88010000 		.4byte	.LBB126
ARM GAS  C:\msys64\tmp\cclifTvb.s 			page 68


 3812 0114 8A010000 		.4byte	.LBE126
 3813 0118 EC010000 		.4byte	.LBB179
 3814 011c F0010000 		.4byte	.LBE179
 3815 0120 F4010000 		.4byte	.LBB180
 3816 0124 F8010000 		.4byte	.LBE180
 3817 0128 FA010000 		.4byte	.LBB181
 3818 012c 1A020000 		.4byte	.LBE181
 3819 0130 1E020000 		.4byte	.LBB182
 3820 0134 22020000 		.4byte	.LBE182
 3821 0138 00000000 		.4byte	0
 3822 013c 00000000 		.4byte	0
 3823 0140 02020000 		.4byte	.LBB128
 3824 0144 06020000 		.4byte	.LBE128
 3825 0148 0E020000 		.4byte	.LBB132
 3826 014c 1A020000 		.4byte	.LBE132
 3827 0150 1E020000 		.4byte	.LBB133
 3828 0154 22020000 		.4byte	.LBE133
 3829 0158 00000000 		.4byte	0
 3830 015c 00000000 		.4byte	0
 3831 0160 8E010000 		.4byte	.LBB138
 3832 0164 90010000 		.4byte	.LBE138
 3833 0168 9A010000 		.4byte	.LBB165
 3834 016c 9C010000 		.4byte	.LBE165
 3835 0170 A0010000 		.4byte	.LBB167
 3836 0174 A2010000 		.4byte	.LBE167
 3837 0178 00000000 		.4byte	0
 3838 017c 00000000 		.4byte	0
 3839 0180 98010000 		.4byte	.LBB142
 3840 0184 9A010000 		.4byte	.LBE142
 3841 0188 9C010000 		.4byte	.LBB166
 3842 018c A0010000 		.4byte	.LBE166
 3843 0190 B4010000 		.4byte	.LBB172
 3844 0194 B8010000 		.4byte	.LBE172
 3845 0198 BA010000 		.4byte	.LBB176
 3846 019c CC010000 		.4byte	.LBE176
 3847 01a0 D2010000 		.4byte	.LBB178
 3848 01a4 E4010000 		.4byte	.LBE178
 3849 01a8 00000000 		.4byte	0
 3850 01ac 00000000 		.4byte	0
 3851 01b0 98010000 		.4byte	.LBB145
 3852 01b4 9A010000 		.4byte	.LBE145
 3853 01b8 9C010000 		.4byte	.LBB150
 3854 01bc A0010000 		.4byte	.LBE150
 3855 01c0 B4010000 		.4byte	.LBB151
 3856 01c4 B8010000 		.4byte	.LBE151
 3857 01c8 BA010000 		.4byte	.LBB152
 3858 01cc C8010000 		.4byte	.LBE152
 3859 01d0 00000000 		.4byte	0
 3860 01d4 00000000 		.4byte	0
 3861 01d8 C8010000 		.4byte	.LBB153
 3862 01dc CC010000 		.4byte	.LBE153
 3863 01e0 D2010000 		.4byte	.LBB156
 3864 01e4 E4010000 		.4byte	.LBE156
 3865 01e8 00000000 		.4byte	0
 3866 01ec 00000000 		.4byte	0
 3867 01f0 A2010000 		.4byte	.LBB168
 3868 01f4 AA010000 		.4byte	.LBE168
ARM GAS  C:\msys64\tmp\cclifTvb.s 			page 69


 3869 01f8 AE010000 		.4byte	.LBB171
 3870 01fc B4010000 		.4byte	.LBE171
 3871 0200 00000000 		.4byte	0
 3872 0204 00000000 		.4byte	0
 3873 0208 B8010000 		.4byte	.LBB173
 3874 020c BA010000 		.4byte	.LBE173
 3875 0210 D0010000 		.4byte	.LBB177
 3876 0214 D2010000 		.4byte	.LBE177
 3877 0218 00000000 		.4byte	0
 3878 021c 00000000 		.4byte	0
 3879 0220 00000000 		.4byte	.Ltext0
 3880 0224 90020000 		.4byte	.Letext0
 3881 0228 00000000 		.4byte	.LFB275
 3882 022c 28000000 		.4byte	.LFE275
 3883 0230 00000000 		.4byte	0
 3884 0234 00000000 		.4byte	0
 3885              		.section	.debug_line,"",%progbits
 3886              	.Ldebug_line0:
 3887 0000 DD030000 		.section	.debug_str,"MS",%progbits,1
 3887      0200A401 
 3887      00000201 
 3887      FB0E0D00 
 3887      01010101 
 3888              	.LASF38:
 3889 0000 73657446 		.ascii	"setFOAP2\000"
 3889      4F415032 
 3889      00
 3890              	.LASF85:
 3891 0009 5F686F6F 		.ascii	"_hook_param\000"
 3891      6B5F7061 
 3891      72616D00 
 3892              	.LASF111:
 3893 0015 5F5A4E33 		.ascii	"_ZN3dsp6BiQuad6Coeffs2wcEff\000"
 3893      64737036 
 3893      42695175 
 3893      61643643 
 3893      6F656666 
 3894              	.LASF33:
 3895 0031 5F5A4E33 		.ascii	"_ZN3dsp6BiQuad6Coeffs7setFOLPEf\000"
 3895      64737036 
 3895      42695175 
 3895      61643643 
 3895      6F656666 
 3896              	.LASF40:
 3897 0051 73657453 		.ascii	"setSODC\000"
 3897      4F444300 
 3898              	.LASF64:
 3899 0059 70726F63 		.ascii	"process\000"
 3899      65737300 
 3900              	.LASF106:
 3901 0061 474E5520 		.ascii	"GNU C++11 5.4.1 20160919 (release) [ARM/embedded-5-"
 3901      432B2B31 
 3901      3120352E 
 3901      342E3120 
 3901      32303136 
 3902 0094 6272616E 		.ascii	"branch revision 240496] -mcpu=cortex-m4 -mthumb -mn"
 3902      63682072 
ARM GAS  C:\msys64\tmp\cclifTvb.s 			page 70


 3902      65766973 
 3902      696F6E20 
 3902      32343034 
 3903 00c7 6F2D7468 		.ascii	"o-thumb-interwork -mlittle-endian -mfloat-abi=hard "
 3903      756D622D 
 3903      696E7465 
 3903      72776F72 
 3903      6B202D6D 
 3904 00fa 2D6D6670 		.ascii	"-mfpu=fpv4-sp-d16 -g -Os -std=c++11 -fsingle-precis"
 3904      753D6670 
 3904      76342D73 
 3904      702D6431 
 3904      36202D67 
 3905 012d 696F6E2D 		.ascii	"ion-constant -fcheck-new -fno-rtti -fno-exceptions "
 3905      636F6E73 
 3905      74616E74 
 3905      202D6663 
 3905      6865636B 
 3906 0160 2D666E6F 		.ascii	"-fno-non-call-exceptions\000"
 3906      2D6E6F6E 
 3906      2D63616C 
 3906      6C2D6578 
 3906      63657074 
 3907              	.LASF1:
 3908 0179 756E7369 		.ascii	"unsigned int\000"
 3908      676E6564 
 3908      20696E74 
 3908      00
 3909              	.LASF99:
 3910 0186 62697472 		.ascii	"bitres_lut_f\000"
 3910      65735F6C 
 3910      75745F66 
 3910      00
 3911              	.LASF32:
 3912 0193 73657446 		.ascii	"setFOLP\000"
 3912      4F4C5000 
 3913              	.LASF7:
 3914 019b 5F5F696E 		.ascii	"__int32_t\000"
 3914      7433325F 
 3914      7400
 3915              	.LASF80:
 3916 01a5 706C6174 		.ascii	"platform\000"
 3916      666F726D 
 3916      00
 3917              	.LASF108:
 3918 01ae 433A5C75 		.ascii	"C:\\users\\bradl\\Desktop\\Code Projects\\korgfx\\K"
 3918      73657273 
 3918      5C627261 
 3918      646C5C44 
 3918      65736B74 
 3919 01db 6F726744 		.ascii	"orgDelayFXSet\\Delays\\platform\\minilogue-xd\\High"
 3919      656C6179 
 3919      46585365 
 3919      745C4465 
 3919      6C617973 
 3920 020a 50617373 		.ascii	"PassFilter\000"
 3920      46696C74 
ARM GAS  C:\msys64\tmp\cclifTvb.s 			page 71


 3920      657200
 3921              	.LASF71:
 3922 0215 66785F74 		.ascii	"fx_tanpif\000"
 3922      616E7069 
 3922      6600
 3923              	.LASF41:
 3924 021f 5F5A4E33 		.ascii	"_ZN3dsp6BiQuad6Coeffs7setSODCEf\000"
 3924      64737036 
 3924      42695175 
 3924      61643643 
 3924      6F656666 
 3925              	.LASF94:
 3926 023f 74616E70 		.ascii	"tanpi_lut_f\000"
 3926      695F6C75 
 3926      745F6600 
 3927              	.LASF53:
 3928 024b 5F5A4E33 		.ascii	"_ZN3dsp6BiQuad6Coeffs8setSOAP2Eff\000"
 3928      64737036 
 3928      42695175 
 3928      61643643 
 3928      6F656666 
 3929              	.LASF67:
 3930 026d 636C616D 		.ascii	"clampfsel\000"
 3930      70667365 
 3930      6C00
 3931              	.LASF15:
 3932 0277 75696E74 		.ascii	"uint32_t\000"
 3932      33325F74 
 3932      00
 3933              	.LASF76:
 3934 0280 76616C66 		.ascii	"valf\000"
 3934      00
 3935              	.LASF0:
 3936 0285 666C6F61 		.ascii	"float\000"
 3936      7400
 3937              	.LASF86:
 3938 028b 696E6465 		.ascii	"index\000"
 3938      7800
 3939              	.LASF22:
 3940 0291 6B5F7573 		.ascii	"k_user_module_delfx\000"
 3940      65725F6D 
 3940      6F64756C 
 3940      655F6465 
 3940      6C667800 
 3941              	.LASF12:
 3942 02a5 6C6F6E67 		.ascii	"long long unsigned int\000"
 3942      206C6F6E 
 3942      6720756E 
 3942      7369676E 
 3942      65642069 
 3943              	.LASF31:
 3944 02bc 5F5A4E33 		.ascii	"_ZN3dsp6BiQuad6Coeffs7setFODCEf\000"
 3944      64737036 
 3944      42695175 
 3944      61643643 
 3944      6F656666 
 3945              	.LASF51:
ARM GAS  C:\msys64\tmp\cclifTvb.s 			page 72


 3946 02dc 5F5A4E33 		.ascii	"_ZN3dsp6BiQuad6Coeffs8setSOAP1Eff\000"
 3946      64737036 
 3946      42695175 
 3946      61643643 
 3946      6F656666 
 3947              	.LASF27:
 3948 02fe 73657450 		.ascii	"setPoleHP\000"
 3948      6F6C6548 
 3948      5000
 3949              	.LASF87:
 3950 0308 76616C75 		.ascii	"value\000"
 3950      6500
 3951              	.LASF77:
 3952 030e 5F5F696E 		.ascii	"__initialize_p\000"
 3952      69746961 
 3952      6C697A65 
 3952      5F7000
 3953              	.LASF23:
 3954 031d 6B5F7573 		.ascii	"k_user_module_revfx\000"
 3954      65725F6D 
 3954      6F64756C 
 3954      655F7265 
 3954      76667800 
 3955              	.LASF44:
 3956 0331 73657453 		.ascii	"setSOHP\000"
 3956      4F485000 
 3957              	.LASF78:
 3958 0339 5F5F7072 		.ascii	"__priority\000"
 3958      696F7269 
 3958      747900
 3959              	.LASF36:
 3960 0344 73657446 		.ascii	"setFOAP\000"
 3960      4F415000 
 3961              	.LASF60:
 3962 034c 5F5A4E33 		.ascii	"_ZN3dsp6BiQuadC4Ev\000"
 3962      64737036 
 3962      42695175 
 3962      61644334 
 3962      457600
 3963              	.LASF73:
 3964 035f 636C6970 		.ascii	"clipminmaxf\000"
 3964      6D696E6D 
 3964      61786600 
 3965              	.LASF61:
 3966 036b 5F5A4E33 		.ascii	"_ZN3dsp6BiQuad10process_soEf\000"
 3966      64737036 
 3966      42695175 
 3966      61643130 
 3966      70726F63 
 3967              	.LASF105:
 3968 0388 6375746F 		.ascii	"cutoff\000"
 3968      666600
 3969              	.LASF70:
 3970 038f 716B325F 		.ascii	"qk2_k_q_r\000"
 3970      6B5F715F 
 3970      7200
 3971              	.LASF18:
ARM GAS  C:\msys64\tmp\cclifTvb.s 			page 73


 3972 0399 63686172 		.ascii	"char\000"
 3972      00
 3973              	.LASF96:
 3974 039e 706F7732 		.ascii	"pow2_lut_f\000"
 3974      5F6C7574 
 3974      5F6600
 3975              	.LASF90:
 3976 03a9 6B5F6678 		.ascii	"k_fx_api_platform\000"
 3976      5F617069 
 3976      5F706C61 
 3976      74666F72 
 3976      6D00
 3977              	.LASF56:
 3978 03bb 42695175 		.ascii	"BiQuad\000"
 3978      616400
 3979              	.LASF113:
 3980 03c2 5F5A4E33 		.ascii	"_ZN3dsp6BiQuad6Coeffs8setSOAP3Eff\000"
 3980      64737036 
 3980      42695175 
 3980      61643643 
 3980      6F656666 
 3981              	.LASF84:
 3982 03e4 6672616D 		.ascii	"frames\000"
 3982      657300
 3983              	.LASF98:
 3984 03eb 73636865 		.ascii	"schetzen_lut_f\000"
 3984      747A656E 
 3984      5F6C7574 
 3984      5F6600
 3985              	.LASF13:
 3986 03fa 75696E74 		.ascii	"uint8_t\000"
 3986      385F7400 
 3987              	.LASF93:
 3988 0402 6C6F675F 		.ascii	"log_lut_f\000"
 3988      6C75745F 
 3988      6600
 3989              	.LASF49:
 3990 040c 73657453 		.ascii	"setSOAP1\000"
 3990      4F415031 
 3990      00
 3991              	.LASF45:
 3992 0415 5F5A4E33 		.ascii	"_ZN3dsp6BiQuad6Coeffs7setSOHPEff\000"
 3992      64737036 
 3992      42695175 
 3992      61643643 
 3992      6F656666 
 3993              	.LASF112:
 3994 0436 73657453 		.ascii	"setSOAP3\000"
 3994      4F415033 
 3994      00
 3995              	.LASF11:
 3996 043f 6C6F6E67 		.ascii	"long long int\000"
 3996      206C6F6E 
 3996      6720696E 
 3996      7400
 3997              	.LASF104:
 3998 044d 7265736F 		.ascii	"resonance\000"
ARM GAS  C:\msys64\tmp\cclifTvb.s 			page 74


 3998      6E616E63 
 3998      6500
 3999              	.LASF82:
 4000 0457 7375625F 		.ascii	"sub_xn\000"
 4000      786E00
 4001              	.LASF25:
 4002 045e 6B5F6E75 		.ascii	"k_num_user_modules\000"
 4002      6D5F7573 
 4002      65725F6D 
 4002      6F64756C 
 4002      657300
 4003              	.LASF75:
 4004 0471 5F5A3861 		.ascii	"_Z8absolutef\000"
 4004      62736F6C 
 4004      75746566 
 4004      00
 4005              	.LASF29:
 4006 047e 5F5A4E33 		.ascii	"_ZN3dsp6BiQuad6Coeffs9setPoleHPEf\000"
 4006      64737036 
 4006      42695175 
 4006      61643643 
 4006      6F656666 
 4007              	.LASF30:
 4008 04a0 73657446 		.ascii	"setFODC\000"
 4008      4F444300 
 4009              	.LASF26:
 4010 04a8 73657450 		.ascii	"setPoleLP\000"
 4010      6F6C654C 
 4010      5000
 4011              	.LASF89:
 4012 04b2 72616E67 		.ascii	"range\000"
 4012      6500
 4013              	.LASF47:
 4014 04b8 5F5A4E33 		.ascii	"_ZN3dsp6BiQuad6Coeffs7setSOBPEff\000"
 4014      64737036 
 4014      42695175 
 4014      61643643 
 4014      6F656666 
 4015              	.LASF88:
 4016 04d9 696E7665 		.ascii	"invertedValf\000"
 4016      72746564 
 4016      56616C66 
 4016      00
 4017              	.LASF42:
 4018 04e6 73657453 		.ascii	"setSOLP\000"
 4018      4F4C5000 
 4019              	.LASF83:
 4020 04ee 7375625F 		.ascii	"sub_yn\000"
 4020      796E00
 4021              	.LASF24:
 4022 04f5 6B5F7573 		.ascii	"k_user_module_osc\000"
 4022      65725F6D 
 4022      6F64756C 
 4022      655F6F73 
 4022      6300
 4023              	.LASF16:
 4024 0507 6C6F6E67 		.ascii	"long double\000"
ARM GAS  C:\msys64\tmp\cclifTvb.s 			page 75


 4024      20646F75 
 4024      626C6500 
 4025              	.LASF69:
 4026 0513 74686973 		.ascii	"this\000"
 4026      00
 4027              	.LASF95:
 4028 0518 73717274 		.ascii	"sqrtm2log_lut_f\000"
 4028      6D326C6F 
 4028      675F6C75 
 4028      745F6600 
 4029              	.LASF114:
 4030 0528 5F5F7374 		.ascii	"__static_initialization_and_destruction_0\000"
 4030      61746963 
 4030      5F696E69 
 4030      7469616C 
 4030      697A6174 
 4031              	.LASF55:
 4032 0552 6D436F65 		.ascii	"mCoeffs\000"
 4032      66667300 
 4033              	.LASF39:
 4034 055a 5F5A4E33 		.ascii	"_ZN3dsp6BiQuad6Coeffs8setFOAP2Ef\000"
 4034      64737036 
 4034      42695175 
 4034      61643643 
 4034      6F656666 
 4035              	.LASF81:
 4036 057b 5F686F6F 		.ascii	"_hook_process\000"
 4036      6B5F7072 
 4036      6F636573 
 4036      7300
 4037              	.LASF79:
 4038 0589 5F686F6F 		.ascii	"_hook_init\000"
 4038      6B5F696E 
 4038      697400
 4039              	.LASF4:
 4040 0594 73686F72 		.ascii	"short int\000"
 4040      7420696E 
 4040      7400
 4041              	.LASF97:
 4042 059e 63756269 		.ascii	"cubicsat_lut_f\000"
 4042      63736174 
 4042      5F6C7574 
 4042      5F6600
 4043              	.LASF8:
 4044 05ad 6C6F6E67 		.ascii	"long int\000"
 4044      20696E74 
 4044      00
 4045              	.LASF91:
 4046 05b6 6B5F6678 		.ascii	"k_fx_api_version\000"
 4046      5F617069 
 4046      5F766572 
 4046      73696F6E 
 4046      00
 4047              	.LASF21:
 4048 05c7 6B5F7573 		.ascii	"k_user_module_modfx\000"
 4048      65725F6D 
 4048      6F64756C 
ARM GAS  C:\msys64\tmp\cclifTvb.s 			page 76


 4048      655F6D6F 
 4048      64667800 
 4049              	.LASF37:
 4050 05db 5F5A4E33 		.ascii	"_ZN3dsp6BiQuad6Coeffs7setFOAPEf\000"
 4050      64737036 
 4050      42695175 
 4050      61643643 
 4050      6F656666 
 4051              	.LASF74:
 4052 05fb 6162736F 		.ascii	"absolute\000"
 4052      6C757465 
 4052      00
 4053              	.LASF58:
 4054 0604 5F5A4E33 		.ascii	"_ZN3dsp6BiQuad5flushEv\000"
 4054      64737036 
 4054      42695175 
 4054      61643566 
 4054      6C757368 
 4055              	.LASF50:
 4056 061b 5F5A4E33 		.ascii	"_ZN3dsp6BiQuad6Coeffs7setSOBREff\000"
 4056      64737036 
 4056      42695175 
 4056      61643643 
 4056      6F656666 
 4057              	.LASF59:
 4058 063c 70726F63 		.ascii	"process_so\000"
 4058      6573735F 
 4058      736F00
 4059              	.LASF107:
 4060 0647 2E2F7372 		.ascii	"./src/HPF.cpp\000"
 4060      632F4850 
 4060      462E6370 
 4060      7000
 4061              	.LASF6:
 4062 0655 5F5F7569 		.ascii	"__uint8_t\000"
 4062      6E74385F 
 4062      7400
 4063              	.LASF52:
 4064 065f 73657453 		.ascii	"setSOAP2\000"
 4064      4F415032 
 4064      00
 4065              	.LASF66:
 4066 0668 6673656C 		.ascii	"fsel\000"
 4066      00
 4067              	.LASF57:
 4068 066d 666C7573 		.ascii	"flush\000"
 4068      6800
 4069              	.LASF115:
 4070 0673 5F474C4F 		.ascii	"_GLOBAL__sub_I_curSampleL\000"
 4070      42414C5F 
 4070      5F737562 
 4070      5F495F63 
 4070      75725361 
 4071              	.LASF72:
 4072 068d 69647866 		.ascii	"idxf\000"
 4072      00
 4073              	.LASF17:
ARM GAS  C:\msys64\tmp\cclifTvb.s 			page 77


 4074 0692 73697A65 		.ascii	"sizetype\000"
 4074      74797065 
 4074      00
 4075              	.LASF10:
 4076 069b 6C6F6E67 		.ascii	"long unsigned int\000"
 4076      20756E73 
 4076      69676E65 
 4076      6420696E 
 4076      7400
 4077              	.LASF92:
 4078 06ad 77745F73 		.ascii	"wt_sine_lut_f\000"
 4078      696E655F 
 4078      6C75745F 
 4078      6600
 4079              	.LASF14:
 4080 06bb 696E7433 		.ascii	"int32_t\000"
 4080      325F7400 
 4081              	.LASF35:
 4082 06c3 5F5A4E33 		.ascii	"_ZN3dsp6BiQuad6Coeffs7setFOHPEf\000"
 4082      64737036 
 4082      42695175 
 4082      61643643 
 4082      6F656666 
 4083              	.LASF68:
 4084 06e3 6C696E69 		.ascii	"linintf\000"
 4084      6E746600 
 4085              	.LASF65:
 4086 06eb 5F5A4E33 		.ascii	"_ZN3dsp6BiQuad7processEf\000"
 4086      64737036 
 4086      42695175 
 4086      61643770 
 4086      726F6365 
 4087              	.LASF34:
 4088 0704 73657446 		.ascii	"setFOHP\000"
 4088      4F485000 
 4089              	.LASF3:
 4090 070c 756E7369 		.ascii	"unsigned char\000"
 4090      676E6564 
 4090      20636861 
 4090      7200
 4091              	.LASF102:
 4092 071a 66696C74 		.ascii	"filter_l\000"
 4092      65725F6C 
 4092      00
 4093              	.LASF9:
 4094 0723 5F5F7569 		.ascii	"__uint32_t\000"
 4094      6E743332 
 4094      5F7400
 4095              	.LASF103:
 4096 072e 66696C74 		.ascii	"filter_r\000"
 4096      65725F72 
 4096      00
 4097              	.LASF100:
 4098 0737 63757253 		.ascii	"curSampleL\000"
 4098      616D706C 
 4098      654C00
 4099              	.LASF20:
ARM GAS  C:\msys64\tmp\cclifTvb.s 			page 78


 4100 0742 6B5F7573 		.ascii	"k_user_module_global\000"
 4100      65725F6D 
 4100      6F64756C 
 4100      655F676C 
 4100      6F62616C 
 4101              	.LASF101:
 4102 0757 63757253 		.ascii	"curSampleR\000"
 4102      616D706C 
 4102      655200
 4103              	.LASF109:
 4104 0762 6465636C 		.ascii	"decltype(nullptr)\000"
 4104      74797065 
 4104      286E756C 
 4104      6C707472 
 4104      2900
 4105              	.LASF28:
 4106 0774 5F5A4E33 		.ascii	"_ZN3dsp6BiQuad6Coeffs9setPoleLPEf\000"
 4106      64737036 
 4106      42695175 
 4106      61643643 
 4106      6F656666 
 4107              	.LASF62:
 4108 0796 70726F63 		.ascii	"process_fo\000"
 4108      6573735F 
 4108      666F00
 4109              	.LASF63:
 4110 07a1 5F5A4E33 		.ascii	"_ZN3dsp6BiQuad10process_foEf\000"
 4110      64737036 
 4110      42695175 
 4110      61643130 
 4110      70726F63 
 4111              	.LASF54:
 4112 07be 436F6566 		.ascii	"Coeffs\000"
 4112      667300
 4113              	.LASF2:
 4114 07c5 7369676E 		.ascii	"signed char\000"
 4114      65642063 
 4114      68617200 
 4115              	.LASF5:
 4116 07d1 73686F72 		.ascii	"short unsigned int\000"
 4116      7420756E 
 4116      7369676E 
 4116      65642069 
 4116      6E7400
 4117              	.LASF46:
 4118 07e4 73657453 		.ascii	"setSOBP\000"
 4118      4F425000 
 4119              	.LASF48:
 4120 07ec 73657453 		.ascii	"setSOBR\000"
 4120      4F425200 
 4121              	.LASF19:
 4122 07f4 646F7562 		.ascii	"double\000"
 4122      6C6500
 4123              	.LASF110:
 4124 07fb 5F5A4E33 		.ascii	"_ZN3dsp6BiQuad6CoeffsC4Ev\000"
 4124      64737036 
 4124      42695175 
ARM GAS  C:\msys64\tmp\cclifTvb.s 			page 79


 4124      61643643 
 4124      6F656666 
 4125              	.LASF43:
 4126 0815 5F5A4E33 		.ascii	"_ZN3dsp6BiQuad6Coeffs7setSOLPEff\000"
 4126      64737036 
 4126      42695175 
 4126      61643643 
 4126      6F656666 
 4127              		.ident	"GCC: (GNU Tools for ARM Embedded Processors) 5.4.1 20160919 (release) [ARM/embedded-5-bran
ARM GAS  C:\msys64\tmp\cclifTvb.s 			page 80


DEFINED SYMBOLS
                            *ABS*:00000000 HPF.cpp
C:\msys64\tmp\cclifTvb.s:21     .text:00000000 $t
C:\msys64\tmp\cclifTvb.s:26     .text:00000000 _hook_init
C:\msys64\tmp\cclifTvb.s:207    .text:000000a8 $d
C:\msys64\tmp\cclifTvb.s:214    .text:000000b8 $t
C:\msys64\tmp\cclifTvb.s:219    .text:000000b8 _Z8absolutef
C:\msys64\tmp\cclifTvb.s:244    .text:000000c8 _hook_process
C:\msys64\tmp\cclifTvb.s:393    .text:0000016c $d
C:\msys64\tmp\cclifTvb.s:398    .text:00000170 $t
C:\msys64\tmp\cclifTvb.s:403    .text:00000170 _hook_param
C:\msys64\tmp\cclifTvb.s:678    .text:00000274 $d
C:\msys64\tmp\cclifTvb.s:689    .text.startup:00000000 $t
C:\msys64\tmp\cclifTvb.s:693    .text.startup:00000000 _GLOBAL__sub_I_curSampleL
C:\msys64\tmp\cclifTvb.s:744    .text.startup:00000024 $d
C:\msys64\tmp\cclifTvb.s:752    .init_array:00000000 $d
C:\msys64\tmp\cclifTvb.s:763    .data:00000000 cutoff
C:\msys64\tmp\cclifTvb.s:767    .data:00000004 resonance
C:\msys64\tmp\cclifTvb.s:786    .bss:0000003c curSampleR
C:\msys64\tmp\cclifTvb.s:782    .bss:00000038 curSampleL
C:\msys64\tmp\cclifTvb.s:759    .data:00000000 $d
C:\msys64\tmp\cclifTvb.s:770    .bss:00000000 $d
C:\msys64\tmp\cclifTvb.s:774    .bss:00000000 _ZL8filter_l
C:\msys64\tmp\cclifTvb.s:778    .bss:0000001c _ZL8filter_r
                     .debug_frame:00000010 $d

UNDEFINED SYMBOLS
tanpi_lut_f
