ARM GAS  C:\msys64\tmp\ccKSWDID.s 			page 1


   1              		.syntax unified
   2              		.cpu cortex-m4
   3              		.eabi_attribute 27, 1
   4              		.eabi_attribute 28, 1
   5              		.fpu fpv4-sp-d16
   6              		.eabi_attribute 20, 1
   7              		.eabi_attribute 21, 1
   8              		.eabi_attribute 23, 3
   9              		.eabi_attribute 24, 1
  10              		.eabi_attribute 25, 1
  11              		.eabi_attribute 26, 1
  12              		.eabi_attribute 30, 4
  13              		.eabi_attribute 34, 1
  14              		.eabi_attribute 18, 4
  15              		.thumb
  16              		.syntax unified
  17              		.file	"HPF.cpp"
  18              		.text
  19              	.Ltext0:
  20              		.cfi_sections	.debug_frame
  21              		.align	1
  22              		.global	_hook_init
  23              		.thumb
  24              		.thumb_func
  25              		.type	_hook_init, %function
  26              	_hook_init:
  27              	.LFB270:
  28              		.file 1 "./src/HPF.cpp"
  29              		.loc 1 15 0
  30              		.cfi_startproc
  31              		@ args = 0, pretend = 0, frame = 0
  32              		@ frame_needed = 0, uses_anonymous_args = 0
  33              	.LVL0:
  34 0000 30B5     		push	{r4, r5, lr}
  35              		.cfi_def_cfa_offset 12
  36              		.cfi_offset 4, -12
  37              		.cfi_offset 5, -8
  38              		.cfi_offset 14, -4
  39              		.loc 1 17 0
  40 0002 2B4C     		ldr	r4, .L2
  41              	.LBB55:
  42              	.LBB56:
  43              		.file 2 "./inc/fx_api.h"
  44              		.loc 2 234 0
  45 0004 9FED2B7A 		vldr.32	s14, .L2+4
  46 0008 D4ED007A 		vldr.32	s15, [r4]
  47              		.loc 2 236 0
  48 000c 2A49     		ldr	r1, .L2+8
  49              	.LVL1:
  50              	.LBE56:
  51              	.LBE55:
  52              	.LBB71:
  53              	.LBB72:
  54              		.file 3 "../inc/dsp/biquad.hpp"
  55              		.loc 3 356 0
  56 000e 2B4B     		ldr	r3, .L2+12
  57              	.LBE72:
ARM GAS  C:\msys64\tmp\ccKSWDID.s 			page 2


  58              	.LBE71:
  59              	.LBB76:
  60              	.LBB65:
  61              		.loc 2 234 0
  62 0010 27EE877A 		vmul.f32	s14, s15, s14
  63              	.LBE65:
  64              	.LBE76:
  65              	.LBB77:
  66              	.LBB78:
  67              		.loc 3 236 0
  68 0014 B7EE005A 		vmov.f32	s10, #1.0e+0
  69              	.LBE78:
  70              	.LBE77:
  71              	.LBB81:
  72              	.LBB66:
  73              		.loc 2 235 0
  74 0018 FCEEC77A 		vcvt.u32.f32	s15, s14
  75              	.LBE66:
  76              	.LBE81:
  77              	.LBB82:
  78              	.LBB73:
  79              		.loc 3 356 0
  80 001c 0022     		movs	r2, #0
  81              	.LBE73:
  82              	.LBE82:
  83              	.LBB83:
  84              	.LBB67:
  85              		.loc 2 235 0
  86 001e 17EE900A 		vmov	r0, s15	@ int
  87              	.LVL2:
  88              	.LBB57:
  89              	.LBB58:
  90              		.file 4 "../inc/utils/float_math.h"
  91              		.loc 4 826 0
  92 0022 06EE900A 		vmov	s13, r0	@ int
  93 0026 F8EE666A 		vcvt.f32.u32	s13, s13
  94              	.LBE58:
  95              	.LBE57:
  96              		.loc 2 236 0
  97 002a 01EB8005 		add	r5, r1, r0, lsl #2
  98 002e D5ED007A 		vldr.32	s15, [r5]
  99              	.LBE67:
 100              	.LBE83:
 101              	.LBB84:
 102              	.LBB74:
 103              		.loc 3 356 0
 104 0032 9A61     		str	r2, [r3, #24]	@ float
 105              	.LBE74:
 106              	.LBE84:
 107              	.LBB85:
 108              	.LBB68:
 109              	.LBB62:
 110              	.LBB59:
 111              		.loc 4 826 0
 112 0034 37EE667A 		vsub.f32	s14, s14, s13
 113 0038 D5ED016A 		vldr.32	s13, [r5, #4]
 114              	.LBE59:
ARM GAS  C:\msys64\tmp\ccKSWDID.s 			page 3


 115              	.LBE62:
 116              	.LBE68:
 117              	.LBE85:
 118              	.LBB86:
 119              	.LBB75:
 120              		.loc 3 356 0
 121 003c 5A61     		str	r2, [r3, #20]	@ float
 122              	.LVL3:
 123              	.LBE75:
 124              	.LBE86:
 125              	.LBB87:
 126              	.LBB69:
 127              	.LBB63:
 128              	.LBB60:
 129              		.loc 4 826 0
 130 003e 76EEE76A 		vsub.f32	s13, s13, s15
 131              	.LBE60:
 132              	.LBE63:
 133              	.LBE69:
 134              	.LBE87:
 135              		.loc 1 19 0
 136 0042 03F11C05 		add	r5, r3, #28
 137              	.LBB88:
 138              	.LBB70:
 139              	.LBB64:
 140              	.LBB61:
 141              		.loc 4 826 0
 142 0046 E7EE267A 		vfma.f32	s15, s14, s13
 143              	.LVL4:
 144              	.LBE61:
 145              	.LBE64:
 146              	.LBE70:
 147              	.LBE88:
 148              	.LBB89:
 149              	.LBB90:
 150              		.loc 3 356 0
 151 004a 5A63     		str	r2, [r3, #52]	@ float
 152 004c 1A63     		str	r2, [r3, #48]	@ float
 153              	.LBE90:
 154              	.LBE89:
 155              		.loc 1 17 0
 156 004e D4ED016A 		vldr.32	s13, [r4, #4]
 157              	.LVL5:
 158              	.LBB91:
 159              	.LBB79:
 160              		.loc 3 235 0
 161 0052 66EEA75A 		vmul.f32	s11, s13, s15
 162              	.LVL6:
 163              		.loc 3 236 0
 164 0056 B0EE677A 		vmov.f32	s14, s15
 165 005a A5EEA77A 		vfma.f32	s14, s11, s15
 166              	.LBE79:
 167              	.LBE91:
 168              		.loc 1 19 0
 169 005e 1C46     		mov	r4, r3
 170              	.LBB92:
 171              	.LBB80:
ARM GAS  C:\msys64\tmp\ccKSWDID.s 			page 4


 172              		.loc 3 236 0
 173 0060 37EE267A 		vadd.f32	s14, s14, s13
 174 0064 85EE076A 		vdiv.f32	s12, s10, s14
 175              	.LVL7:
 176              		.loc 3 238 0
 177 0068 B8EE005A 		vmov.f32	s10, #-2.0e+0
 178              		.loc 3 237 0
 179 006c 26EE867A 		vmul.f32	s14, s13, s12
 180 0070 83ED027A 		vstr.32	s14, [r3, #8]
 181 0074 83ED007A 		vstr.32	s14, [r3]
 182              		.loc 3 238 0
 183 0078 27EE057A 		vmul.f32	s14, s14, s10
 184 007c 83ED017A 		vstr.32	s14, [r3, #4]
 185              		.loc 3 239 0
 186 0080 B0EE667A 		vmov.f32	s14, s13
 187 0084 95EEA77A 		vfnms.f32	s14, s11, s15
 188              		.loc 3 240 0
 189 0088 D5EEA77A 		vfnms.f32	s15, s11, s15
 190              	.LVL8:
 191              		.loc 3 239 0
 192 008c 27EE067A 		vmul.f32	s14, s14, s12
 193              		.loc 3 240 0
 194 0090 77EEA67A 		vadd.f32	s15, s15, s13
 195              		.loc 3 239 0
 196 0094 37EE077A 		vadd.f32	s14, s14, s14
 197              		.loc 3 240 0
 198 0098 67EE867A 		vmul.f32	s15, s15, s12
 199              		.loc 3 239 0
 200 009c 83ED037A 		vstr.32	s14, [r3, #12]
 201              		.loc 3 240 0
 202 00a0 C3ED047A 		vstr.32	s15, [r3, #16]
 203              	.LVL9:
 204              	.LBE80:
 205              	.LBE92:
 206              		.loc 1 19 0
 207 00a4 0FCC     		ldmia	r4!, {r0, r1, r2, r3}
 208 00a6 0FC5     		stmia	r5!, {r0, r1, r2, r3}
 209 00a8 2368     		ldr	r3, [r4]
 210 00aa 2B60     		str	r3, [r5]
 211 00ac 30BD     		pop	{r4, r5, pc}
 212              	.L3:
 213 00ae 00BF     		.align	2
 214              	.L2:
 215 00b0 00000000 		.word	.LANCHOR1
 216 00b4 BC9C0244 		.word	1141021884
 217 00b8 00000000 		.word	tanpi_lut_f
 218 00bc 00000000 		.word	.LANCHOR0
 219              		.cfi_endproc
 220              	.LFE270:
 221              		.size	_hook_init, .-_hook_init
 222              		.align	1
 223              		.global	_Z8absolutef
 224              		.thumb
 225              		.thumb_func
 226              		.type	_Z8absolutef, %function
 227              	_Z8absolutef:
 228              	.LFB271:
ARM GAS  C:\msys64\tmp\ccKSWDID.s 			page 5


 229              		.loc 1 23 0
 230              		.cfi_startproc
 231              		@ args = 0, pretend = 0, frame = 0
 232              		@ frame_needed = 0, uses_anonymous_args = 0
 233              		@ link register save eliminated.
 234              	.LVL10:
 235              		.loc 1 24 0
 236 00c0 B5EEC00A 		vcmpe.f32	s0, #0
 237 00c4 F1EE10FA 		vmrs	APSR_nzcv, FPSCR
 238              		.loc 1 25 0
 239 00c8 48BF     		it	mi
 240 00ca B1EE400A 		vnegmi.f32	s0, s0
 241              	.LVL11:
 242              		.loc 1 27 0
 243 00ce 7047     		bx	lr
 244              		.cfi_endproc
 245              	.LFE271:
 246              		.size	_Z8absolutef, .-_Z8absolutef
 247              		.align	1
 248              		.global	_hook_process
 249              		.thumb
 250              		.thumb_func
 251              		.type	_hook_process, %function
 252              	_hook_process:
 253              	.LFB272:
 254              		.loc 1 32 0
 255              		.cfi_startproc
 256              		@ args = 4, pretend = 0, frame = 0
 257              		@ frame_needed = 0, uses_anonymous_args = 0
 258              	.LVL12:
 259 00d0 30B5     		push	{r4, r5, lr}
 260              		.cfi_def_cfa_offset 12
 261              		.cfi_offset 4, -12
 262              		.cfi_offset 5, -8
 263              		.cfi_offset 14, -4
 264              		.loc 1 32 0
 265 00d2 039D     		ldr	r5, [sp, #12]
 266              	.LBB93:
 267              	.LBB94:
 268              	.LBB95:
 269              		.loc 3 368 0
 270 00d4 274B     		ldr	r3, .L15
 271              	.LVL13:
 272              	.LBE95:
 273              	.LBE94:
 274              		.loc 1 33 0
 275 00d6 0022     		movs	r2, #0
 276              	.LVL14:
 277              	.L12:
 278              		.loc 1 33 0 is_stmt 0 discriminator 3
 279 00d8 AA42     		cmp	r2, r5
 280 00da 00F10800 		add	r0, r0, #8
 281              	.LVL15:
 282 00de 01F10801 		add	r1, r1, #8
 283 00e2 46D0     		beq	.L10
 284              	.LVL16:
 285              		.loc 1 35 0 is_stmt 1 discriminator 2
ARM GAS  C:\msys64\tmp\ccKSWDID.s 			page 6


 286 00e4 50ED026A 		vldr.32	s13, [r0, #-8]
 287              	.LVL17:
 288              	.LBB102:
 289              	.LBB96:
 290              		.loc 3 368 0 discriminator 2
 291 00e8 93ED007A 		vldr.32	s14, [r3]
 292 00ec D3ED057A 		vldr.32	s15, [r3, #20]
 293              		.loc 3 371 0 discriminator 2
 294 00f0 93ED015A 		vldr.32	s10, [r3, #4]
 295              	.LBE96:
 296              	.LBE102:
 297              		.loc 1 36 0 discriminator 2
 298 00f4 10ED016A 		vldr.32	s12, [r0, #-4]
 299              	.LVL18:
 300              	.LBB103:
 301              	.LBB97:
 302              		.loc 3 370 0 discriminator 2
 303 00f8 D3ED025A 		vldr.32	s11, [r3, #8]
 304              		.loc 3 368 0 discriminator 2
 305 00fc E6EE877A 		vfma.f32	s15, s13, s14
 306              	.LVL19:
 307              	.LBE97:
 308              	.LBE103:
 309              		.loc 1 33 0 discriminator 2
 310 0100 0132     		adds	r2, r2, #1
 311              	.LVL20:
 312              	.LBB104:
 313              	.LBB98:
 314              		.loc 3 371 0 discriminator 2
 315 0102 93ED067A 		vldr.32	s14, [r3, #24]
 316              	.LBE98:
 317              	.LBE104:
 318              		.loc 1 38 0 discriminator 2
 319 0106 C3ED0E7A 		vstr.32	s15, [r3, #56]
 320              	.LBB105:
 321              	.LBB99:
 322              		.loc 3 371 0 discriminator 2
 323 010a A6EE857A 		vfma.f32	s14, s13, s10
 324 010e 93ED035A 		vldr.32	s10, [r3, #12]
 325 0112 A7EEC57A 		vfms.f32	s14, s15, s10
 326              	.LBE99:
 327              	.LBE105:
 328              	.LBB106:
 329              	.LBB107:
 330 0116 93ED085A 		vldr.32	s10, [r3, #32]
 331              	.LBE107:
 332              	.LBE106:
 333              	.LBB111:
 334              	.LBB100:
 335 011a 83ED057A 		vstr.32	s14, [r3, #20]
 336              		.loc 3 372 0 discriminator 2
 337 011e 93ED047A 		vldr.32	s14, [r3, #16]
 338 0122 27EE677A 		vnmul.f32	s14, s14, s15
 339 0126 A6EEA57A 		vfma.f32	s14, s13, s11
 340              	.LBE100:
 341              	.LBE111:
 342              	.LBB112:
ARM GAS  C:\msys64\tmp\ccKSWDID.s 			page 7


 343              	.LBB108:
 344              		.loc 3 368 0 discriminator 2
 345 012a D3ED076A 		vldr.32	s13, [r3, #28]
 346              	.LVL21:
 347              	.LBE108:
 348              	.LBE112:
 349              	.LBB113:
 350              	.LBB101:
 351              		.loc 3 372 0 discriminator 2
 352 012e 83ED067A 		vstr.32	s14, [r3, #24]
 353              	.LVL22:
 354              	.LBE101:
 355              	.LBE113:
 356              	.LBB114:
 357              	.LBB109:
 358              		.loc 3 368 0 discriminator 2
 359 0132 93ED0C7A 		vldr.32	s14, [r3, #48]
 360              		.loc 3 370 0 discriminator 2
 361 0136 D3ED095A 		vldr.32	s11, [r3, #36]
 362              		.loc 3 368 0 discriminator 2
 363 013a A6EE267A 		vfma.f32	s14, s12, s13
 364              	.LVL23:
 365              		.loc 3 371 0 discriminator 2
 366 013e D3ED0D6A 		vldr.32	s13, [r3, #52]
 367              	.LBE109:
 368              	.LBE114:
 369              		.loc 1 39 0 discriminator 2
 370 0142 83ED0F7A 		vstr.32	s14, [r3, #60]
 371              	.LBB115:
 372              	.LBB110:
 373              		.loc 3 371 0 discriminator 2
 374 0146 E6EE056A 		vfma.f32	s13, s12, s10
 375 014a 93ED0A5A 		vldr.32	s10, [r3, #40]
 376 014e E7EE456A 		vfms.f32	s13, s14, s10
 377 0152 C3ED0C6A 		vstr.32	s13, [r3, #48]
 378              		.loc 3 372 0 discriminator 2
 379 0156 D3ED0B6A 		vldr.32	s13, [r3, #44]
 380 015a 66EEC76A 		vnmul.f32	s13, s13, s14
 381 015e E6EE256A 		vfma.f32	s13, s12, s11
 382 0162 C3ED0D6A 		vstr.32	s13, [r3, #52]
 383              	.LVL24:
 384              	.LBE110:
 385              	.LBE115:
 386              		.loc 1 41 0 discriminator 2
 387 0166 41ED027A 		vstr.32	s15, [r1, #-8]
 388              	.LVL25:
 389              		.loc 1 42 0 discriminator 2
 390 016a DC6B     		ldr	r4, [r3, #60]	@ float
 391 016c 41F8044C 		str	r4, [r1, #-4]	@ float
 392              		.loc 1 33 0 discriminator 2
 393 0170 B2E7     		b	.L12
 394              	.LVL26:
 395              	.L10:
 396 0172 30BD     		pop	{r4, r5, pc}
 397              	.LVL27:
 398              	.L16:
 399              		.align	2
ARM GAS  C:\msys64\tmp\ccKSWDID.s 			page 8


 400              	.L15:
 401 0174 00000000 		.word	.LANCHOR0
 402              	.LBE93:
 403              		.cfi_endproc
 404              	.LFE272:
 405              		.size	_hook_process, .-_hook_process
 406              		.align	1
 407              		.global	_hook_param
 408              		.thumb
 409              		.thumb_func
 410              		.type	_hook_param, %function
 411              	_hook_param:
 412              	.LFB274:
 413              		.loc 1 53 0
 414              		.cfi_startproc
 415              		@ args = 0, pretend = 0, frame = 0
 416              		@ frame_needed = 0, uses_anonymous_args = 0
 417              	.LVL28:
 418 0178 30B5     		push	{r4, r5, lr}
 419              		.cfi_def_cfa_offset 12
 420              		.cfi_offset 4, -12
 421              		.cfi_offset 5, -8
 422              		.cfi_offset 14, -4
 423              		.loc 1 53 0
 424 017a 07EE901A 		vmov	s15, r1	@ int
 425              	.LVL29:
 426              		.loc 1 57 0
 427 017e 0028     		cmp	r0, #0
 428 0180 6FD1     		bne	.L17
 429              		.loc 1 60 0
 430 0182 B7EE007A 		vmov.f32	s14, #1.0e+0
 431 0186 F8EEE77A 		vcvt.f32.s32	s15, s15
 432              	.LVL30:
 433 018a DFED366A 		vldr.32	s13, .L27
 434              	.LBB116:
 435              	.LBB117:
 436              		.loc 1 48 0
 437 018e 364B     		ldr	r3, .L27+4
 438 0190 364A     		ldr	r2, .L27+8
 439              	.LBE117:
 440              	.LBE116:
 441              		.loc 1 60 0
 442 0192 B0EE476A 		vmov.f32	s12, s14
 443 0196 A7EEE66A 		vfms.f32	s12, s15, s13
 444              		.loc 1 67 0
 445 019a 1C46     		mov	r4, r3
 446 019c 03F11C05 		add	r5, r3, #28
 447              	.LBB121:
 448              	.LBB122:
 449              	.LBB123:
 450              	.LBB124:
 451              	.LBB125:
 452              		.loc 4 193 0
 453 01a0 DFED336A 		vldr.32	s13, .L27+12
 454              	.LBE125:
 455              	.LBE124:
 456              	.LBE123:
ARM GAS  C:\msys64\tmp\ccKSWDID.s 			page 9


 457              	.LBE122:
 458              	.LBE121:
 459              	.LBB136:
 460              	.LBB137:
 461              		.loc 1 24 0
 462 01a4 B5EEC06A 		vcmpe.f32	s12, #0
 463 01a8 F1EE10FA 		vmrs	APSR_nzcv, FPSCR
 464              	.LBE137:
 465              	.LBE136:
 466              		.loc 1 60 0
 467 01ac F0EE467A 		vmov.f32	s15, s12
 468              	.LVL31:
 469              	.LBB139:
 470              	.LBB138:
 471              		.loc 1 25 0
 472 01b0 48BF     		it	mi
 473 01b2 F1EE467A 		vnegmi.f32	s15, s12
 474              	.LVL32:
 475              	.LBE138:
 476              	.LBE139:
 477              	.LBB140:
 478              	.LBB134:
 479              	.LBB132:
 480              	.LBB127:
 481              	.LBB126:
 482              		.loc 4 193 0
 483 01b6 37EEE66A 		vsub.f32	s12, s15, s13
 484              	.LVL33:
 485 01ba B5EEC06A 		vcmpe.f32	s12, #0
 486 01be F1EE10FA 		vmrs	APSR_nzcv, FPSCR
 487 01c2 B8BF     		it	lt
 488 01c4 F0EE667A 		vmovlt.f32	s15, s13
 489              	.LVL34:
 490              	.LBE126:
 491              	.LBE127:
 492              	.LBB128:
 493              	.LBB129:
 494 01c8 77EEC76A 		vsub.f32	s13, s15, s14
 495              	.LVL35:
 496              	.LBE129:
 497              	.LBE128:
 498              	.LBE132:
 499              	.LBE134:
 500              	.LBE140:
 501              	.LBB141:
 502              	.LBB118:
 503              		.loc 1 48 0
 504 01cc 92ED026A 		vldr.32	s12, [r2, #8]
 505              	.LBE118:
 506              	.LBE141:
 507              	.LBB142:
 508              	.LBB135:
 509              	.LBB133:
 510              	.LBB131:
 511              	.LBB130:
 512              		.loc 4 193 0
 513 01d0 F5EE406A 		vcmp.f32	s13, #0
ARM GAS  C:\msys64\tmp\ccKSWDID.s 			page 10


 514 01d4 F1EE10FA 		vmrs	APSR_nzcv, FPSCR
 515 01d8 F7EE006A 		vmov.f32	s13, #1.0e+0
 516              	.LVL36:
 517 01dc A8BF     		it	ge
 518 01de F0EE667A 		vmovge.f32	s15, s13
 519              	.LVL37:
 520              	.LBE130:
 521              	.LBE131:
 522              	.LBE133:
 523              	.LBE135:
 524              	.LBE142:
 525              	.LBB143:
 526              	.LBB119:
 527              		.loc 1 48 0
 528 01e2 C7EE276A 		vdiv.f32	s13, s14, s15
 529 01e6 DFED237A 		vldr.32	s15, .L27+16
 530              	.LVL38:
 531 01ea 66EEA76A 		vmul.f32	s13, s13, s15
 532              	.LVL39:
 533 01ee D3ED107A 		vldr.32	s15, [r3, #64]
 534 01f2 67EE867A 		vmul.f32	s15, s15, s12
 535 01f6 93ED116A 		vldr.32	s12, [r3, #68]
 536 01fa E6EE867A 		vfma.f32	s15, s13, s12
 537              	.LBE119:
 538              	.LBE143:
 539              		.loc 1 65 0
 540 01fe D2ED016A 		vldr.32	s13, [r2, #4]
 541              	.LVL40:
 542              	.LBB144:
 543              	.LBB120:
 544              		.loc 1 48 0
 545 0202 C3ED107A 		vstr.32	s15, [r3, #64]
 546              	.LVL41:
 547              	.LBE120:
 548              	.LBE144:
 549              	.LBB145:
 550              	.LBB146:
 551              		.loc 3 235 0
 552 0206 66EEA75A 		vmul.f32	s11, s13, s15
 553              	.LVL42:
 554              		.loc 3 236 0
 555 020a B0EE675A 		vmov.f32	s10, s15
 556 020e A5EEA75A 		vfma.f32	s10, s11, s15
 557              	.LBE146:
 558              	.LBE145:
 559              		.loc 1 63 0
 560 0212 C2ED007A 		vstr.32	s15, [r2]
 561              	.LBB148:
 562              	.LBB147:
 563              		.loc 3 236 0
 564 0216 35EE265A 		vadd.f32	s10, s10, s13
 565 021a 87EE056A 		vdiv.f32	s12, s14, s10
 566              	.LVL43:
 567              		.loc 3 238 0
 568 021e B8EE005A 		vmov.f32	s10, #-2.0e+0
 569              		.loc 3 237 0
 570 0222 26EE867A 		vmul.f32	s14, s13, s12
ARM GAS  C:\msys64\tmp\ccKSWDID.s 			page 11


 571 0226 83ED027A 		vstr.32	s14, [r3, #8]
 572 022a 83ED007A 		vstr.32	s14, [r3]
 573              		.loc 3 238 0
 574 022e 27EE057A 		vmul.f32	s14, s14, s10
 575 0232 83ED017A 		vstr.32	s14, [r3, #4]
 576              		.loc 3 239 0
 577 0236 B0EE667A 		vmov.f32	s14, s13
 578 023a 95EEA77A 		vfnms.f32	s14, s11, s15
 579              		.loc 3 240 0
 580 023e D5EEA77A 		vfnms.f32	s15, s11, s15
 581              	.LVL44:
 582              		.loc 3 239 0
 583 0242 27EE067A 		vmul.f32	s14, s14, s12
 584              		.loc 3 240 0
 585 0246 77EEA67A 		vadd.f32	s15, s15, s13
 586              		.loc 3 239 0
 587 024a 37EE077A 		vadd.f32	s14, s14, s14
 588              		.loc 3 240 0
 589 024e 67EE867A 		vmul.f32	s15, s15, s12
 590              		.loc 3 239 0
 591 0252 83ED037A 		vstr.32	s14, [r3, #12]
 592              		.loc 3 240 0
 593 0256 C3ED047A 		vstr.32	s15, [r3, #16]
 594              	.LVL45:
 595              	.LBE147:
 596              	.LBE148:
 597              		.loc 1 67 0
 598 025a 0FCC     		ldmia	r4!, {r0, r1, r2, r3}
 599              	.LVL46:
 600 025c 0FC5     		stmia	r5!, {r0, r1, r2, r3}
 601 025e 2368     		ldr	r3, [r4]
 602 0260 2B60     		str	r3, [r5]
 603              	.L17:
 604 0262 30BD     		pop	{r4, r5, pc}
 605              	.L28:
 606              		.align	2
 607              	.L27:
 608 0264 00000030 		.word	805306368
 609 0268 00000000 		.word	.LANCHOR0
 610 026c 00000000 		.word	.LANCHOR1
 611 0270 6F12833A 		.word	981668463
 612 0274 8FC2F539 		.word	972407439
 613              		.cfi_endproc
 614              	.LFE274:
 615              		.size	_hook_param, .-_hook_param
 616              		.section	.text.startup,"ax",%progbits
 617              		.align	1
 618              		.thumb
 619              		.thumb_func
 620              		.type	_GLOBAL__sub_I_curSampleL, %function
 621              	_GLOBAL__sub_I_curSampleL:
 622              	.LFB276:
 623              		.loc 1 77 0
 624              		.cfi_startproc
 625              		@ args = 0, pretend = 0, frame = 0
 626              		@ frame_needed = 0, uses_anonymous_args = 0
 627              		@ link register save eliminated.
ARM GAS  C:\msys64\tmp\ccKSWDID.s 			page 12


 628              	.LVL47:
 629              	.LBB163:
 630              	.LBB164:
 631              	.LBB165:
 632              	.LBB166:
 633              	.LBB167:
 634              	.LBB168:
 635              		.loc 3 77 0
 636 0000 0C4B     		ldr	r3, .L30
 637 0002 0022     		movs	r2, #0
 638 0004 1A60     		str	r2, [r3]	@ float
 639 0006 5A60     		str	r2, [r3, #4]	@ float
 640 0008 9A60     		str	r2, [r3, #8]	@ float
 641 000a DA60     		str	r2, [r3, #12]	@ float
 642 000c 1A61     		str	r2, [r3, #16]	@ float
 643              	.LVL48:
 644              	.LBE168:
 645              	.LBE167:
 646              		.loc 3 344 0
 647 000e 5A61     		str	r2, [r3, #20]	@ float
 648 0010 9A61     		str	r2, [r3, #24]	@ float
 649              	.LVL49:
 650              	.LBE166:
 651              	.LBE165:
 652              	.LBB169:
 653              	.LBB170:
 654              	.LBB171:
 655              	.LBB172:
 656              		.loc 3 77 0
 657 0012 DA61     		str	r2, [r3, #28]	@ float
 658 0014 1A62     		str	r2, [r3, #32]	@ float
 659 0016 5A62     		str	r2, [r3, #36]	@ float
 660 0018 9A62     		str	r2, [r3, #40]	@ float
 661 001a DA62     		str	r2, [r3, #44]	@ float
 662              	.LVL50:
 663              	.LBE172:
 664              	.LBE171:
 665              		.loc 3 344 0
 666 001c 1A63     		str	r2, [r3, #48]	@ float
 667 001e 5A63     		str	r2, [r3, #52]	@ float
 668              	.LVL51:
 669              	.LBE170:
 670              	.LBE169:
 671              		.loc 1 12 0
 672 0020 054A     		ldr	r2, .L30+4
 673 0022 92ED027A 		vldr.32	s14, [r2, #8]
 674 0026 F7EE007A 		vmov.f32	s15, #1.0e+0
 675 002a 77EEC77A 		vsub.f32	s15, s15, s14
 676 002e C3ED117A 		vstr.32	s15, [r3, #68]
 677              	.LVL52:
 678 0032 7047     		bx	lr
 679              	.L31:
 680              		.align	2
 681              	.L30:
 682 0034 00000000 		.word	.LANCHOR0
 683 0038 00000000 		.word	.LANCHOR1
 684              	.LBE164:
ARM GAS  C:\msys64\tmp\ccKSWDID.s 			page 13


 685              	.LBE163:
 686              		.cfi_endproc
 687              	.LFE276:
 688              		.size	_GLOBAL__sub_I_curSampleL, .-_GLOBAL__sub_I_curSampleL
 689              		.section	.init_array,"aw",%init_array
 690              		.align	2
 691 0000 00000000 		.word	_GLOBAL__sub_I_curSampleL(target1)
 692              		.global	b
 693              		.global	a
 694              		.global	z
 695              		.global	cutoff
 696              		.global	resonance
 697              		.global	curSampleR
 698              		.global	curSampleL
 699              		.data
 700              		.align	2
 701              		.set	.LANCHOR1,. + 0
 702              		.type	cutoff, %object
 703              		.size	cutoff, 4
 704              	cutoff:
 705 0000 48E1FA3E 		.word	1056629064
 706              		.type	resonance, %object
 707              		.size	resonance, 4
 708              	resonance:
 709 0004 8CB9B33F 		.word	1068743052
 710              		.type	a, %object
 711              		.size	a, 4
 712              	a:
 713 0008 CDCC4C3D 		.word	1028443341
 714              		.bss
 715              		.align	2
 716              		.set	.LANCHOR0,. + 0
 717              		.type	_ZL8filter_l, %object
 718              		.size	_ZL8filter_l, 28
 719              	_ZL8filter_l:
 720 0000 00000000 		.space	28
 720      00000000 
 720      00000000 
 720      00000000 
 720      00000000 
 721              		.type	_ZL8filter_r, %object
 722              		.size	_ZL8filter_r, 28
 723              	_ZL8filter_r:
 724 001c 00000000 		.space	28
 724      00000000 
 724      00000000 
 724      00000000 
 724      00000000 
 725              		.type	curSampleL, %object
 726              		.size	curSampleL, 4
 727              	curSampleL:
 728 0038 00000000 		.space	4
 729              		.type	curSampleR, %object
 730              		.size	curSampleR, 4
 731              	curSampleR:
 732 003c 00000000 		.space	4
 733              		.type	z, %object
ARM GAS  C:\msys64\tmp\ccKSWDID.s 			page 14


 734              		.size	z, 4
 735              	z:
 736 0040 00000000 		.space	4
 737              		.type	b, %object
 738              		.size	b, 4
 739              	b:
 740 0044 00000000 		.space	4
 741              		.text
 742              	.Letext0:
 743              		.file 5 "c:\\users\\bradl\\desktop\\code projects\\korgfx\\korgdelayfxset\\delays\\tools\\gcc\\gcc
 744              		.file 6 "c:\\users\\bradl\\desktop\\code projects\\korgfx\\korgdelayfxset\\delays\\tools\\gcc\\gcc
 745              		.file 7 "./inc/userprg.h"
 746              		.section	.debug_info,"",%progbits
 747              	.Ldebug_info0:
 748 0000 140C0000 		.4byte	0xc14
 749 0004 0400     		.2byte	0x4
 750 0006 00000000 		.4byte	.Ldebug_abbrev0
 751 000a 04       		.byte	0x4
 752 000b 01       		.uleb128 0x1
 753 000c 61000000 		.4byte	.LASF107
 754 0010 04       		.byte	0x4
 755 0011 E0050000 		.4byte	.LASF108
 756 0015 9B070000 		.4byte	.LASF109
 757 0019 C0010000 		.4byte	.Ldebug_ranges0+0x1c0
 758 001d 00000000 		.4byte	0
 759 0021 00000000 		.4byte	.Ldebug_line0
 760 0025 02       		.uleb128 0x2
 761 0026 04       		.byte	0x4
 762 0027 04       		.byte	0x4
 763 0028 1E020000 		.4byte	.LASF0
 764 002c 03       		.uleb128 0x3
 765 002d 04       		.byte	0x4
 766 002e 05       		.byte	0x5
 767 002f 696E7400 		.ascii	"int\000"
 768 0033 02       		.uleb128 0x2
 769 0034 01       		.byte	0x1
 770 0035 06       		.byte	0x6
 771 0036 5E070000 		.4byte	.LASF1
 772 003a 04       		.uleb128 0x4
 773 003b EE050000 		.4byte	.LASF5
 774 003f 05       		.byte	0x5
 775 0040 1D       		.byte	0x1d
 776 0041 45000000 		.4byte	0x45
 777 0045 02       		.uleb128 0x2
 778 0046 01       		.byte	0x1
 779 0047 08       		.byte	0x8
 780 0048 A5060000 		.4byte	.LASF2
 781 004c 02       		.uleb128 0x2
 782 004d 02       		.byte	0x2
 783 004e 05       		.byte	0x5
 784 004f 2D050000 		.4byte	.LASF3
 785 0053 02       		.uleb128 0x2
 786 0054 02       		.byte	0x2
 787 0055 07       		.byte	0x7
 788 0056 71070000 		.4byte	.LASF4
 789 005a 04       		.uleb128 0x4
 790 005b 9B010000 		.4byte	.LASF6
ARM GAS  C:\msys64\tmp\ccKSWDID.s 			page 15


 791 005f 05       		.byte	0x5
 792 0060 3F       		.byte	0x3f
 793 0061 65000000 		.4byte	0x65
 794 0065 02       		.uleb128 0x2
 795 0066 04       		.byte	0x4
 796 0067 05       		.byte	0x5
 797 0068 46050000 		.4byte	.LASF7
 798 006c 04       		.uleb128 0x4
 799 006d BC060000 		.4byte	.LASF8
 800 0071 05       		.byte	0x5
 801 0072 41       		.byte	0x41
 802 0073 77000000 		.4byte	0x77
 803 0077 02       		.uleb128 0x2
 804 0078 04       		.byte	0x4
 805 0079 07       		.byte	0x7
 806 007a 34060000 		.4byte	.LASF9
 807 007e 02       		.uleb128 0x2
 808 007f 08       		.byte	0x8
 809 0080 05       		.byte	0x5
 810 0081 D8030000 		.4byte	.LASF10
 811 0085 02       		.uleb128 0x2
 812 0086 08       		.byte	0x8
 813 0087 07       		.byte	0x7
 814 0088 3E020000 		.4byte	.LASF11
 815 008c 02       		.uleb128 0x2
 816 008d 04       		.byte	0x4
 817 008e 07       		.byte	0x7
 818 008f 79010000 		.4byte	.LASF12
 819 0093 04       		.uleb128 0x4
 820 0094 93030000 		.4byte	.LASF13
 821 0098 06       		.byte	0x6
 822 0099 18       		.byte	0x18
 823 009a 3A000000 		.4byte	0x3a
 824 009e 04       		.uleb128 0x4
 825 009f 54060000 		.4byte	.LASF14
 826 00a3 06       		.byte	0x6
 827 00a4 2C       		.byte	0x2c
 828 00a5 5A000000 		.4byte	0x5a
 829 00a9 04       		.uleb128 0x4
 830 00aa 10020000 		.4byte	.LASF15
 831 00ae 06       		.byte	0x6
 832 00af 30       		.byte	0x30
 833 00b0 6C000000 		.4byte	0x6c
 834 00b4 02       		.uleb128 0x2
 835 00b5 08       		.byte	0x8
 836 00b6 04       		.byte	0x4
 837 00b7 A0040000 		.4byte	.LASF16
 838 00bb 05       		.uleb128 0x5
 839 00bc FB060000 		.4byte	.LASF110
 840 00c0 02       		.uleb128 0x2
 841 00c1 04       		.byte	0x4
 842 00c2 07       		.byte	0x7
 843 00c3 2B060000 		.4byte	.LASF17
 844 00c7 02       		.uleb128 0x2
 845 00c8 01       		.byte	0x1
 846 00c9 08       		.byte	0x8
 847 00ca 32030000 		.4byte	.LASF18
ARM GAS  C:\msys64\tmp\ccKSWDID.s 			page 16


 848 00ce 02       		.uleb128 0x2
 849 00cf 08       		.byte	0x8
 850 00d0 04       		.byte	0x4
 851 00d1 94070000 		.4byte	.LASF19
 852 00d5 06       		.uleb128 0x6
 853 00d6 01       		.byte	0x1
 854 00d7 45000000 		.4byte	0x45
 855 00db 07       		.byte	0x7
 856 00dc 35       		.byte	0x35
 857 00dd 06010000 		.4byte	0x106
 858 00e1 07       		.uleb128 0x7
 859 00e2 DB060000 		.4byte	.LASF20
 860 00e6 00       		.byte	0
 861 00e7 07       		.uleb128 0x7
 862 00e8 60050000 		.4byte	.LASF21
 863 00ec 01       		.byte	0x1
 864 00ed 07       		.uleb128 0x7
 865 00ee 2A020000 		.4byte	.LASF22
 866 00f2 02       		.byte	0x2
 867 00f3 07       		.uleb128 0x7
 868 00f4 B6020000 		.4byte	.LASF23
 869 00f8 03       		.byte	0x3
 870 00f9 07       		.uleb128 0x7
 871 00fa 8E040000 		.4byte	.LASF24
 872 00fe 04       		.byte	0x4
 873 00ff 07       		.uleb128 0x7
 874 0100 F7030000 		.4byte	.LASF25
 875 0104 05       		.byte	0x5
 876 0105 00       		.byte	0
 877 0106 08       		.uleb128 0x8
 878 0107 04       		.byte	0x4
 879 0108 0C010000 		.4byte	0x10c
 880 010c 09       		.uleb128 0x9
 881 010d 25000000 		.4byte	0x25
 882 0111 08       		.uleb128 0x8
 883 0112 04       		.byte	0x4
 884 0113 25000000 		.4byte	0x25
 885 0117 0A       		.uleb128 0xa
 886 0118 64737000 		.ascii	"dsp\000"
 887 011c 03       		.byte	0x3
 888 011d 31       		.byte	0x31
 889 011e 64040000 		.4byte	0x464
 890 0122 0B       		.uleb128 0xb
 891 0123 54030000 		.4byte	.LASF56
 892 0127 1C       		.byte	0x1c
 893 0128 03       		.byte	0x3
 894 0129 36       		.byte	0x36
 895 012a 0C       		.uleb128 0xc
 896 012b 57070000 		.4byte	.LASF54
 897 012f 14       		.byte	0x14
 898 0130 03       		.byte	0x3
 899 0131 41       		.byte	0x41
 900 0132 92030000 		.4byte	0x392
 901 0136 0D       		.uleb128 0xd
 902 0137 66663000 		.ascii	"ff0\000"
 903 013b 03       		.byte	0x3
 904 013c 42       		.byte	0x42
ARM GAS  C:\msys64\tmp\ccKSWDID.s 			page 17


 905 013d 25000000 		.4byte	0x25
 906 0141 00       		.byte	0
 907 0142 0D       		.uleb128 0xd
 908 0143 66663100 		.ascii	"ff1\000"
 909 0147 03       		.byte	0x3
 910 0148 43       		.byte	0x43
 911 0149 25000000 		.4byte	0x25
 912 014d 04       		.byte	0x4
 913 014e 0D       		.uleb128 0xd
 914 014f 66663200 		.ascii	"ff2\000"
 915 0153 03       		.byte	0x3
 916 0154 44       		.byte	0x44
 917 0155 25000000 		.4byte	0x25
 918 0159 08       		.byte	0x8
 919 015a 0D       		.uleb128 0xd
 920 015b 66623100 		.ascii	"fb1\000"
 921 015f 03       		.byte	0x3
 922 0160 45       		.byte	0x45
 923 0161 25000000 		.4byte	0x25
 924 0165 0C       		.byte	0xc
 925 0166 0D       		.uleb128 0xd
 926 0167 66623200 		.ascii	"fb2\000"
 927 016b 03       		.byte	0x3
 928 016c 46       		.byte	0x46
 929 016d 25000000 		.4byte	0x25
 930 0171 10       		.byte	0x10
 931 0172 0E       		.uleb128 0xe
 932 0173 57070000 		.4byte	.LASF54
 933 0177 03       		.byte	0x3
 934 0178 4B       		.byte	0x4b
 935 0179 02080000 		.4byte	.LASF111
 936 017d 64040000 		.4byte	0x464
 937 0181 89010000 		.4byte	0x189
 938 0185 8F010000 		.4byte	0x18f
 939 0189 0F       		.uleb128 0xf
 940 018a 64040000 		.4byte	0x464
 941 018e 00       		.byte	0
 942 018f 10       		.uleb128 0x10
 943 0190 776300   		.ascii	"wc\000"
 944 0193 03       		.byte	0x3
 945 0194 59       		.byte	0x59
 946 0195 15000000 		.4byte	.LASF112
 947 0199 25000000 		.4byte	0x25
 948 019d AC010000 		.4byte	0x1ac
 949 01a1 11       		.uleb128 0x11
 950 01a2 25000000 		.4byte	0x25
 951 01a6 11       		.uleb128 0x11
 952 01a7 25000000 		.4byte	0x25
 953 01ab 00       		.byte	0
 954 01ac 12       		.uleb128 0x12
 955 01ad 41040000 		.4byte	.LASF26
 956 01b1 03       		.byte	0x3
 957 01b2 65       		.byte	0x65
 958 01b3 0D070000 		.4byte	.LASF28
 959 01b7 BF010000 		.4byte	0x1bf
 960 01bb CA010000 		.4byte	0x1ca
 961 01bf 0F       		.uleb128 0xf
ARM GAS  C:\msys64\tmp\ccKSWDID.s 			page 18


 962 01c0 64040000 		.4byte	0x464
 963 01c4 11       		.uleb128 0x11
 964 01c5 25000000 		.4byte	0x25
 965 01c9 00       		.byte	0
 966 01ca 12       		.uleb128 0x12
 967 01cb 97020000 		.4byte	.LASF27
 968 01cf 03       		.byte	0x3
 969 01d0 71       		.byte	0x71
 970 01d1 17040000 		.4byte	.LASF29
 971 01d5 DD010000 		.4byte	0x1dd
 972 01d9 E8010000 		.4byte	0x1e8
 973 01dd 0F       		.uleb128 0xf
 974 01de 64040000 		.4byte	0x464
 975 01e2 11       		.uleb128 0x11
 976 01e3 25000000 		.4byte	0x25
 977 01e7 00       		.byte	0
 978 01e8 12       		.uleb128 0x12
 979 01e9 39040000 		.4byte	.LASF30
 980 01ed 03       		.byte	0x3
 981 01ee 7D       		.byte	0x7d
 982 01ef 55020000 		.4byte	.LASF31
 983 01f3 FB010000 		.4byte	0x1fb
 984 01f7 06020000 		.4byte	0x206
 985 01fb 0F       		.uleb128 0xf
 986 01fc 64040000 		.4byte	0x464
 987 0200 11       		.uleb128 0x11
 988 0201 25000000 		.4byte	0x25
 989 0205 00       		.byte	0
 990 0206 12       		.uleb128 0x12
 991 0207 93010000 		.4byte	.LASF32
 992 020b 03       		.byte	0x3
 993 020c 8A       		.byte	0x8a
 994 020d 31000000 		.4byte	.LASF33
 995 0211 19020000 		.4byte	0x219
 996 0215 24020000 		.4byte	0x224
 997 0219 0F       		.uleb128 0xf
 998 021a 64040000 		.4byte	0x464
 999 021e 11       		.uleb128 0x11
 1000 021f 25000000 		.4byte	0x25
 1001 0223 00       		.byte	0
 1002 0224 12       		.uleb128 0x12
 1003 0225 9D060000 		.4byte	.LASF34
 1004 0229 03       		.byte	0x3
 1005 022a 98       		.byte	0x98
 1006 022b 5C060000 		.4byte	.LASF35
 1007 022f 37020000 		.4byte	0x237
 1008 0233 42020000 		.4byte	0x242
 1009 0237 0F       		.uleb128 0xf
 1010 0238 64040000 		.4byte	0x464
 1011 023c 11       		.uleb128 0x11
 1012 023d 25000000 		.4byte	0x25
 1013 0241 00       		.byte	0
 1014 0242 12       		.uleb128 0x12
 1015 0243 DD020000 		.4byte	.LASF36
 1016 0247 03       		.byte	0x3
 1017 0248 A8       		.byte	0xa8
 1018 0249 74050000 		.4byte	.LASF37
ARM GAS  C:\msys64\tmp\ccKSWDID.s 			page 19


 1019 024d 55020000 		.4byte	0x255
 1020 0251 60020000 		.4byte	0x260
 1021 0255 0F       		.uleb128 0xf
 1022 0256 64040000 		.4byte	0x464
 1023 025a 11       		.uleb128 0x11
 1024 025b 25000000 		.4byte	0x25
 1025 025f 00       		.byte	0
 1026 0260 12       		.uleb128 0x12
 1027 0261 00000000 		.4byte	.LASF38
 1028 0265 03       		.byte	0x3
 1029 0266 B9       		.byte	0xb9
 1030 0267 F3040000 		.4byte	.LASF39
 1031 026b 73020000 		.4byte	0x273
 1032 026f 7E020000 		.4byte	0x27e
 1033 0273 0F       		.uleb128 0xf
 1034 0274 64040000 		.4byte	0x464
 1035 0278 11       		.uleb128 0x11
 1036 0279 25000000 		.4byte	0x25
 1037 027d 00       		.byte	0
 1038 027e 12       		.uleb128 0x12
 1039 027f 51000000 		.4byte	.LASF40
 1040 0283 03       		.byte	0x3
 1041 0284 C8       		.byte	0xc8
 1042 0285 B8010000 		.4byte	.LASF41
 1043 0289 91020000 		.4byte	0x291
 1044 028d 9C020000 		.4byte	0x29c
 1045 0291 0F       		.uleb128 0xf
 1046 0292 64040000 		.4byte	0x464
 1047 0296 11       		.uleb128 0x11
 1048 0297 25000000 		.4byte	0x25
 1049 029b 00       		.byte	0
 1050 029c 12       		.uleb128 0x12
 1051 029d 7F040000 		.4byte	.LASF42
 1052 02a1 03       		.byte	0x3
 1053 02a2 D6       		.byte	0xd6
 1054 02a3 1C080000 		.4byte	.LASF43
 1055 02a7 AF020000 		.4byte	0x2af
 1056 02ab BF020000 		.4byte	0x2bf
 1057 02af 0F       		.uleb128 0xf
 1058 02b0 64040000 		.4byte	0x464
 1059 02b4 11       		.uleb128 0x11
 1060 02b5 25000000 		.4byte	0x25
 1061 02b9 11       		.uleb128 0x11
 1062 02ba 25000000 		.4byte	0x25
 1063 02be 00       		.byte	0
 1064 02bf 12       		.uleb128 0x12
 1065 02c0 CA020000 		.4byte	.LASF44
 1066 02c4 03       		.byte	0x3
 1067 02c5 E8       		.byte	0xe8
 1068 02c6 AE030000 		.4byte	.LASF45
 1069 02ca D2020000 		.4byte	0x2d2
 1070 02ce E2020000 		.4byte	0x2e2
 1071 02d2 0F       		.uleb128 0xf
 1072 02d3 64040000 		.4byte	0x464
 1073 02d7 11       		.uleb128 0x11
 1074 02d8 25000000 		.4byte	0x25
 1075 02dc 11       		.uleb128 0x11
ARM GAS  C:\msys64\tmp\ccKSWDID.s 			page 20


 1076 02dd 25000000 		.4byte	0x25
 1077 02e1 00       		.byte	0
 1078 02e2 12       		.uleb128 0x12
 1079 02e3 84070000 		.4byte	.LASF46
 1080 02e7 03       		.byte	0x3
 1081 02e8 FA       		.byte	0xfa
 1082 02e9 51040000 		.4byte	.LASF47
 1083 02ed F5020000 		.4byte	0x2f5
 1084 02f1 05030000 		.4byte	0x305
 1085 02f5 0F       		.uleb128 0xf
 1086 02f6 64040000 		.4byte	0x464
 1087 02fa 11       		.uleb128 0x11
 1088 02fb 25000000 		.4byte	0x25
 1089 02ff 11       		.uleb128 0x11
 1090 0300 25000000 		.4byte	0x25
 1091 0304 00       		.byte	0
 1092 0305 13       		.uleb128 0x13
 1093 0306 8C070000 		.4byte	.LASF48
 1094 030a 03       		.byte	0x3
 1095 030b 0D01     		.2byte	0x10d
 1096 030d B4050000 		.4byte	.LASF50
 1097 0311 19030000 		.4byte	0x319
 1098 0315 29030000 		.4byte	0x329
 1099 0319 0F       		.uleb128 0xf
 1100 031a 64040000 		.4byte	0x464
 1101 031e 11       		.uleb128 0x11
 1102 031f 25000000 		.4byte	0x25
 1103 0323 11       		.uleb128 0x11
 1104 0324 25000000 		.4byte	0x25
 1105 0328 00       		.byte	0
 1106 0329 13       		.uleb128 0x13
 1107 032a A5030000 		.4byte	.LASF49
 1108 032e 03       		.byte	0x3
 1109 032f 1E01     		.2byte	0x11e
 1110 0331 75020000 		.4byte	.LASF51
 1111 0335 3D030000 		.4byte	0x33d
 1112 0339 4D030000 		.4byte	0x34d
 1113 033d 0F       		.uleb128 0xf
 1114 033e 64040000 		.4byte	0x464
 1115 0342 11       		.uleb128 0x11
 1116 0343 25000000 		.4byte	0x25
 1117 0347 11       		.uleb128 0x11
 1118 0348 25000000 		.4byte	0x25
 1119 034c 00       		.byte	0
 1120 034d 13       		.uleb128 0x13
 1121 034e F8050000 		.4byte	.LASF52
 1122 0352 03       		.byte	0x3
 1123 0353 3201     		.2byte	0x132
 1124 0355 E4010000 		.4byte	.LASF53
 1125 0359 61030000 		.4byte	0x361
 1126 035d 71030000 		.4byte	0x371
 1127 0361 0F       		.uleb128 0xf
 1128 0362 64040000 		.4byte	0x464
 1129 0366 11       		.uleb128 0x11
 1130 0367 25000000 		.4byte	0x25
 1131 036b 11       		.uleb128 0x11
 1132 036c 25000000 		.4byte	0x25
ARM GAS  C:\msys64\tmp\ccKSWDID.s 			page 21


 1133 0370 00       		.byte	0
 1134 0371 14       		.uleb128 0x14
 1135 0372 CF030000 		.4byte	.LASF113
 1136 0376 03       		.byte	0x3
 1137 0377 4501     		.2byte	0x145
 1138 0379 5B030000 		.4byte	.LASF114
 1139 037d 81030000 		.4byte	0x381
 1140 0381 0F       		.uleb128 0xf
 1141 0382 64040000 		.4byte	0x464
 1142 0386 11       		.uleb128 0x11
 1143 0387 25000000 		.4byte	0x25
 1144 038b 11       		.uleb128 0x11
 1145 038c 25000000 		.4byte	0x25
 1146 0390 00       		.byte	0
 1147 0391 00       		.byte	0
 1148 0392 15       		.uleb128 0x15
 1149 0393 57070000 		.4byte	.LASF54
 1150 0397 03       		.byte	0x3
 1151 0398 4F01     		.2byte	0x14f
 1152 039a 2A010000 		.4byte	0x12a
 1153 039e 16       		.uleb128 0x16
 1154 039f EB040000 		.4byte	.LASF55
 1155 03a3 03       		.byte	0x3
 1156 03a4 9801     		.2byte	0x198
 1157 03a6 92030000 		.4byte	0x392
 1158 03aa 00       		.byte	0
 1159 03ab 17       		.uleb128 0x17
 1160 03ac 6D5A3100 		.ascii	"mZ1\000"
 1161 03b0 03       		.byte	0x3
 1162 03b1 9901     		.2byte	0x199
 1163 03b3 25000000 		.4byte	0x25
 1164 03b7 14       		.byte	0x14
 1165 03b8 17       		.uleb128 0x17
 1166 03b9 6D5A3200 		.ascii	"mZ2\000"
 1167 03bd 03       		.byte	0x3
 1168 03be 9901     		.2byte	0x199
 1169 03c0 25000000 		.4byte	0x25
 1170 03c4 18       		.byte	0x18
 1171 03c5 18       		.uleb128 0x18
 1172 03c6 54030000 		.4byte	.LASF56
 1173 03ca 03       		.byte	0x3
 1174 03cb 5801     		.2byte	0x158
 1175 03cd E5020000 		.4byte	.LASF60
 1176 03d1 6A040000 		.4byte	0x46a
 1177 03d5 DD030000 		.4byte	0x3dd
 1178 03d9 E3030000 		.4byte	0x3e3
 1179 03dd 0F       		.uleb128 0xf
 1180 03de 6A040000 		.4byte	0x46a
 1181 03e2 00       		.byte	0
 1182 03e3 13       		.uleb128 0x13
 1183 03e4 06060000 		.4byte	.LASF57
 1184 03e8 03       		.byte	0x3
 1185 03e9 6301     		.2byte	0x163
 1186 03eb 9D050000 		.4byte	.LASF58
 1187 03ef F7030000 		.4byte	0x3f7
 1188 03f3 FD030000 		.4byte	0x3fd
 1189 03f7 0F       		.uleb128 0xf
ARM GAS  C:\msys64\tmp\ccKSWDID.s 			page 22


 1190 03f8 6A040000 		.4byte	0x46a
 1191 03fc 00       		.byte	0
 1192 03fd 18       		.uleb128 0x18
 1193 03fe D5050000 		.4byte	.LASF59
 1194 0402 03       		.byte	0x3
 1195 0403 6F01     		.2byte	0x16f
 1196 0405 04030000 		.4byte	.LASF61
 1197 0409 25000000 		.4byte	0x25
 1198 040d 15040000 		.4byte	0x415
 1199 0411 20040000 		.4byte	0x420
 1200 0415 0F       		.uleb128 0xf
 1201 0416 6A040000 		.4byte	0x46a
 1202 041a 11       		.uleb128 0x11
 1203 041b 25000000 		.4byte	0x25
 1204 041f 00       		.byte	0
 1205 0420 18       		.uleb128 0x18
 1206 0421 2F070000 		.4byte	.LASF62
 1207 0425 03       		.byte	0x3
 1208 0426 8001     		.2byte	0x180
 1209 0428 3A070000 		.4byte	.LASF63
 1210 042c 25000000 		.4byte	0x25
 1211 0430 38040000 		.4byte	0x438
 1212 0434 43040000 		.4byte	0x443
 1213 0438 0F       		.uleb128 0xf
 1214 0439 6A040000 		.4byte	0x46a
 1215 043d 11       		.uleb128 0x11
 1216 043e 25000000 		.4byte	0x25
 1217 0442 00       		.byte	0
 1218 0443 19       		.uleb128 0x19
 1219 0444 59000000 		.4byte	.LASF64
 1220 0448 03       		.byte	0x3
 1221 0449 8F01     		.2byte	0x18f
 1222 044b 84060000 		.4byte	.LASF65
 1223 044f 25000000 		.4byte	0x25
 1224 0453 57040000 		.4byte	0x457
 1225 0457 0F       		.uleb128 0xf
 1226 0458 6A040000 		.4byte	0x46a
 1227 045c 11       		.uleb128 0x11
 1228 045d 25000000 		.4byte	0x25
 1229 0461 00       		.byte	0
 1230 0462 00       		.byte	0
 1231 0463 00       		.byte	0
 1232 0464 08       		.uleb128 0x8
 1233 0465 04       		.byte	0x4
 1234 0466 2A010000 		.4byte	0x12a
 1235 046a 08       		.uleb128 0x8
 1236 046b 04       		.byte	0x4
 1237 046c 22010000 		.4byte	0x122
 1238 0470 1A       		.uleb128 0x1a
 1239 0471 01060000 		.4byte	.LASF66
 1240 0475 04       		.byte	0x4
 1241 0476 C0       		.byte	0xc0
 1242 0477 25000000 		.4byte	0x25
 1243 047b 03       		.byte	0x3
 1244 047c 9C040000 		.4byte	0x49c
 1245 0480 1B       		.uleb128 0x1b
 1246 0481 6100     		.ascii	"a\000"
ARM GAS  C:\msys64\tmp\ccKSWDID.s 			page 23


 1247 0483 04       		.byte	0x4
 1248 0484 C0       		.byte	0xc0
 1249 0485 0C010000 		.4byte	0x10c
 1250 0489 1B       		.uleb128 0x1b
 1251 048a 6200     		.ascii	"b\000"
 1252 048c 04       		.byte	0x4
 1253 048d C0       		.byte	0xc0
 1254 048e 0C010000 		.4byte	0x10c
 1255 0492 1B       		.uleb128 0x1b
 1256 0493 6300     		.ascii	"c\000"
 1257 0495 04       		.byte	0x4
 1258 0496 C0       		.byte	0xc0
 1259 0497 0C010000 		.4byte	0x10c
 1260 049b 00       		.byte	0
 1261 049c 1C       		.uleb128 0x1c
 1262 049d 06020000 		.4byte	.LASF67
 1263 04a1 04       		.byte	0x4
 1264 04a2 3C01     		.2byte	0x13c
 1265 04a4 25000000 		.4byte	0x25
 1266 04a8 03       		.byte	0x3
 1267 04a9 D0040000 		.4byte	0x4d0
 1268 04ad 1D       		.uleb128 0x1d
 1269 04ae 6D696E00 		.ascii	"min\000"
 1270 04b2 04       		.byte	0x4
 1271 04b3 3C01     		.2byte	0x13c
 1272 04b5 0C010000 		.4byte	0x10c
 1273 04b9 1D       		.uleb128 0x1d
 1274 04ba 7800     		.ascii	"x\000"
 1275 04bc 04       		.byte	0x4
 1276 04bd 3C01     		.2byte	0x13c
 1277 04bf 25000000 		.4byte	0x25
 1278 04c3 1D       		.uleb128 0x1d
 1279 04c4 6D617800 		.ascii	"max\000"
 1280 04c8 04       		.byte	0x4
 1281 04c9 3C01     		.2byte	0x13c
 1282 04cb 0C010000 		.4byte	0x10c
 1283 04cf 00       		.byte	0
 1284 04d0 1C       		.uleb128 0x1c
 1285 04d1 7C060000 		.4byte	.LASF68
 1286 04d5 04       		.byte	0x4
 1287 04d6 3903     		.2byte	0x339
 1288 04d8 25000000 		.4byte	0x25
 1289 04dc 03       		.byte	0x3
 1290 04dd 03050000 		.4byte	0x503
 1291 04e1 1D       		.uleb128 0x1d
 1292 04e2 667200   		.ascii	"fr\000"
 1293 04e5 04       		.byte	0x4
 1294 04e6 3903     		.2byte	0x339
 1295 04e8 0C010000 		.4byte	0x10c
 1296 04ec 1D       		.uleb128 0x1d
 1297 04ed 783000   		.ascii	"x0\000"
 1298 04f0 04       		.byte	0x4
 1299 04f1 3903     		.2byte	0x339
 1300 04f3 0C010000 		.4byte	0x10c
 1301 04f7 1D       		.uleb128 0x1d
 1302 04f8 783100   		.ascii	"x1\000"
 1303 04fb 04       		.byte	0x4
ARM GAS  C:\msys64\tmp\ccKSWDID.s 			page 24


 1304 04fc 3903     		.2byte	0x339
 1305 04fe 0C010000 		.4byte	0x10c
 1306 0502 00       		.byte	0
 1307 0503 1E       		.uleb128 0x1e
 1308 0504 E3030000 		.4byte	0x3e3
 1309 0508 03       		.byte	0x3
 1310 0509 11050000 		.4byte	0x511
 1311 050d 1B050000 		.4byte	0x51b
 1312 0511 1F       		.uleb128 0x1f
 1313 0512 AC040000 		.4byte	.LASF69
 1314 0516 1B050000 		.4byte	0x51b
 1315 051a 00       		.byte	0
 1316 051b 09       		.uleb128 0x9
 1317 051c 6A040000 		.4byte	0x46a
 1318 0520 1E       		.uleb128 0x1e
 1319 0521 BF020000 		.4byte	0x2bf
 1320 0525 03       		.byte	0x3
 1321 0526 2E050000 		.4byte	0x52e
 1322 052a 60050000 		.4byte	0x560
 1323 052e 1F       		.uleb128 0x1f
 1324 052f AC040000 		.4byte	.LASF69
 1325 0533 60050000 		.4byte	0x560
 1326 0537 1B       		.uleb128 0x1b
 1327 0538 6B00     		.ascii	"k\000"
 1328 053a 03       		.byte	0x3
 1329 053b E8       		.byte	0xe8
 1330 053c 0C010000 		.4byte	0x10c
 1331 0540 1B       		.uleb128 0x1b
 1332 0541 7100     		.ascii	"q\000"
 1333 0543 03       		.byte	0x3
 1334 0544 E8       		.byte	0xe8
 1335 0545 0C010000 		.4byte	0x10c
 1336 0549 20       		.uleb128 0x20
 1337 054a 716B3200 		.ascii	"qk2\000"
 1338 054e 03       		.byte	0x3
 1339 054f EB       		.byte	0xeb
 1340 0550 0C010000 		.4byte	0x10c
 1341 0554 21       		.uleb128 0x21
 1342 0555 28030000 		.4byte	.LASF70
 1343 0559 03       		.byte	0x3
 1344 055a EC       		.byte	0xec
 1345 055b 0C010000 		.4byte	0x10c
 1346 055f 00       		.byte	0
 1347 0560 09       		.uleb128 0x9
 1348 0561 64040000 		.4byte	0x464
 1349 0565 1A       		.uleb128 0x1a
 1350 0566 AE010000 		.4byte	.LASF71
 1351 056a 02       		.byte	0x2
 1352 056b E9       		.byte	0xe9
 1353 056c 25000000 		.4byte	0x25
 1354 0570 03       		.byte	0x3
 1355 0571 A9050000 		.4byte	0x5a9
 1356 0575 1B       		.uleb128 0x1b
 1357 0576 7800     		.ascii	"x\000"
 1358 0578 02       		.byte	0x2
 1359 0579 E9       		.byte	0xe9
 1360 057a 25000000 		.4byte	0x25
ARM GAS  C:\msys64\tmp\ccKSWDID.s 			page 25


 1361 057e 21       		.uleb128 0x21
 1362 057f 26060000 		.4byte	.LASF72
 1363 0583 02       		.byte	0x2
 1364 0584 EA       		.byte	0xea
 1365 0585 0C010000 		.4byte	0x10c
 1366 0589 20       		.uleb128 0x20
 1367 058a 69647800 		.ascii	"idx\000"
 1368 058e 02       		.byte	0x2
 1369 058f EB       		.byte	0xeb
 1370 0590 A9050000 		.4byte	0x5a9
 1371 0594 20       		.uleb128 0x20
 1372 0595 793000   		.ascii	"y0\000"
 1373 0598 02       		.byte	0x2
 1374 0599 EC       		.byte	0xec
 1375 059a 0C010000 		.4byte	0x10c
 1376 059e 20       		.uleb128 0x20
 1377 059f 793100   		.ascii	"y1\000"
 1378 05a2 02       		.byte	0x2
 1379 05a3 ED       		.byte	0xed
 1380 05a4 0C010000 		.4byte	0x10c
 1381 05a8 00       		.byte	0
 1382 05a9 09       		.uleb128 0x9
 1383 05aa A9000000 		.4byte	0xa9
 1384 05ae 1E       		.uleb128 0x1e
 1385 05af FD030000 		.4byte	0x3fd
 1386 05b3 03       		.byte	0x3
 1387 05b4 BC050000 		.4byte	0x5bc
 1388 05b8 DD050000 		.4byte	0x5dd
 1389 05bc 1F       		.uleb128 0x1f
 1390 05bd AC040000 		.4byte	.LASF69
 1391 05c1 1B050000 		.4byte	0x51b
 1392 05c5 1D       		.uleb128 0x1d
 1393 05c6 786E00   		.ascii	"xn\000"
 1394 05c9 03       		.byte	0x3
 1395 05ca 6F01     		.2byte	0x16f
 1396 05cc 0C010000 		.4byte	0x10c
 1397 05d0 22       		.uleb128 0x22
 1398 05d1 61636300 		.ascii	"acc\000"
 1399 05d5 03       		.byte	0x3
 1400 05d6 7001     		.2byte	0x170
 1401 05d8 25000000 		.4byte	0x25
 1402 05dc 00       		.byte	0
 1403 05dd 1A       		.uleb128 0x1a
 1404 05de 6A070000 		.4byte	.LASF73
 1405 05e2 01       		.byte	0x1
 1406 05e3 2E       		.byte	0x2e
 1407 05e4 25000000 		.4byte	0x25
 1408 05e8 03       		.byte	0x3
 1409 05e9 F8050000 		.4byte	0x5f8
 1410 05ed 1B       		.uleb128 0x1b
 1411 05ee 696E00   		.ascii	"in\000"
 1412 05f1 01       		.byte	0x1
 1413 05f2 2E       		.byte	0x2e
 1414 05f3 25000000 		.4byte	0x25
 1415 05f7 00       		.byte	0
 1416 05f8 1C       		.uleb128 0x1c
 1417 05f9 F8020000 		.4byte	.LASF74
ARM GAS  C:\msys64\tmp\ccKSWDID.s 			page 26


 1418 05fd 04       		.byte	0x4
 1419 05fe 9101     		.2byte	0x191
 1420 0600 25000000 		.4byte	0x25
 1421 0604 03       		.byte	0x3
 1422 0605 2C060000 		.4byte	0x62c
 1423 0609 1D       		.uleb128 0x1d
 1424 060a 6D696E00 		.ascii	"min\000"
 1425 060e 04       		.byte	0x4
 1426 060f 9101     		.2byte	0x191
 1427 0611 0C010000 		.4byte	0x10c
 1428 0615 1D       		.uleb128 0x1d
 1429 0616 7800     		.ascii	"x\000"
 1430 0618 04       		.byte	0x4
 1431 0619 9101     		.2byte	0x191
 1432 061b 0C010000 		.4byte	0x10c
 1433 061f 1D       		.uleb128 0x1d
 1434 0620 6D617800 		.ascii	"max\000"
 1435 0624 04       		.byte	0x4
 1436 0625 9101     		.2byte	0x191
 1437 0627 0C010000 		.4byte	0x10c
 1438 062b 00       		.byte	0
 1439 062c 23       		.uleb128 0x23
 1440 062d 94050000 		.4byte	.LASF75
 1441 0631 01       		.byte	0x1
 1442 0632 16       		.byte	0x16
 1443 0633 0A040000 		.4byte	.LASF76
 1444 0637 25000000 		.4byte	0x25
 1445 063b 01       		.byte	0x1
 1446 063c 4C060000 		.4byte	0x64c
 1447 0640 24       		.uleb128 0x24
 1448 0641 19020000 		.4byte	.LASF77
 1449 0645 01       		.byte	0x1
 1450 0646 16       		.byte	0x16
 1451 0647 25000000 		.4byte	0x25
 1452 064b 00       		.byte	0
 1453 064c 25       		.uleb128 0x25
 1454 064d C1040000 		.4byte	.LASF115
 1455 0651 01       		.byte	0x1
 1456 0652 6D060000 		.4byte	0x66d
 1457 0656 24       		.uleb128 0x24
 1458 0657 A7020000 		.4byte	.LASF78
 1459 065b 01       		.byte	0x1
 1460 065c 4D       		.byte	0x4d
 1461 065d 2C000000 		.4byte	0x2c
 1462 0661 24       		.uleb128 0x24
 1463 0662 D2020000 		.4byte	.LASF79
 1464 0666 01       		.byte	0x1
 1465 0667 4D       		.byte	0x4d
 1466 0668 2C000000 		.4byte	0x2c
 1467 066c 00       		.byte	0
 1468 066d 26       		.uleb128 0x26
 1469 066e 22050000 		.4byte	.LASF80
 1470 0672 01       		.byte	0x1
 1471 0673 0E       		.byte	0xe
 1472 0674 00000000 		.4byte	.LFB270
 1473 0678 C0000000 		.4byte	.LFE270-.LFB270
 1474 067c 01       		.uleb128 0x1
ARM GAS  C:\msys64\tmp\ccKSWDID.s 			page 27


 1475 067d 9C       		.byte	0x9c
 1476 067e 7B070000 		.4byte	0x77b
 1477 0682 27       		.uleb128 0x27
 1478 0683 A5010000 		.4byte	.LASF81
 1479 0687 01       		.byte	0x1
 1480 0688 0E       		.byte	0xe
 1481 0689 A9000000 		.4byte	0xa9
 1482 068d 00000000 		.4byte	.LLST0
 1483 0691 28       		.uleb128 0x28
 1484 0692 61706900 		.ascii	"api\000"
 1485 0696 01       		.byte	0x1
 1486 0697 0E       		.byte	0xe
 1487 0698 A9000000 		.4byte	0xa9
 1488 069c 21000000 		.4byte	.LLST1
 1489 06a0 29       		.uleb128 0x29
 1490 06a1 65050000 		.4byte	0x565
 1491 06a5 04000000 		.4byte	.LBB55
 1492 06a9 00000000 		.4byte	.Ldebug_ranges0+0
 1493 06ad 01       		.byte	0x1
 1494 06ae 11       		.byte	0x11
 1495 06af 05070000 		.4byte	0x705
 1496 06b3 2A       		.uleb128 0x2a
 1497 06b4 75050000 		.4byte	0x575
 1498 06b8 42000000 		.4byte	.LLST2
 1499 06bc 2B       		.uleb128 0x2b
 1500 06bd 00000000 		.4byte	.Ldebug_ranges0+0
 1501 06c1 2C       		.uleb128 0x2c
 1502 06c2 7E050000 		.4byte	0x57e
 1503 06c6 02       		.uleb128 0x2
 1504 06c7 90       		.byte	0x90
 1505 06c8 4E       		.uleb128 0x4e
 1506 06c9 2D       		.uleb128 0x2d
 1507 06ca 89050000 		.4byte	0x589
 1508 06ce 59000000 		.4byte	.LLST3
 1509 06d2 2D       		.uleb128 0x2d
 1510 06d3 94050000 		.4byte	0x594
 1511 06d7 6C000000 		.4byte	.LLST4
 1512 06db 2E       		.uleb128 0x2e
 1513 06dc 9E050000 		.4byte	0x59e
 1514 06e0 2F       		.uleb128 0x2f
 1515 06e1 D0040000 		.4byte	0x4d0
 1516 06e5 22000000 		.4byte	.LBB57
 1517 06e9 40000000 		.4byte	.Ldebug_ranges0+0x40
 1518 06ed 02       		.byte	0x2
 1519 06ee EE       		.byte	0xee
 1520 06ef 30       		.uleb128 0x30
 1521 06f0 F7040000 		.4byte	0x4f7
 1522 06f4 2A       		.uleb128 0x2a
 1523 06f5 EC040000 		.4byte	0x4ec
 1524 06f9 6C000000 		.4byte	.LLST4
 1525 06fd 30       		.uleb128 0x30
 1526 06fe E1040000 		.4byte	0x4e1
 1527 0702 00       		.byte	0
 1528 0703 00       		.byte	0
 1529 0704 00       		.byte	0
 1530 0705 29       		.uleb128 0x29
 1531 0706 03050000 		.4byte	0x503
ARM GAS  C:\msys64\tmp\ccKSWDID.s 			page 28


 1532 070a 0E000000 		.4byte	.LBB71
 1533 070e 68000000 		.4byte	.Ldebug_ranges0+0x68
 1534 0712 01       		.byte	0x1
 1535 0713 10       		.byte	0x10
 1536 0714 22070000 		.4byte	0x722
 1537 0718 2A       		.uleb128 0x2a
 1538 0719 11050000 		.4byte	0x511
 1539 071d 80000000 		.4byte	.LLST6
 1540 0721 00       		.byte	0
 1541 0722 29       		.uleb128 0x29
 1542 0723 20050000 		.4byte	0x520
 1543 0727 14000000 		.4byte	.LBB77
 1544 072b 90000000 		.4byte	.Ldebug_ranges0+0x90
 1545 072f 01       		.byte	0x1
 1546 0730 11       		.byte	0x11
 1547 0731 65070000 		.4byte	0x765
 1548 0735 2A       		.uleb128 0x2a
 1549 0736 40050000 		.4byte	0x540
 1550 073a 98000000 		.4byte	.LLST7
 1551 073e 30       		.uleb128 0x30
 1552 073f 37050000 		.4byte	0x537
 1553 0743 2A       		.uleb128 0x2a
 1554 0744 2E050000 		.4byte	0x52e
 1555 0748 AC000000 		.4byte	.LLST8
 1556 074c 2B       		.uleb128 0x2b
 1557 074d 90000000 		.4byte	.Ldebug_ranges0+0x90
 1558 0751 2D       		.uleb128 0x2d
 1559 0752 49050000 		.4byte	0x549
 1560 0756 C4000000 		.4byte	.LLST9
 1561 075a 2D       		.uleb128 0x2d
 1562 075b 54050000 		.4byte	0x554
 1563 075f DE000000 		.4byte	.LLST10
 1564 0763 00       		.byte	0
 1565 0764 00       		.byte	0
 1566 0765 31       		.uleb128 0x31
 1567 0766 03050000 		.4byte	0x503
 1568 076a 4A000000 		.4byte	.LBB89
 1569 076e 04000000 		.4byte	.LBE89-.LBB89
 1570 0772 01       		.byte	0x1
 1571 0773 12       		.byte	0x12
 1572 0774 30       		.uleb128 0x30
 1573 0775 11050000 		.4byte	0x511
 1574 0779 00       		.byte	0
 1575 077a 00       		.byte	0
 1576 077b 32       		.uleb128 0x32
 1577 077c 2C060000 		.4byte	0x62c
 1578 0780 0A040000 		.4byte	.LASF76
 1579 0784 C0000000 		.4byte	.LFB271
 1580 0788 10000000 		.4byte	.LFE271-.LFB271
 1581 078c 01       		.uleb128 0x1
 1582 078d 9C       		.byte	0x9c
 1583 078e 9C070000 		.4byte	0x79c
 1584 0792 2A       		.uleb128 0x2a
 1585 0793 40060000 		.4byte	0x640
 1586 0797 F2000000 		.4byte	.LLST11
 1587 079b 00       		.byte	0
 1588 079c 26       		.uleb128 0x26
ARM GAS  C:\msys64\tmp\ccKSWDID.s 			page 29


 1589 079d 14050000 		.4byte	.LASF82
 1590 07a1 01       		.byte	0x1
 1591 07a2 1D       		.byte	0x1d
 1592 07a3 D0000000 		.4byte	.LFB272
 1593 07a7 A8000000 		.4byte	.LFE272-.LFB272
 1594 07ab 01       		.uleb128 0x1
 1595 07ac 9C       		.byte	0x9c
 1596 07ad 78080000 		.4byte	0x878
 1597 07b1 28       		.uleb128 0x28
 1598 07b2 786E00   		.ascii	"xn\000"
 1599 07b5 01       		.byte	0x1
 1600 07b6 1D       		.byte	0x1d
 1601 07b7 06010000 		.4byte	0x106
 1602 07bb 16010000 		.4byte	.LLST12
 1603 07bf 28       		.uleb128 0x28
 1604 07c0 796E00   		.ascii	"yn\000"
 1605 07c3 01       		.byte	0x1
 1606 07c4 1D       		.byte	0x1d
 1607 07c5 11010000 		.4byte	0x111
 1608 07c9 5B010000 		.4byte	.LLST13
 1609 07cd 27       		.uleb128 0x27
 1610 07ce F0030000 		.4byte	.LASF83
 1611 07d2 01       		.byte	0x1
 1612 07d3 1E       		.byte	0x1e
 1613 07d4 06010000 		.4byte	0x106
 1614 07d8 DD010000 		.4byte	.LLST14
 1615 07dc 27       		.uleb128 0x27
 1616 07dd 87040000 		.4byte	.LASF84
 1617 07e1 01       		.byte	0x1
 1618 07e2 1E       		.byte	0x1e
 1619 07e3 11010000 		.4byte	0x111
 1620 07e7 FE010000 		.4byte	.LLST15
 1621 07eb 27       		.uleb128 0x27
 1622 07ec 7D030000 		.4byte	.LASF85
 1623 07f0 01       		.byte	0x1
 1624 07f1 1F       		.byte	0x1f
 1625 07f2 A9000000 		.4byte	0xa9
 1626 07f6 1F020000 		.4byte	.LLST16
 1627 07fa 33       		.uleb128 0x33
 1628 07fb D4000000 		.4byte	.LBB93
 1629 07ff A4000000 		.4byte	.LBE93-.LBB93
 1630 0803 34       		.uleb128 0x34
 1631 0804 6900     		.ascii	"i\000"
 1632 0806 01       		.byte	0x1
 1633 0807 21       		.byte	0x21
 1634 0808 2C000000 		.4byte	0x2c
 1635 080c 3F020000 		.4byte	.LLST17
 1636 0810 29       		.uleb128 0x29
 1637 0811 AE050000 		.4byte	0x5ae
 1638 0815 D4000000 		.4byte	.LBB94
 1639 0819 B0000000 		.4byte	.Ldebug_ranges0+0xb0
 1640 081d 01       		.byte	0x1
 1641 081e 26       		.byte	0x26
 1642 081f 45080000 		.4byte	0x845
 1643 0823 2A       		.uleb128 0x2a
 1644 0824 C5050000 		.4byte	0x5c5
 1645 0828 76020000 		.4byte	.LLST18
ARM GAS  C:\msys64\tmp\ccKSWDID.s 			page 30


 1646 082c 2A       		.uleb128 0x2a
 1647 082d BC050000 		.4byte	0x5bc
 1648 0831 8A020000 		.4byte	.LLST19
 1649 0835 2B       		.uleb128 0x2b
 1650 0836 B0000000 		.4byte	.Ldebug_ranges0+0xb0
 1651 083a 2D       		.uleb128 0x2d
 1652 083b D0050000 		.4byte	0x5d0
 1653 083f A2020000 		.4byte	.LLST20
 1654 0843 00       		.byte	0
 1655 0844 00       		.byte	0
 1656 0845 2F       		.uleb128 0x2f
 1657 0846 AE050000 		.4byte	0x5ae
 1658 084a 16010000 		.4byte	.LBB106
 1659 084e F0000000 		.4byte	.Ldebug_ranges0+0xf0
 1660 0852 01       		.byte	0x1
 1661 0853 27       		.byte	0x27
 1662 0854 2A       		.uleb128 0x2a
 1663 0855 C5050000 		.4byte	0x5c5
 1664 0859 B6020000 		.4byte	.LLST21
 1665 085d 2A       		.uleb128 0x2a
 1666 085e BC050000 		.4byte	0x5bc
 1667 0862 CA020000 		.4byte	.LLST22
 1668 0866 2B       		.uleb128 0x2b
 1669 0867 F0000000 		.4byte	.Ldebug_ranges0+0xf0
 1670 086b 2D       		.uleb128 0x2d
 1671 086c D0050000 		.4byte	0x5d0
 1672 0870 E2020000 		.4byte	.LLST23
 1673 0874 00       		.byte	0
 1674 0875 00       		.byte	0
 1675 0876 00       		.byte	0
 1676 0877 00       		.byte	0
 1677 0878 26       		.uleb128 0x26
 1678 0879 09000000 		.4byte	.LASF86
 1679 087d 01       		.byte	0x1
 1680 087e 34       		.byte	0x34
 1681 087f 78010000 		.4byte	.LFB274
 1682 0883 00010000 		.4byte	.LFE274-.LFB274
 1683 0887 01       		.uleb128 0x1
 1684 0888 9C       		.byte	0x9c
 1685 0889 F9090000 		.4byte	0x9f9
 1686 088d 27       		.uleb128 0x27
 1687 088e 24020000 		.4byte	.LASF87
 1688 0892 01       		.byte	0x1
 1689 0893 34       		.byte	0x34
 1690 0894 93000000 		.4byte	0x93
 1691 0898 F6020000 		.4byte	.LLST24
 1692 089c 27       		.uleb128 0x27
 1693 089d A1020000 		.4byte	.LASF88
 1694 08a1 01       		.byte	0x1
 1695 08a2 34       		.byte	0x34
 1696 08a3 9E000000 		.4byte	0x9e
 1697 08a7 17030000 		.4byte	.LLST25
 1698 08ab 35       		.uleb128 0x35
 1699 08ac 19020000 		.4byte	.LASF77
 1700 08b0 01       		.byte	0x1
 1701 08b1 36       		.byte	0x36
 1702 08b2 0C010000 		.4byte	0x10c
ARM GAS  C:\msys64\tmp\ccKSWDID.s 			page 31


 1703 08b6 38030000 		.4byte	.LLST26
 1704 08ba 21       		.uleb128 0x21
 1705 08bb 72040000 		.4byte	.LASF89
 1706 08bf 01       		.byte	0x1
 1707 08c0 37       		.byte	0x37
 1708 08c1 25000000 		.4byte	0x25
 1709 08c5 35       		.uleb128 0x35
 1710 08c6 4B040000 		.4byte	.LASF90
 1711 08ca 01       		.byte	0x1
 1712 08cb 38       		.byte	0x38
 1713 08cc 25000000 		.4byte	0x25
 1714 08d0 A2030000 		.4byte	.LLST27
 1715 08d4 29       		.uleb128 0x29
 1716 08d5 DD050000 		.4byte	0x5dd
 1717 08d9 8E010000 		.4byte	.LBB116
 1718 08dd 18010000 		.4byte	.Ldebug_ranges0+0x118
 1719 08e1 01       		.byte	0x1
 1720 08e2 3F       		.byte	0x3f
 1721 08e3 F1080000 		.4byte	0x8f1
 1722 08e7 2A       		.uleb128 0x2a
 1723 08e8 ED050000 		.4byte	0x5ed
 1724 08ec BA030000 		.4byte	.LLST28
 1725 08f0 00       		.byte	0
 1726 08f1 29       		.uleb128 0x29
 1727 08f2 F8050000 		.4byte	0x5f8
 1728 08f6 A0010000 		.4byte	.LBB121
 1729 08fa 40010000 		.4byte	.Ldebug_ranges0+0x140
 1730 08fe 01       		.byte	0x1
 1731 08ff 3D       		.byte	0x3d
 1732 0900 98090000 		.4byte	0x998
 1733 0904 2A       		.uleb128 0x2a
 1734 0905 1F060000 		.4byte	0x61f
 1735 0909 EC030000 		.4byte	.LLST29
 1736 090d 30       		.uleb128 0x30
 1737 090e 15060000 		.4byte	0x615
 1738 0912 2A       		.uleb128 0x2a
 1739 0913 09060000 		.4byte	0x609
 1740 0917 04040000 		.4byte	.LLST30
 1741 091b 36       		.uleb128 0x36
 1742 091c 9C040000 		.4byte	0x49c
 1743 0920 A0010000 		.4byte	.LBB122
 1744 0924 40010000 		.4byte	.Ldebug_ranges0+0x140
 1745 0928 04       		.byte	0x4
 1746 0929 9201     		.2byte	0x192
 1747 092b 2A       		.uleb128 0x2a
 1748 092c C3040000 		.4byte	0x4c3
 1749 0930 EC030000 		.4byte	.LLST29
 1750 0934 30       		.uleb128 0x30
 1751 0935 B9040000 		.4byte	0x4b9
 1752 0939 2A       		.uleb128 0x2a
 1753 093a AD040000 		.4byte	0x4ad
 1754 093e 04040000 		.4byte	.LLST30
 1755 0942 37       		.uleb128 0x37
 1756 0943 70040000 		.4byte	0x470
 1757 0947 A0010000 		.4byte	.LBB124
 1758 094b 60010000 		.4byte	.Ldebug_ranges0+0x160
 1759 094f 04       		.byte	0x4
ARM GAS  C:\msys64\tmp\ccKSWDID.s 			page 32


 1760 0950 3E01     		.2byte	0x13e
 1761 0952 6E090000 		.4byte	0x96e
 1762 0956 2A       		.uleb128 0x2a
 1763 0957 92040000 		.4byte	0x492
 1764 095b 1C040000 		.4byte	.LLST33
 1765 095f 30       		.uleb128 0x30
 1766 0960 89040000 		.4byte	0x489
 1767 0964 2A       		.uleb128 0x2a
 1768 0965 80040000 		.4byte	0x480
 1769 0969 34040000 		.4byte	.LLST34
 1770 096d 00       		.byte	0
 1771 096e 36       		.uleb128 0x36
 1772 096f 70040000 		.4byte	0x470
 1773 0973 C8010000 		.4byte	.LBB128
 1774 0977 78010000 		.4byte	.Ldebug_ranges0+0x178
 1775 097b 04       		.byte	0x4
 1776 097c 3F01     		.2byte	0x13f
 1777 097e 30       		.uleb128 0x30
 1778 097f 92040000 		.4byte	0x492
 1779 0983 2A       		.uleb128 0x2a
 1780 0984 89040000 		.4byte	0x489
 1781 0988 5E040000 		.4byte	.LLST35
 1782 098c 2A       		.uleb128 0x2a
 1783 098d 80040000 		.4byte	0x480
 1784 0991 76040000 		.4byte	.LLST36
 1785 0995 00       		.byte	0
 1786 0996 00       		.byte	0
 1787 0997 00       		.byte	0
 1788 0998 29       		.uleb128 0x29
 1789 0999 2C060000 		.4byte	0x62c
 1790 099d A4010000 		.4byte	.LBB136
 1791 09a1 90010000 		.4byte	.Ldebug_ranges0+0x190
 1792 09a5 01       		.byte	0x1
 1793 09a6 3C       		.byte	0x3c
 1794 09a7 B5090000 		.4byte	0x9b5
 1795 09ab 2A       		.uleb128 0x2a
 1796 09ac 40060000 		.4byte	0x640
 1797 09b0 B6040000 		.4byte	.LLST37
 1798 09b4 00       		.byte	0
 1799 09b5 2F       		.uleb128 0x2f
 1800 09b6 20050000 		.4byte	0x520
 1801 09ba 06020000 		.4byte	.LBB145
 1802 09be A8010000 		.4byte	.Ldebug_ranges0+0x1a8
 1803 09c2 01       		.byte	0x1
 1804 09c3 41       		.byte	0x41
 1805 09c4 2A       		.uleb128 0x2a
 1806 09c5 40050000 		.4byte	0x540
 1807 09c9 CA040000 		.4byte	.LLST38
 1808 09cd 2A       		.uleb128 0x2a
 1809 09ce 37050000 		.4byte	0x537
 1810 09d2 DE040000 		.4byte	.LLST39
 1811 09d6 2A       		.uleb128 0x2a
 1812 09d7 2E050000 		.4byte	0x52e
 1813 09db 01050000 		.4byte	.LLST40
 1814 09df 2B       		.uleb128 0x2b
 1815 09e0 A8010000 		.4byte	.Ldebug_ranges0+0x1a8
 1816 09e4 2D       		.uleb128 0x2d
ARM GAS  C:\msys64\tmp\ccKSWDID.s 			page 33


 1817 09e5 49050000 		.4byte	0x549
 1818 09e9 19050000 		.4byte	.LLST41
 1819 09ed 2D       		.uleb128 0x2d
 1820 09ee 54050000 		.4byte	0x554
 1821 09f2 4A050000 		.4byte	.LLST42
 1822 09f6 00       		.byte	0
 1823 09f7 00       		.byte	0
 1824 09f8 00       		.byte	0
 1825 09f9 1E       		.uleb128 0x1e
 1826 09fa C5030000 		.4byte	0x3c5
 1827 09fe 02       		.byte	0x2
 1828 09ff 070A0000 		.4byte	0xa07
 1829 0a03 110A0000 		.4byte	0xa11
 1830 0a07 1F       		.uleb128 0x1f
 1831 0a08 AC040000 		.4byte	.LASF69
 1832 0a0c 1B050000 		.4byte	0x51b
 1833 0a10 00       		.byte	0
 1834 0a11 1E       		.uleb128 0x1e
 1835 0a12 72010000 		.4byte	0x172
 1836 0a16 02       		.byte	0x2
 1837 0a17 1F0A0000 		.4byte	0xa1f
 1838 0a1b 290A0000 		.4byte	0xa29
 1839 0a1f 1F       		.uleb128 0x1f
 1840 0a20 AC040000 		.4byte	.LASF69
 1841 0a24 60050000 		.4byte	0x560
 1842 0a28 00       		.byte	0
 1843 0a29 38       		.uleb128 0x38
 1844 0a2a 0C060000 		.4byte	.LASF116
 1845 0a2e 00000000 		.4byte	.LFB276
 1846 0a32 3C000000 		.4byte	.LFE276-.LFB276
 1847 0a36 01       		.uleb128 0x1
 1848 0a37 9C       		.byte	0x9c
 1849 0a38 C90A0000 		.4byte	0xac9
 1850 0a3c 31       		.uleb128 0x31
 1851 0a3d 4C060000 		.4byte	0x64c
 1852 0a41 00000000 		.4byte	.LBB163
 1853 0a45 3C000000 		.4byte	.LBE163-.LBB163
 1854 0a49 01       		.byte	0x1
 1855 0a4a 4D       		.byte	0x4d
 1856 0a4b 2A       		.uleb128 0x2a
 1857 0a4c 56060000 		.4byte	0x656
 1858 0a50 5E050000 		.4byte	.LLST43
 1859 0a54 2A       		.uleb128 0x2a
 1860 0a55 61060000 		.4byte	0x661
 1861 0a59 72050000 		.4byte	.LLST44
 1862 0a5d 39       		.uleb128 0x39
 1863 0a5e F9090000 		.4byte	0x9f9
 1864 0a62 00000000 		.4byte	.LBB165
 1865 0a66 12000000 		.4byte	.LBE165-.LBB165
 1866 0a6a 01       		.byte	0x1
 1867 0a6b 07       		.byte	0x7
 1868 0a6c 940A0000 		.4byte	0xa94
 1869 0a70 2A       		.uleb128 0x2a
 1870 0a71 070A0000 		.4byte	0xa07
 1871 0a75 88050000 		.4byte	.LLST45
 1872 0a79 3A       		.uleb128 0x3a
 1873 0a7a 110A0000 		.4byte	0xa11
ARM GAS  C:\msys64\tmp\ccKSWDID.s 			page 34


 1874 0a7e 00000000 		.4byte	.LBB167
 1875 0a82 0E000000 		.4byte	.LBE167-.LBB167
 1876 0a86 03       		.byte	0x3
 1877 0a87 5801     		.2byte	0x158
 1878 0a89 2A       		.uleb128 0x2a
 1879 0a8a 1F0A0000 		.4byte	0xa1f
 1880 0a8e A0050000 		.4byte	.LLST46
 1881 0a92 00       		.byte	0
 1882 0a93 00       		.byte	0
 1883 0a94 31       		.uleb128 0x31
 1884 0a95 F9090000 		.4byte	0x9f9
 1885 0a99 12000000 		.4byte	.LBB169
 1886 0a9d 0E000000 		.4byte	.LBE169-.LBB169
 1887 0aa1 01       		.byte	0x1
 1888 0aa2 07       		.byte	0x7
 1889 0aa3 2A       		.uleb128 0x2a
 1890 0aa4 070A0000 		.4byte	0xa07
 1891 0aa8 B8050000 		.4byte	.LLST47
 1892 0aac 3A       		.uleb128 0x3a
 1893 0aad 110A0000 		.4byte	0xa11
 1894 0ab1 12000000 		.4byte	.LBB171
 1895 0ab5 0A000000 		.4byte	.LBE171-.LBB171
 1896 0ab9 03       		.byte	0x3
 1897 0aba 5801     		.2byte	0x158
 1898 0abc 2A       		.uleb128 0x2a
 1899 0abd 1F0A0000 		.4byte	0xa1f
 1900 0ac1 D0050000 		.4byte	.LLST48
 1901 0ac5 00       		.byte	0
 1902 0ac6 00       		.byte	0
 1903 0ac7 00       		.byte	0
 1904 0ac8 00       		.byte	0
 1905 0ac9 3B       		.uleb128 0x3b
 1906 0aca 42030000 		.4byte	.LASF91
 1907 0ace 02       		.byte	0x2
 1908 0acf 46       		.byte	0x46
 1909 0ad0 A9050000 		.4byte	0x5a9
 1910 0ad4 3B       		.uleb128 0x3b
 1911 0ad5 4F050000 		.4byte	.LASF92
 1912 0ad9 02       		.byte	0x2
 1913 0ada 4B       		.byte	0x4b
 1914 0adb A9050000 		.4byte	0x5a9
 1915 0adf 3C       		.uleb128 0x3c
 1916 0ae0 0C010000 		.4byte	0x10c
 1917 0ae4 EF0A0000 		.4byte	0xaef
 1918 0ae8 3D       		.uleb128 0x3d
 1919 0ae9 C0000000 		.4byte	0xc0
 1920 0aed 80       		.byte	0x80
 1921 0aee 00       		.byte	0
 1922 0aef 3B       		.uleb128 0x3b
 1923 0af0 46060000 		.4byte	.LASF93
 1924 0af4 02       		.byte	0x2
 1925 0af5 82       		.byte	0x82
 1926 0af6 FA0A0000 		.4byte	0xafa
 1927 0afa 09       		.uleb128 0x9
 1928 0afb DF0A0000 		.4byte	0xadf
 1929 0aff 3C       		.uleb128 0x3c
 1930 0b00 0C010000 		.4byte	0x10c
ARM GAS  C:\msys64\tmp\ccKSWDID.s 			page 35


 1931 0b04 100B0000 		.4byte	0xb10
 1932 0b08 3E       		.uleb128 0x3e
 1933 0b09 C0000000 		.4byte	0xc0
 1934 0b0d 0001     		.2byte	0x100
 1935 0b0f 00       		.byte	0
 1936 0b10 3B       		.uleb128 0x3b
 1937 0b11 9B030000 		.4byte	.LASF94
 1938 0b15 02       		.byte	0x2
 1939 0b16 C9       		.byte	0xc9
 1940 0b17 1B0B0000 		.4byte	0xb1b
 1941 0b1b 09       		.uleb128 0x9
 1942 0b1c FF0A0000 		.4byte	0xaff
 1943 0b20 3B       		.uleb128 0x3b
 1944 0b21 D8010000 		.4byte	.LASF95
 1945 0b25 02       		.byte	0x2
 1946 0b26 E0       		.byte	0xe0
 1947 0b27 2B0B0000 		.4byte	0xb2b
 1948 0b2b 09       		.uleb128 0x9
 1949 0b2c FF0A0000 		.4byte	0xaff
 1950 0b30 3B       		.uleb128 0x3b
 1951 0b31 B1040000 		.4byte	.LASF96
 1952 0b35 02       		.byte	0x2
 1953 0b36 F8       		.byte	0xf8
 1954 0b37 3B0B0000 		.4byte	0xb3b
 1955 0b3b 09       		.uleb128 0x9
 1956 0b3c FF0A0000 		.4byte	0xaff
 1957 0b40 3F       		.uleb128 0x3f
 1958 0b41 37030000 		.4byte	.LASF97
 1959 0b45 02       		.byte	0x2
 1960 0b46 0F01     		.2byte	0x10f
 1961 0b48 4C0B0000 		.4byte	0xb4c
 1962 0b4c 09       		.uleb128 0x9
 1963 0b4d FF0A0000 		.4byte	0xaff
 1964 0b51 3F       		.uleb128 0x3f
 1965 0b52 37050000 		.4byte	.LASF98
 1966 0b56 02       		.byte	0x2
 1967 0b57 3E01     		.2byte	0x13e
 1968 0b59 5D0B0000 		.4byte	0xb5d
 1969 0b5d 09       		.uleb128 0x9
 1970 0b5e DF0A0000 		.4byte	0xadf
 1971 0b62 3F       		.uleb128 0x3f
 1972 0b63 84030000 		.4byte	.LASF99
 1973 0b67 02       		.byte	0x2
 1974 0b68 5301     		.2byte	0x153
 1975 0b6a 6E0B0000 		.4byte	0xb6e
 1976 0b6e 09       		.uleb128 0x9
 1977 0b6f DF0A0000 		.4byte	0xadf
 1978 0b73 3F       		.uleb128 0x3f
 1979 0b74 86010000 		.4byte	.LASF100
 1980 0b78 02       		.byte	0x2
 1981 0b79 7001     		.2byte	0x170
 1982 0b7b 7F0B0000 		.4byte	0xb7f
 1983 0b7f 09       		.uleb128 0x9
 1984 0b80 DF0A0000 		.4byte	0xadf
 1985 0b84 40       		.uleb128 0x40
 1986 0b85 D0060000 		.4byte	.LASF101
 1987 0b89 01       		.byte	0x1
ARM GAS  C:\msys64\tmp\ccKSWDID.s 			page 36


 1988 0b8a 05       		.byte	0x5
 1989 0b8b 25000000 		.4byte	0x25
 1990 0b8f 05       		.uleb128 0x5
 1991 0b90 03       		.byte	0x3
 1992 0b91 00000000 		.4byte	curSampleL
 1993 0b95 40       		.uleb128 0x40
 1994 0b96 F0060000 		.4byte	.LASF102
 1995 0b9a 01       		.byte	0x1
 1996 0b9b 05       		.byte	0x5
 1997 0b9c 25000000 		.4byte	0x25
 1998 0ba0 05       		.uleb128 0x5
 1999 0ba1 03       		.byte	0x3
 2000 0ba2 00000000 		.4byte	curSampleR
 2001 0ba6 41       		.uleb128 0x41
 2002 0ba7 B3060000 		.4byte	.LASF103
 2003 0bab 01       		.byte	0x1
 2004 0bac 07       		.byte	0x7
 2005 0bad 22010000 		.4byte	0x122
 2006 0bb1 05       		.uleb128 0x5
 2007 0bb2 03       		.byte	0x3
 2008 0bb3 00000000 		.4byte	_ZL8filter_l
 2009 0bb7 41       		.uleb128 0x41
 2010 0bb8 C7060000 		.4byte	.LASF104
 2011 0bbc 01       		.byte	0x1
 2012 0bbd 07       		.byte	0x7
 2013 0bbe 22010000 		.4byte	0x122
 2014 0bc2 05       		.uleb128 0x5
 2015 0bc3 03       		.byte	0x3
 2016 0bc4 1C000000 		.4byte	_ZL8filter_r
 2017 0bc8 40       		.uleb128 0x40
 2018 0bc9 E6030000 		.4byte	.LASF105
 2019 0bcd 01       		.byte	0x1
 2020 0bce 08       		.byte	0x8
 2021 0bcf 25000000 		.4byte	0x25
 2022 0bd3 05       		.uleb128 0x5
 2023 0bd4 03       		.byte	0x3
 2024 0bd5 00000000 		.4byte	resonance
 2025 0bd9 40       		.uleb128 0x40
 2026 0bda 21030000 		.4byte	.LASF106
 2027 0bde 01       		.byte	0x1
 2028 0bdf 09       		.byte	0x9
 2029 0be0 25000000 		.4byte	0x25
 2030 0be4 05       		.uleb128 0x5
 2031 0be5 03       		.byte	0x3
 2032 0be6 00000000 		.4byte	cutoff
 2033 0bea 42       		.uleb128 0x42
 2034 0beb 7A00     		.ascii	"z\000"
 2035 0bed 01       		.byte	0x1
 2036 0bee 0A       		.byte	0xa
 2037 0bef 25000000 		.4byte	0x25
 2038 0bf3 05       		.uleb128 0x5
 2039 0bf4 03       		.byte	0x3
 2040 0bf5 00000000 		.4byte	z
 2041 0bf9 42       		.uleb128 0x42
 2042 0bfa 6100     		.ascii	"a\000"
 2043 0bfc 01       		.byte	0x1
 2044 0bfd 0B       		.byte	0xb
ARM GAS  C:\msys64\tmp\ccKSWDID.s 			page 37


 2045 0bfe 25000000 		.4byte	0x25
 2046 0c02 05       		.uleb128 0x5
 2047 0c03 03       		.byte	0x3
 2048 0c04 00000000 		.4byte	a
 2049 0c08 42       		.uleb128 0x42
 2050 0c09 6200     		.ascii	"b\000"
 2051 0c0b 01       		.byte	0x1
 2052 0c0c 0C       		.byte	0xc
 2053 0c0d 25000000 		.4byte	0x25
 2054 0c11 05       		.uleb128 0x5
 2055 0c12 03       		.byte	0x3
 2056 0c13 00000000 		.4byte	b
 2057 0c17 00       		.byte	0
 2058              		.section	.debug_abbrev,"",%progbits
 2059              	.Ldebug_abbrev0:
 2060 0000 01       		.uleb128 0x1
 2061 0001 11       		.uleb128 0x11
 2062 0002 01       		.byte	0x1
 2063 0003 25       		.uleb128 0x25
 2064 0004 0E       		.uleb128 0xe
 2065 0005 13       		.uleb128 0x13
 2066 0006 0B       		.uleb128 0xb
 2067 0007 03       		.uleb128 0x3
 2068 0008 0E       		.uleb128 0xe
 2069 0009 1B       		.uleb128 0x1b
 2070 000a 0E       		.uleb128 0xe
 2071 000b 55       		.uleb128 0x55
 2072 000c 17       		.uleb128 0x17
 2073 000d 11       		.uleb128 0x11
 2074 000e 01       		.uleb128 0x1
 2075 000f 10       		.uleb128 0x10
 2076 0010 17       		.uleb128 0x17
 2077 0011 00       		.byte	0
 2078 0012 00       		.byte	0
 2079 0013 02       		.uleb128 0x2
 2080 0014 24       		.uleb128 0x24
 2081 0015 00       		.byte	0
 2082 0016 0B       		.uleb128 0xb
 2083 0017 0B       		.uleb128 0xb
 2084 0018 3E       		.uleb128 0x3e
 2085 0019 0B       		.uleb128 0xb
 2086 001a 03       		.uleb128 0x3
 2087 001b 0E       		.uleb128 0xe
 2088 001c 00       		.byte	0
 2089 001d 00       		.byte	0
 2090 001e 03       		.uleb128 0x3
 2091 001f 24       		.uleb128 0x24
 2092 0020 00       		.byte	0
 2093 0021 0B       		.uleb128 0xb
 2094 0022 0B       		.uleb128 0xb
 2095 0023 3E       		.uleb128 0x3e
 2096 0024 0B       		.uleb128 0xb
 2097 0025 03       		.uleb128 0x3
 2098 0026 08       		.uleb128 0x8
 2099 0027 00       		.byte	0
 2100 0028 00       		.byte	0
 2101 0029 04       		.uleb128 0x4
ARM GAS  C:\msys64\tmp\ccKSWDID.s 			page 38


 2102 002a 16       		.uleb128 0x16
 2103 002b 00       		.byte	0
 2104 002c 03       		.uleb128 0x3
 2105 002d 0E       		.uleb128 0xe
 2106 002e 3A       		.uleb128 0x3a
 2107 002f 0B       		.uleb128 0xb
 2108 0030 3B       		.uleb128 0x3b
 2109 0031 0B       		.uleb128 0xb
 2110 0032 49       		.uleb128 0x49
 2111 0033 13       		.uleb128 0x13
 2112 0034 00       		.byte	0
 2113 0035 00       		.byte	0
 2114 0036 05       		.uleb128 0x5
 2115 0037 3B       		.uleb128 0x3b
 2116 0038 00       		.byte	0
 2117 0039 03       		.uleb128 0x3
 2118 003a 0E       		.uleb128 0xe
 2119 003b 00       		.byte	0
 2120 003c 00       		.byte	0
 2121 003d 06       		.uleb128 0x6
 2122 003e 04       		.uleb128 0x4
 2123 003f 01       		.byte	0x1
 2124 0040 0B       		.uleb128 0xb
 2125 0041 0B       		.uleb128 0xb
 2126 0042 49       		.uleb128 0x49
 2127 0043 13       		.uleb128 0x13
 2128 0044 3A       		.uleb128 0x3a
 2129 0045 0B       		.uleb128 0xb
 2130 0046 3B       		.uleb128 0x3b
 2131 0047 0B       		.uleb128 0xb
 2132 0048 01       		.uleb128 0x1
 2133 0049 13       		.uleb128 0x13
 2134 004a 00       		.byte	0
 2135 004b 00       		.byte	0
 2136 004c 07       		.uleb128 0x7
 2137 004d 28       		.uleb128 0x28
 2138 004e 00       		.byte	0
 2139 004f 03       		.uleb128 0x3
 2140 0050 0E       		.uleb128 0xe
 2141 0051 1C       		.uleb128 0x1c
 2142 0052 0B       		.uleb128 0xb
 2143 0053 00       		.byte	0
 2144 0054 00       		.byte	0
 2145 0055 08       		.uleb128 0x8
 2146 0056 0F       		.uleb128 0xf
 2147 0057 00       		.byte	0
 2148 0058 0B       		.uleb128 0xb
 2149 0059 0B       		.uleb128 0xb
 2150 005a 49       		.uleb128 0x49
 2151 005b 13       		.uleb128 0x13
 2152 005c 00       		.byte	0
 2153 005d 00       		.byte	0
 2154 005e 09       		.uleb128 0x9
 2155 005f 26       		.uleb128 0x26
 2156 0060 00       		.byte	0
 2157 0061 49       		.uleb128 0x49
 2158 0062 13       		.uleb128 0x13
ARM GAS  C:\msys64\tmp\ccKSWDID.s 			page 39


 2159 0063 00       		.byte	0
 2160 0064 00       		.byte	0
 2161 0065 0A       		.uleb128 0xa
 2162 0066 39       		.uleb128 0x39
 2163 0067 01       		.byte	0x1
 2164 0068 03       		.uleb128 0x3
 2165 0069 08       		.uleb128 0x8
 2166 006a 3A       		.uleb128 0x3a
 2167 006b 0B       		.uleb128 0xb
 2168 006c 3B       		.uleb128 0x3b
 2169 006d 0B       		.uleb128 0xb
 2170 006e 01       		.uleb128 0x1
 2171 006f 13       		.uleb128 0x13
 2172 0070 00       		.byte	0
 2173 0071 00       		.byte	0
 2174 0072 0B       		.uleb128 0xb
 2175 0073 13       		.uleb128 0x13
 2176 0074 01       		.byte	0x1
 2177 0075 03       		.uleb128 0x3
 2178 0076 0E       		.uleb128 0xe
 2179 0077 0B       		.uleb128 0xb
 2180 0078 0B       		.uleb128 0xb
 2181 0079 3A       		.uleb128 0x3a
 2182 007a 0B       		.uleb128 0xb
 2183 007b 3B       		.uleb128 0x3b
 2184 007c 0B       		.uleb128 0xb
 2185 007d 00       		.byte	0
 2186 007e 00       		.byte	0
 2187 007f 0C       		.uleb128 0xc
 2188 0080 13       		.uleb128 0x13
 2189 0081 01       		.byte	0x1
 2190 0082 03       		.uleb128 0x3
 2191 0083 0E       		.uleb128 0xe
 2192 0084 0B       		.uleb128 0xb
 2193 0085 0B       		.uleb128 0xb
 2194 0086 3A       		.uleb128 0x3a
 2195 0087 0B       		.uleb128 0xb
 2196 0088 3B       		.uleb128 0x3b
 2197 0089 0B       		.uleb128 0xb
 2198 008a 01       		.uleb128 0x1
 2199 008b 13       		.uleb128 0x13
 2200 008c 00       		.byte	0
 2201 008d 00       		.byte	0
 2202 008e 0D       		.uleb128 0xd
 2203 008f 0D       		.uleb128 0xd
 2204 0090 00       		.byte	0
 2205 0091 03       		.uleb128 0x3
 2206 0092 08       		.uleb128 0x8
 2207 0093 3A       		.uleb128 0x3a
 2208 0094 0B       		.uleb128 0xb
 2209 0095 3B       		.uleb128 0x3b
 2210 0096 0B       		.uleb128 0xb
 2211 0097 49       		.uleb128 0x49
 2212 0098 13       		.uleb128 0x13
 2213 0099 38       		.uleb128 0x38
 2214 009a 0B       		.uleb128 0xb
 2215 009b 00       		.byte	0
ARM GAS  C:\msys64\tmp\ccKSWDID.s 			page 40


 2216 009c 00       		.byte	0
 2217 009d 0E       		.uleb128 0xe
 2218 009e 2E       		.uleb128 0x2e
 2219 009f 01       		.byte	0x1
 2220 00a0 3F       		.uleb128 0x3f
 2221 00a1 19       		.uleb128 0x19
 2222 00a2 03       		.uleb128 0x3
 2223 00a3 0E       		.uleb128 0xe
 2224 00a4 3A       		.uleb128 0x3a
 2225 00a5 0B       		.uleb128 0xb
 2226 00a6 3B       		.uleb128 0x3b
 2227 00a7 0B       		.uleb128 0xb
 2228 00a8 6E       		.uleb128 0x6e
 2229 00a9 0E       		.uleb128 0xe
 2230 00aa 49       		.uleb128 0x49
 2231 00ab 13       		.uleb128 0x13
 2232 00ac 3C       		.uleb128 0x3c
 2233 00ad 19       		.uleb128 0x19
 2234 00ae 64       		.uleb128 0x64
 2235 00af 13       		.uleb128 0x13
 2236 00b0 01       		.uleb128 0x1
 2237 00b1 13       		.uleb128 0x13
 2238 00b2 00       		.byte	0
 2239 00b3 00       		.byte	0
 2240 00b4 0F       		.uleb128 0xf
 2241 00b5 05       		.uleb128 0x5
 2242 00b6 00       		.byte	0
 2243 00b7 49       		.uleb128 0x49
 2244 00b8 13       		.uleb128 0x13
 2245 00b9 34       		.uleb128 0x34
 2246 00ba 19       		.uleb128 0x19
 2247 00bb 00       		.byte	0
 2248 00bc 00       		.byte	0
 2249 00bd 10       		.uleb128 0x10
 2250 00be 2E       		.uleb128 0x2e
 2251 00bf 01       		.byte	0x1
 2252 00c0 3F       		.uleb128 0x3f
 2253 00c1 19       		.uleb128 0x19
 2254 00c2 03       		.uleb128 0x3
 2255 00c3 08       		.uleb128 0x8
 2256 00c4 3A       		.uleb128 0x3a
 2257 00c5 0B       		.uleb128 0xb
 2258 00c6 3B       		.uleb128 0x3b
 2259 00c7 0B       		.uleb128 0xb
 2260 00c8 6E       		.uleb128 0x6e
 2261 00c9 0E       		.uleb128 0xe
 2262 00ca 49       		.uleb128 0x49
 2263 00cb 13       		.uleb128 0x13
 2264 00cc 3C       		.uleb128 0x3c
 2265 00cd 19       		.uleb128 0x19
 2266 00ce 01       		.uleb128 0x1
 2267 00cf 13       		.uleb128 0x13
 2268 00d0 00       		.byte	0
 2269 00d1 00       		.byte	0
 2270 00d2 11       		.uleb128 0x11
 2271 00d3 05       		.uleb128 0x5
 2272 00d4 00       		.byte	0
ARM GAS  C:\msys64\tmp\ccKSWDID.s 			page 41


 2273 00d5 49       		.uleb128 0x49
 2274 00d6 13       		.uleb128 0x13
 2275 00d7 00       		.byte	0
 2276 00d8 00       		.byte	0
 2277 00d9 12       		.uleb128 0x12
 2278 00da 2E       		.uleb128 0x2e
 2279 00db 01       		.byte	0x1
 2280 00dc 3F       		.uleb128 0x3f
 2281 00dd 19       		.uleb128 0x19
 2282 00de 03       		.uleb128 0x3
 2283 00df 0E       		.uleb128 0xe
 2284 00e0 3A       		.uleb128 0x3a
 2285 00e1 0B       		.uleb128 0xb
 2286 00e2 3B       		.uleb128 0x3b
 2287 00e3 0B       		.uleb128 0xb
 2288 00e4 6E       		.uleb128 0x6e
 2289 00e5 0E       		.uleb128 0xe
 2290 00e6 3C       		.uleb128 0x3c
 2291 00e7 19       		.uleb128 0x19
 2292 00e8 64       		.uleb128 0x64
 2293 00e9 13       		.uleb128 0x13
 2294 00ea 01       		.uleb128 0x1
 2295 00eb 13       		.uleb128 0x13
 2296 00ec 00       		.byte	0
 2297 00ed 00       		.byte	0
 2298 00ee 13       		.uleb128 0x13
 2299 00ef 2E       		.uleb128 0x2e
 2300 00f0 01       		.byte	0x1
 2301 00f1 3F       		.uleb128 0x3f
 2302 00f2 19       		.uleb128 0x19
 2303 00f3 03       		.uleb128 0x3
 2304 00f4 0E       		.uleb128 0xe
 2305 00f5 3A       		.uleb128 0x3a
 2306 00f6 0B       		.uleb128 0xb
 2307 00f7 3B       		.uleb128 0x3b
 2308 00f8 05       		.uleb128 0x5
 2309 00f9 6E       		.uleb128 0x6e
 2310 00fa 0E       		.uleb128 0xe
 2311 00fb 3C       		.uleb128 0x3c
 2312 00fc 19       		.uleb128 0x19
 2313 00fd 64       		.uleb128 0x64
 2314 00fe 13       		.uleb128 0x13
 2315 00ff 01       		.uleb128 0x1
 2316 0100 13       		.uleb128 0x13
 2317 0101 00       		.byte	0
 2318 0102 00       		.byte	0
 2319 0103 14       		.uleb128 0x14
 2320 0104 2E       		.uleb128 0x2e
 2321 0105 01       		.byte	0x1
 2322 0106 3F       		.uleb128 0x3f
 2323 0107 19       		.uleb128 0x19
 2324 0108 03       		.uleb128 0x3
 2325 0109 0E       		.uleb128 0xe
 2326 010a 3A       		.uleb128 0x3a
 2327 010b 0B       		.uleb128 0xb
 2328 010c 3B       		.uleb128 0x3b
 2329 010d 05       		.uleb128 0x5
ARM GAS  C:\msys64\tmp\ccKSWDID.s 			page 42


 2330 010e 6E       		.uleb128 0x6e
 2331 010f 0E       		.uleb128 0xe
 2332 0110 3C       		.uleb128 0x3c
 2333 0111 19       		.uleb128 0x19
 2334 0112 64       		.uleb128 0x64
 2335 0113 13       		.uleb128 0x13
 2336 0114 00       		.byte	0
 2337 0115 00       		.byte	0
 2338 0116 15       		.uleb128 0x15
 2339 0117 16       		.uleb128 0x16
 2340 0118 00       		.byte	0
 2341 0119 03       		.uleb128 0x3
 2342 011a 0E       		.uleb128 0xe
 2343 011b 3A       		.uleb128 0x3a
 2344 011c 0B       		.uleb128 0xb
 2345 011d 3B       		.uleb128 0x3b
 2346 011e 05       		.uleb128 0x5
 2347 011f 49       		.uleb128 0x49
 2348 0120 13       		.uleb128 0x13
 2349 0121 00       		.byte	0
 2350 0122 00       		.byte	0
 2351 0123 16       		.uleb128 0x16
 2352 0124 0D       		.uleb128 0xd
 2353 0125 00       		.byte	0
 2354 0126 03       		.uleb128 0x3
 2355 0127 0E       		.uleb128 0xe
 2356 0128 3A       		.uleb128 0x3a
 2357 0129 0B       		.uleb128 0xb
 2358 012a 3B       		.uleb128 0x3b
 2359 012b 05       		.uleb128 0x5
 2360 012c 49       		.uleb128 0x49
 2361 012d 13       		.uleb128 0x13
 2362 012e 38       		.uleb128 0x38
 2363 012f 0B       		.uleb128 0xb
 2364 0130 00       		.byte	0
 2365 0131 00       		.byte	0
 2366 0132 17       		.uleb128 0x17
 2367 0133 0D       		.uleb128 0xd
 2368 0134 00       		.byte	0
 2369 0135 03       		.uleb128 0x3
 2370 0136 08       		.uleb128 0x8
 2371 0137 3A       		.uleb128 0x3a
 2372 0138 0B       		.uleb128 0xb
 2373 0139 3B       		.uleb128 0x3b
 2374 013a 05       		.uleb128 0x5
 2375 013b 49       		.uleb128 0x49
 2376 013c 13       		.uleb128 0x13
 2377 013d 38       		.uleb128 0x38
 2378 013e 0B       		.uleb128 0xb
 2379 013f 00       		.byte	0
 2380 0140 00       		.byte	0
 2381 0141 18       		.uleb128 0x18
 2382 0142 2E       		.uleb128 0x2e
 2383 0143 01       		.byte	0x1
 2384 0144 3F       		.uleb128 0x3f
 2385 0145 19       		.uleb128 0x19
 2386 0146 03       		.uleb128 0x3
ARM GAS  C:\msys64\tmp\ccKSWDID.s 			page 43


 2387 0147 0E       		.uleb128 0xe
 2388 0148 3A       		.uleb128 0x3a
 2389 0149 0B       		.uleb128 0xb
 2390 014a 3B       		.uleb128 0x3b
 2391 014b 05       		.uleb128 0x5
 2392 014c 6E       		.uleb128 0x6e
 2393 014d 0E       		.uleb128 0xe
 2394 014e 49       		.uleb128 0x49
 2395 014f 13       		.uleb128 0x13
 2396 0150 3C       		.uleb128 0x3c
 2397 0151 19       		.uleb128 0x19
 2398 0152 64       		.uleb128 0x64
 2399 0153 13       		.uleb128 0x13
 2400 0154 01       		.uleb128 0x1
 2401 0155 13       		.uleb128 0x13
 2402 0156 00       		.byte	0
 2403 0157 00       		.byte	0
 2404 0158 19       		.uleb128 0x19
 2405 0159 2E       		.uleb128 0x2e
 2406 015a 01       		.byte	0x1
 2407 015b 3F       		.uleb128 0x3f
 2408 015c 19       		.uleb128 0x19
 2409 015d 03       		.uleb128 0x3
 2410 015e 0E       		.uleb128 0xe
 2411 015f 3A       		.uleb128 0x3a
 2412 0160 0B       		.uleb128 0xb
 2413 0161 3B       		.uleb128 0x3b
 2414 0162 05       		.uleb128 0x5
 2415 0163 6E       		.uleb128 0x6e
 2416 0164 0E       		.uleb128 0xe
 2417 0165 49       		.uleb128 0x49
 2418 0166 13       		.uleb128 0x13
 2419 0167 3C       		.uleb128 0x3c
 2420 0168 19       		.uleb128 0x19
 2421 0169 64       		.uleb128 0x64
 2422 016a 13       		.uleb128 0x13
 2423 016b 00       		.byte	0
 2424 016c 00       		.byte	0
 2425 016d 1A       		.uleb128 0x1a
 2426 016e 2E       		.uleb128 0x2e
 2427 016f 01       		.byte	0x1
 2428 0170 03       		.uleb128 0x3
 2429 0171 0E       		.uleb128 0xe
 2430 0172 3A       		.uleb128 0x3a
 2431 0173 0B       		.uleb128 0xb
 2432 0174 3B       		.uleb128 0x3b
 2433 0175 0B       		.uleb128 0xb
 2434 0176 49       		.uleb128 0x49
 2435 0177 13       		.uleb128 0x13
 2436 0178 20       		.uleb128 0x20
 2437 0179 0B       		.uleb128 0xb
 2438 017a 01       		.uleb128 0x1
 2439 017b 13       		.uleb128 0x13
 2440 017c 00       		.byte	0
 2441 017d 00       		.byte	0
 2442 017e 1B       		.uleb128 0x1b
 2443 017f 05       		.uleb128 0x5
ARM GAS  C:\msys64\tmp\ccKSWDID.s 			page 44


 2444 0180 00       		.byte	0
 2445 0181 03       		.uleb128 0x3
 2446 0182 08       		.uleb128 0x8
 2447 0183 3A       		.uleb128 0x3a
 2448 0184 0B       		.uleb128 0xb
 2449 0185 3B       		.uleb128 0x3b
 2450 0186 0B       		.uleb128 0xb
 2451 0187 49       		.uleb128 0x49
 2452 0188 13       		.uleb128 0x13
 2453 0189 00       		.byte	0
 2454 018a 00       		.byte	0
 2455 018b 1C       		.uleb128 0x1c
 2456 018c 2E       		.uleb128 0x2e
 2457 018d 01       		.byte	0x1
 2458 018e 03       		.uleb128 0x3
 2459 018f 0E       		.uleb128 0xe
 2460 0190 3A       		.uleb128 0x3a
 2461 0191 0B       		.uleb128 0xb
 2462 0192 3B       		.uleb128 0x3b
 2463 0193 05       		.uleb128 0x5
 2464 0194 49       		.uleb128 0x49
 2465 0195 13       		.uleb128 0x13
 2466 0196 20       		.uleb128 0x20
 2467 0197 0B       		.uleb128 0xb
 2468 0198 01       		.uleb128 0x1
 2469 0199 13       		.uleb128 0x13
 2470 019a 00       		.byte	0
 2471 019b 00       		.byte	0
 2472 019c 1D       		.uleb128 0x1d
 2473 019d 05       		.uleb128 0x5
 2474 019e 00       		.byte	0
 2475 019f 03       		.uleb128 0x3
 2476 01a0 08       		.uleb128 0x8
 2477 01a1 3A       		.uleb128 0x3a
 2478 01a2 0B       		.uleb128 0xb
 2479 01a3 3B       		.uleb128 0x3b
 2480 01a4 05       		.uleb128 0x5
 2481 01a5 49       		.uleb128 0x49
 2482 01a6 13       		.uleb128 0x13
 2483 01a7 00       		.byte	0
 2484 01a8 00       		.byte	0
 2485 01a9 1E       		.uleb128 0x1e
 2486 01aa 2E       		.uleb128 0x2e
 2487 01ab 01       		.byte	0x1
 2488 01ac 47       		.uleb128 0x47
 2489 01ad 13       		.uleb128 0x13
 2490 01ae 20       		.uleb128 0x20
 2491 01af 0B       		.uleb128 0xb
 2492 01b0 64       		.uleb128 0x64
 2493 01b1 13       		.uleb128 0x13
 2494 01b2 01       		.uleb128 0x1
 2495 01b3 13       		.uleb128 0x13
 2496 01b4 00       		.byte	0
 2497 01b5 00       		.byte	0
 2498 01b6 1F       		.uleb128 0x1f
 2499 01b7 05       		.uleb128 0x5
 2500 01b8 00       		.byte	0
ARM GAS  C:\msys64\tmp\ccKSWDID.s 			page 45


 2501 01b9 03       		.uleb128 0x3
 2502 01ba 0E       		.uleb128 0xe
 2503 01bb 49       		.uleb128 0x49
 2504 01bc 13       		.uleb128 0x13
 2505 01bd 34       		.uleb128 0x34
 2506 01be 19       		.uleb128 0x19
 2507 01bf 00       		.byte	0
 2508 01c0 00       		.byte	0
 2509 01c1 20       		.uleb128 0x20
 2510 01c2 34       		.uleb128 0x34
 2511 01c3 00       		.byte	0
 2512 01c4 03       		.uleb128 0x3
 2513 01c5 08       		.uleb128 0x8
 2514 01c6 3A       		.uleb128 0x3a
 2515 01c7 0B       		.uleb128 0xb
 2516 01c8 3B       		.uleb128 0x3b
 2517 01c9 0B       		.uleb128 0xb
 2518 01ca 49       		.uleb128 0x49
 2519 01cb 13       		.uleb128 0x13
 2520 01cc 00       		.byte	0
 2521 01cd 00       		.byte	0
 2522 01ce 21       		.uleb128 0x21
 2523 01cf 34       		.uleb128 0x34
 2524 01d0 00       		.byte	0
 2525 01d1 03       		.uleb128 0x3
 2526 01d2 0E       		.uleb128 0xe
 2527 01d3 3A       		.uleb128 0x3a
 2528 01d4 0B       		.uleb128 0xb
 2529 01d5 3B       		.uleb128 0x3b
 2530 01d6 0B       		.uleb128 0xb
 2531 01d7 49       		.uleb128 0x49
 2532 01d8 13       		.uleb128 0x13
 2533 01d9 00       		.byte	0
 2534 01da 00       		.byte	0
 2535 01db 22       		.uleb128 0x22
 2536 01dc 34       		.uleb128 0x34
 2537 01dd 00       		.byte	0
 2538 01de 03       		.uleb128 0x3
 2539 01df 08       		.uleb128 0x8
 2540 01e0 3A       		.uleb128 0x3a
 2541 01e1 0B       		.uleb128 0xb
 2542 01e2 3B       		.uleb128 0x3b
 2543 01e3 05       		.uleb128 0x5
 2544 01e4 49       		.uleb128 0x49
 2545 01e5 13       		.uleb128 0x13
 2546 01e6 00       		.byte	0
 2547 01e7 00       		.byte	0
 2548 01e8 23       		.uleb128 0x23
 2549 01e9 2E       		.uleb128 0x2e
 2550 01ea 01       		.byte	0x1
 2551 01eb 3F       		.uleb128 0x3f
 2552 01ec 19       		.uleb128 0x19
 2553 01ed 03       		.uleb128 0x3
 2554 01ee 0E       		.uleb128 0xe
 2555 01ef 3A       		.uleb128 0x3a
 2556 01f0 0B       		.uleb128 0xb
 2557 01f1 3B       		.uleb128 0x3b
ARM GAS  C:\msys64\tmp\ccKSWDID.s 			page 46


 2558 01f2 0B       		.uleb128 0xb
 2559 01f3 6E       		.uleb128 0x6e
 2560 01f4 0E       		.uleb128 0xe
 2561 01f5 49       		.uleb128 0x49
 2562 01f6 13       		.uleb128 0x13
 2563 01f7 20       		.uleb128 0x20
 2564 01f8 0B       		.uleb128 0xb
 2565 01f9 01       		.uleb128 0x1
 2566 01fa 13       		.uleb128 0x13
 2567 01fb 00       		.byte	0
 2568 01fc 00       		.byte	0
 2569 01fd 24       		.uleb128 0x24
 2570 01fe 05       		.uleb128 0x5
 2571 01ff 00       		.byte	0
 2572 0200 03       		.uleb128 0x3
 2573 0201 0E       		.uleb128 0xe
 2574 0202 3A       		.uleb128 0x3a
 2575 0203 0B       		.uleb128 0xb
 2576 0204 3B       		.uleb128 0x3b
 2577 0205 0B       		.uleb128 0xb
 2578 0206 49       		.uleb128 0x49
 2579 0207 13       		.uleb128 0x13
 2580 0208 00       		.byte	0
 2581 0209 00       		.byte	0
 2582 020a 25       		.uleb128 0x25
 2583 020b 2E       		.uleb128 0x2e
 2584 020c 01       		.byte	0x1
 2585 020d 03       		.uleb128 0x3
 2586 020e 0E       		.uleb128 0xe
 2587 020f 34       		.uleb128 0x34
 2588 0210 19       		.uleb128 0x19
 2589 0211 20       		.uleb128 0x20
 2590 0212 0B       		.uleb128 0xb
 2591 0213 01       		.uleb128 0x1
 2592 0214 13       		.uleb128 0x13
 2593 0215 00       		.byte	0
 2594 0216 00       		.byte	0
 2595 0217 26       		.uleb128 0x26
 2596 0218 2E       		.uleb128 0x2e
 2597 0219 01       		.byte	0x1
 2598 021a 3F       		.uleb128 0x3f
 2599 021b 19       		.uleb128 0x19
 2600 021c 03       		.uleb128 0x3
 2601 021d 0E       		.uleb128 0xe
 2602 021e 3A       		.uleb128 0x3a
 2603 021f 0B       		.uleb128 0xb
 2604 0220 3B       		.uleb128 0x3b
 2605 0221 0B       		.uleb128 0xb
 2606 0222 11       		.uleb128 0x11
 2607 0223 01       		.uleb128 0x1
 2608 0224 12       		.uleb128 0x12
 2609 0225 06       		.uleb128 0x6
 2610 0226 40       		.uleb128 0x40
 2611 0227 18       		.uleb128 0x18
 2612 0228 9742     		.uleb128 0x2117
 2613 022a 19       		.uleb128 0x19
 2614 022b 01       		.uleb128 0x1
ARM GAS  C:\msys64\tmp\ccKSWDID.s 			page 47


 2615 022c 13       		.uleb128 0x13
 2616 022d 00       		.byte	0
 2617 022e 00       		.byte	0
 2618 022f 27       		.uleb128 0x27
 2619 0230 05       		.uleb128 0x5
 2620 0231 00       		.byte	0
 2621 0232 03       		.uleb128 0x3
 2622 0233 0E       		.uleb128 0xe
 2623 0234 3A       		.uleb128 0x3a
 2624 0235 0B       		.uleb128 0xb
 2625 0236 3B       		.uleb128 0x3b
 2626 0237 0B       		.uleb128 0xb
 2627 0238 49       		.uleb128 0x49
 2628 0239 13       		.uleb128 0x13
 2629 023a 02       		.uleb128 0x2
 2630 023b 17       		.uleb128 0x17
 2631 023c 00       		.byte	0
 2632 023d 00       		.byte	0
 2633 023e 28       		.uleb128 0x28
 2634 023f 05       		.uleb128 0x5
 2635 0240 00       		.byte	0
 2636 0241 03       		.uleb128 0x3
 2637 0242 08       		.uleb128 0x8
 2638 0243 3A       		.uleb128 0x3a
 2639 0244 0B       		.uleb128 0xb
 2640 0245 3B       		.uleb128 0x3b
 2641 0246 0B       		.uleb128 0xb
 2642 0247 49       		.uleb128 0x49
 2643 0248 13       		.uleb128 0x13
 2644 0249 02       		.uleb128 0x2
 2645 024a 17       		.uleb128 0x17
 2646 024b 00       		.byte	0
 2647 024c 00       		.byte	0
 2648 024d 29       		.uleb128 0x29
 2649 024e 1D       		.uleb128 0x1d
 2650 024f 01       		.byte	0x1
 2651 0250 31       		.uleb128 0x31
 2652 0251 13       		.uleb128 0x13
 2653 0252 52       		.uleb128 0x52
 2654 0253 01       		.uleb128 0x1
 2655 0254 55       		.uleb128 0x55
 2656 0255 17       		.uleb128 0x17
 2657 0256 58       		.uleb128 0x58
 2658 0257 0B       		.uleb128 0xb
 2659 0258 59       		.uleb128 0x59
 2660 0259 0B       		.uleb128 0xb
 2661 025a 01       		.uleb128 0x1
 2662 025b 13       		.uleb128 0x13
 2663 025c 00       		.byte	0
 2664 025d 00       		.byte	0
 2665 025e 2A       		.uleb128 0x2a
 2666 025f 05       		.uleb128 0x5
 2667 0260 00       		.byte	0
 2668 0261 31       		.uleb128 0x31
 2669 0262 13       		.uleb128 0x13
 2670 0263 02       		.uleb128 0x2
 2671 0264 17       		.uleb128 0x17
ARM GAS  C:\msys64\tmp\ccKSWDID.s 			page 48


 2672 0265 00       		.byte	0
 2673 0266 00       		.byte	0
 2674 0267 2B       		.uleb128 0x2b
 2675 0268 0B       		.uleb128 0xb
 2676 0269 01       		.byte	0x1
 2677 026a 55       		.uleb128 0x55
 2678 026b 17       		.uleb128 0x17
 2679 026c 00       		.byte	0
 2680 026d 00       		.byte	0
 2681 026e 2C       		.uleb128 0x2c
 2682 026f 34       		.uleb128 0x34
 2683 0270 00       		.byte	0
 2684 0271 31       		.uleb128 0x31
 2685 0272 13       		.uleb128 0x13
 2686 0273 02       		.uleb128 0x2
 2687 0274 18       		.uleb128 0x18
 2688 0275 00       		.byte	0
 2689 0276 00       		.byte	0
 2690 0277 2D       		.uleb128 0x2d
 2691 0278 34       		.uleb128 0x34
 2692 0279 00       		.byte	0
 2693 027a 31       		.uleb128 0x31
 2694 027b 13       		.uleb128 0x13
 2695 027c 02       		.uleb128 0x2
 2696 027d 17       		.uleb128 0x17
 2697 027e 00       		.byte	0
 2698 027f 00       		.byte	0
 2699 0280 2E       		.uleb128 0x2e
 2700 0281 34       		.uleb128 0x34
 2701 0282 00       		.byte	0
 2702 0283 31       		.uleb128 0x31
 2703 0284 13       		.uleb128 0x13
 2704 0285 00       		.byte	0
 2705 0286 00       		.byte	0
 2706 0287 2F       		.uleb128 0x2f
 2707 0288 1D       		.uleb128 0x1d
 2708 0289 01       		.byte	0x1
 2709 028a 31       		.uleb128 0x31
 2710 028b 13       		.uleb128 0x13
 2711 028c 52       		.uleb128 0x52
 2712 028d 01       		.uleb128 0x1
 2713 028e 55       		.uleb128 0x55
 2714 028f 17       		.uleb128 0x17
 2715 0290 58       		.uleb128 0x58
 2716 0291 0B       		.uleb128 0xb
 2717 0292 59       		.uleb128 0x59
 2718 0293 0B       		.uleb128 0xb
 2719 0294 00       		.byte	0
 2720 0295 00       		.byte	0
 2721 0296 30       		.uleb128 0x30
 2722 0297 05       		.uleb128 0x5
 2723 0298 00       		.byte	0
 2724 0299 31       		.uleb128 0x31
 2725 029a 13       		.uleb128 0x13
 2726 029b 00       		.byte	0
 2727 029c 00       		.byte	0
 2728 029d 31       		.uleb128 0x31
ARM GAS  C:\msys64\tmp\ccKSWDID.s 			page 49


 2729 029e 1D       		.uleb128 0x1d
 2730 029f 01       		.byte	0x1
 2731 02a0 31       		.uleb128 0x31
 2732 02a1 13       		.uleb128 0x13
 2733 02a2 11       		.uleb128 0x11
 2734 02a3 01       		.uleb128 0x1
 2735 02a4 12       		.uleb128 0x12
 2736 02a5 06       		.uleb128 0x6
 2737 02a6 58       		.uleb128 0x58
 2738 02a7 0B       		.uleb128 0xb
 2739 02a8 59       		.uleb128 0x59
 2740 02a9 0B       		.uleb128 0xb
 2741 02aa 00       		.byte	0
 2742 02ab 00       		.byte	0
 2743 02ac 32       		.uleb128 0x32
 2744 02ad 2E       		.uleb128 0x2e
 2745 02ae 01       		.byte	0x1
 2746 02af 31       		.uleb128 0x31
 2747 02b0 13       		.uleb128 0x13
 2748 02b1 6E       		.uleb128 0x6e
 2749 02b2 0E       		.uleb128 0xe
 2750 02b3 11       		.uleb128 0x11
 2751 02b4 01       		.uleb128 0x1
 2752 02b5 12       		.uleb128 0x12
 2753 02b6 06       		.uleb128 0x6
 2754 02b7 40       		.uleb128 0x40
 2755 02b8 18       		.uleb128 0x18
 2756 02b9 9742     		.uleb128 0x2117
 2757 02bb 19       		.uleb128 0x19
 2758 02bc 01       		.uleb128 0x1
 2759 02bd 13       		.uleb128 0x13
 2760 02be 00       		.byte	0
 2761 02bf 00       		.byte	0
 2762 02c0 33       		.uleb128 0x33
 2763 02c1 0B       		.uleb128 0xb
 2764 02c2 01       		.byte	0x1
 2765 02c3 11       		.uleb128 0x11
 2766 02c4 01       		.uleb128 0x1
 2767 02c5 12       		.uleb128 0x12
 2768 02c6 06       		.uleb128 0x6
 2769 02c7 00       		.byte	0
 2770 02c8 00       		.byte	0
 2771 02c9 34       		.uleb128 0x34
 2772 02ca 34       		.uleb128 0x34
 2773 02cb 00       		.byte	0
 2774 02cc 03       		.uleb128 0x3
 2775 02cd 08       		.uleb128 0x8
 2776 02ce 3A       		.uleb128 0x3a
 2777 02cf 0B       		.uleb128 0xb
 2778 02d0 3B       		.uleb128 0x3b
 2779 02d1 0B       		.uleb128 0xb
 2780 02d2 49       		.uleb128 0x49
 2781 02d3 13       		.uleb128 0x13
 2782 02d4 02       		.uleb128 0x2
 2783 02d5 17       		.uleb128 0x17
 2784 02d6 00       		.byte	0
 2785 02d7 00       		.byte	0
ARM GAS  C:\msys64\tmp\ccKSWDID.s 			page 50


 2786 02d8 35       		.uleb128 0x35
 2787 02d9 34       		.uleb128 0x34
 2788 02da 00       		.byte	0
 2789 02db 03       		.uleb128 0x3
 2790 02dc 0E       		.uleb128 0xe
 2791 02dd 3A       		.uleb128 0x3a
 2792 02de 0B       		.uleb128 0xb
 2793 02df 3B       		.uleb128 0x3b
 2794 02e0 0B       		.uleb128 0xb
 2795 02e1 49       		.uleb128 0x49
 2796 02e2 13       		.uleb128 0x13
 2797 02e3 02       		.uleb128 0x2
 2798 02e4 17       		.uleb128 0x17
 2799 02e5 00       		.byte	0
 2800 02e6 00       		.byte	0
 2801 02e7 36       		.uleb128 0x36
 2802 02e8 1D       		.uleb128 0x1d
 2803 02e9 01       		.byte	0x1
 2804 02ea 31       		.uleb128 0x31
 2805 02eb 13       		.uleb128 0x13
 2806 02ec 52       		.uleb128 0x52
 2807 02ed 01       		.uleb128 0x1
 2808 02ee 55       		.uleb128 0x55
 2809 02ef 17       		.uleb128 0x17
 2810 02f0 58       		.uleb128 0x58
 2811 02f1 0B       		.uleb128 0xb
 2812 02f2 59       		.uleb128 0x59
 2813 02f3 05       		.uleb128 0x5
 2814 02f4 00       		.byte	0
 2815 02f5 00       		.byte	0
 2816 02f6 37       		.uleb128 0x37
 2817 02f7 1D       		.uleb128 0x1d
 2818 02f8 01       		.byte	0x1
 2819 02f9 31       		.uleb128 0x31
 2820 02fa 13       		.uleb128 0x13
 2821 02fb 52       		.uleb128 0x52
 2822 02fc 01       		.uleb128 0x1
 2823 02fd 55       		.uleb128 0x55
 2824 02fe 17       		.uleb128 0x17
 2825 02ff 58       		.uleb128 0x58
 2826 0300 0B       		.uleb128 0xb
 2827 0301 59       		.uleb128 0x59
 2828 0302 05       		.uleb128 0x5
 2829 0303 01       		.uleb128 0x1
 2830 0304 13       		.uleb128 0x13
 2831 0305 00       		.byte	0
 2832 0306 00       		.byte	0
 2833 0307 38       		.uleb128 0x38
 2834 0308 2E       		.uleb128 0x2e
 2835 0309 01       		.byte	0x1
 2836 030a 03       		.uleb128 0x3
 2837 030b 0E       		.uleb128 0xe
 2838 030c 34       		.uleb128 0x34
 2839 030d 19       		.uleb128 0x19
 2840 030e 11       		.uleb128 0x11
 2841 030f 01       		.uleb128 0x1
 2842 0310 12       		.uleb128 0x12
ARM GAS  C:\msys64\tmp\ccKSWDID.s 			page 51


 2843 0311 06       		.uleb128 0x6
 2844 0312 40       		.uleb128 0x40
 2845 0313 18       		.uleb128 0x18
 2846 0314 9742     		.uleb128 0x2117
 2847 0316 19       		.uleb128 0x19
 2848 0317 01       		.uleb128 0x1
 2849 0318 13       		.uleb128 0x13
 2850 0319 00       		.byte	0
 2851 031a 00       		.byte	0
 2852 031b 39       		.uleb128 0x39
 2853 031c 1D       		.uleb128 0x1d
 2854 031d 01       		.byte	0x1
 2855 031e 31       		.uleb128 0x31
 2856 031f 13       		.uleb128 0x13
 2857 0320 11       		.uleb128 0x11
 2858 0321 01       		.uleb128 0x1
 2859 0322 12       		.uleb128 0x12
 2860 0323 06       		.uleb128 0x6
 2861 0324 58       		.uleb128 0x58
 2862 0325 0B       		.uleb128 0xb
 2863 0326 59       		.uleb128 0x59
 2864 0327 0B       		.uleb128 0xb
 2865 0328 01       		.uleb128 0x1
 2866 0329 13       		.uleb128 0x13
 2867 032a 00       		.byte	0
 2868 032b 00       		.byte	0
 2869 032c 3A       		.uleb128 0x3a
 2870 032d 1D       		.uleb128 0x1d
 2871 032e 01       		.byte	0x1
 2872 032f 31       		.uleb128 0x31
 2873 0330 13       		.uleb128 0x13
 2874 0331 11       		.uleb128 0x11
 2875 0332 01       		.uleb128 0x1
 2876 0333 12       		.uleb128 0x12
 2877 0334 06       		.uleb128 0x6
 2878 0335 58       		.uleb128 0x58
 2879 0336 0B       		.uleb128 0xb
 2880 0337 59       		.uleb128 0x59
 2881 0338 05       		.uleb128 0x5
 2882 0339 00       		.byte	0
 2883 033a 00       		.byte	0
 2884 033b 3B       		.uleb128 0x3b
 2885 033c 34       		.uleb128 0x34
 2886 033d 00       		.byte	0
 2887 033e 03       		.uleb128 0x3
 2888 033f 0E       		.uleb128 0xe
 2889 0340 3A       		.uleb128 0x3a
 2890 0341 0B       		.uleb128 0xb
 2891 0342 3B       		.uleb128 0x3b
 2892 0343 0B       		.uleb128 0xb
 2893 0344 49       		.uleb128 0x49
 2894 0345 13       		.uleb128 0x13
 2895 0346 3F       		.uleb128 0x3f
 2896 0347 19       		.uleb128 0x19
 2897 0348 3C       		.uleb128 0x3c
 2898 0349 19       		.uleb128 0x19
 2899 034a 00       		.byte	0
ARM GAS  C:\msys64\tmp\ccKSWDID.s 			page 52


 2900 034b 00       		.byte	0
 2901 034c 3C       		.uleb128 0x3c
 2902 034d 01       		.uleb128 0x1
 2903 034e 01       		.byte	0x1
 2904 034f 49       		.uleb128 0x49
 2905 0350 13       		.uleb128 0x13
 2906 0351 01       		.uleb128 0x1
 2907 0352 13       		.uleb128 0x13
 2908 0353 00       		.byte	0
 2909 0354 00       		.byte	0
 2910 0355 3D       		.uleb128 0x3d
 2911 0356 21       		.uleb128 0x21
 2912 0357 00       		.byte	0
 2913 0358 49       		.uleb128 0x49
 2914 0359 13       		.uleb128 0x13
 2915 035a 2F       		.uleb128 0x2f
 2916 035b 0B       		.uleb128 0xb
 2917 035c 00       		.byte	0
 2918 035d 00       		.byte	0
 2919 035e 3E       		.uleb128 0x3e
 2920 035f 21       		.uleb128 0x21
 2921 0360 00       		.byte	0
 2922 0361 49       		.uleb128 0x49
 2923 0362 13       		.uleb128 0x13
 2924 0363 2F       		.uleb128 0x2f
 2925 0364 05       		.uleb128 0x5
 2926 0365 00       		.byte	0
 2927 0366 00       		.byte	0
 2928 0367 3F       		.uleb128 0x3f
 2929 0368 34       		.uleb128 0x34
 2930 0369 00       		.byte	0
 2931 036a 03       		.uleb128 0x3
 2932 036b 0E       		.uleb128 0xe
 2933 036c 3A       		.uleb128 0x3a
 2934 036d 0B       		.uleb128 0xb
 2935 036e 3B       		.uleb128 0x3b
 2936 036f 05       		.uleb128 0x5
 2937 0370 49       		.uleb128 0x49
 2938 0371 13       		.uleb128 0x13
 2939 0372 3F       		.uleb128 0x3f
 2940 0373 19       		.uleb128 0x19
 2941 0374 3C       		.uleb128 0x3c
 2942 0375 19       		.uleb128 0x19
 2943 0376 00       		.byte	0
 2944 0377 00       		.byte	0
 2945 0378 40       		.uleb128 0x40
 2946 0379 34       		.uleb128 0x34
 2947 037a 00       		.byte	0
 2948 037b 03       		.uleb128 0x3
 2949 037c 0E       		.uleb128 0xe
 2950 037d 3A       		.uleb128 0x3a
 2951 037e 0B       		.uleb128 0xb
 2952 037f 3B       		.uleb128 0x3b
 2953 0380 0B       		.uleb128 0xb
 2954 0381 49       		.uleb128 0x49
 2955 0382 13       		.uleb128 0x13
 2956 0383 3F       		.uleb128 0x3f
ARM GAS  C:\msys64\tmp\ccKSWDID.s 			page 53


 2957 0384 19       		.uleb128 0x19
 2958 0385 02       		.uleb128 0x2
 2959 0386 18       		.uleb128 0x18
 2960 0387 00       		.byte	0
 2961 0388 00       		.byte	0
 2962 0389 41       		.uleb128 0x41
 2963 038a 34       		.uleb128 0x34
 2964 038b 00       		.byte	0
 2965 038c 03       		.uleb128 0x3
 2966 038d 0E       		.uleb128 0xe
 2967 038e 3A       		.uleb128 0x3a
 2968 038f 0B       		.uleb128 0xb
 2969 0390 3B       		.uleb128 0x3b
 2970 0391 0B       		.uleb128 0xb
 2971 0392 49       		.uleb128 0x49
 2972 0393 13       		.uleb128 0x13
 2973 0394 02       		.uleb128 0x2
 2974 0395 18       		.uleb128 0x18
 2975 0396 00       		.byte	0
 2976 0397 00       		.byte	0
 2977 0398 42       		.uleb128 0x42
 2978 0399 34       		.uleb128 0x34
 2979 039a 00       		.byte	0
 2980 039b 03       		.uleb128 0x3
 2981 039c 08       		.uleb128 0x8
 2982 039d 3A       		.uleb128 0x3a
 2983 039e 0B       		.uleb128 0xb
 2984 039f 3B       		.uleb128 0x3b
 2985 03a0 0B       		.uleb128 0xb
 2986 03a1 49       		.uleb128 0x49
 2987 03a2 13       		.uleb128 0x13
 2988 03a3 3F       		.uleb128 0x3f
 2989 03a4 19       		.uleb128 0x19
 2990 03a5 02       		.uleb128 0x2
 2991 03a6 18       		.uleb128 0x18
 2992 03a7 00       		.byte	0
 2993 03a8 00       		.byte	0
 2994 03a9 00       		.byte	0
 2995              		.section	.debug_loc,"",%progbits
 2996              	.Ldebug_loc0:
 2997              	.LLST0:
 2998 0000 00000000 		.4byte	.LVL0
 2999 0004 22000000 		.4byte	.LVL2
 3000 0008 0100     		.2byte	0x1
 3001 000a 50       		.byte	0x50
 3002 000b 22000000 		.4byte	.LVL2
 3003 000f C0000000 		.4byte	.LFE270
 3004 0013 0400     		.2byte	0x4
 3005 0015 F3       		.byte	0xf3
 3006 0016 01       		.uleb128 0x1
 3007 0017 50       		.byte	0x50
 3008 0018 9F       		.byte	0x9f
 3009 0019 00000000 		.4byte	0
 3010 001d 00000000 		.4byte	0
 3011              	.LLST1:
 3012 0021 00000000 		.4byte	.LVL0
 3013 0025 0E000000 		.4byte	.LVL1
ARM GAS  C:\msys64\tmp\ccKSWDID.s 			page 54


 3014 0029 0100     		.2byte	0x1
 3015 002b 51       		.byte	0x51
 3016 002c 0E000000 		.4byte	.LVL1
 3017 0030 C0000000 		.4byte	.LFE270
 3018 0034 0400     		.2byte	0x4
 3019 0036 F3       		.byte	0xf3
 3020 0037 01       		.uleb128 0x1
 3021 0038 51       		.byte	0x51
 3022 0039 9F       		.byte	0x9f
 3023 003a 00000000 		.4byte	0
 3024 003e 00000000 		.4byte	0
 3025              	.LLST2:
 3026 0042 3E000000 		.4byte	.LVL3
 3027 0046 4A000000 		.4byte	.LVL4
 3028 004a 0500     		.2byte	0x5
 3029 004c 03       		.byte	0x3
 3030 004d 00000000 		.4byte	cutoff
 3031 0051 00000000 		.4byte	0
 3032 0055 00000000 		.4byte	0
 3033              	.LLST3:
 3034 0059 3E000000 		.4byte	.LVL3
 3035 005d 4A000000 		.4byte	.LVL4
 3036 0061 0100     		.2byte	0x1
 3037 0063 50       		.byte	0x50
 3038 0064 00000000 		.4byte	0
 3039 0068 00000000 		.4byte	0
 3040              	.LLST4:
 3041 006c 3E000000 		.4byte	.LVL3
 3042 0070 4A000000 		.4byte	.LVL4
 3043 0074 0200     		.2byte	0x2
 3044 0076 90       		.byte	0x90
 3045 0077 4F       		.uleb128 0x4f
 3046 0078 00000000 		.4byte	0
 3047 007c 00000000 		.4byte	0
 3048              	.LLST6:
 3049 0080 00000000 		.4byte	.LVL0
 3050 0084 3E000000 		.4byte	.LVL3
 3051 0088 0600     		.2byte	0x6
 3052 008a 03       		.byte	0x3
 3053 008b 00000000 		.4byte	_ZL8filter_l
 3054 008f 9F       		.byte	0x9f
 3055 0090 00000000 		.4byte	0
 3056 0094 00000000 		.4byte	0
 3057              	.LLST7:
 3058 0098 52000000 		.4byte	.LVL5
 3059 009c A4000000 		.4byte	.LVL9
 3060 00a0 0200     		.2byte	0x2
 3061 00a2 90       		.byte	0x90
 3062 00a3 4D       		.uleb128 0x4d
 3063 00a4 00000000 		.4byte	0
 3064 00a8 00000000 		.4byte	0
 3065              	.LLST8:
 3066 00ac 52000000 		.4byte	.LVL5
 3067 00b0 A4000000 		.4byte	.LVL9
 3068 00b4 0600     		.2byte	0x6
 3069 00b6 03       		.byte	0x3
 3070 00b7 00000000 		.4byte	_ZL8filter_l
ARM GAS  C:\msys64\tmp\ccKSWDID.s 			page 55


 3071 00bb 9F       		.byte	0x9f
 3072 00bc 00000000 		.4byte	0
 3073 00c0 00000000 		.4byte	0
 3074              	.LLST9:
 3075 00c4 56000000 		.4byte	.LVL6
 3076 00c8 8C000000 		.4byte	.LVL8
 3077 00cc 0800     		.2byte	0x8
 3078 00ce F5       		.byte	0xf5
 3079 00cf 4B       		.uleb128 0x4b
 3080 00d0 25       		.uleb128 0x25
 3081 00d1 F5       		.byte	0xf5
 3082 00d2 4F       		.uleb128 0x4f
 3083 00d3 25       		.uleb128 0x25
 3084 00d4 1E       		.byte	0x1e
 3085 00d5 9F       		.byte	0x9f
 3086 00d6 00000000 		.4byte	0
 3087 00da 00000000 		.4byte	0
 3088              	.LLST10:
 3089 00de 68000000 		.4byte	.LVL7
 3090 00e2 A4000000 		.4byte	.LVL9
 3091 00e6 0200     		.2byte	0x2
 3092 00e8 90       		.byte	0x90
 3093 00e9 4C       		.uleb128 0x4c
 3094 00ea 00000000 		.4byte	0
 3095 00ee 00000000 		.4byte	0
 3096              	.LLST11:
 3097 00f2 C0000000 		.4byte	.LVL10
 3098 00f6 CE000000 		.4byte	.LVL11
 3099 00fa 0200     		.2byte	0x2
 3100 00fc 90       		.byte	0x90
 3101 00fd 40       		.uleb128 0x40
 3102 00fe CE000000 		.4byte	.LVL11
 3103 0102 D0000000 		.4byte	.LFE271
 3104 0106 0600     		.2byte	0x6
 3105 0108 F3       		.byte	0xf3
 3106 0109 03       		.uleb128 0x3
 3107 010a F5       		.byte	0xf5
 3108 010b 40       		.uleb128 0x40
 3109 010c 25       		.uleb128 0x25
 3110 010d 9F       		.byte	0x9f
 3111 010e 00000000 		.4byte	0
 3112 0112 00000000 		.4byte	0
 3113              	.LLST12:
 3114 0116 D0000000 		.4byte	.LVL12
 3115 011a DE000000 		.4byte	.LVL15
 3116 011e 0100     		.2byte	0x1
 3117 0120 50       		.byte	0x50
 3118 0121 DE000000 		.4byte	.LVL15
 3119 0125 E4000000 		.4byte	.LVL16
 3120 0129 0300     		.2byte	0x3
 3121 012b 70       		.byte	0x70
 3122 012c 78       		.sleb128 -8
 3123 012d 9F       		.byte	0x9f
 3124 012e E4000000 		.4byte	.LVL16
 3125 0132 E8000000 		.4byte	.LVL17
 3126 0136 0300     		.2byte	0x3
 3127 0138 70       		.byte	0x70
ARM GAS  C:\msys64\tmp\ccKSWDID.s 			page 56


 3128 0139 7C       		.sleb128 -4
 3129 013a 9F       		.byte	0x9f
 3130 013b E8000000 		.4byte	.LVL17
 3131 013f 72010000 		.4byte	.LVL26
 3132 0143 0100     		.2byte	0x1
 3133 0145 50       		.byte	0x50
 3134 0146 72010000 		.4byte	.LVL26
 3135 014a 78010000 		.4byte	.LFE272
 3136 014e 0300     		.2byte	0x3
 3137 0150 70       		.byte	0x70
 3138 0151 78       		.sleb128 -8
 3139 0152 9F       		.byte	0x9f
 3140 0153 00000000 		.4byte	0
 3141 0157 00000000 		.4byte	0
 3142              	.LLST13:
 3143 015b D0000000 		.4byte	.LVL12
 3144 015f D8000000 		.4byte	.LVL14
 3145 0163 0100     		.2byte	0x1
 3146 0165 51       		.byte	0x51
 3147 0166 D8000000 		.4byte	.LVL14
 3148 016a DE000000 		.4byte	.LVL15
 3149 016e 0B00     		.2byte	0xb
 3150 0170 F3       		.byte	0xf3
 3151 0171 01       		.uleb128 0x1
 3152 0172 51       		.byte	0x51
 3153 0173 70       		.byte	0x70
 3154 0174 00       		.sleb128 0
 3155 0175 22       		.byte	0x22
 3156 0176 F3       		.byte	0xf3
 3157 0177 01       		.uleb128 0x1
 3158 0178 50       		.byte	0x50
 3159 0179 1C       		.byte	0x1c
 3160 017a 9F       		.byte	0x9f
 3161 017b DE000000 		.4byte	.LVL15
 3162 017f 66010000 		.4byte	.LVL24
 3163 0183 0D00     		.2byte	0xd
 3164 0185 70       		.byte	0x70
 3165 0186 00       		.sleb128 0
 3166 0187 F3       		.byte	0xf3
 3167 0188 01       		.uleb128 0x1
 3168 0189 51       		.byte	0x51
 3169 018a 22       		.byte	0x22
 3170 018b F3       		.byte	0xf3
 3171 018c 01       		.uleb128 0x1
 3172 018d 50       		.byte	0x50
 3173 018e 1C       		.byte	0x1c
 3174 018f 38       		.byte	0x38
 3175 0190 1C       		.byte	0x1c
 3176 0191 9F       		.byte	0x9f
 3177 0192 66010000 		.4byte	.LVL24
 3178 0196 6A010000 		.4byte	.LVL25
 3179 019a 0D00     		.2byte	0xd
 3180 019c 70       		.byte	0x70
 3181 019d 00       		.sleb128 0
 3182 019e F3       		.byte	0xf3
 3183 019f 01       		.uleb128 0x1
 3184 01a0 50       		.byte	0x50
ARM GAS  C:\msys64\tmp\ccKSWDID.s 			page 57


 3185 01a1 1C       		.byte	0x1c
 3186 01a2 F3       		.byte	0xf3
 3187 01a3 01       		.uleb128 0x1
 3188 01a4 51       		.byte	0x51
 3189 01a5 22       		.byte	0x22
 3190 01a6 34       		.byte	0x34
 3191 01a7 1C       		.byte	0x1c
 3192 01a8 9F       		.byte	0x9f
 3193 01a9 6A010000 		.4byte	.LVL25
 3194 01ad 72010000 		.4byte	.LVL26
 3195 01b1 0B00     		.2byte	0xb
 3196 01b3 F3       		.byte	0xf3
 3197 01b4 01       		.uleb128 0x1
 3198 01b5 51       		.byte	0x51
 3199 01b6 70       		.byte	0x70
 3200 01b7 00       		.sleb128 0
 3201 01b8 22       		.byte	0x22
 3202 01b9 F3       		.byte	0xf3
 3203 01ba 01       		.uleb128 0x1
 3204 01bb 50       		.byte	0x50
 3205 01bc 1C       		.byte	0x1c
 3206 01bd 9F       		.byte	0x9f
 3207 01be 72010000 		.4byte	.LVL26
 3208 01c2 78010000 		.4byte	.LFE272
 3209 01c6 0D00     		.2byte	0xd
 3210 01c8 70       		.byte	0x70
 3211 01c9 00       		.sleb128 0
 3212 01ca F3       		.byte	0xf3
 3213 01cb 01       		.uleb128 0x1
 3214 01cc 51       		.byte	0x51
 3215 01cd 22       		.byte	0x22
 3216 01ce F3       		.byte	0xf3
 3217 01cf 01       		.uleb128 0x1
 3218 01d0 50       		.byte	0x50
 3219 01d1 1C       		.byte	0x1c
 3220 01d2 38       		.byte	0x38
 3221 01d3 1C       		.byte	0x1c
 3222 01d4 9F       		.byte	0x9f
 3223 01d5 00000000 		.4byte	0
 3224 01d9 00000000 		.4byte	0
 3225              	.LLST14:
 3226 01dd D0000000 		.4byte	.LVL12
 3227 01e1 D8000000 		.4byte	.LVL14
 3228 01e5 0100     		.2byte	0x1
 3229 01e7 52       		.byte	0x52
 3230 01e8 D8000000 		.4byte	.LVL14
 3231 01ec 78010000 		.4byte	.LFE272
 3232 01f0 0400     		.2byte	0x4
 3233 01f2 F3       		.byte	0xf3
 3234 01f3 01       		.uleb128 0x1
 3235 01f4 52       		.byte	0x52
 3236 01f5 9F       		.byte	0x9f
 3237 01f6 00000000 		.4byte	0
 3238 01fa 00000000 		.4byte	0
 3239              	.LLST15:
 3240 01fe D0000000 		.4byte	.LVL12
 3241 0202 D6000000 		.4byte	.LVL13
ARM GAS  C:\msys64\tmp\ccKSWDID.s 			page 58


 3242 0206 0100     		.2byte	0x1
 3243 0208 53       		.byte	0x53
 3244 0209 D6000000 		.4byte	.LVL13
 3245 020d 78010000 		.4byte	.LFE272
 3246 0211 0400     		.2byte	0x4
 3247 0213 F3       		.byte	0xf3
 3248 0214 01       		.uleb128 0x1
 3249 0215 53       		.byte	0x53
 3250 0216 9F       		.byte	0x9f
 3251 0217 00000000 		.4byte	0
 3252 021b 00000000 		.4byte	0
 3253              	.LLST16:
 3254 021f D0000000 		.4byte	.LVL12
 3255 0223 74010000 		.4byte	.LVL27
 3256 0227 0200     		.2byte	0x2
 3257 0229 91       		.byte	0x91
 3258 022a 00       		.sleb128 0
 3259 022b 74010000 		.4byte	.LVL27
 3260 022f 78010000 		.4byte	.LFE272
 3261 0233 0200     		.2byte	0x2
 3262 0235 7D       		.byte	0x7d
 3263 0236 00       		.sleb128 0
 3264 0237 00000000 		.4byte	0
 3265 023b 00000000 		.4byte	0
 3266              	.LLST17:
 3267 023f D0000000 		.4byte	.LVL12
 3268 0243 D8000000 		.4byte	.LVL14
 3269 0247 0200     		.2byte	0x2
 3270 0249 30       		.byte	0x30
 3271 024a 9F       		.byte	0x9f
 3272 024b D8000000 		.4byte	.LVL14
 3273 024f 02010000 		.4byte	.LVL20
 3274 0253 0100     		.2byte	0x1
 3275 0255 52       		.byte	0x52
 3276 0256 02010000 		.4byte	.LVL20
 3277 025a 6A010000 		.4byte	.LVL25
 3278 025e 0300     		.2byte	0x3
 3279 0260 72       		.byte	0x72
 3280 0261 7F       		.sleb128 -1
 3281 0262 9F       		.byte	0x9f
 3282 0263 6A010000 		.4byte	.LVL25
 3283 0267 78010000 		.4byte	.LFE272
 3284 026b 0100     		.2byte	0x1
 3285 026d 52       		.byte	0x52
 3286 026e 00000000 		.4byte	0
 3287 0272 00000000 		.4byte	0
 3288              	.LLST18:
 3289 0276 F8000000 		.4byte	.LVL18
 3290 027a 2E010000 		.4byte	.LVL21
 3291 027e 0200     		.2byte	0x2
 3292 0280 90       		.byte	0x90
 3293 0281 4D       		.uleb128 0x4d
 3294 0282 00000000 		.4byte	0
 3295 0286 00000000 		.4byte	0
 3296              	.LLST19:
 3297 028a F8000000 		.4byte	.LVL18
 3298 028e 32010000 		.4byte	.LVL22
ARM GAS  C:\msys64\tmp\ccKSWDID.s 			page 59


 3299 0292 0600     		.2byte	0x6
 3300 0294 03       		.byte	0x3
 3301 0295 00000000 		.4byte	_ZL8filter_l
 3302 0299 9F       		.byte	0x9f
 3303 029a 00000000 		.4byte	0
 3304 029e 00000000 		.4byte	0
 3305              	.LLST20:
 3306 02a2 00010000 		.4byte	.LVL19
 3307 02a6 32010000 		.4byte	.LVL22
 3308 02aa 0200     		.2byte	0x2
 3309 02ac 90       		.byte	0x90
 3310 02ad 4F       		.uleb128 0x4f
 3311 02ae 00000000 		.4byte	0
 3312 02b2 00000000 		.4byte	0
 3313              	.LLST21:
 3314 02b6 32010000 		.4byte	.LVL22
 3315 02ba 66010000 		.4byte	.LVL24
 3316 02be 0200     		.2byte	0x2
 3317 02c0 90       		.byte	0x90
 3318 02c1 4C       		.uleb128 0x4c
 3319 02c2 00000000 		.4byte	0
 3320 02c6 00000000 		.4byte	0
 3321              	.LLST22:
 3322 02ca 32010000 		.4byte	.LVL22
 3323 02ce 66010000 		.4byte	.LVL24
 3324 02d2 0600     		.2byte	0x6
 3325 02d4 03       		.byte	0x3
 3326 02d5 1C000000 		.4byte	_ZL8filter_r
 3327 02d9 9F       		.byte	0x9f
 3328 02da 00000000 		.4byte	0
 3329 02de 00000000 		.4byte	0
 3330              	.LLST23:
 3331 02e2 3E010000 		.4byte	.LVL23
 3332 02e6 66010000 		.4byte	.LVL24
 3333 02ea 0200     		.2byte	0x2
 3334 02ec 90       		.byte	0x90
 3335 02ed 4E       		.uleb128 0x4e
 3336 02ee 00000000 		.4byte	0
 3337 02f2 00000000 		.4byte	0
 3338              	.LLST24:
 3339 02f6 78010000 		.4byte	.LVL28
 3340 02fa 5C020000 		.4byte	.LVL46
 3341 02fe 0100     		.2byte	0x1
 3342 0300 50       		.byte	0x50
 3343 0301 5C020000 		.4byte	.LVL46
 3344 0305 78020000 		.4byte	.LFE274
 3345 0309 0400     		.2byte	0x4
 3346 030b F3       		.byte	0xf3
 3347 030c 01       		.uleb128 0x1
 3348 030d 50       		.byte	0x50
 3349 030e 9F       		.byte	0x9f
 3350 030f 00000000 		.4byte	0
 3351 0313 00000000 		.4byte	0
 3352              	.LLST25:
 3353 0317 78010000 		.4byte	.LVL28
 3354 031b 5C020000 		.4byte	.LVL46
 3355 031f 0100     		.2byte	0x1
ARM GAS  C:\msys64\tmp\ccKSWDID.s 			page 60


 3356 0321 51       		.byte	0x51
 3357 0322 5C020000 		.4byte	.LVL46
 3358 0326 78020000 		.4byte	.LFE274
 3359 032a 0400     		.2byte	0x4
 3360 032c F3       		.byte	0xf3
 3361 032d 01       		.uleb128 0x1
 3362 032e 51       		.byte	0x51
 3363 032f 9F       		.byte	0x9f
 3364 0330 00000000 		.4byte	0
 3365 0334 00000000 		.4byte	0
 3366              	.LLST26:
 3367 0338 7E010000 		.4byte	.LVL29
 3368 033c 8A010000 		.4byte	.LVL30
 3369 0340 0F00     		.2byte	0xf
 3370 0342 71       		.byte	0x71
 3371 0343 00       		.sleb128 0
 3372 0344 F7       		.byte	0xf7
 3373 0345 2C       		.uleb128 0x2c
 3374 0346 F7       		.byte	0xf7
 3375 0347 25       		.uleb128 0x25
 3376 0348 F4       		.byte	0xf4
 3377 0349 25       		.uleb128 0x25
 3378 034a 04       		.byte	0x4
 3379 034b 00000030 		.4byte	0x30000000
 3380 034f 1E       		.byte	0x1e
 3381 0350 9F       		.byte	0x9f
 3382 0351 8A010000 		.4byte	.LVL30
 3383 0355 B0010000 		.4byte	.LVL31
 3384 0359 0C00     		.2byte	0xc
 3385 035b F5       		.byte	0xf5
 3386 035c 4F       		.uleb128 0x4f
 3387 035d 25       		.uleb128 0x25
 3388 035e F4       		.byte	0xf4
 3389 035f 25       		.uleb128 0x25
 3390 0360 04       		.byte	0x4
 3391 0361 00000030 		.4byte	0x30000000
 3392 0365 1E       		.byte	0x1e
 3393 0366 9F       		.byte	0x9f
 3394 0367 B0010000 		.4byte	.LVL31
 3395 036b 5C020000 		.4byte	.LVL46
 3396 036f 0F00     		.2byte	0xf
 3397 0371 71       		.byte	0x71
 3398 0372 00       		.sleb128 0
 3399 0373 F7       		.byte	0xf7
 3400 0374 2C       		.uleb128 0x2c
 3401 0375 F7       		.byte	0xf7
 3402 0376 25       		.uleb128 0x25
 3403 0377 F4       		.byte	0xf4
 3404 0378 25       		.uleb128 0x25
 3405 0379 04       		.byte	0x4
 3406 037a 00000030 		.4byte	0x30000000
 3407 037e 1E       		.byte	0x1e
 3408 037f 9F       		.byte	0x9f
 3409 0380 5C020000 		.4byte	.LVL46
 3410 0384 78020000 		.4byte	.LFE274
 3411 0388 1000     		.2byte	0x10
 3412 038a F3       		.byte	0xf3
ARM GAS  C:\msys64\tmp\ccKSWDID.s 			page 61


 3413 038b 01       		.uleb128 0x1
 3414 038c 51       		.byte	0x51
 3415 038d F7       		.byte	0xf7
 3416 038e 2C       		.uleb128 0x2c
 3417 038f F7       		.byte	0xf7
 3418 0390 25       		.uleb128 0x25
 3419 0391 F4       		.byte	0xf4
 3420 0392 25       		.uleb128 0x25
 3421 0393 04       		.byte	0x4
 3422 0394 00000030 		.4byte	0x30000000
 3423 0398 1E       		.byte	0x1e
 3424 0399 9F       		.byte	0x9f
 3425 039a 00000000 		.4byte	0
 3426 039e 00000000 		.4byte	0
 3427              	.LLST27:
 3428 03a2 7E010000 		.4byte	.LVL29
 3429 03a6 E2010000 		.4byte	.LVL37
 3430 03aa 0600     		.2byte	0x6
 3431 03ac 9E       		.byte	0x9e
 3432 03ad 04       		.uleb128 0x4
 3433 03ae 00000000 		.4byte	0
 3434 03b2 00000000 		.4byte	0
 3435 03b6 00000000 		.4byte	0
 3436              	.LLST28:
 3437 03ba E2010000 		.4byte	.LVL37
 3438 03be EA010000 		.4byte	.LVL38
 3439 03c2 1400     		.2byte	0x14
 3440 03c4 F4       		.byte	0xf4
 3441 03c5 25       		.uleb128 0x25
 3442 03c6 04       		.byte	0x4
 3443 03c7 0000803F 		.4byte	0x3f800000
 3444 03cb F5       		.byte	0xf5
 3445 03cc 4F       		.uleb128 0x4f
 3446 03cd 25       		.uleb128 0x25
 3447 03ce 1B       		.byte	0x1b
 3448 03cf F4       		.byte	0xf4
 3449 03d0 25       		.uleb128 0x25
 3450 03d1 04       		.byte	0x4
 3451 03d2 8FC2F539 		.4byte	0x39f5c28f
 3452 03d6 1E       		.byte	0x1e
 3453 03d7 9F       		.byte	0x9f
 3454 03d8 EE010000 		.4byte	.LVL39
 3455 03dc 02020000 		.4byte	.LVL40
 3456 03e0 0200     		.2byte	0x2
 3457 03e2 90       		.byte	0x90
 3458 03e3 4D       		.uleb128 0x4d
 3459 03e4 00000000 		.4byte	0
 3460 03e8 00000000 		.4byte	0
 3461              	.LLST29:
 3462 03ec B6010000 		.4byte	.LVL32
 3463 03f0 E2010000 		.4byte	.LVL37
 3464 03f4 0600     		.2byte	0x6
 3465 03f6 9E       		.byte	0x9e
 3466 03f7 04       		.uleb128 0x4
 3467 03f8 0000803F 		.4byte	0x3f800000
 3468 03fc 00000000 		.4byte	0
 3469 0400 00000000 		.4byte	0
ARM GAS  C:\msys64\tmp\ccKSWDID.s 			page 62


 3470              	.LLST30:
 3471 0404 B6010000 		.4byte	.LVL32
 3472 0408 E2010000 		.4byte	.LVL37
 3473 040c 0600     		.2byte	0x6
 3474 040e 9E       		.byte	0x9e
 3475 040f 04       		.uleb128 0x4
 3476 0410 6F12833A 		.4byte	0x3a83126f
 3477 0414 00000000 		.4byte	0
 3478 0418 00000000 		.4byte	0
 3479              	.LLST33:
 3480 041c B6010000 		.4byte	.LVL32
 3481 0420 C8010000 		.4byte	.LVL34
 3482 0424 0600     		.2byte	0x6
 3483 0426 9E       		.byte	0x9e
 3484 0427 04       		.uleb128 0x4
 3485 0428 6F12833A 		.4byte	0x3a83126f
 3486 042c 00000000 		.4byte	0
 3487 0430 00000000 		.4byte	0
 3488              	.LLST34:
 3489 0434 B6010000 		.4byte	.LVL32
 3490 0438 BA010000 		.4byte	.LVL33
 3491 043c 0C00     		.2byte	0xc
 3492 043e F5       		.byte	0xf5
 3493 043f 4F       		.uleb128 0x4f
 3494 0440 25       		.uleb128 0x25
 3495 0441 F4       		.byte	0xf4
 3496 0442 25       		.uleb128 0x25
 3497 0443 04       		.byte	0x4
 3498 0444 6F12833A 		.4byte	0x3a83126f
 3499 0448 1C       		.byte	0x1c
 3500 0449 9F       		.byte	0x9f
 3501 044a BA010000 		.4byte	.LVL33
 3502 044e C8010000 		.4byte	.LVL34
 3503 0452 0200     		.2byte	0x2
 3504 0454 90       		.byte	0x90
 3505 0455 4C       		.uleb128 0x4c
 3506 0456 00000000 		.4byte	0
 3507 045a 00000000 		.4byte	0
 3508              	.LLST35:
 3509 045e C8010000 		.4byte	.LVL34
 3510 0462 E2010000 		.4byte	.LVL37
 3511 0466 0600     		.2byte	0x6
 3512 0468 9E       		.byte	0x9e
 3513 0469 04       		.uleb128 0x4
 3514 046a 0000803F 		.4byte	0x3f800000
 3515 046e 00000000 		.4byte	0
 3516 0472 00000000 		.4byte	0
 3517              	.LLST36:
 3518 0476 C8010000 		.4byte	.LVL34
 3519 047a CC010000 		.4byte	.LVL35
 3520 047e 0C00     		.2byte	0xc
 3521 0480 F5       		.byte	0xf5
 3522 0481 4F       		.uleb128 0x4f
 3523 0482 25       		.uleb128 0x25
 3524 0483 F4       		.byte	0xf4
 3525 0484 25       		.uleb128 0x25
 3526 0485 04       		.byte	0x4
ARM GAS  C:\msys64\tmp\ccKSWDID.s 			page 63


 3527 0486 0000803F 		.4byte	0x3f800000
 3528 048a 1C       		.byte	0x1c
 3529 048b 9F       		.byte	0x9f
 3530 048c CC010000 		.4byte	.LVL35
 3531 0490 DC010000 		.4byte	.LVL36
 3532 0494 0200     		.2byte	0x2
 3533 0496 90       		.byte	0x90
 3534 0497 4D       		.uleb128 0x4d
 3535 0498 DC010000 		.4byte	.LVL36
 3536 049c E2010000 		.4byte	.LVL37
 3537 04a0 0C00     		.2byte	0xc
 3538 04a2 F5       		.byte	0xf5
 3539 04a3 4F       		.uleb128 0x4f
 3540 04a4 25       		.uleb128 0x25
 3541 04a5 F4       		.byte	0xf4
 3542 04a6 25       		.uleb128 0x25
 3543 04a7 04       		.byte	0x4
 3544 04a8 0000803F 		.4byte	0x3f800000
 3545 04ac 1C       		.byte	0x1c
 3546 04ad 9F       		.byte	0x9f
 3547 04ae 00000000 		.4byte	0
 3548 04b2 00000000 		.4byte	0
 3549              	.LLST37:
 3550 04b6 B0010000 		.4byte	.LVL31
 3551 04ba B6010000 		.4byte	.LVL32
 3552 04be 0200     		.2byte	0x2
 3553 04c0 90       		.byte	0x90
 3554 04c1 4C       		.uleb128 0x4c
 3555 04c2 00000000 		.4byte	0
 3556 04c6 00000000 		.4byte	0
 3557              	.LLST38:
 3558 04ca 06020000 		.4byte	.LVL41
 3559 04ce 5A020000 		.4byte	.LVL45
 3560 04d2 0200     		.2byte	0x2
 3561 04d4 90       		.byte	0x90
 3562 04d5 4D       		.uleb128 0x4d
 3563 04d6 00000000 		.4byte	0
 3564 04da 00000000 		.4byte	0
 3565              	.LLST39:
 3566 04de 06020000 		.4byte	.LVL41
 3567 04e2 42020000 		.4byte	.LVL44
 3568 04e6 0200     		.2byte	0x2
 3569 04e8 90       		.byte	0x90
 3570 04e9 4F       		.uleb128 0x4f
 3571 04ea 42020000 		.4byte	.LVL44
 3572 04ee 5A020000 		.4byte	.LVL45
 3573 04f2 0500     		.2byte	0x5
 3574 04f4 03       		.byte	0x3
 3575 04f5 00000000 		.4byte	cutoff
 3576 04f9 00000000 		.4byte	0
 3577 04fd 00000000 		.4byte	0
 3578              	.LLST40:
 3579 0501 06020000 		.4byte	.LVL41
 3580 0505 5A020000 		.4byte	.LVL45
 3581 0509 0600     		.2byte	0x6
 3582 050b 03       		.byte	0x3
 3583 050c 00000000 		.4byte	_ZL8filter_l
ARM GAS  C:\msys64\tmp\ccKSWDID.s 			page 64


 3584 0510 9F       		.byte	0x9f
 3585 0511 00000000 		.4byte	0
 3586 0515 00000000 		.4byte	0
 3587              	.LLST41:
 3588 0519 0A020000 		.4byte	.LVL42
 3589 051d 42020000 		.4byte	.LVL44
 3590 0521 0800     		.2byte	0x8
 3591 0523 F5       		.byte	0xf5
 3592 0524 4B       		.uleb128 0x4b
 3593 0525 25       		.uleb128 0x25
 3594 0526 F5       		.byte	0xf5
 3595 0527 4F       		.uleb128 0x4f
 3596 0528 25       		.uleb128 0x25
 3597 0529 1E       		.byte	0x1e
 3598 052a 9F       		.byte	0x9f
 3599 052b 42020000 		.4byte	.LVL44
 3600 052f 5A020000 		.4byte	.LVL45
 3601 0533 0D00     		.2byte	0xd
 3602 0535 F5       		.byte	0xf5
 3603 0536 4B       		.uleb128 0x4b
 3604 0537 25       		.uleb128 0x25
 3605 0538 03       		.byte	0x3
 3606 0539 00000000 		.4byte	cutoff
 3607 053d F6       		.byte	0xf6
 3608 053e 04       		.byte	0x4
 3609 053f 25       		.uleb128 0x25
 3610 0540 1E       		.byte	0x1e
 3611 0541 9F       		.byte	0x9f
 3612 0542 00000000 		.4byte	0
 3613 0546 00000000 		.4byte	0
 3614              	.LLST42:
 3615 054a 1E020000 		.4byte	.LVL43
 3616 054e 5A020000 		.4byte	.LVL45
 3617 0552 0200     		.2byte	0x2
 3618 0554 90       		.byte	0x90
 3619 0555 4C       		.uleb128 0x4c
 3620 0556 00000000 		.4byte	0
 3621 055a 00000000 		.4byte	0
 3622              	.LLST43:
 3623 055e 00000000 		.4byte	.LVL47
 3624 0562 32000000 		.4byte	.LVL52
 3625 0566 0200     		.2byte	0x2
 3626 0568 31       		.byte	0x31
 3627 0569 9F       		.byte	0x9f
 3628 056a 00000000 		.4byte	0
 3629 056e 00000000 		.4byte	0
 3630              	.LLST44:
 3631 0572 00000000 		.4byte	.LVL47
 3632 0576 32000000 		.4byte	.LVL52
 3633 057a 0400     		.2byte	0x4
 3634 057c 0A       		.byte	0xa
 3635 057d FFFF     		.2byte	0xffff
 3636 057f 9F       		.byte	0x9f
 3637 0580 00000000 		.4byte	0
 3638 0584 00000000 		.4byte	0
 3639              	.LLST45:
 3640 0588 00000000 		.4byte	.LVL47
ARM GAS  C:\msys64\tmp\ccKSWDID.s 			page 65


 3641 058c 12000000 		.4byte	.LVL49
 3642 0590 0600     		.2byte	0x6
 3643 0592 03       		.byte	0x3
 3644 0593 00000000 		.4byte	_ZL8filter_l
 3645 0597 9F       		.byte	0x9f
 3646 0598 00000000 		.4byte	0
 3647 059c 00000000 		.4byte	0
 3648              	.LLST46:
 3649 05a0 00000000 		.4byte	.LVL47
 3650 05a4 0E000000 		.4byte	.LVL48
 3651 05a8 0600     		.2byte	0x6
 3652 05aa 03       		.byte	0x3
 3653 05ab 00000000 		.4byte	_ZL8filter_l
 3654 05af 9F       		.byte	0x9f
 3655 05b0 00000000 		.4byte	0
 3656 05b4 00000000 		.4byte	0
 3657              	.LLST47:
 3658 05b8 12000000 		.4byte	.LVL49
 3659 05bc 20000000 		.4byte	.LVL51
 3660 05c0 0600     		.2byte	0x6
 3661 05c2 03       		.byte	0x3
 3662 05c3 1C000000 		.4byte	_ZL8filter_r
 3663 05c7 9F       		.byte	0x9f
 3664 05c8 00000000 		.4byte	0
 3665 05cc 00000000 		.4byte	0
 3666              	.LLST48:
 3667 05d0 12000000 		.4byte	.LVL49
 3668 05d4 1C000000 		.4byte	.LVL50
 3669 05d8 0600     		.2byte	0x6
 3670 05da 03       		.byte	0x3
 3671 05db 1C000000 		.4byte	_ZL8filter_r
 3672 05df 9F       		.byte	0x9f
 3673 05e0 00000000 		.4byte	0
 3674 05e4 00000000 		.4byte	0
 3675              		.section	.debug_aranges,"",%progbits
 3676 0000 24000000 		.4byte	0x24
 3677 0004 0200     		.2byte	0x2
 3678 0006 00000000 		.4byte	.Ldebug_info0
 3679 000a 04       		.byte	0x4
 3680 000b 00       		.byte	0
 3681 000c 0000     		.2byte	0
 3682 000e 0000     		.2byte	0
 3683 0010 00000000 		.4byte	.Ltext0
 3684 0014 78020000 		.4byte	.Letext0-.Ltext0
 3685 0018 00000000 		.4byte	.LFB276
 3686 001c 3C000000 		.4byte	.LFE276-.LFB276
 3687 0020 00000000 		.4byte	0
 3688 0024 00000000 		.4byte	0
 3689              		.section	.debug_ranges,"",%progbits
 3690              	.Ldebug_ranges0:
 3691 0000 04000000 		.4byte	.LBB55
 3692 0004 0E000000 		.4byte	.LBE55
 3693 0008 10000000 		.4byte	.LBB76
 3694 000c 14000000 		.4byte	.LBE76
 3695 0010 18000000 		.4byte	.LBB81
 3696 0014 1C000000 		.4byte	.LBE81
 3697 0018 1E000000 		.4byte	.LBB83
ARM GAS  C:\msys64\tmp\ccKSWDID.s 			page 66


 3698 001c 32000000 		.4byte	.LBE83
 3699 0020 34000000 		.4byte	.LBB85
 3700 0024 3C000000 		.4byte	.LBE85
 3701 0028 3E000000 		.4byte	.LBB87
 3702 002c 42000000 		.4byte	.LBE87
 3703 0030 46000000 		.4byte	.LBB88
 3704 0034 4A000000 		.4byte	.LBE88
 3705 0038 00000000 		.4byte	0
 3706 003c 00000000 		.4byte	0
 3707 0040 22000000 		.4byte	.LBB57
 3708 0044 2A000000 		.4byte	.LBE57
 3709 0048 34000000 		.4byte	.LBB62
 3710 004c 3C000000 		.4byte	.LBE62
 3711 0050 3E000000 		.4byte	.LBB63
 3712 0054 42000000 		.4byte	.LBE63
 3713 0058 46000000 		.4byte	.LBB64
 3714 005c 4A000000 		.4byte	.LBE64
 3715 0060 00000000 		.4byte	0
 3716 0064 00000000 		.4byte	0
 3717 0068 0E000000 		.4byte	.LBB71
 3718 006c 10000000 		.4byte	.LBE71
 3719 0070 1C000000 		.4byte	.LBB82
 3720 0074 1E000000 		.4byte	.LBE82
 3721 0078 32000000 		.4byte	.LBB84
 3722 007c 34000000 		.4byte	.LBE84
 3723 0080 3C000000 		.4byte	.LBB86
 3724 0084 3E000000 		.4byte	.LBE86
 3725 0088 00000000 		.4byte	0
 3726 008c 00000000 		.4byte	0
 3727 0090 14000000 		.4byte	.LBB77
 3728 0094 18000000 		.4byte	.LBE77
 3729 0098 52000000 		.4byte	.LBB91
 3730 009c 5E000000 		.4byte	.LBE91
 3731 00a0 60000000 		.4byte	.LBB92
 3732 00a4 A4000000 		.4byte	.LBE92
 3733 00a8 00000000 		.4byte	0
 3734 00ac 00000000 		.4byte	0
 3735 00b0 D4000000 		.4byte	.LBB94
 3736 00b4 D6000000 		.4byte	.LBE94
 3737 00b8 E8000000 		.4byte	.LBB102
 3738 00bc F4000000 		.4byte	.LBE102
 3739 00c0 F8000000 		.4byte	.LBB103
 3740 00c4 00010000 		.4byte	.LBE103
 3741 00c8 02010000 		.4byte	.LBB104
 3742 00cc 06010000 		.4byte	.LBE104
 3743 00d0 0A010000 		.4byte	.LBB105
 3744 00d4 16010000 		.4byte	.LBE105
 3745 00d8 1A010000 		.4byte	.LBB111
 3746 00dc 2A010000 		.4byte	.LBE111
 3747 00e0 2E010000 		.4byte	.LBB113
 3748 00e4 32010000 		.4byte	.LBE113
 3749 00e8 00000000 		.4byte	0
 3750 00ec 00000000 		.4byte	0
 3751 00f0 16010000 		.4byte	.LBB106
 3752 00f4 1A010000 		.4byte	.LBE106
 3753 00f8 2A010000 		.4byte	.LBB112
 3754 00fc 2E010000 		.4byte	.LBE112
ARM GAS  C:\msys64\tmp\ccKSWDID.s 			page 67


 3755 0100 32010000 		.4byte	.LBB114
 3756 0104 42010000 		.4byte	.LBE114
 3757 0108 46010000 		.4byte	.LBB115
 3758 010c 66010000 		.4byte	.LBE115
 3759 0110 00000000 		.4byte	0
 3760 0114 00000000 		.4byte	0
 3761 0118 8E010000 		.4byte	.LBB116
 3762 011c 92010000 		.4byte	.LBE116
 3763 0120 CC010000 		.4byte	.LBB141
 3764 0124 D0010000 		.4byte	.LBE141
 3765 0128 E2010000 		.4byte	.LBB143
 3766 012c FE010000 		.4byte	.LBE143
 3767 0130 02020000 		.4byte	.LBB144
 3768 0134 06020000 		.4byte	.LBE144
 3769 0138 00000000 		.4byte	0
 3770 013c 00000000 		.4byte	0
 3771 0140 A0010000 		.4byte	.LBB121
 3772 0144 A4010000 		.4byte	.LBE121
 3773 0148 B6010000 		.4byte	.LBB140
 3774 014c CC010000 		.4byte	.LBE140
 3775 0150 D0010000 		.4byte	.LBB142
 3776 0154 E2010000 		.4byte	.LBE142
 3777 0158 00000000 		.4byte	0
 3778 015c 00000000 		.4byte	0
 3779 0160 A0010000 		.4byte	.LBB124
 3780 0164 A4010000 		.4byte	.LBE124
 3781 0168 B6010000 		.4byte	.LBB127
 3782 016c C8010000 		.4byte	.LBE127
 3783 0170 00000000 		.4byte	0
 3784 0174 00000000 		.4byte	0
 3785 0178 C8010000 		.4byte	.LBB128
 3786 017c CC010000 		.4byte	.LBE128
 3787 0180 D0010000 		.4byte	.LBB131
 3788 0184 E2010000 		.4byte	.LBE131
 3789 0188 00000000 		.4byte	0
 3790 018c 00000000 		.4byte	0
 3791 0190 A4010000 		.4byte	.LBB136
 3792 0194 AC010000 		.4byte	.LBE136
 3793 0198 B0010000 		.4byte	.LBB139
 3794 019c B6010000 		.4byte	.LBE139
 3795 01a0 00000000 		.4byte	0
 3796 01a4 00000000 		.4byte	0
 3797 01a8 06020000 		.4byte	.LBB145
 3798 01ac 12020000 		.4byte	.LBE145
 3799 01b0 16020000 		.4byte	.LBB148
 3800 01b4 5A020000 		.4byte	.LBE148
 3801 01b8 00000000 		.4byte	0
 3802 01bc 00000000 		.4byte	0
 3803 01c0 00000000 		.4byte	.Ltext0
 3804 01c4 78020000 		.4byte	.Letext0
 3805 01c8 00000000 		.4byte	.LFB276
 3806 01cc 3C000000 		.4byte	.LFE276
 3807 01d0 00000000 		.4byte	0
 3808 01d4 00000000 		.4byte	0
 3809              		.section	.debug_line,"",%progbits
 3810              	.Ldebug_line0:
 3811 0000 85030000 		.section	.debug_str,"MS",%progbits,1
ARM GAS  C:\msys64\tmp\ccKSWDID.s 			page 68


 3811      0200A401 
 3811      00000201 
 3811      FB0E0D00 
 3811      01010101 
 3812              	.LASF38:
 3813 0000 73657446 		.ascii	"setFOAP2\000"
 3813      4F415032 
 3813      00
 3814              	.LASF86:
 3815 0009 5F686F6F 		.ascii	"_hook_param\000"
 3815      6B5F7061 
 3815      72616D00 
 3816              	.LASF112:
 3817 0015 5F5A4E33 		.ascii	"_ZN3dsp6BiQuad6Coeffs2wcEff\000"
 3817      64737036 
 3817      42695175 
 3817      61643643 
 3817      6F656666 
 3818              	.LASF33:
 3819 0031 5F5A4E33 		.ascii	"_ZN3dsp6BiQuad6Coeffs7setFOLPEf\000"
 3819      64737036 
 3819      42695175 
 3819      61643643 
 3819      6F656666 
 3820              	.LASF40:
 3821 0051 73657453 		.ascii	"setSODC\000"
 3821      4F444300 
 3822              	.LASF64:
 3823 0059 70726F63 		.ascii	"process\000"
 3823      65737300 
 3824              	.LASF107:
 3825 0061 474E5520 		.ascii	"GNU C++11 5.4.1 20160919 (release) [ARM/embedded-5-"
 3825      432B2B31 
 3825      3120352E 
 3825      342E3120 
 3825      32303136 
 3826 0094 6272616E 		.ascii	"branch revision 240496] -mcpu=cortex-m4 -mthumb -mn"
 3826      63682072 
 3826      65766973 
 3826      696F6E20 
 3826      32343034 
 3827 00c7 6F2D7468 		.ascii	"o-thumb-interwork -mlittle-endian -mfloat-abi=hard "
 3827      756D622D 
 3827      696E7465 
 3827      72776F72 
 3827      6B202D6D 
 3828 00fa 2D6D6670 		.ascii	"-mfpu=fpv4-sp-d16 -g -Os -std=c++11 -fsingle-precis"
 3828      753D6670 
 3828      76342D73 
 3828      702D6431 
 3828      36202D67 
 3829 012d 696F6E2D 		.ascii	"ion-constant -fcheck-new -fno-rtti -fno-exceptions "
 3829      636F6E73 
 3829      74616E74 
 3829      202D6663 
 3829      6865636B 
 3830 0160 2D666E6F 		.ascii	"-fno-non-call-exceptions\000"
ARM GAS  C:\msys64\tmp\ccKSWDID.s 			page 69


 3830      2D6E6F6E 
 3830      2D63616C 
 3830      6C2D6578 
 3830      63657074 
 3831              	.LASF12:
 3832 0179 756E7369 		.ascii	"unsigned int\000"
 3832      676E6564 
 3832      20696E74 
 3832      00
 3833              	.LASF100:
 3834 0186 62697472 		.ascii	"bitres_lut_f\000"
 3834      65735F6C 
 3834      75745F66 
 3834      00
 3835              	.LASF32:
 3836 0193 73657446 		.ascii	"setFOLP\000"
 3836      4F4C5000 
 3837              	.LASF6:
 3838 019b 5F5F696E 		.ascii	"__int32_t\000"
 3838      7433325F 
 3838      7400
 3839              	.LASF81:
 3840 01a5 706C6174 		.ascii	"platform\000"
 3840      666F726D 
 3840      00
 3841              	.LASF71:
 3842 01ae 66785F74 		.ascii	"fx_tanpif\000"
 3842      616E7069 
 3842      6600
 3843              	.LASF41:
 3844 01b8 5F5A4E33 		.ascii	"_ZN3dsp6BiQuad6Coeffs7setSODCEf\000"
 3844      64737036 
 3844      42695175 
 3844      61643643 
 3844      6F656666 
 3845              	.LASF95:
 3846 01d8 74616E70 		.ascii	"tanpi_lut_f\000"
 3846      695F6C75 
 3846      745F6600 
 3847              	.LASF53:
 3848 01e4 5F5A4E33 		.ascii	"_ZN3dsp6BiQuad6Coeffs8setSOAP2Eff\000"
 3848      64737036 
 3848      42695175 
 3848      61643643 
 3848      6F656666 
 3849              	.LASF67:
 3850 0206 636C616D 		.ascii	"clampfsel\000"
 3850      70667365 
 3850      6C00
 3851              	.LASF15:
 3852 0210 75696E74 		.ascii	"uint32_t\000"
 3852      33325F74 
 3852      00
 3853              	.LASF77:
 3854 0219 76616C66 		.ascii	"valf\000"
 3854      00
 3855              	.LASF0:
ARM GAS  C:\msys64\tmp\ccKSWDID.s 			page 70


 3856 021e 666C6F61 		.ascii	"float\000"
 3856      7400
 3857              	.LASF87:
 3858 0224 696E6465 		.ascii	"index\000"
 3858      7800
 3859              	.LASF22:
 3860 022a 6B5F7573 		.ascii	"k_user_module_delfx\000"
 3860      65725F6D 
 3860      6F64756C 
 3860      655F6465 
 3860      6C667800 
 3861              	.LASF11:
 3862 023e 6C6F6E67 		.ascii	"long long unsigned int\000"
 3862      206C6F6E 
 3862      6720756E 
 3862      7369676E 
 3862      65642069 
 3863              	.LASF31:
 3864 0255 5F5A4E33 		.ascii	"_ZN3dsp6BiQuad6Coeffs7setFODCEf\000"
 3864      64737036 
 3864      42695175 
 3864      61643643 
 3864      6F656666 
 3865              	.LASF51:
 3866 0275 5F5A4E33 		.ascii	"_ZN3dsp6BiQuad6Coeffs8setSOAP1Eff\000"
 3866      64737036 
 3866      42695175 
 3866      61643643 
 3866      6F656666 
 3867              	.LASF27:
 3868 0297 73657450 		.ascii	"setPoleHP\000"
 3868      6F6C6548 
 3868      5000
 3869              	.LASF88:
 3870 02a1 76616C75 		.ascii	"value\000"
 3870      6500
 3871              	.LASF78:
 3872 02a7 5F5F696E 		.ascii	"__initialize_p\000"
 3872      69746961 
 3872      6C697A65 
 3872      5F7000
 3873              	.LASF23:
 3874 02b6 6B5F7573 		.ascii	"k_user_module_revfx\000"
 3874      65725F6D 
 3874      6F64756C 
 3874      655F7265 
 3874      76667800 
 3875              	.LASF44:
 3876 02ca 73657453 		.ascii	"setSOHP\000"
 3876      4F485000 
 3877              	.LASF79:
 3878 02d2 5F5F7072 		.ascii	"__priority\000"
 3878      696F7269 
 3878      747900
 3879              	.LASF36:
 3880 02dd 73657446 		.ascii	"setFOAP\000"
 3880      4F415000 
ARM GAS  C:\msys64\tmp\ccKSWDID.s 			page 71


 3881              	.LASF60:
 3882 02e5 5F5A4E33 		.ascii	"_ZN3dsp6BiQuadC4Ev\000"
 3882      64737036 
 3882      42695175 
 3882      61644334 
 3882      457600
 3883              	.LASF74:
 3884 02f8 636C6970 		.ascii	"clipminmaxf\000"
 3884      6D696E6D 
 3884      61786600 
 3885              	.LASF61:
 3886 0304 5F5A4E33 		.ascii	"_ZN3dsp6BiQuad10process_soEf\000"
 3886      64737036 
 3886      42695175 
 3886      61643130 
 3886      70726F63 
 3887              	.LASF106:
 3888 0321 6375746F 		.ascii	"cutoff\000"
 3888      666600
 3889              	.LASF70:
 3890 0328 716B325F 		.ascii	"qk2_k_q_r\000"
 3890      6B5F715F 
 3890      7200
 3891              	.LASF18:
 3892 0332 63686172 		.ascii	"char\000"
 3892      00
 3893              	.LASF97:
 3894 0337 706F7732 		.ascii	"pow2_lut_f\000"
 3894      5F6C7574 
 3894      5F6600
 3895              	.LASF91:
 3896 0342 6B5F6678 		.ascii	"k_fx_api_platform\000"
 3896      5F617069 
 3896      5F706C61 
 3896      74666F72 
 3896      6D00
 3897              	.LASF56:
 3898 0354 42695175 		.ascii	"BiQuad\000"
 3898      616400
 3899              	.LASF114:
 3900 035b 5F5A4E33 		.ascii	"_ZN3dsp6BiQuad6Coeffs8setSOAP3Eff\000"
 3900      64737036 
 3900      42695175 
 3900      61643643 
 3900      6F656666 
 3901              	.LASF85:
 3902 037d 6672616D 		.ascii	"frames\000"
 3902      657300
 3903              	.LASF99:
 3904 0384 73636865 		.ascii	"schetzen_lut_f\000"
 3904      747A656E 
 3904      5F6C7574 
 3904      5F6600
 3905              	.LASF13:
 3906 0393 75696E74 		.ascii	"uint8_t\000"
 3906      385F7400 
 3907              	.LASF94:
ARM GAS  C:\msys64\tmp\ccKSWDID.s 			page 72


 3908 039b 6C6F675F 		.ascii	"log_lut_f\000"
 3908      6C75745F 
 3908      6600
 3909              	.LASF49:
 3910 03a5 73657453 		.ascii	"setSOAP1\000"
 3910      4F415031 
 3910      00
 3911              	.LASF45:
 3912 03ae 5F5A4E33 		.ascii	"_ZN3dsp6BiQuad6Coeffs7setSOHPEff\000"
 3912      64737036 
 3912      42695175 
 3912      61643643 
 3912      6F656666 
 3913              	.LASF113:
 3914 03cf 73657453 		.ascii	"setSOAP3\000"
 3914      4F415033 
 3914      00
 3915              	.LASF10:
 3916 03d8 6C6F6E67 		.ascii	"long long int\000"
 3916      206C6F6E 
 3916      6720696E 
 3916      7400
 3917              	.LASF105:
 3918 03e6 7265736F 		.ascii	"resonance\000"
 3918      6E616E63 
 3918      6500
 3919              	.LASF83:
 3920 03f0 7375625F 		.ascii	"sub_xn\000"
 3920      786E00
 3921              	.LASF25:
 3922 03f7 6B5F6E75 		.ascii	"k_num_user_modules\000"
 3922      6D5F7573 
 3922      65725F6D 
 3922      6F64756C 
 3922      657300
 3923              	.LASF76:
 3924 040a 5F5A3861 		.ascii	"_Z8absolutef\000"
 3924      62736F6C 
 3924      75746566 
 3924      00
 3925              	.LASF29:
 3926 0417 5F5A4E33 		.ascii	"_ZN3dsp6BiQuad6Coeffs9setPoleHPEf\000"
 3926      64737036 
 3926      42695175 
 3926      61643643 
 3926      6F656666 
 3927              	.LASF30:
 3928 0439 73657446 		.ascii	"setFODC\000"
 3928      4F444300 
 3929              	.LASF26:
 3930 0441 73657450 		.ascii	"setPoleLP\000"
 3930      6F6C654C 
 3930      5000
 3931              	.LASF90:
 3932 044b 72616E67 		.ascii	"range\000"
 3932      6500
 3933              	.LASF47:
ARM GAS  C:\msys64\tmp\ccKSWDID.s 			page 73


 3934 0451 5F5A4E33 		.ascii	"_ZN3dsp6BiQuad6Coeffs7setSOBPEff\000"
 3934      64737036 
 3934      42695175 
 3934      61643643 
 3934      6F656666 
 3935              	.LASF89:
 3936 0472 696E7665 		.ascii	"invertedValf\000"
 3936      72746564 
 3936      56616C66 
 3936      00
 3937              	.LASF42:
 3938 047f 73657453 		.ascii	"setSOLP\000"
 3938      4F4C5000 
 3939              	.LASF84:
 3940 0487 7375625F 		.ascii	"sub_yn\000"
 3940      796E00
 3941              	.LASF24:
 3942 048e 6B5F7573 		.ascii	"k_user_module_osc\000"
 3942      65725F6D 
 3942      6F64756C 
 3942      655F6F73 
 3942      6300
 3943              	.LASF16:
 3944 04a0 6C6F6E67 		.ascii	"long double\000"
 3944      20646F75 
 3944      626C6500 
 3945              	.LASF69:
 3946 04ac 74686973 		.ascii	"this\000"
 3946      00
 3947              	.LASF96:
 3948 04b1 73717274 		.ascii	"sqrtm2log_lut_f\000"
 3948      6D326C6F 
 3948      675F6C75 
 3948      745F6600 
 3949              	.LASF115:
 3950 04c1 5F5F7374 		.ascii	"__static_initialization_and_destruction_0\000"
 3950      61746963 
 3950      5F696E69 
 3950      7469616C 
 3950      697A6174 
 3951              	.LASF55:
 3952 04eb 6D436F65 		.ascii	"mCoeffs\000"
 3952      66667300 
 3953              	.LASF39:
 3954 04f3 5F5A4E33 		.ascii	"_ZN3dsp6BiQuad6Coeffs8setFOAP2Ef\000"
 3954      64737036 
 3954      42695175 
 3954      61643643 
 3954      6F656666 
 3955              	.LASF82:
 3956 0514 5F686F6F 		.ascii	"_hook_process\000"
 3956      6B5F7072 
 3956      6F636573 
 3956      7300
 3957              	.LASF80:
 3958 0522 5F686F6F 		.ascii	"_hook_init\000"
 3958      6B5F696E 
ARM GAS  C:\msys64\tmp\ccKSWDID.s 			page 74


 3958      697400
 3959              	.LASF3:
 3960 052d 73686F72 		.ascii	"short int\000"
 3960      7420696E 
 3960      7400
 3961              	.LASF98:
 3962 0537 63756269 		.ascii	"cubicsat_lut_f\000"
 3962      63736174 
 3962      5F6C7574 
 3962      5F6600
 3963              	.LASF7:
 3964 0546 6C6F6E67 		.ascii	"long int\000"
 3964      20696E74 
 3964      00
 3965              	.LASF92:
 3966 054f 6B5F6678 		.ascii	"k_fx_api_version\000"
 3966      5F617069 
 3966      5F766572 
 3966      73696F6E 
 3966      00
 3967              	.LASF21:
 3968 0560 6B5F7573 		.ascii	"k_user_module_modfx\000"
 3968      65725F6D 
 3968      6F64756C 
 3968      655F6D6F 
 3968      64667800 
 3969              	.LASF37:
 3970 0574 5F5A4E33 		.ascii	"_ZN3dsp6BiQuad6Coeffs7setFOAPEf\000"
 3970      64737036 
 3970      42695175 
 3970      61643643 
 3970      6F656666 
 3971              	.LASF75:
 3972 0594 6162736F 		.ascii	"absolute\000"
 3972      6C757465 
 3972      00
 3973              	.LASF58:
 3974 059d 5F5A4E33 		.ascii	"_ZN3dsp6BiQuad5flushEv\000"
 3974      64737036 
 3974      42695175 
 3974      61643566 
 3974      6C757368 
 3975              	.LASF50:
 3976 05b4 5F5A4E33 		.ascii	"_ZN3dsp6BiQuad6Coeffs7setSOBREff\000"
 3976      64737036 
 3976      42695175 
 3976      61643643 
 3976      6F656666 
 3977              	.LASF59:
 3978 05d5 70726F63 		.ascii	"process_so\000"
 3978      6573735F 
 3978      736F00
 3979              	.LASF108:
 3980 05e0 2E2F7372 		.ascii	"./src/HPF.cpp\000"
 3980      632F4850 
 3980      462E6370 
 3980      7000
ARM GAS  C:\msys64\tmp\ccKSWDID.s 			page 75


 3981              	.LASF5:
 3982 05ee 5F5F7569 		.ascii	"__uint8_t\000"
 3982      6E74385F 
 3982      7400
 3983              	.LASF52:
 3984 05f8 73657453 		.ascii	"setSOAP2\000"
 3984      4F415032 
 3984      00
 3985              	.LASF66:
 3986 0601 6673656C 		.ascii	"fsel\000"
 3986      00
 3987              	.LASF57:
 3988 0606 666C7573 		.ascii	"flush\000"
 3988      6800
 3989              	.LASF116:
 3990 060c 5F474C4F 		.ascii	"_GLOBAL__sub_I_curSampleL\000"
 3990      42414C5F 
 3990      5F737562 
 3990      5F495F63 
 3990      75725361 
 3991              	.LASF72:
 3992 0626 69647866 		.ascii	"idxf\000"
 3992      00
 3993              	.LASF17:
 3994 062b 73697A65 		.ascii	"sizetype\000"
 3994      74797065 
 3994      00
 3995              	.LASF9:
 3996 0634 6C6F6E67 		.ascii	"long unsigned int\000"
 3996      20756E73 
 3996      69676E65 
 3996      6420696E 
 3996      7400
 3997              	.LASF93:
 3998 0646 77745F73 		.ascii	"wt_sine_lut_f\000"
 3998      696E655F 
 3998      6C75745F 
 3998      6600
 3999              	.LASF14:
 4000 0654 696E7433 		.ascii	"int32_t\000"
 4000      325F7400 
 4001              	.LASF35:
 4002 065c 5F5A4E33 		.ascii	"_ZN3dsp6BiQuad6Coeffs7setFOHPEf\000"
 4002      64737036 
 4002      42695175 
 4002      61643643 
 4002      6F656666 
 4003              	.LASF68:
 4004 067c 6C696E69 		.ascii	"linintf\000"
 4004      6E746600 
 4005              	.LASF65:
 4006 0684 5F5A4E33 		.ascii	"_ZN3dsp6BiQuad7processEf\000"
 4006      64737036 
 4006      42695175 
 4006      61643770 
 4006      726F6365 
 4007              	.LASF34:
ARM GAS  C:\msys64\tmp\ccKSWDID.s 			page 76


 4008 069d 73657446 		.ascii	"setFOHP\000"
 4008      4F485000 
 4009              	.LASF2:
 4010 06a5 756E7369 		.ascii	"unsigned char\000"
 4010      676E6564 
 4010      20636861 
 4010      7200
 4011              	.LASF103:
 4012 06b3 66696C74 		.ascii	"filter_l\000"
 4012      65725F6C 
 4012      00
 4013              	.LASF8:
 4014 06bc 5F5F7569 		.ascii	"__uint32_t\000"
 4014      6E743332 
 4014      5F7400
 4015              	.LASF104:
 4016 06c7 66696C74 		.ascii	"filter_r\000"
 4016      65725F72 
 4016      00
 4017              	.LASF101:
 4018 06d0 63757253 		.ascii	"curSampleL\000"
 4018      616D706C 
 4018      654C00
 4019              	.LASF20:
 4020 06db 6B5F7573 		.ascii	"k_user_module_global\000"
 4020      65725F6D 
 4020      6F64756C 
 4020      655F676C 
 4020      6F62616C 
 4021              	.LASF102:
 4022 06f0 63757253 		.ascii	"curSampleR\000"
 4022      616D706C 
 4022      655200
 4023              	.LASF110:
 4024 06fb 6465636C 		.ascii	"decltype(nullptr)\000"
 4024      74797065 
 4024      286E756C 
 4024      6C707472 
 4024      2900
 4025              	.LASF28:
 4026 070d 5F5A4E33 		.ascii	"_ZN3dsp6BiQuad6Coeffs9setPoleLPEf\000"
 4026      64737036 
 4026      42695175 
 4026      61643643 
 4026      6F656666 
 4027              	.LASF62:
 4028 072f 70726F63 		.ascii	"process_fo\000"
 4028      6573735F 
 4028      666F00
 4029              	.LASF63:
 4030 073a 5F5A4E33 		.ascii	"_ZN3dsp6BiQuad10process_foEf\000"
 4030      64737036 
 4030      42695175 
 4030      61643130 
 4030      70726F63 
 4031              	.LASF54:
 4032 0757 436F6566 		.ascii	"Coeffs\000"
ARM GAS  C:\msys64\tmp\ccKSWDID.s 			page 77


 4032      667300
 4033              	.LASF1:
 4034 075e 7369676E 		.ascii	"signed char\000"
 4034      65642063 
 4034      68617200 
 4035              	.LASF73:
 4036 076a 736D6F6F 		.ascii	"smooth\000"
 4036      746800
 4037              	.LASF4:
 4038 0771 73686F72 		.ascii	"short unsigned int\000"
 4038      7420756E 
 4038      7369676E 
 4038      65642069 
 4038      6E7400
 4039              	.LASF46:
 4040 0784 73657453 		.ascii	"setSOBP\000"
 4040      4F425000 
 4041              	.LASF48:
 4042 078c 73657453 		.ascii	"setSOBR\000"
 4042      4F425200 
 4043              	.LASF19:
 4044 0794 646F7562 		.ascii	"double\000"
 4044      6C6500
 4045              	.LASF109:
 4046 079b 433A5C75 		.ascii	"C:\\users\\bradl\\desktop\\Code Projects\\KorgFX\\K"
 4046      73657273 
 4046      5C627261 
 4046      646C5C64 
 4046      65736B74 
 4047 07c8 6F726744 		.ascii	"orgDelayFXSet\\Delays\\platform\\minilogue-xd\\High"
 4047      656C6179 
 4047      46585365 
 4047      745C4465 
 4047      6C617973 
 4048 07f7 50617373 		.ascii	"PassFilter\000"
 4048      46696C74 
 4048      657200
 4049              	.LASF111:
 4050 0802 5F5A4E33 		.ascii	"_ZN3dsp6BiQuad6CoeffsC4Ev\000"
 4050      64737036 
 4050      42695175 
 4050      61643643 
 4050      6F656666 
 4051              	.LASF43:
 4052 081c 5F5A4E33 		.ascii	"_ZN3dsp6BiQuad6Coeffs7setSOLPEff\000"
 4052      64737036 
 4052      42695175 
 4052      61643643 
 4052      6F656666 
 4053              		.ident	"GCC: (GNU Tools for ARM Embedded Processors) 5.4.1 20160919 (release) [ARM/embedded-5-bran
ARM GAS  C:\msys64\tmp\ccKSWDID.s 			page 78


DEFINED SYMBOLS
                            *ABS*:00000000 HPF.cpp
C:\msys64\tmp\ccKSWDID.s:21     .text:00000000 $t
C:\msys64\tmp\ccKSWDID.s:26     .text:00000000 _hook_init
C:\msys64\tmp\ccKSWDID.s:215    .text:000000b0 $d
C:\msys64\tmp\ccKSWDID.s:222    .text:000000c0 $t
C:\msys64\tmp\ccKSWDID.s:227    .text:000000c0 _Z8absolutef
C:\msys64\tmp\ccKSWDID.s:252    .text:000000d0 _hook_process
C:\msys64\tmp\ccKSWDID.s:401    .text:00000174 $d
C:\msys64\tmp\ccKSWDID.s:406    .text:00000178 $t
C:\msys64\tmp\ccKSWDID.s:411    .text:00000178 _hook_param
C:\msys64\tmp\ccKSWDID.s:608    .text:00000264 $d
C:\msys64\tmp\ccKSWDID.s:617    .text.startup:00000000 $t
C:\msys64\tmp\ccKSWDID.s:621    .text.startup:00000000 _GLOBAL__sub_I_curSampleL
C:\msys64\tmp\ccKSWDID.s:682    .text.startup:00000034 $d
C:\msys64\tmp\ccKSWDID.s:690    .init_array:00000000 $d
C:\msys64\tmp\ccKSWDID.s:739    .bss:00000044 b
C:\msys64\tmp\ccKSWDID.s:712    .data:00000008 a
C:\msys64\tmp\ccKSWDID.s:735    .bss:00000040 z
C:\msys64\tmp\ccKSWDID.s:704    .data:00000000 cutoff
C:\msys64\tmp\ccKSWDID.s:708    .data:00000004 resonance
C:\msys64\tmp\ccKSWDID.s:731    .bss:0000003c curSampleR
C:\msys64\tmp\ccKSWDID.s:727    .bss:00000038 curSampleL
C:\msys64\tmp\ccKSWDID.s:700    .data:00000000 $d
C:\msys64\tmp\ccKSWDID.s:715    .bss:00000000 $d
C:\msys64\tmp\ccKSWDID.s:719    .bss:00000000 _ZL8filter_l
C:\msys64\tmp\ccKSWDID.s:723    .bss:0000001c _ZL8filter_r
                     .debug_frame:00000010 $d

UNDEFINED SYMBOLS
tanpi_lut_f
