ARM GAS  C:\msys64\tmp\ccqwWWed.s 			page 1


   1              		.syntax unified
   2              		.cpu cortex-m4
   3              		.eabi_attribute 27, 1
   4              		.eabi_attribute 28, 1
   5              		.fpu fpv4-sp-d16
   6              		.eabi_attribute 20, 1
   7              		.eabi_attribute 21, 1
   8              		.eabi_attribute 23, 3
   9              		.eabi_attribute 24, 1
  10              		.eabi_attribute 25, 1
  11              		.eabi_attribute 26, 1
  12              		.eabi_attribute 30, 4
  13              		.eabi_attribute 34, 1
  14              		.eabi_attribute 18, 4
  15              		.thumb
  16              		.syntax unified
  17              		.file	"multifx.cpp"
  18              		.text
  19              	.Ltext0:
  20              		.cfi_sections	.debug_frame
  21              		.align	1
  22              		.global	_hook_init
  23              		.thumb
  24              		.thumb_func
  25              		.type	_hook_init, %function
  26              	_hook_init:
  27              	.LFB320:
  28              		.file 1 "./src/multifx.cpp"
  29              		.loc 1 88 0
  30              		.cfi_startproc
  31              		@ args = 0, pretend = 0, frame = 0
  32              		@ frame_needed = 0, uses_anonymous_args = 0
  33              	.LVL0:
  34 0000 10B5     		push	{r4, lr}
  35              		.cfi_def_cfa_offset 8
  36              		.cfi_offset 4, -8
  37              		.cfi_offset 14, -4
  38              	.LBB89:
  39              	.LBB90:
  40              		.file 2 "../inc/dsp/delayline.hpp"
  41              		.loc 2 114 0
  42 0002 194C     		ldr	r4, .L2
  43 0004 194B     		ldr	r3, .L2+4
  44 0006 2360     		str	r3, [r4]
  45              		.loc 2 115 0
  46 0008 0822     		movs	r2, #8
  47 000a A260     		str	r2, [r4, #8]
  48              		.loc 2 116 0
  49 000c 0722     		movs	r2, #7
  50 000e E260     		str	r2, [r4, #12]
  51              		.loc 2 117 0
  52 0010 0022     		movs	r2, #0
  53 0012 2261     		str	r2, [r4, #16]
  54              	.LVL1:
  55              	.LBE90:
  56              	.LBE89:
  57              	.LBB91:
ARM GAS  C:\msys64\tmp\ccqwWWed.s 			page 2


  58              	.LBB92:
  59              	.LBB93:
  60              		.file 3 "../inc/utils/buffer_ops.h"
  61              		.loc 3 109 0
  62 0014 0022     		movs	r2, #0
  63 0016 5A61     		str	r2, [r3, #20]	@ float
  64 0018 9A61     		str	r2, [r3, #24]	@ float
  65 001a DA61     		str	r2, [r3, #28]	@ float
  66 001c 1A60     		str	r2, [r3]	@ float
  67              	.LVL2:
  68 001e 5A60     		str	r2, [r3, #4]	@ float
  69              	.LVL3:
  70 0020 9A60     		str	r2, [r3, #8]	@ float
  71              	.LVL4:
  72 0022 DA60     		str	r2, [r3, #12]	@ float
  73              	.LVL5:
  74 0024 1A61     		str	r2, [r3, #16]	@ float
  75              	.LVL6:
  76              	.LBE93:
  77              	.LBE92:
  78              	.LBE91:
  79              	.LBB94:
  80              	.LBB95:
  81              		.file 4 "../inc/dsp/simplelfo.hpp"
  82              		.loc 4 91 0
  83 0026 4FF00043 		mov	r3, #-2147483648
  84 002a 6361     		str	r3, [r4, #20]
  85              	.LVL7:
  86              	.LBE95:
  87              	.LBE94:
  88              		.loc 1 92 0
  89 002c FFF7FEFF 		bl	_fx_get_bpm
  90              	.LVL8:
  91 0030 0F4B     		ldr	r3, .L2+8
  92              		.loc 1 93 0
  93 0032 9FED106A 		vldr.32	s12, .L2+12
  94 0036 93ED017A 		vldr.32	s14, [r3, #4]
  95              		.loc 1 92 0
  96 003a 1860     		str	r0, [r3]
  97              		.loc 1 93 0
  98 003c 07EE900A 		vmov	s15, r0	@ int
  99 0040 F8EEE77A 		vcvt.f32.s32	s15, s15
 100 0044 27EE877A 		vmul.f32	s14, s15, s14
 101 0048 C6EE076A 		vdiv.f32	s13, s12, s14
 102              	.LBB96:
 103              	.LBB97:
 104              		.loc 4 103 0
 105 004c 9FED0A7A 		vldr.32	s14, .L2+16
 106              	.LBE97:
 107              	.LBE96:
 108              		.loc 1 93 0
 109 0050 C3ED026A 		vstr.32	s13, [r3, #8]
 110              	.LVL9:
 111              	.LBB99:
 112              	.LBB98:
 113              		.loc 4 103 0
 114 0054 67EE877A 		vmul.f32	s15, s15, s14
ARM GAS  C:\msys64\tmp\ccqwWWed.s 			page 3


 115              	.LVL10:
 116 0058 67EEA67A 		vmul.f32	s15, s15, s13
 117              	.LVL11:
 118 005c FEEEC07A 		vcvt.s32.f32	s15, s15, #32
 119 0060 C4ED067A 		vstr.32	s15, [r4, #24]	@ int
 120              	.LVL12:
 121 0064 10BD     		pop	{r4, pc}
 122              	.L3:
 123 0066 00BF     		.align	2
 124              	.L2:
 125 0068 00000000 		.word	.LANCHOR0
 126 006c 00000000 		.word	.LANCHOR1
 127 0070 00000000 		.word	.LANCHOR2
 128 0074 00007042 		.word	1114636288
 129 0078 3EC3AE37 		.word	934200126
 130              	.LBE98:
 131              	.LBE99:
 132              		.cfi_endproc
 133              	.LFE320:
 134              		.size	_hook_init, .-_hook_init
 135              		.global	__aeabi_f2d
 136              		.global	__aeabi_dmul
 137              		.global	__aeabi_d2f
 138              		.align	1
 139              		.global	_hook_process
 140              		.thumb
 141              		.thumb_func
 142              		.type	_hook_process, %function
 143              	_hook_process:
 144              	.LFB321:
 145              		.loc 1 102 0
 146              		.cfi_startproc
 147              		@ args = 4, pretend = 0, frame = 8
 148              		@ frame_needed = 0, uses_anonymous_args = 0
 149              	.LVL13:
 150 007c 2DE9F04F 		push	{r4, r5, r6, r7, r8, r9, r10, fp, lr}
 151              		.cfi_def_cfa_offset 36
 152              		.cfi_offset 4, -36
 153              		.cfi_offset 5, -32
 154              		.cfi_offset 6, -28
 155              		.cfi_offset 7, -24
 156              		.cfi_offset 8, -20
 157              		.cfi_offset 9, -16
 158              		.cfi_offset 10, -12
 159              		.cfi_offset 11, -8
 160              		.cfi_offset 14, -4
 161 0080 2DED048B 		vpush.64	{d8, d9}
 162              		.cfi_def_cfa_offset 52
 163              		.cfi_offset 80, -52
 164              		.cfi_offset 81, -48
 165              		.cfi_offset 82, -44
 166              		.cfi_offset 83, -40
 167 0084 83B0     		sub	sp, sp, #12
 168              		.cfi_def_cfa_offset 64
 169              	.LBB100:
 170              		.loc 1 109 0
 171 0086 DFF8E092 		ldr	r9, .L25+36
ARM GAS  C:\msys64\tmp\ccqwWWed.s 			page 4


 172 008a 109B     		ldr	r3, [sp, #64]
 173              	.LVL14:
 174              	.LBB101:
 175              	.LBB102:
 176              	.LBB103:
 177              	.LBB104:
 178              		.loc 4 125 0
 179 008c AD4D     		ldr	r5, .L25
 180              	.LBE104:
 181              	.LBE103:
 182              	.LBE102:
 183              	.LBE101:
 184              	.LBE100:
 185              		.loc 1 102 0
 186 008e 0C46     		mov	r4, r1
 187 0090 4FEA4308 		lsl	r8, r3, #1
 188              	.LBB147:
 189              		.loc 1 107 0
 190 0094 0027     		movs	r7, #0
 191 0096 4E46     		mov	r6, r9
 192              	.LVL15:
 193              	.L19:
 194              		.loc 1 107 0 is_stmt 0 discriminator 1
 195 0098 4745     		cmp	r7, r8
 196 009a 00F04D81 		beq	.L4
 197              		.loc 1 109 0 is_stmt 1
 198 009e D9F80C30 		ldr	r3, [r9, #12]
 199 00a2 032B     		cmp	r3, #3
 200 00a4 00F24681 		bhi	.L6
 201 00a8 DFE813F0 		tbh	[pc, r3, lsl #1]
 202              	.L8:
 203 00ac 0400     		.2byte	(.L7-.L8)/2
 204 00ae 6500     		.2byte	(.L9-.L8)/2
 205 00b0 9700     		.2byte	(.L10-.L8)/2
 206 00b2 2801     		.2byte	(.L11-.L8)/2
 207              		.p2align 1
 208              	.L7:
 209              		.loc 1 113 0
 210 00b4 D0ED006A 		vldr.32	s13, [r0]
 211 00b8 96ED048A 		vldr.32	s16, [r6, #16]
 212              	.LBB128:
 213              	.LBB129:
 214              		.loc 1 46 0
 215 00bc FFEE007A 		vmov.f32	s15, #-1.0e+0
 216 00c0 F4EE676A 		vcmp.f32	s13, s15
 217 00c4 F1EE10FA 		vmrs	APSR_nzcv, FPSCR
 218              	.LBE129:
 219              	.LBE128:
 220              		.loc 1 113 0
 221 00c8 04F1040B 		add	fp, r4, #4
 222              	.LVL16:
 223 00cc 00F1040A 		add	r10, r0, #4
 224              	.LVL17:
 225              	.LBB134:
 226              	.LBB133:
 227              		.loc 1 46 0
 228 00d0 48D0     		beq	.L12
ARM GAS  C:\msys64\tmp\ccqwWWed.s 			page 5


 229              	.LBB130:
 230              	.LBB131:
 231              	.LBB132:
 232              		.file 5 "../inc/utils/float_math.h"
 233              		.loc 5 680 0
 234 00d2 F7EE008A 		vmov.f32	s17, #1.0e+0
 235 00d6 DFED9C7A 		vldr.32	s15, .L25+4
 236              		.loc 5 685 0
 237 00da 9FED9C6A 		vldr.32	s12, .L25+8
 238 00de DFED9C5A 		vldr.32	s11, .L25+12
 239              		.loc 5 680 0
 240 00e2 38EE688A 		vsub.f32	s16, s16, s17
 241 00e6 B4EEE78A 		vcmpe.f32	s16, s15
 242 00ea F1EE10FA 		vmrs	APSR_nzcv, FPSCR
 243 00ee B8BF     		it	lt
 244 00f0 B0EE678A 		vmovlt.f32	s16, s15
 245              		.loc 5 682 0
 246 00f4 BDEEC87A 		vcvt.s32.f32	s14, s16
 247 00f8 B8EEC77A 		vcvt.f32.s32	s14, s14
 248 00fc 38EE477A 		vsub.f32	s14, s16, s14
 249 0100 37EE287A 		vadd.f32	s14, s14, s17
 250              		.loc 5 685 0
 251 0104 36EE476A 		vsub.f32	s12, s12, s14
 252 0108 C5EE867A 		vdiv.f32	s15, s11, s12
 253 010c 37EE888A 		vadd.f32	s16, s15, s16
 254 0110 DFED907A 		vldr.32	s15, .L25+16
 255 0114 A7EE678A 		vfms.f32	s16, s14, s15
 256 0118 DFED8F7A 		vldr.32	s15, .L25+20
 257 011c 38EE278A 		vadd.f32	s16, s16, s15
 258 0120 DFED8E7A 		vldr.32	s15, .L25+24
 259 0124 28EE278A 		vmul.f32	s16, s16, s15
 260 0128 BCEEC88A 		vcvt.u32.f32	s16, s16
 261              	.LBE132:
 262              	.LBE131:
 263              	.LBE130:
 264              		.loc 1 46 0
 265 012c 66EE887A 		vmul.f32	s15, s13, s16
 266 0130 17EE900A 		vmov	r0, s15
 267 0134 FFF7FEFF 		bl	__aeabi_f2d
 268              	.LVL18:
 269 0138 41EC100B 		vmov	d0, r0, r1
 270 013c FFF7FEFF 		bl	ceil
 271              	.LVL19:
 272 0140 C8EE887A 		vdiv.f32	s15, s17, s16
 273 0144 53EC102B 		vmov	r2, r3, d0
 274 0148 17EE900A 		vmov	r0, s15
 275 014c CDE90023 		strd	r2, [sp]
 276 0150 FFF7FEFF 		bl	__aeabi_f2d
 277              	.LVL20:
 278 0154 DDE90023 		ldrd	r2, [sp]
 279 0158 FFF7FEFF 		bl	__aeabi_dmul
 280              	.LVL21:
 281 015c FFF7FEFF 		bl	__aeabi_d2f
 282              	.LVL22:
 283 0160 06EE900A 		vmov	s13, r0
 284              	.L12:
 285              	.LBE133:
ARM GAS  C:\msys64\tmp\ccqwWWed.s 			page 6


 286              	.LBE134:
 287              		.loc 1 113 0
 288 0164 DFED7E7A 		vldr.32	s15, .L25+28
 289 0168 76EEA76A 		vadd.f32	s13, s13, s15
 290 016c 5046     		mov	r0, r10
 291 016e C4ED006A 		vstr.32	s13, [r4]
 292 0172 5C46     		mov	r4, fp
 293              		.loc 1 114 0
 294 0174 DEE0     		b	.L6
 295              	.LVL23:
 296              	.L9:
 297              		.loc 1 117 0
 298 0176 90ED008A 		vldr.32	s16, [r0]
 299              	.LBB135:
 300              	.LBB136:
 301              	.LBB137:
 302              	.LBB138:
 303              		.loc 5 785 0
 304 017a B5EEC08A 		vcmpe.f32	s16, #0
 305 017e F1EE10FA 		vmrs	APSR_nzcv, FPSCR
 306              	.LBE138:
 307              	.LBE137:
 308              	.LBE136:
 309              	.LBE135:
 310              		.loc 1 117 0
 311 0182 04F1040B 		add	fp, r4, #4
 312              	.LVL24:
 313 0186 00F1040A 		add	r10, r0, #4
 314              	.LVL25:
 315              	.LBB144:
 316              	.LBB143:
 317              	.LBB140:
 318              	.LBB139:
 319              		.loc 5 785 0
 320 018a 08DB     		blt	.L23
 321 018c B0EE480A 		vmov.f32	s0, s16
 322 0190 FFF7FEFF 		bl	log10f
 323              	.LVL26:
 324 0194 F3EE047A 		vmov.f32	s15, #2.0e+1
 325 0198 20EE270A 		vmul.f32	s0, s0, s15
 326 019c 01E0     		b	.L13
 327              	.L23:
 328 019e 9FED710A 		vldr.32	s0, .L25+32
 329              	.L13:
 330              	.LVL27:
 331              	.LBE139:
 332              	.LBE140:
 333              		.loc 1 68 0
 334 01a2 D5ED077A 		vldr.32	s15, [r5, #28]
 335 01a6 F4EEC07A 		vcmpe.f32	s15, s0
 336 01aa F1EE10FA 		vmrs	APSR_nzcv, FPSCR
 337 01ae 0FDD     		ble	.L15
 338              	.LVL28:
 339              	.LBB141:
 340              	.LBB142:
 341              		.loc 1 52 0
 342 01b0 2B6A     		ldr	r3, [r5, #32]
ARM GAS  C:\msys64\tmp\ccqwWWed.s 			page 7


 343 01b2 5BB1     		cbz	r3, .L17
 344              		.loc 1 54 0
 345 01b4 0122     		movs	r2, #1
 346 01b6 92FBF3F2 		sdiv	r2, r2, r3
 347 01ba 07EE902A 		vmov	s15, r2	@ int
 348 01be F8EEE77A 		vcvt.f32.s32	s15, s15
 349              		.loc 1 55 0
 350 01c2 013B     		subs	r3, r3, #1
 351              		.loc 1 54 0
 352 01c4 28EE278A 		vmul.f32	s16, s16, s15
 353              	.LVL29:
 354              		.loc 1 55 0
 355 01c8 2B62     		str	r3, [r5, #32]
 356 01ca 01E0     		b	.L15
 357              	.LVL30:
 358              	.L17:
 359              		.loc 1 59 0
 360 01cc 3C23     		movs	r3, #60
 361 01ce 2B62     		str	r3, [r5, #32]
 362              	.LVL31:
 363              	.L15:
 364              	.LBE142:
 365              	.LBE141:
 366              	.LBE143:
 367              	.LBE144:
 368              		.loc 1 117 0
 369 01d0 84ED008A 		vstr.32	s16, [r4]
 370 01d4 5046     		mov	r0, r10
 371 01d6 5C46     		mov	r4, fp
 372              		.loc 1 118 0
 373 01d8 ACE0     		b	.L6
 374              	.LVL32:
 375              	.L10:
 376              	.LBB145:
 377              	.LBB126:
 378              		.loc 1 78 0
 379 01da 96ED057A 		vldr.32	s14, [r6, #20]
 380 01de D0ED005A 		vldr.32	s11, [r0]
 381              		.loc 1 80 0
 382 01e2 96ED048A 		vldr.32	s16, [r6, #16]
 383              		.loc 1 78 0
 384 01e6 F7EE006A 		vmov.f32	s13, #1.0e+0
 385 01ea F2EE047A 		vmov.f32	s15, #1.0e+1
 386 01ee B0EE666A 		vmov.f32	s12, s13
 387 01f2 A7EE276A 		vfma.f32	s12, s14, s15
 388              	.LBE126:
 389              	.LBE145:
 390              		.loc 1 121 0
 391 01f6 04F1040B 		add	fp, r4, #4
 392              	.LVL33:
 393 01fa 00F1040A 		add	r10, r0, #4
 394              	.LVL34:
 395              	.LBB146:
 396              	.LBB127:
 397              	.LBB110:
 398              	.LBB111:
 399              		.loc 1 37 0
ARM GAS  C:\msys64\tmp\ccqwWWed.s 			page 8


 400 01fe F6EE007A 		vmov.f32	s15, #5.0e-1
 401              	.LBE111:
 402              	.LBE110:
 403              		.loc 1 78 0
 404 0202 66EE255A 		vmul.f32	s11, s12, s11
 405              	.LVL35:
 406              	.LBB113:
 407              	.LBB112:
 408              		.loc 1 37 0
 409 0206 B7EE087A 		vmov.f32	s14, #1.5e+0
 410 020a 25EEA56A 		vmul.f32	s12, s11, s11
 411 020e F0EE668A 		vmov.f32	s17, s13
 412 0212 26EE256A 		vmul.f32	s12, s12, s11
 413 0216 B0EE679A 		vmov.f32	s18, s15
 414 021a 27EEC66A 		vnmul.f32	s12, s15, s12
 415 021e A5EE876A 		vfma.f32	s12, s11, s14
 416              	.LVL36:
 417              	.LBE112:
 418              	.LBE113:
 419              	.LBB114:
 420              	.LBB115:
 421              		.loc 1 46 0
 422 0222 BFEE007A 		vmov.f32	s14, #-1.0e+0
 423 0226 B4EE476A 		vcmp.f32	s12, s14
 424 022a F1EE10FA 		vmrs	APSR_nzcv, FPSCR
 425 022e 46D0     		beq	.L18
 426              	.LBB116:
 427              	.LBB117:
 428              	.LBB118:
 429              		.loc 5 680 0
 430 0230 38EE668A 		vsub.f32	s16, s16, s13
 431 0234 DFED447A 		vldr.32	s15, .L25+4
 432              		.loc 5 685 0
 433 0238 9FED447A 		vldr.32	s14, .L25+8
 434              		.loc 5 680 0
 435 023c B4EEE78A 		vcmpe.f32	s16, s15
 436 0240 F1EE10FA 		vmrs	APSR_nzcv, FPSCR
 437 0244 B8BF     		it	lt
 438 0246 B0EE678A 		vmovlt.f32	s16, s15
 439              		.loc 5 682 0
 440 024a FDEEC85A 		vcvt.s32.f32	s11, s16
 441 024e F8EEE55A 		vcvt.f32.s32	s11, s11
 442 0252 78EE655A 		vsub.f32	s11, s16, s11
 443 0256 75EEA65A 		vadd.f32	s11, s11, s13
 444              		.loc 5 685 0
 445 025a DFED3D6A 		vldr.32	s13, .L25+12
 446 025e 37EE657A 		vsub.f32	s14, s14, s11
 447 0262 C6EE877A 		vdiv.f32	s15, s13, s14
 448 0266 37EE888A 		vadd.f32	s16, s15, s16
 449 026a DFED3A7A 		vldr.32	s15, .L25+16
 450 026e A5EEE78A 		vfms.f32	s16, s11, s15
 451 0272 DFED397A 		vldr.32	s15, .L25+20
 452 0276 38EE278A 		vadd.f32	s16, s16, s15
 453 027a DFED387A 		vldr.32	s15, .L25+24
 454 027e 28EE278A 		vmul.f32	s16, s16, s15
 455 0282 BCEEC88A 		vcvt.u32.f32	s16, s16
 456              	.LBE118:
ARM GAS  C:\msys64\tmp\ccqwWWed.s 			page 9


 457              	.LBE117:
 458              	.LBE116:
 459              		.loc 1 46 0
 460 0286 66EE087A 		vmul.f32	s15, s12, s16
 461 028a 17EE900A 		vmov	r0, s15
 462 028e FFF7FEFF 		bl	__aeabi_f2d
 463              	.LVL37:
 464 0292 41EC100B 		vmov	d0, r0, r1
 465 0296 FFF7FEFF 		bl	ceil
 466              	.LVL38:
 467 029a C8EE887A 		vdiv.f32	s15, s17, s16
 468 029e 53EC102B 		vmov	r2, r3, d0
 469 02a2 17EE900A 		vmov	r0, s15
 470 02a6 CDE90023 		strd	r2, [sp]
 471 02aa FFF7FEFF 		bl	__aeabi_f2d
 472              	.LVL39:
 473 02ae DDE90023 		ldrd	r2, [sp]
 474 02b2 FFF7FEFF 		bl	__aeabi_dmul
 475              	.LVL40:
 476 02b6 FFF7FEFF 		bl	__aeabi_d2f
 477              	.LVL41:
 478 02ba 06EE100A 		vmov	s12, r0
 479              	.L18:
 480              	.LVL42:
 481              	.LBE115:
 482              	.LBE114:
 483              	.LBB119:
 484              	.LBB107:
 485              		.loc 4 125 0
 486 02be 95ED057A 		vldr.32	s14, [r5, #20]	@ int
 487              	.LBE107:
 488              	.LBE119:
 489              	.LBB120:
 490              	.LBB121:
 491              		.loc 4 82 0
 492 02c2 6A69     		ldr	r2, [r5, #20]
 493 02c4 AB69     		ldr	r3, [r5, #24]
 494              	.LBE121:
 495              	.LBE120:
 496              	.LBB123:
 497              	.LBB108:
 498              		.loc 4 125 0
 499 02c6 BAEEE07A 		vcvt.f32.s32	s14, s14, #31
 500              	.LVL43:
 501              	.LBE108:
 502              	.LBE123:
 503              	.LBB124:
 504              	.LBB122:
 505              		.loc 4 82 0
 506 02ca 1344     		add	r3, r3, r2
 507 02cc 6B61     		str	r3, [r5, #20]
 508              	.LVL44:
 509              	.LBE122:
 510              	.LBE124:
 511              	.LBB125:
 512              	.LBB109:
 513              	.LBB105:
ARM GAS  C:\msys64\tmp\ccqwWWed.s 			page 10


 514              	.LBB106:
 515              		.loc 5 287 0
 516 02ce 17EE103A 		vmov	r3, s14	@ int
 517 02d2 23F00043 		bic	r3, r3, #-2147483648
 518 02d6 06EE903A 		vmov	s13, r3	@ int
 519              	.LBE106:
 520              	.LBE105:
 521              	.LBE109:
 522              	.LBE125:
 523              	.LBE127:
 524              	.LBE146:
 525              		.loc 1 121 0
 526 02da 76EEE86A 		vsub.f32	s13, s13, s17
 527 02de 5046     		mov	r0, r10
 528 02e0 66EE876A 		vmul.f32	s13, s13, s14
 529 02e4 B1EE007A 		vmov.f32	s14, #4.0e+0
 530 02e8 66EE876A 		vmul.f32	s13, s13, s14
 531 02ec 26EE897A 		vmul.f32	s14, s13, s18
 532 02f0 67EE067A 		vmul.f32	s15, s14, s12
 533 02f4 C4ED007A 		vstr.32	s15, [r4]
 534 02f8 5C46     		mov	r4, fp
 535              		.loc 1 122 0
 536 02fa 1BE0     		b	.L6
 537              	.LVL45:
 538              	.L11:
 539              		.loc 1 125 0
 540 02fc D6ED056A 		vldr.32	s13, [r6, #20]
 541 0300 B2EE047A 		vmov.f32	s14, #1.0e+1
 542 0304 F7EE007A 		vmov.f32	s15, #1.0e+0
 543 0308 E6EE877A 		vfma.f32	s15, s13, s14
 544              		.loc 1 126 0
 545 030c 0434     		adds	r4, r4, #4
 546              	.LVL46:
 547              		.loc 1 125 0
 548 030e 0430     		adds	r0, r0, #4
 549              	.LVL47:
 550 0310 10ED017A 		vldr.32	s14, [r0, #-4]
 551 0314 67EE877A 		vmul.f32	s15, s15, s14
 552              	.LVL48:
 553              		.loc 1 126 0
 554 0318 27EEA77A 		vmul.f32	s14, s15, s15
 555 031c 67EE276A 		vmul.f32	s13, s14, s15
 556 0320 B6EE007A 		vmov.f32	s14, #5.0e-1
 557 0324 27EE667A 		vnmul.f32	s14, s14, s13
 558 0328 F7EE086A 		vmov.f32	s13, #1.5e+0
 559 032c A7EEA67A 		vfma.f32	s14, s15, s13
 560 0330 04ED017A 		vstr.32	s14, [r4, #-4]
 561              	.LVL49:
 562              	.L6:
 563              		.loc 1 107 0 discriminator 2
 564 0334 0137     		adds	r7, r7, #1
 565              	.LVL50:
 566 0336 AFE6     		b	.L19
 567              	.L4:
 568              	.LBE147:
 569              		.loc 1 131 0
 570 0338 03B0     		add	sp, sp, #12
ARM GAS  C:\msys64\tmp\ccqwWWed.s 			page 11


 571              		.cfi_def_cfa_offset 52
 572              		@ sp needed
 573 033a BDEC048B 		vldm	sp!, {d8-d9}
 574              		.cfi_restore 82
 575              		.cfi_restore 83
 576              		.cfi_restore 80
 577              		.cfi_restore 81
 578              		.cfi_def_cfa_offset 36
 579 033e BDE8F08F 		pop	{r4, r5, r6, r7, r8, r9, r10, fp, pc}
 580              	.LVL51:
 581              	.L26:
 582 0342 00BF     		.align	2
 583              	.L25:
 584 0344 00000000 		.word	.LANCHOR0
 585 0348 0000FCC2 		.word	-1023672320
 586 034c F8F59A40 		.word	1083897336
 587 0350 FED2DD41 		.word	1105056510
 588 0354 8DBCBE3F 		.word	1069464717
 589 0358 518CF242 		.word	1123191889
 590 035c 0000004B 		.word	1258291200
 591 0360 00000000 		.word	0
 592 0364 00C079C4 		.word	-998653952
 593 0368 00000000 		.word	.LANCHOR2
 594              		.cfi_endproc
 595              	.LFE321:
 596              		.size	_hook_process, .-_hook_process
 597              		.align	1
 598              		.global	_hook_param
 599              		.thumb
 600              		.thumb_func
 601              		.type	_hook_param, %function
 602              	_hook_param:
 603              	.LFB322:
 604              		.loc 1 135 0
 605              		.cfi_startproc
 606              		@ args = 0, pretend = 0, frame = 0
 607              		@ frame_needed = 0, uses_anonymous_args = 0
 608              	.LVL52:
 609 036c 10B5     		push	{r4, lr}
 610              		.cfi_def_cfa_offset 8
 611              		.cfi_offset 4, -8
 612              		.cfi_offset 14, -4
 613 036e 2DED028B 		vpush.64	{d8}
 614              		.cfi_def_cfa_offset 16
 615              		.cfi_offset 80, -16
 616              		.cfi_offset 81, -12
 617              		.loc 1 137 0
 618 0372 08EE101A 		vmov	s16, r1	@ int
 619 0376 BAEEE08A 		vcvt.f32.s32	s16, s16, #31
 620              	.LVL53:
 621              		.loc 1 138 0
 622 037a 10B1     		cbz	r0, .L29
 623 037c 0128     		cmp	r0, #1
 624 037e 4AD0     		beq	.L30
 625 0380 67E0     		b	.L27
 626              	.L29:
 627              		.loc 1 141 0
ARM GAS  C:\msys64\tmp\ccqwWWed.s 			page 12


 628 0382 354C     		ldr	r4, .L57
 629              		.loc 1 142 0
 630 0384 E368     		ldr	r3, [r4, #12]
 631              		.loc 1 141 0
 632 0386 84ED058A 		vstr.32	s16, [r4, #20]
 633              		.loc 1 142 0
 634 038a 3BB9     		cbnz	r3, .L31
 635              		.loc 1 144 0
 636 038c F1EE007A 		vmov.f32	s15, #4.0e+0
 637 0390 B2EE0C7A 		vmov.f32	s14, #1.4e+1
 638 0394 E8EE077A 		vfma.f32	s15, s16, s14
 639 0398 C4ED047A 		vstr.32	s15, [r4, #16]
 640              	.L31:
 641              		.loc 1 151 0
 642 039c FFF7FEFF 		bl	_fx_get_bpm
 643              	.LVL54:
 644              		.loc 1 152 0
 645 03a0 B5EE007A 		vmov.f32	s14, #2.5e-1
 646 03a4 B4EEC78A 		vcmpe.f32	s16, s14
 647 03a8 F1EE10FA 		vmrs	APSR_nzcv, FPSCR
 648              		.loc 1 151 0
 649 03ac 2A4B     		ldr	r3, .L57
 650 03ae 2060     		str	r0, [r4]
 651              		.loc 1 152 0
 652 03b0 03D5     		bpl	.L51
 653              		.loc 1 154 0
 654 03b2 4FF07852 		mov	r2, #1040187392
 655 03b6 5A60     		str	r2, [r3, #4]	@ float
 656 03b8 15E0     		b	.L34
 657              	.L51:
 658              		.loc 1 156 0
 659 03ba F6EE007A 		vmov.f32	s15, #5.0e-1
 660 03be B4EEE78A 		vcmpe.f32	s16, s15
 661 03c2 F1EE10FA 		vmrs	APSR_nzcv, FPSCR
 662 03c6 02D5     		bpl	.L52
 663              		.loc 1 158 0
 664 03c8 83ED017A 		vstr.32	s14, [r3, #4]
 665 03cc 0BE0     		b	.L34
 666              	.L52:
 667              		.loc 1 160 0
 668 03ce B6EE087A 		vmov.f32	s14, #7.5e-1
 669 03d2 B4EEC78A 		vcmpe.f32	s16, s14
 670 03d6 F1EE10FA 		vmrs	APSR_nzcv, FPSCR
 671              		.loc 1 166 0
 672 03da 56BF     		itet	pl
 673 03dc 4FF07E52 		movpl	r2, #1065353216
 674              		.loc 1 162 0
 675 03e0 C3ED017A 		vstrmi.32	s15, [r3, #4]
 676              		.loc 1 166 0
 677 03e4 5A60     		strpl	r2, [r3, #4]	@ float
 678              	.L34:
 679              		.loc 1 169 0
 680 03e6 07EE900A 		vmov	s15, r0	@ int
 681 03ea 94ED017A 		vldr.32	s14, [r4, #4]
 682 03ee DFED1B6A 		vldr.32	s13, .L57+4
 683              	.LBB148:
 684              	.LBB149:
ARM GAS  C:\msys64\tmp\ccqwWWed.s 			page 13


 685              		.loc 4 103 0
 686 03f2 1B4B     		ldr	r3, .L57+8
 687              	.LBE149:
 688              	.LBE148:
 689              		.loc 1 169 0
 690 03f4 F8EEE77A 		vcvt.f32.s32	s15, s15
 691 03f8 27EE877A 		vmul.f32	s14, s15, s14
 692 03fc C6EE877A 		vdiv.f32	s15, s13, s14
 693              	.LBB152:
 694              	.LBB150:
 695              		.loc 4 103 0
 696 0400 9FED187A 		vldr.32	s14, .L57+12
 697              	.LBE150:
 698              	.LBE152:
 699              		.loc 1 169 0
 700 0404 C4ED027A 		vstr.32	s15, [r4, #8]
 701              	.LVL55:
 702              	.LBB153:
 703              	.LBB151:
 704              		.loc 4 103 0
 705 0408 67EE877A 		vmul.f32	s15, s15, s14
 706              	.LVL56:
 707 040c FEEEC07A 		vcvt.s32.f32	s15, s15, #32
 708 0410 C3ED067A 		vstr.32	s15, [r3, #24]	@ int
 709 0414 1DE0     		b	.L27
 710              	.LVL57:
 711              	.L30:
 712              	.LBE151:
 713              	.LBE153:
 714              		.loc 1 174 0
 715 0416 F5EE007A 		vmov.f32	s15, #2.5e-1
 716 041a B4EEE78A 		vcmpe.f32	s16, s15
 717 041e F1EE10FA 		vmrs	APSR_nzcv, FPSCR
 718 0422 0D4B     		ldr	r3, .L57
 719 0424 02D5     		bpl	.L54
 720              		.loc 1 176 0
 721 0426 0022     		movs	r2, #0
 722 0428 DA60     		str	r2, [r3, #12]
 723 042a 12E0     		b	.L27
 724              	.L54:
 725              		.loc 1 178 0
 726 042c F6EE007A 		vmov.f32	s15, #5.0e-1
 727 0430 B4EEE78A 		vcmpe.f32	s16, s15
 728 0434 F1EE10FA 		vmrs	APSR_nzcv, FPSCR
 729 0438 01D5     		bpl	.L55
 730              		.loc 1 180 0
 731 043a D860     		str	r0, [r3, #12]
 732 043c 09E0     		b	.L27
 733              	.L55:
 734              		.loc 1 182 0
 735 043e F6EE087A 		vmov.f32	s15, #7.5e-1
 736 0442 B4EEE78A 		vcmpe.f32	s16, s15
 737 0446 F1EE10FA 		vmrs	APSR_nzcv, FPSCR
 738              		.loc 1 184 0
 739 044a 4CBF     		ite	mi
 740 044c 0222     		movmi	r2, #2
 741              		.loc 1 188 0
ARM GAS  C:\msys64\tmp\ccqwWWed.s 			page 14


 742 044e 0322     		movpl	r2, #3
 743 0450 DA60     		str	r2, [r3, #12]
 744              	.LVL58:
 745              	.L27:
 746              		.loc 1 194 0
 747 0452 BDEC028B 		vldm	sp!, {d8}
 748              		.cfi_restore 80
 749              		.cfi_restore 81
 750              		.cfi_def_cfa_offset 8
 751              	.LVL59:
 752 0456 10BD     		pop	{r4, pc}
 753              	.L58:
 754              		.align	2
 755              	.L57:
 756 0458 00000000 		.word	.LANCHOR2
 757 045c 00007042 		.word	1114636288
 758 0460 00000000 		.word	.LANCHOR0
 759 0464 3EC3AE37 		.word	934200126
 760              		.cfi_endproc
 761              	.LFE322:
 762              		.size	_hook_param, .-_hook_param
 763              		.section	.text.startup,"ax",%progbits
 764              		.align	1
 765              		.thumb
 766              		.thumb_func
 767              		.type	_GLOBAL__sub_I_s_len, %function
 768              	_GLOBAL__sub_I_s_len:
 769              	.LFB324:
 770              		.loc 1 194 0
 771              		.cfi_startproc
 772              		@ args = 0, pretend = 0, frame = 0
 773              		@ frame_needed = 0, uses_anonymous_args = 0
 774              		@ link register save eliminated.
 775              	.LVL60:
 776              	.LBB161:
 777              	.LBB162:
 778              	.LBB163:
 779              		.loc 2 74 0
 780 0000 064B     		ldr	r3, .L60
 781 0002 0021     		movs	r1, #0
 782 0004 0022     		movs	r2, #0
 783 0006 5960     		str	r1, [r3, #4]	@ float
 784              	.LBE163:
 785              	.LBE162:
 786              	.LBB165:
 787              	.LBB166:
 788              		.loc 4 69 0
 789 0008 4FF00041 		mov	r1, #-2147483648
 790              	.LBE166:
 791              	.LBE165:
 792              	.LBB168:
 793              	.LBB164:
 794              		.loc 2 74 0
 795 000c 1A60     		str	r2, [r3]
 796 000e 9A60     		str	r2, [r3, #8]
 797 0010 DA60     		str	r2, [r3, #12]
 798 0012 1A61     		str	r2, [r3, #16]
ARM GAS  C:\msys64\tmp\ccqwWWed.s 			page 15


 799              	.LVL61:
 800              	.LBE164:
 801              	.LBE168:
 802              	.LBB169:
 803              	.LBB167:
 804              		.loc 4 69 0
 805 0014 5961     		str	r1, [r3, #20]
 806 0016 9A61     		str	r2, [r3, #24]
 807              	.LVL62:
 808 0018 7047     		bx	lr
 809              	.L61:
 810 001a 00BF     		.align	2
 811              	.L60:
 812 001c 00000000 		.word	.LANCHOR0
 813              	.LBE167:
 814              	.LBE169:
 815              	.LBE161:
 816              		.cfi_endproc
 817              	.LFE324:
 818              		.size	_GLOBAL__sub_I_s_len, .-_GLOBAL__sub_I_s_len
 819              		.section	.init_array,"aw",%init_array
 820              		.align	2
 821 0000 00000000 		.word	_GLOBAL__sub_I_s_len(target1)
 822              		.global	lfo_speed
 823              		.global	bpm
 824              		.global	releaseCount
 825              		.global	trem_rate
 826              		.global	thresh
 827              		.global	s_len
 828              		.data
 829              		.align	2
 830              		.set	.LANCHOR2,. + 0
 831              		.type	bpm, %object
 832              		.size	bpm, 4
 833              	bpm:
 834 0000 5A000000 		.word	90
 835              		.type	trem_rate, %object
 836              		.size	trem_rate, 4
 837              	trem_rate:
 838 0004 0000003F 		.word	1056964608
 839              		.type	lfo_speed, %object
 840              		.size	lfo_speed, 4
 841              	lfo_speed:
 842 0008 0000003F 		.word	1056964608
 843              		.type	_ZL4type, %object
 844              		.size	_ZL4type, 4
 845              	_ZL4type:
 846 000c 01000000 		.word	1
 847              		.type	_ZL8bit_rate, %object
 848              		.size	_ZL8bit_rate, 4
 849              	_ZL8bit_rate:
 850 0010 00008041 		.word	1098907648
 851              		.type	_ZL5fxamt, %object
 852              		.size	_ZL5fxamt, 4
 853              	_ZL5fxamt:
 854 0014 0000003F 		.word	1056964608
 855              		.bss
ARM GAS  C:\msys64\tmp\ccqwWWed.s 			page 16


 856              		.align	2
 857              		.set	.LANCHOR0,. + 0
 858              		.type	_ZL7s_delay, %object
 859              		.size	_ZL7s_delay, 20
 860              	_ZL7s_delay:
 861 0000 00000000 		.space	20
 861      00000000 
 861      00000000 
 861      00000000 
 861      00000000 
 862              		.type	_ZL5s_lfo, %object
 863              		.size	_ZL5s_lfo, 8
 864              	_ZL5s_lfo:
 865 0014 00000000 		.space	8
 865      00000000 
 866              		.type	thresh, %object
 867              		.size	thresh, 4
 868              	thresh:
 869 001c 00000000 		.space	4
 870              		.type	releaseCount, %object
 871              		.size	releaseCount, 4
 872              	releaseCount:
 873 0020 00000000 		.space	4
 874              		.type	s_len, %object
 875              		.size	s_len, 4
 876              	s_len:
 877 0024 00000000 		.space	4
 878              		.section	.sdram,"aw",%progbits
 879              		.align	2
 880              		.set	.LANCHOR1,. + 0
 881              		.type	_ZL11s_delay_ram, %object
 882              		.size	_ZL11s_delay_ram, 20
 883              	_ZL11s_delay_ram:
 884 0000 00000000 		.space	20
 884      00000000 
 884      00000000 
 884      00000000 
 884      00000000 
 885              		.text
 886              	.Letext0:
 887              		.file 6 "c:\\users\\bradl\\desktop\\code projects\\korgfx\\logue-sdk\\tools\\gcc\\gcc-arm-none-eab
 888              		.file 7 "c:\\users\\bradl\\desktop\\code projects\\korgfx\\logue-sdk\\tools\\gcc\\gcc-arm-none-eab
 889              		.file 8 "c:\\users\\bradl\\desktop\\code projects\\korgfx\\logue-sdk\\tools\\gcc\\gcc-arm-none-eab
 890              		.file 9 "../../ext/CMSIS/CMSIS/Include/arm_math.h"
 891              		.file 10 "../inc/utils/int_math.h"
 892              		.file 11 "./inc/fx_api.h"
 893              		.file 12 "./inc/osc_api.h"
 894              		.file 13 "c:\\users\\bradl\\desktop\\code projects\\korgfx\\logue-sdk\\tools\\gcc\\gcc-arm-none-ea
 895              		.file 14 "./inc/userprg.h"