ARM GAS  C:\msys64\tmp\cc0qMh8R.s 			page 1


   1              		.syntax unified
   2              		.cpu cortex-m4
   3              		.eabi_attribute 27, 1
   4              		.eabi_attribute 28, 1
   5              		.fpu fpv4-sp-d16
   6              		.eabi_attribute 20, 1
   7              		.eabi_attribute 21, 1
   8              		.eabi_attribute 23, 3
   9              		.eabi_attribute 24, 1
  10              		.eabi_attribute 25, 1
  11              		.eabi_attribute 26, 1
  12              		.eabi_attribute 30, 4
  13              		.eabi_attribute 34, 1
  14              		.eabi_attribute 18, 4
  15              		.thumb
  16              		.syntax unified
  17              		.file	"monodelay.cpp"
  18              		.text
  19              	.Ltext0:
  20              		.cfi_sections	.debug_frame
  21              		.align	1
  22              		.global	_hook_init
  23              		.thumb
  24              		.thumb_func
  25              		.type	_hook_init, %function
  26              	_hook_init:
  27              	.LFB264:
  28              		.file 1 "./src/monodelay.cpp"
  29              		.loc 1 21 0
  30              		.cfi_startproc
  31              		@ args = 0, pretend = 0, frame = 0
  32              		@ frame_needed = 0, uses_anonymous_args = 0
  33              	.LVL0:
  34              	.LBB24:
  35              	.LBB25:
  36              		.file 2 "../inc/dsp/delayline.hpp"
  37              		.loc 2 114 0
  38 0000 1549     		ldr	r1, .L5
  39              	.LVL1:
  40 0002 164A     		ldr	r2, .L5+4
  41              		.loc 2 115 0
  42 0004 4FF48023 		mov	r3, #262144
  43              	.LBE25:
  44              	.LBE24:
  45              		.loc 1 21 0
  46 0008 10B5     		push	{r4, lr}
  47              		.cfi_def_cfa_offset 8
  48              		.cfi_offset 4, -8
  49              		.cfi_offset 14, -4
  50              	.LBB27:
  51              	.LBB26:
  52              		.loc 2 115 0
  53 000a 8B60     		str	r3, [r1, #8]
  54              		.loc 2 116 0
  55 000c 013B     		subs	r3, r3, #1
  56 000e CB60     		str	r3, [r1, #12]
  57              		.loc 2 117 0
ARM GAS  C:\msys64\tmp\cc0qMh8R.s 			page 2


  58 0010 0023     		movs	r3, #0
  59              		.loc 2 114 0
  60 0012 0A60     		str	r2, [r1]
  61              		.loc 2 117 0
  62 0014 0B61     		str	r3, [r1, #16]
  63              	.LVL2:
  64 0016 0C46     		mov	r4, r1
  65 0018 02F11003 		add	r3, r2, #16
  66              	.LBE26:
  67              	.LBE27:
  68              	.LBB28:
  69              	.LBB29:
  70              	.LBB30:
  71              		.file 3 "../inc/utils/buffer_ops.h"
  72              		.loc 3 109 0
  73 001c 0021     		movs	r1, #0
  74 001e 02F11012 		add	r2, r2, #1048592
  75              	.LVL3:
  76              	.L2:
  77 0022 43F8101C 		str	r1, [r3, #-16]	@ float
  78              	.LVL4:
  79 0026 43F80C1C 		str	r1, [r3, #-12]	@ float
  80              	.LVL5:
  81 002a 43F8081C 		str	r1, [r3, #-8]	@ float
  82              	.LVL6:
  83 002e 43F8041C 		str	r1, [r3, #-4]	@ float
  84 0032 1033     		adds	r3, r3, #16
  85              	.LVL7:
  86              		.loc 3 108 0
  87 0034 9A42     		cmp	r2, r3
  88 0036 F4D1     		bne	.L2
  89              	.LVL8:
  90              	.LBE30:
  91              	.LBE29:
  92              	.LBE28:
  93              		.loc 1 24 0
  94 0038 FFF7FEFF 		bl	_fx_get_bpm
  95              	.LVL9:
  96              		.loc 1 25 0
  97 003c 0A23     		movs	r3, #10
  98              		.loc 1 24 0
  99 003e 6061     		str	r0, [r4, #20]
 100              		.loc 1 25 0
 101 0040 90FBF3F0 		sdiv	r0, r0, r3
 102 0044 3C23     		movs	r3, #60
 103 0046 93FBF0F0 		sdiv	r0, r3, r0
 104 004a 054B     		ldr	r3, .L5+8
 105 004c 5843     		muls	r0, r3, r0
 106              		.loc 1 26 0
 107 004e 4FF07C53 		mov	r3, #1056964608
 108              		.loc 1 25 0
 109 0052 A061     		str	r0, [r4, #24]
 110              		.loc 1 26 0
 111 0054 E361     		str	r3, [r4, #28]	@ float
 112 0056 10BD     		pop	{r4, pc}
 113              	.L6:
 114              		.align	2
ARM GAS  C:\msys64\tmp\cc0qMh8R.s 			page 3


 115              	.L5:
 116 0058 00000000 		.word	.LANCHOR0
 117 005c 00000000 		.word	.LANCHOR1
 118 0060 008A6600 		.word	6720000
 119              		.cfi_endproc
 120              	.LFE264:
 121              		.size	_hook_init, .-_hook_init
 122              		.align	1
 123              		.global	_hook_process
 124              		.thumb
 125              		.thumb_func
 126              		.type	_hook_process, %function
 127              	_hook_process:
 128              	.LFB266:
 129              		.loc 1 35 0
 130              		.cfi_startproc
 131              		@ args = 0, pretend = 0, frame = 0
 132              		@ frame_needed = 0, uses_anonymous_args = 0
 133              	.LVL10:
 134              		.loc 1 36 0
 135 0064 1D4B     		ldr	r3, .L11
 136              		.loc 1 35 0
 137 0066 F0B5     		push	{r4, r5, r6, r7, lr}
 138              		.cfi_def_cfa_offset 20
 139              		.cfi_offset 4, -20
 140              		.cfi_offset 5, -16
 141              		.cfi_offset 6, -12
 142              		.cfi_offset 7, -8
 143              		.cfi_offset 14, -4
 144              	.LBB31:
 145              	.LBB32:
 146              		.loc 1 42 0
 147 0068 9A69     		ldr	r2, [r3, #24]
 148              	.LBE32:
 149              	.LBE31:
 150              		.loc 1 36 0
 151 006a D3ED075A 		vldr.32	s11, [r3, #28]
 152              	.LVL11:
 153              	.LBB49:
 154              	.LBB45:
 155              	.LBB33:
 156              	.LBB34:
 157              		.loc 2 138 0
 158 006e 1E68     		ldr	r6, [r3]
 159 0070 DF68     		ldr	r7, [r3, #12]
 160              	.LBE34:
 161              	.LBE33:
 162              		.loc 1 42 0
 163 0072 93ED085A 		vldr.32	s10, [r3, #32]
 164              	.LBE45:
 165              		.loc 1 40 0
 166 0076 4FEA410E 		lsl	lr, r1, #1
 167 007a 1969     		ldr	r1, [r3, #16]
 168              	.LVL12:
 169 007c 0024     		movs	r4, #0
 170              	.LBB46:
 171              	.LBB37:
ARM GAS  C:\msys64\tmp\cc0qMh8R.s 			page 4


 172              	.LBB35:
 173              		.loc 2 138 0
 174 007e 02EB010C 		add	ip, r2, r1
 175              	.LBE35:
 176              	.LBE37:
 177              		.loc 1 44 0
 178 0082 B6EE006A 		vmov.f32	s12, #5.0e-1
 179 0086 F7EE086A 		vmov.f32	s13, #1.5e+0
 180              	.LVL13:
 181              	.L9:
 182              	.LBE46:
 183              		.loc 1 40 0 discriminator 3
 184 008a 7445     		cmp	r4, lr
 185 008c A1EB0402 		sub	r2, r1, r4
 186              	.LVL14:
 187 0090 21D0     		beq	.L8
 188              	.LVL15:
 189              	.LBB47:
 190              	.LBB38:
 191              	.LBB36:
 192              		.loc 2 138 0 discriminator 2
 193 0092 C4EB0C05 		rsb	r5, r4, ip
 194 0096 3D40     		ands	r5, r5, r7
 195 0098 06EB8505 		add	r5, r6, r5, lsl #2
 196              	.LBE36:
 197              	.LBE38:
 198              		.loc 1 43 0 discriminator 2
 199 009c 95ED007A 		vldr.32	s14, [r5]
 200 00a0 25EE077A 		vmul.f32	s14, s10, s14
 201              	.LBB39:
 202              	.LBB40:
 203              		.loc 2 127 0 discriminator 2
 204 00a4 3A40     		ands	r2, r2, r7
 205              	.LBE40:
 206              	.LBE39:
 207              		.loc 1 43 0 discriminator 2
 208 00a6 27EE257A 		vmul.f32	s14, s14, s11
 209              	.LBB43:
 210              	.LBB41:
 211              		.loc 2 127 0 discriminator 2
 212 00aa 06EB8202 		add	r2, r6, r2, lsl #2
 213              	.LBE41:
 214              	.LBE43:
 215              		.loc 1 44 0 discriminator 2
 216 00ae 67EE077A 		vmul.f32	s15, s14, s14
 217              		.loc 1 43 0 discriminator 2
 218 00b2 83ED097A 		vstr.32	s14, [r3, #36]
 219              		.loc 1 44 0 discriminator 2
 220 00b6 67EE877A 		vmul.f32	s15, s15, s14
 221              	.LBE47:
 222              		.loc 1 40 0 discriminator 2
 223 00ba 0134     		adds	r4, r4, #1
 224              	.LVL16:
 225              	.LBB48:
 226              		.loc 1 44 0 discriminator 2
 227 00bc 66EE677A 		vnmul.f32	s15, s12, s15
 228 00c0 E7EE267A 		vfma.f32	s15, s14, s13
ARM GAS  C:\msys64\tmp\cc0qMh8R.s 			page 5


 229 00c4 90ED007A 		vldr.32	s14, [r0]
 230 00c8 77EE877A 		vadd.f32	s15, s15, s14
 231 00cc E0EC017A 		vstmia.32	r0!, {s15}
 232              	.LVL17:
 233              	.LBB44:
 234              	.LBB42:
 235              		.loc 2 127 0 discriminator 2
 236 00d0 C2ED007A 		vstr.32	s15, [r2]
 237              	.LVL18:
 238              	.LBE42:
 239              	.LBE44:
 240              	.LBE48:
 241              		.loc 1 40 0 discriminator 2
 242 00d4 D9E7     		b	.L9
 243              	.L8:
 244 00d6 1A61     		str	r2, [r3, #16]
 245 00d8 F0BD     		pop	{r4, r5, r6, r7, pc}
 246              	.LVL19:
 247              	.L12:
 248 00da 00BF     		.align	2
 249              	.L11:
 250 00dc 00000000 		.word	.LANCHOR0
 251              	.LBE49:
 252              		.cfi_endproc
 253              	.LFE266:
 254              		.size	_hook_process, .-_hook_process
 255              		.align	1
 256              		.global	_hook_param
 257              		.thumb
 258              		.thumb_func
 259              		.type	_hook_param, %function
 260              	_hook_param:
 261              	.LFB267:
 262              		.loc 1 50 0
 263              		.cfi_startproc
 264              		@ args = 0, pretend = 0, frame = 0
 265              		@ frame_needed = 0, uses_anonymous_args = 0
 266              	.LVL20:
 267 00e0 08B5     		push	{r3, lr}
 268              		.cfi_def_cfa_offset 8
 269              		.cfi_offset 3, -8
 270              		.cfi_offset 14, -4
 271 00e2 2DED028B 		vpush.64	{d8}
 272              		.cfi_def_cfa_offset 16
 273              		.cfi_offset 80, -16
 274              		.cfi_offset 81, -12
 275              		.loc 1 51 0
 276 00e6 08EE101A 		vmov	s16, r1	@ int
 277              		.loc 1 52 0
 278 00ea 0128     		cmp	r0, #1
 279              		.loc 1 51 0
 280 00ec BAEEE08A 		vcvt.f32.s32	s16, s16, #31
 281              	.LVL21:
 282              		.loc 1 52 0
 283 00f0 0AD0     		beq	.L15
 284 00f2 05D3     		bcc	.L16
 285 00f4 0328     		cmp	r0, #3
ARM GAS  C:\msys64\tmp\cc0qMh8R.s 			page 6


 286 00f6 35D1     		bne	.L13
 287              		.loc 1 85 0
 288 00f8 1C4B     		ldr	r3, .L30
 289 00fa 83ED078A 		vstr.32	s16, [r3, #28]
 290              		.loc 1 90 0
 291 00fe 31E0     		b	.L13
 292              	.L16:
 293              		.loc 1 55 0
 294 0100 1A4B     		ldr	r3, .L30
 295 0102 83ED088A 		vstr.32	s16, [r3, #32]
 296              		.loc 1 56 0
 297 0106 2DE0     		b	.L13
 298              	.L15:
 299              		.loc 1 59 0
 300 0108 FFF7FEFF 		bl	_fx_get_bpm
 301              	.LVL22:
 302              		.loc 1 61 0
 303 010c F5EE007A 		vmov.f32	s15, #2.5e-1
 304              		.loc 1 59 0
 305 0110 0A23     		movs	r3, #10
 306              		.loc 1 61 0
 307 0112 B4EEE78A 		vcmpe.f32	s16, s15
 308              		.loc 1 59 0
 309 0116 B0FBF3F0 		udiv	r0, r0, r3
 310 011a 144B     		ldr	r3, .L30
 311 011c 80B2     		uxth	r0, r0
 312              		.loc 1 61 0
 313 011e F1EE10FA 		vmrs	APSR_nzcv, FPSCR
 314              		.loc 1 59 0
 315 0122 5861     		str	r0, [r3, #20]
 316              		.loc 1 61 0
 317 0124 05D5     		bpl	.L27
 318              		.loc 1 64 0
 319 0126 124A     		ldr	r2, .L30+4
 320 0128 92FBF0F0 		sdiv	r0, r2, r0
 321 012c 8000     		lsls	r0, r0, #2
 322 012e 9861     		str	r0, [r3, #24]
 323 0130 18E0     		b	.L13
 324              	.L27:
 325              		.loc 1 66 0
 326 0132 F6EE007A 		vmov.f32	s15, #5.0e-1
 327 0136 B4EEE78A 		vcmpe.f32	s16, s15
 328 013a F1EE10FA 		vmrs	APSR_nzcv, FPSCR
 329 013e 05D5     		bpl	.L28
 330              		.loc 1 69 0
 331 0140 0B4A     		ldr	r2, .L30+4
 332 0142 92FBF0F0 		sdiv	r0, r2, r0
 333 0146 4000     		lsls	r0, r0, #1
 334 0148 9861     		str	r0, [r3, #24]
 335 014a 0BE0     		b	.L13
 336              	.L28:
 337              		.loc 1 71 0
 338 014c F6EE087A 		vmov.f32	s15, #7.5e-1
 339 0150 B4EEE78A 		vcmpe.f32	s16, s15
 340 0154 F1EE10FA 		vmrs	APSR_nzcv, FPSCR
 341              		.loc 1 74 0
 342 0158 4CBF     		ite	mi
ARM GAS  C:\msys64\tmp\cc0qMh8R.s 			page 7


 343 015a 054A     		ldrmi	r2, .L30+4
 344              		.loc 1 79 0
 345 015c 054A     		ldrpl	r2, .L30+8
 346 015e 92FBF0F0 		sdiv	r0, r2, r0
 347 0162 9861     		str	r0, [r3, #24]
 348              	.L13:
 349              		.loc 1 90 0
 350 0164 BDEC028B 		vldm	sp!, {d8}
 351              		.cfi_restore 80
 352              		.cfi_restore 81
 353              		.cfi_def_cfa_offset 8
 354              	.LVL23:
 355 0168 08BD     		pop	{r3, pc}
 356              	.L31:
 357 016a 00BF     		.align	2
 358              	.L30:
 359 016c 00000000 		.word	.LANCHOR0
 360 0170 00F22B00 		.word	2880000
 361 0174 00F91500 		.word	1440000
 362              		.cfi_endproc
 363              	.LFE267:
 364              		.size	_hook_param, .-_hook_param
 365              		.section	.text.startup,"ax",%progbits
 366              		.align	1
 367              		.thumb
 368              		.thumb_func
 369              		.type	_GLOBAL__sub_I_s_len, %function
 370              	_GLOBAL__sub_I_s_len:
 371              	.LFB269:
 372              		.loc 1 90 0
 373              		.cfi_startproc
 374              		@ args = 0, pretend = 0, frame = 0
 375              		@ frame_needed = 0, uses_anonymous_args = 0
 376              		@ link register save eliminated.
 377              	.LVL24:
 378              	.LBB55:
 379              	.LBB56:
 380              	.LBB57:
 381              		.loc 2 74 0
 382 0000 044B     		ldr	r3, .L33
 383 0002 0022     		movs	r2, #0
 384 0004 0021     		movs	r1, #0
 385 0006 1A60     		str	r2, [r3]
 386 0008 5960     		str	r1, [r3, #4]	@ float
 387 000a 9A60     		str	r2, [r3, #8]
 388 000c DA60     		str	r2, [r3, #12]
 389 000e 1A61     		str	r2, [r3, #16]
 390              	.LVL25:
 391 0010 7047     		bx	lr
 392              	.L34:
 393 0012 00BF     		.align	2
 394              	.L33:
 395 0014 00000000 		.word	.LANCHOR0
 396              	.LBE57:
 397              	.LBE56:
 398              	.LBE55:
 399              		.cfi_endproc
ARM GAS  C:\msys64\tmp\cc0qMh8R.s 			page 8


 400              	.LFE269:
 401              		.size	_GLOBAL__sub_I_s_len, .-_GLOBAL__sub_I_s_len
 402              		.section	.init_array,"aw",%init_array
 403              		.align	2
 404 0000 00000000 		.word	_GLOBAL__sub_I_s_len(target1)
 405              		.global	bpm
 406              		.global	wetXN
 407              		.global	s_len
 408              		.bss
 409              		.align	2
 410              		.set	.LANCHOR0,. + 0
 411              		.type	_ZL7s_delay, %object
 412              		.size	_ZL7s_delay, 20
 413              	_ZL7s_delay:
 414 0000 00000000 		.space	20
 414      00000000 
 414      00000000 
 414      00000000 
 414      00000000 
 415              		.type	bpm, %object
 416              		.size	bpm, 4
 417              	bpm:
 418 0014 00000000 		.space	4
 419              		.type	s_len, %object
 420              		.size	s_len, 4
 421              	s_len:
 422 0018 00000000 		.space	4
 423              		.type	_ZL5s_mix, %object
 424              		.size	_ZL5s_mix, 4
 425              	_ZL5s_mix:
 426 001c 00000000 		.space	4
 427              		.type	_ZL4gain, %object
 428              		.size	_ZL4gain, 4
 429              	_ZL4gain:
 430 0020 00000000 		.space	4
 431              		.type	wetXN, %object
 432              		.size	wetXN, 4
 433              	wetXN:
 434 0024 00000000 		.space	4
 435              		.section	.sdram,"aw",%progbits
 436              		.align	2
 437              		.set	.LANCHOR1,. + 0
 438              		.type	_ZL11s_delay_ram, %object
 439              		.size	_ZL11s_delay_ram, 840000
 440              	_ZL11s_delay_ram:
 441 0000 00000000 		.space	840000
 441      00000000 
 441      00000000 
 441      00000000 
 441      00000000 
 442              		.text
 443              	.Letext0:
 444              		.file 4 "c:\\users\\bradl\\desktop\\code projects\\korgfx\\korgdelayfxset\\delays\\tools\\gcc\\gcc
 445              		.file 5 "c:\\users\\bradl\\desktop\\code projects\\korgfx\\korgdelayfxset\\delays\\tools\\gcc\\gcc
 446              		.file 6 "c:\\users\\bradl\\desktop\\code projects\\korgfx\\korgdelayfxset\\delays\\tools\\gcc\\gcc
 447              		.file 7 "../inc/utils/int_math.h"
 448              		.file 8 "../inc/fx_api.h"
ARM GAS  C:\msys64\tmp\cc0qMh8R.s 			page 9


 449              		.file 9 "../inc/userprg.h"