ARM GAS  C:\msys64\tmp\ccqo0o8e.s 			page 1


   1              		.syntax unified
   2              		.cpu cortex-m4
   3              		.eabi_attribute 27, 1
   4              		.eabi_attribute 28, 1
   5              		.fpu fpv4-sp-d16
   6              		.eabi_attribute 20, 1
   7              		.eabi_attribute 21, 1
   8              		.eabi_attribute 23, 3
   9              		.eabi_attribute 24, 1
  10              		.eabi_attribute 25, 1
  11              		.eabi_attribute 26, 1
  12              		.eabi_attribute 30, 4
  13              		.eabi_attribute 34, 1
  14              		.eabi_attribute 18, 4
  15              		.thumb
  16              		.syntax unified
  17              		.file	"monodelay.cpp"
  18              		.text
  19              	.Ltext0:
  20              		.cfi_sections	.debug_frame
  21              		.align	1
  22              		.global	_hook_init
  23              		.thumb
  24              		.thumb_func
  25              		.type	_hook_init, %function
  26              	_hook_init:
  27              	.LFB264:
  28              		.file 1 "./src/monodelay.cpp"
  29              		.loc 1 21 0
  30              		.cfi_startproc
  31              		@ args = 0, pretend = 0, frame = 0
  32              		@ frame_needed = 0, uses_anonymous_args = 0
  33              	.LVL0:
  34              	.LBB24:
  35              	.LBB25:
  36              		.file 2 "../inc/dsp/delayline.hpp"
  37              		.loc 2 114 0
  38 0000 1549     		ldr	r1, .L5
  39              	.LVL1:
  40 0002 164A     		ldr	r2, .L5+4
  41              		.loc 2 115 0
  42 0004 4FF48023 		mov	r3, #262144
  43              	.LBE25:
  44              	.LBE24:
  45              		.loc 1 21 0
  46 0008 10B5     		push	{r4, lr}
  47              		.cfi_def_cfa_offset 8
  48              		.cfi_offset 4, -8
  49              		.cfi_offset 14, -4
  50              	.LBB27:
  51              	.LBB26:
  52              		.loc 2 115 0
  53 000a 8B60     		str	r3, [r1, #8]
  54              		.loc 2 116 0
  55 000c 013B     		subs	r3, r3, #1
  56 000e CB60     		str	r3, [r1, #12]
  57              		.loc 2 117 0
ARM GAS  C:\msys64\tmp\ccqo0o8e.s 			page 2


  58 0010 0023     		movs	r3, #0
  59              		.loc 2 114 0
  60 0012 0A60     		str	r2, [r1]
  61              		.loc 2 117 0
  62 0014 0B61     		str	r3, [r1, #16]
  63              	.LVL2:
  64 0016 0C46     		mov	r4, r1
  65 0018 02F11003 		add	r3, r2, #16
  66              	.LBE26:
  67              	.LBE27:
  68              	.LBB28:
  69              	.LBB29:
  70              	.LBB30:
  71              		.file 3 "../inc/utils/buffer_ops.h"
  72              		.loc 3 109 0
  73 001c 0021     		movs	r1, #0
  74 001e 02F11012 		add	r2, r2, #1048592
  75              	.LVL3:
  76              	.L2:
  77 0022 43F8101C 		str	r1, [r3, #-16]	@ float
  78              	.LVL4:
  79 0026 43F80C1C 		str	r1, [r3, #-12]	@ float
  80              	.LVL5:
  81 002a 43F8081C 		str	r1, [r3, #-8]	@ float
  82              	.LVL6:
  83 002e 43F8041C 		str	r1, [r3, #-4]	@ float
  84 0032 1033     		adds	r3, r3, #16
  85              	.LVL7:
  86              		.loc 3 108 0
  87 0034 9A42     		cmp	r2, r3
  88 0036 F4D1     		bne	.L2
  89              	.LVL8:
  90              	.LBE30:
  91              	.LBE29:
  92              	.LBE28:
  93              		.loc 1 24 0
  94 0038 FFF7FEFF 		bl	_fx_get_bpm
  95              	.LVL9:
  96              		.loc 1 25 0
  97 003c 0A23     		movs	r3, #10
  98              		.loc 1 24 0
  99 003e 6061     		str	r0, [r4, #20]
 100              		.loc 1 25 0
 101 0040 90FBF3F0 		sdiv	r0, r0, r3
 102 0044 3C23     		movs	r3, #60
 103 0046 93FBF0F0 		sdiv	r0, r3, r0
 104 004a 054B     		ldr	r3, .L5+8
 105 004c 5843     		muls	r0, r3, r0
 106              		.loc 1 26 0
 107 004e 4FF07C53 		mov	r3, #1056964608
 108              		.loc 1 25 0
 109 0052 A061     		str	r0, [r4, #24]
 110              		.loc 1 26 0
 111 0054 E361     		str	r3, [r4, #28]	@ float
 112 0056 10BD     		pop	{r4, pc}
 113              	.L6:
 114              		.align	2
ARM GAS  C:\msys64\tmp\ccqo0o8e.s 			page 3


 115              	.L5:
 116 0058 00000000 		.word	.LANCHOR0
 117 005c 00000000 		.word	.LANCHOR1
 118 0060 008A6600 		.word	6720000
 119              		.cfi_endproc
 120              	.LFE264:
 121              		.size	_hook_init, .-_hook_init
 122              		.align	1
 123              		.global	_hook_process
 124              		.thumb
 125              		.thumb_func
 126              		.type	_hook_process, %function
 127              	_hook_process:
 128              	.LFB266:
 129              		.loc 1 35 0
 130              		.cfi_startproc
 131              		@ args = 0, pretend = 0, frame = 0
 132              		@ frame_needed = 0, uses_anonymous_args = 0
 133              	.LVL10:
 134              		.loc 1 36 0
 135 0064 1D4B     		ldr	r3, .L11
 136              		.loc 1 35 0
 137 0066 F0B5     		push	{r4, r5, r6, r7, lr}
 138              		.cfi_def_cfa_offset 20
 139              		.cfi_offset 4, -20
 140              		.cfi_offset 5, -16
 141              		.cfi_offset 6, -12
 142              		.cfi_offset 7, -8
 143              		.cfi_offset 14, -4
 144              	.LBB31:
 145              	.LBB32:
 146              		.loc 1 42 0
 147 0068 9A69     		ldr	r2, [r3, #24]
 148              	.LBE32:
 149              	.LBE31:
 150              		.loc 1 36 0
 151 006a D3ED075A 		vldr.32	s11, [r3, #28]
 152              	.LVL11:
 153              	.LBB49:
 154              	.LBB45:
 155              	.LBB33:
 156              	.LBB34:
 157              		.loc 2 138 0
 158 006e 1E68     		ldr	r6, [r3]
 159 0070 DF68     		ldr	r7, [r3, #12]
 160              	.LBE34:
 161              	.LBE33:
 162              		.loc 1 42 0
 163 0072 93ED085A 		vldr.32	s10, [r3, #32]
 164              	.LBE45:
 165              		.loc 1 40 0
 166 0076 4FEA410E 		lsl	lr, r1, #1
 167 007a 1969     		ldr	r1, [r3, #16]
 168              	.LVL12:
 169 007c 0024     		movs	r4, #0
 170              	.LBB46:
 171              	.LBB37:
ARM GAS  C:\msys64\tmp\ccqo0o8e.s 			page 4


 172              	.LBB35:
 173              		.loc 2 138 0
 174 007e 02EB010C 		add	ip, r2, r1
 175              	.LBE35:
 176              	.LBE37:
 177              		.loc 1 44 0
 178 0082 B6EE006A 		vmov.f32	s12, #5.0e-1
 179 0086 F7EE086A 		vmov.f32	s13, #1.5e+0
 180              	.LVL13:
 181              	.L9:
 182              	.LBE46:
 183              		.loc 1 40 0 discriminator 3
 184 008a 7445     		cmp	r4, lr
 185 008c A1EB0402 		sub	r2, r1, r4
 186              	.LVL14:
 187 0090 21D0     		beq	.L8
 188              	.LVL15:
 189              	.LBB47:
 190              	.LBB38:
 191              	.LBB36:
 192              		.loc 2 138 0 discriminator 2
 193 0092 C4EB0C05 		rsb	r5, r4, ip
 194 0096 3D40     		ands	r5, r5, r7
 195 0098 06EB8505 		add	r5, r6, r5, lsl #2
 196              	.LBE36:
 197              	.LBE38:
 198              		.loc 1 43 0 discriminator 2
 199 009c 95ED007A 		vldr.32	s14, [r5]
 200 00a0 25EE077A 		vmul.f32	s14, s10, s14
 201              	.LBB39:
 202              	.LBB40:
 203              		.loc 2 127 0 discriminator 2
 204 00a4 3A40     		ands	r2, r2, r7
 205              	.LBE40:
 206              	.LBE39:
 207              		.loc 1 43 0 discriminator 2
 208 00a6 27EE257A 		vmul.f32	s14, s14, s11
 209              	.LBB43:
 210              	.LBB41:
 211              		.loc 2 127 0 discriminator 2
 212 00aa 06EB8202 		add	r2, r6, r2, lsl #2
 213              	.LBE41:
 214              	.LBE43:
 215              		.loc 1 44 0 discriminator 2
 216 00ae 67EE077A 		vmul.f32	s15, s14, s14
 217              		.loc 1 43 0 discriminator 2
 218 00b2 83ED097A 		vstr.32	s14, [r3, #36]
 219              		.loc 1 44 0 discriminator 2
 220 00b6 67EE877A 		vmul.f32	s15, s15, s14
 221              	.LBE47:
 222              		.loc 1 40 0 discriminator 2
 223 00ba 0134     		adds	r4, r4, #1
 224              	.LVL16:
 225              	.LBB48:
 226              		.loc 1 44 0 discriminator 2
 227 00bc 66EE677A 		vnmul.f32	s15, s12, s15
 228 00c0 E7EE267A 		vfma.f32	s15, s14, s13
ARM GAS  C:\msys64\tmp\ccqo0o8e.s 			page 5


 229 00c4 90ED007A 		vldr.32	s14, [r0]
 230 00c8 77EE877A 		vadd.f32	s15, s15, s14
 231 00cc E0EC017A 		vstmia.32	r0!, {s15}
 232              	.LVL17:
 233              	.LBB44:
 234              	.LBB42:
 235              		.loc 2 127 0 discriminator 2
 236 00d0 C2ED007A 		vstr.32	s15, [r2]
 237              	.LVL18:
 238              	.LBE42:
 239              	.LBE44:
 240              	.LBE48:
 241              		.loc 1 40 0 discriminator 2
 242 00d4 D9E7     		b	.L9
 243              	.L8:
 244 00d6 1A61     		str	r2, [r3, #16]
 245 00d8 F0BD     		pop	{r4, r5, r6, r7, pc}
 246              	.LVL19:
 247              	.L12:
 248 00da 00BF     		.align	2
 249              	.L11:
 250 00dc 00000000 		.word	.LANCHOR0
 251              	.LBE49:
 252              		.cfi_endproc
 253              	.LFE266:
 254              		.size	_hook_process, .-_hook_process
 255              		.align	1
 256              		.global	_hook_param
 257              		.thumb
 258              		.thumb_func
 259              		.type	_hook_param, %function
 260              	_hook_param:
 261              	.LFB267:
 262              		.loc 1 50 0
 263              		.cfi_startproc
 264              		@ args = 0, pretend = 0, frame = 0
 265              		@ frame_needed = 0, uses_anonymous_args = 0
 266              	.LVL20:
 267 00e0 08B5     		push	{r3, lr}
 268              		.cfi_def_cfa_offset 8
 269              		.cfi_offset 3, -8
 270              		.cfi_offset 14, -4
 271 00e2 2DED028B 		vpush.64	{d8}
 272              		.cfi_def_cfa_offset 16
 273              		.cfi_offset 80, -16
 274              		.cfi_offset 81, -12
 275              		.loc 1 51 0
 276 00e6 08EE101A 		vmov	s16, r1	@ int
 277              		.loc 1 52 0
 278 00ea 0128     		cmp	r0, #1
 279              		.loc 1 51 0
 280 00ec BAEEE08A 		vcvt.f32.s32	s16, s16, #31
 281              	.LVL21:
 282              		.loc 1 52 0
 283 00f0 11D0     		beq	.L15
 284 00f2 05D3     		bcc	.L16
 285 00f4 0328     		cmp	r0, #3
ARM GAS  C:\msys64\tmp\ccqo0o8e.s 			page 6


 286 00f6 3CD1     		bne	.L13
 287              		.loc 1 86 0
 288 00f8 1F4B     		ldr	r3, .L31
 289 00fa 83ED078A 		vstr.32	s16, [r3, #28]
 290              		.loc 1 91 0
 291 00fe 38E0     		b	.L13
 292              	.L16:
 293              		.loc 1 55 0
 294 0100 B5EE408A 		vcmp.f32	s16, #0
 295 0104 F1EE10FA 		vmrs	APSR_nzcv, FPSCR
 296 0108 1B4B     		ldr	r3, .L31
 297 010a 06BF     		itte	eq
 298 010c 1B4A     		ldreq	r2, .L31+4
 299 010e 1A62     		streq	r2, [r3, #32]	@ float
 300              		.loc 1 56 0
 301 0110 83ED088A 		vstrne.32	s16, [r3, #32]
 302 0114 2DE0     		b	.L13
 303              	.L15:
 304              		.loc 1 60 0
 305 0116 FFF7FEFF 		bl	_fx_get_bpm
 306              	.LVL22:
 307              		.loc 1 62 0
 308 011a F5EE007A 		vmov.f32	s15, #2.5e-1
 309              		.loc 1 60 0
 310 011e 0A23     		movs	r3, #10
 311              		.loc 1 62 0
 312 0120 B4EEE78A 		vcmpe.f32	s16, s15
 313              		.loc 1 60 0
 314 0124 B0FBF3F0 		udiv	r0, r0, r3
 315 0128 134B     		ldr	r3, .L31
 316 012a 80B2     		uxth	r0, r0
 317              		.loc 1 62 0
 318 012c F1EE10FA 		vmrs	APSR_nzcv, FPSCR
 319              		.loc 1 60 0
 320 0130 5861     		str	r0, [r3, #20]
 321              		.loc 1 62 0
 322 0132 05D5     		bpl	.L28
 323              		.loc 1 65 0
 324 0134 124A     		ldr	r2, .L31+8
 325 0136 92FBF0F0 		sdiv	r0, r2, r0
 326 013a 8000     		lsls	r0, r0, #2
 327 013c 9861     		str	r0, [r3, #24]
 328 013e 18E0     		b	.L13
 329              	.L28:
 330              		.loc 1 67 0
 331 0140 F6EE007A 		vmov.f32	s15, #5.0e-1
 332 0144 B4EEE78A 		vcmpe.f32	s16, s15
 333 0148 F1EE10FA 		vmrs	APSR_nzcv, FPSCR
 334 014c 05D5     		bpl	.L29
 335              		.loc 1 70 0
 336 014e 0C4A     		ldr	r2, .L31+8
 337 0150 92FBF0F0 		sdiv	r0, r2, r0
 338 0154 4000     		lsls	r0, r0, #1
 339 0156 9861     		str	r0, [r3, #24]
 340 0158 0BE0     		b	.L13
 341              	.L29:
 342              		.loc 1 72 0
ARM GAS  C:\msys64\tmp\ccqo0o8e.s 			page 7


 343 015a F6EE087A 		vmov.f32	s15, #7.5e-1
 344 015e B4EEE78A 		vcmpe.f32	s16, s15
 345 0162 F1EE10FA 		vmrs	APSR_nzcv, FPSCR
 346              		.loc 1 75 0
 347 0166 4CBF     		ite	mi
 348 0168 054A     		ldrmi	r2, .L31+8
 349              		.loc 1 80 0
 350 016a 064A     		ldrpl	r2, .L31+12
 351 016c 92FBF0F0 		sdiv	r0, r2, r0
 352 0170 9861     		str	r0, [r3, #24]
 353              	.L13:
 354              		.loc 1 91 0
 355 0172 BDEC028B 		vldm	sp!, {d8}
 356              		.cfi_restore 80
 357              		.cfi_restore 81
 358              		.cfi_def_cfa_offset 8
 359              	.LVL23:
 360 0176 08BD     		pop	{r3, pc}
 361              	.L32:
 362              		.align	2
 363              	.L31:
 364 0178 00000000 		.word	.LANCHOR0
 365 017c CDCCCC3D 		.word	1036831949
 366 0180 00F22B00 		.word	2880000
 367 0184 00F91500 		.word	1440000
 368              		.cfi_endproc
 369              	.LFE267:
 370              		.size	_hook_param, .-_hook_param
 371              		.section	.text.startup,"ax",%progbits
 372              		.align	1
 373              		.thumb
 374              		.thumb_func
 375              		.type	_GLOBAL__sub_I_s_len, %function
 376              	_GLOBAL__sub_I_s_len:
 377              	.LFB269:
 378              		.loc 1 91 0
 379              		.cfi_startproc
 380              		@ args = 0, pretend = 0, frame = 0
 381              		@ frame_needed = 0, uses_anonymous_args = 0
 382              		@ link register save eliminated.
 383              	.LVL24:
 384              	.LBB55:
 385              	.LBB56:
 386              	.LBB57:
 387              		.loc 2 74 0
 388 0000 044B     		ldr	r3, .L34
 389 0002 0022     		movs	r2, #0
 390 0004 0021     		movs	r1, #0
 391 0006 1A60     		str	r2, [r3]
 392 0008 5960     		str	r1, [r3, #4]	@ float
 393 000a 9A60     		str	r2, [r3, #8]
 394 000c DA60     		str	r2, [r3, #12]
 395 000e 1A61     		str	r2, [r3, #16]
 396              	.LVL25:
 397 0010 7047     		bx	lr
 398              	.L35:
 399 0012 00BF     		.align	2
ARM GAS  C:\msys64\tmp\ccqo0o8e.s 			page 8


 400              	.L34:
 401 0014 00000000 		.word	.LANCHOR0
 402              	.LBE57:
 403              	.LBE56:
 404              	.LBE55:
 405              		.cfi_endproc
 406              	.LFE269:
 407              		.size	_GLOBAL__sub_I_s_len, .-_GLOBAL__sub_I_s_len
 408              		.section	.init_array,"aw",%init_array
 409              		.align	2
 410 0000 00000000 		.word	_GLOBAL__sub_I_s_len(target1)
 411              		.global	bpm
 412              		.global	wetXN
 413              		.global	s_len
 414              		.bss
 415              		.align	2
 416              		.set	.LANCHOR0,. + 0
 417              		.type	_ZL7s_delay, %object
 418              		.size	_ZL7s_delay, 20
 419              	_ZL7s_delay:
 420 0000 00000000 		.space	20
 420      00000000 
 420      00000000 
 420      00000000 
 420      00000000 
 421              		.type	bpm, %object
 422              		.size	bpm, 4
 423              	bpm:
 424 0014 00000000 		.space	4
 425              		.type	s_len, %object
 426              		.size	s_len, 4
 427              	s_len:
 428 0018 00000000 		.space	4
 429              		.type	_ZL5s_mix, %object
 430              		.size	_ZL5s_mix, 4
 431              	_ZL5s_mix:
 432 001c 00000000 		.space	4
 433              		.type	_ZL4gain, %object
 434              		.size	_ZL4gain, 4
 435              	_ZL4gain:
 436 0020 00000000 		.space	4
 437              		.type	wetXN, %object
 438              		.size	wetXN, 4
 439              	wetXN:
 440 0024 00000000 		.space	4
 441              		.section	.sdram,"aw",%progbits
 442              		.align	2
 443              		.set	.LANCHOR1,. + 0
 444              		.type	_ZL11s_delay_ram, %object
 445              		.size	_ZL11s_delay_ram, 840000
 446              	_ZL11s_delay_ram:
 447 0000 00000000 		.space	840000
 447      00000000 
 447      00000000 
 447      00000000 
 447      00000000 
 448              		.text
ARM GAS  C:\msys64\tmp\ccqo0o8e.s 			page 9


 449              	.Letext0:
 450              		.file 4 "c:\\users\\bradl\\desktop\\code projects\\korgfx\\korgdelayfx\\monodelay\\tools\\gcc\\gcc
 451              		.file 5 "c:\\users\\bradl\\desktop\\code projects\\korgfx\\korgdelayfx\\monodelay\\tools\\gcc\\gcc
 452              		.file 6 "c:\\users\\bradl\\desktop\\code projects\\korgfx\\korgdelayfx\\monodelay\\tools\\gcc\\gcc
 453              		.file 7 "../inc/utils/int_math.h"
 454              		.file 8 "../inc/fx_api.h"
 455              		.file 9 "../inc/userprg.h"
 456              		.section	.debug_info,"",%progbits
 457              	.Ldebug_info0:
 458 0000 16070000 		.4byte	0x716
 459 0004 0400     		.2byte	0x4
 460 0006 00000000 		.4byte	.Ldebug_abbrev0
 461 000a 04       		.byte	0x4
 462 000b 01       		.uleb128 0x1
 463 000c 20020000 		.4byte	.LASF78
 464 0010 04       		.byte	0x4
 465 0011 52000000 		.4byte	.LASF79
 466 0015 4D040000 		.4byte	.LASF80
 467 0019 A0000000 		.4byte	.Ldebug_ranges0+0xa0
 468 001d 00000000 		.4byte	0
 469 0021 00000000 		.4byte	.Ldebug_line0
 470 0025 02       		.uleb128 0x2
 471 0026 04       		.byte	0x4
 472 0027 04       		.byte	0x4
 473 0028 04010000 		.4byte	.LASF0
 474 002c 03       		.uleb128 0x3
 475 002d 04       		.byte	0x4
 476 002e 05       		.byte	0x5
 477 002f 696E7400 		.ascii	"int\000"
 478 0033 02       		.uleb128 0x2
 479 0034 01       		.byte	0x1
 480 0035 06       		.byte	0x6
 481 0036 F8000000 		.4byte	.LASF1
 482 003a 04       		.uleb128 0x4
 483 003b 65030000 		.4byte	.LASF5
 484 003f 04       		.byte	0x4
 485 0040 1D       		.byte	0x1d
 486 0041 45000000 		.4byte	0x45
 487 0045 02       		.uleb128 0x2
 488 0046 01       		.byte	0x1
 489 0047 08       		.byte	0x8
 490 0048 08020000 		.4byte	.LASF2
 491 004c 02       		.uleb128 0x2
 492 004d 02       		.byte	0x2
 493 004e 05       		.byte	0x5
 494 004f A1000000 		.4byte	.LASF3
 495 0053 02       		.uleb128 0x2
 496 0054 02       		.byte	0x2
 497 0055 07       		.byte	0x7
 498 0056 B3030000 		.4byte	.LASF4
 499 005a 04       		.uleb128 0x4
 500 005b FD040000 		.4byte	.LASF6
 501 005f 04       		.byte	0x4
 502 0060 3F       		.byte	0x3f
 503 0061 65000000 		.4byte	0x65
 504 0065 02       		.uleb128 0x2
 505 0066 04       		.byte	0x4
ARM GAS  C:\msys64\tmp\ccqo0o8e.s 			page 10


 506 0067 05       		.byte	0x5
 507 0068 38010000 		.4byte	.LASF7
 508 006c 04       		.uleb128 0x4
 509 006d 89000000 		.4byte	.LASF8
 510 0071 04       		.byte	0x4
 511 0072 41       		.byte	0x41
 512 0073 77000000 		.4byte	0x77
 513 0077 02       		.uleb128 0x2
 514 0078 04       		.byte	0x4
 515 0079 07       		.byte	0x7
 516 007a D8040000 		.4byte	.LASF9
 517 007e 02       		.uleb128 0x2
 518 007f 08       		.byte	0x8
 519 0080 05       		.byte	0x5
 520 0081 2A010000 		.4byte	.LASF10
 521 0085 02       		.uleb128 0x2
 522 0086 08       		.byte	0x8
 523 0087 07       		.byte	0x7
 524 0088 38030000 		.4byte	.LASF11
 525 008c 02       		.uleb128 0x2
 526 008d 04       		.byte	0x4
 527 008e 07       		.byte	0x7
 528 008f 58030000 		.4byte	.LASF12
 529 0093 04       		.uleb128 0x4
 530 0094 0D050000 		.4byte	.LASF13
 531 0098 05       		.byte	0x5
 532 0099 18       		.byte	0x18
 533 009a 3A000000 		.4byte	0x3a
 534 009e 04       		.uleb128 0x4
 535 009f F9030000 		.4byte	.LASF14
 536 00a3 05       		.byte	0x5
 537 00a4 2C       		.byte	0x2c
 538 00a5 5A000000 		.4byte	0x5a
 539 00a9 04       		.uleb128 0x4
 540 00aa 4F030000 		.4byte	.LASF15
 541 00ae 05       		.byte	0x5
 542 00af 30       		.byte	0x30
 543 00b0 6C000000 		.4byte	0x6c
 544 00b4 04       		.uleb128 0x4
 545 00b5 4B000000 		.4byte	.LASF16
 546 00b9 06       		.byte	0x6
 547 00ba D8       		.byte	0xd8
 548 00bb 8C000000 		.4byte	0x8c
 549 00bf 02       		.uleb128 0x2
 550 00c0 08       		.byte	0x8
 551 00c1 04       		.byte	0x4
 552 00c2 C8010000 		.4byte	.LASF17
 553 00c6 05       		.uleb128 0x5
 554 00c7 1E000000 		.4byte	.LASF81
 555 00cb 02       		.uleb128 0x2
 556 00cc 04       		.byte	0x4
 557 00cd 07       		.byte	0x7
 558 00ce 66000000 		.4byte	.LASF18
 559 00d2 02       		.uleb128 0x2
 560 00d3 01       		.byte	0x1
 561 00d4 08       		.byte	0x8
 562 00d5 EA030000 		.4byte	.LASF19
ARM GAS  C:\msys64\tmp\ccqo0o8e.s 			page 11


 563 00d9 02       		.uleb128 0x2
 564 00da 08       		.byte	0x8
 565 00db 04       		.byte	0x4
 566 00dc 5C050000 		.4byte	.LASF20
 567 00e0 06       		.uleb128 0x6
 568 00e1 01       		.byte	0x1
 569 00e2 45000000 		.4byte	0x45
 570 00e6 09       		.byte	0x9
 571 00e7 35       		.byte	0x35
 572 00e8 11010000 		.4byte	0x111
 573 00ec 07       		.uleb128 0x7
 574 00ed AB000000 		.4byte	.LASF21
 575 00f1 00       		.byte	0
 576 00f2 07       		.uleb128 0x7
 577 00f3 D4010000 		.4byte	.LASF22
 578 00f7 01       		.byte	0x1
 579 00f8 07       		.uleb128 0x7
 580 00f9 9B050000 		.4byte	.LASF23
 581 00fd 02       		.byte	0x2
 582 00fe 07       		.uleb128 0x7
 583 00ff BB040000 		.4byte	.LASF24
 584 0103 03       		.byte	0x3
 585 0104 07       		.uleb128 0x7
 586 0105 E6000000 		.4byte	.LASF25
 587 0109 04       		.byte	0x4
 588 010a 07       		.uleb128 0x7
 589 010b C0000000 		.4byte	.LASF26
 590 010f 05       		.byte	0x5
 591 0110 00       		.byte	0
 592 0111 08       		.uleb128 0x8
 593 0112 04       		.byte	0x4
 594 0113 25000000 		.4byte	0x25
 595 0117 09       		.uleb128 0x9
 596 0118 64737000 		.ascii	"dsp\000"
 597 011c 02       		.byte	0x2
 598 011d 33       		.byte	0x33
 599 011e 6D020000 		.4byte	0x26d
 600 0122 0A       		.uleb128 0xa
 601 0123 9F010000 		.4byte	.LASF32
 602 0127 14       		.byte	0x14
 603 0128 02       		.byte	0x2
 604 0129 38       		.byte	0x38
 605 012a 0B       		.uleb128 0xb
 606 012b 6F030000 		.4byte	.LASF27
 607 012f 02       		.byte	0x2
 608 0130 B0       		.byte	0xb0
 609 0131 11010000 		.4byte	0x111
 610 0135 00       		.byte	0
 611 0136 0B       		.uleb128 0xb
 612 0137 D3000000 		.4byte	.LASF28
 613 013b 02       		.byte	0x2
 614 013c B1       		.byte	0xb1
 615 013d 25000000 		.4byte	0x25
 616 0141 04       		.byte	0x4
 617 0142 0B       		.uleb128 0xb
 618 0143 45000000 		.4byte	.LASF29
 619 0147 02       		.byte	0x2
ARM GAS  C:\msys64\tmp\ccqo0o8e.s 			page 12


 620 0148 B2       		.byte	0xb2
 621 0149 B4000000 		.4byte	0xb4
 622 014d 08       		.byte	0x8
 623 014e 0B       		.uleb128 0xb
 624 014f E0000000 		.4byte	.LASF30
 625 0153 02       		.byte	0x2
 626 0154 B3       		.byte	0xb3
 627 0155 B4000000 		.4byte	0xb4
 628 0159 0C       		.byte	0xc
 629 015a 0B       		.uleb128 0xb
 630 015b E0030000 		.4byte	.LASF31
 631 015f 02       		.byte	0x2
 632 0160 B4       		.byte	0xb4
 633 0161 A9000000 		.4byte	0xa9
 634 0165 10       		.byte	0x10
 635 0166 0C       		.uleb128 0xc
 636 0167 9F010000 		.4byte	.LASF32
 637 016b 02       		.byte	0x2
 638 016c 45       		.byte	0x45
 639 016d 15050000 		.4byte	.LASF33
 640 0171 6D020000 		.4byte	0x26d
 641 0175 7D010000 		.4byte	0x17d
 642 0179 83010000 		.4byte	0x183
 643 017d 0D       		.uleb128 0xd
 644 017e 6D020000 		.4byte	0x26d
 645 0182 00       		.byte	0
 646 0183 0C       		.uleb128 0xc
 647 0184 9F010000 		.4byte	.LASF32
 648 0188 02       		.byte	0x2
 649 0189 54       		.byte	0x54
 650 018a B9050000 		.4byte	.LASF34
 651 018e 6D020000 		.4byte	0x26d
 652 0192 9A010000 		.4byte	0x19a
 653 0196 AA010000 		.4byte	0x1aa
 654 019a 0D       		.uleb128 0xd
 655 019b 6D020000 		.4byte	0x26d
 656 019f 0E       		.uleb128 0xe
 657 01a0 11010000 		.4byte	0x111
 658 01a4 0E       		.uleb128 0xe
 659 01a5 B4000000 		.4byte	0xb4
 660 01a9 00       		.byte	0
 661 01aa 0F       		.uleb128 0xf
 662 01ab 18000000 		.4byte	.LASF35
 663 01af 02       		.byte	0x2
 664 01b0 64       		.byte	0x64
 665 01b1 8F030000 		.4byte	.LASF37
 666 01b5 BD010000 		.4byte	0x1bd
 667 01b9 C3010000 		.4byte	0x1c3
 668 01bd 0D       		.uleb128 0xd
 669 01be 6D020000 		.4byte	0x26d
 670 01c2 00       		.byte	0
 671 01c3 0F       		.uleb128 0xf
 672 01c4 A9030000 		.4byte	.LASF36
 673 01c8 02       		.byte	0x2
 674 01c9 71       		.byte	0x71
 675 01ca E8010000 		.4byte	.LASF38
 676 01ce D6010000 		.4byte	0x1d6
ARM GAS  C:\msys64\tmp\ccqo0o8e.s 			page 13


 677 01d2 E6010000 		.4byte	0x1e6
 678 01d6 0D       		.uleb128 0xd
 679 01d7 6D020000 		.4byte	0x26d
 680 01db 0E       		.uleb128 0xe
 681 01dc 11010000 		.4byte	0x111
 682 01e0 0E       		.uleb128 0xe
 683 01e1 B4000000 		.4byte	0xb4
 684 01e5 00       		.byte	0
 685 01e6 0F       		.uleb128 0xf
 686 01e7 00000000 		.4byte	.LASF39
 687 01eb 02       		.byte	0x2
 688 01ec 7E       		.byte	0x7e
 689 01ed 75030000 		.4byte	.LASF40
 690 01f1 F9010000 		.4byte	0x1f9
 691 01f5 04020000 		.4byte	0x204
 692 01f9 0D       		.uleb128 0xd
 693 01fa 6D020000 		.4byte	0x26d
 694 01fe 0E       		.uleb128 0xe
 695 01ff 25000000 		.4byte	0x25
 696 0203 00       		.byte	0
 697 0204 0C       		.uleb128 0xc
 698 0205 19010000 		.4byte	.LASF41
 699 0209 02       		.byte	0x2
 700 020a 89       		.byte	0x89
 701 020b 63050000 		.4byte	.LASF42
 702 020f 25000000 		.4byte	0x25
 703 0213 1B020000 		.4byte	0x21b
 704 0217 26020000 		.4byte	0x226
 705 021b 0D       		.uleb128 0xd
 706 021c 6D020000 		.4byte	0x26d
 707 0220 0E       		.uleb128 0xe
 708 0221 A9000000 		.4byte	0xa9
 709 0225 00       		.byte	0
 710 0226 0C       		.uleb128 0xc
 711 0227 F4040000 		.4byte	.LASF43
 712 022b 02       		.byte	0x2
 713 022c 94       		.byte	0x94
 714 022d 82010000 		.4byte	.LASF44
 715 0231 25000000 		.4byte	0x25
 716 0235 3D020000 		.4byte	0x23d
 717 0239 48020000 		.4byte	0x248
 718 023d 0D       		.uleb128 0xd
 719 023e 6D020000 		.4byte	0x26d
 720 0242 0E       		.uleb128 0xe
 721 0243 25000000 		.4byte	0x25
 722 0247 00       		.byte	0
 723 0248 10       		.uleb128 0x10
 724 0249 EF030000 		.4byte	.LASF45
 725 024d 02       		.byte	0x2
 726 024e A4       		.byte	0xa4
 727 024f A9010000 		.4byte	.LASF46
 728 0253 25000000 		.4byte	0x25
 729 0257 5B020000 		.4byte	0x25b
 730 025b 0D       		.uleb128 0xd
 731 025c 6D020000 		.4byte	0x26d
 732 0260 0E       		.uleb128 0xe
 733 0261 A9000000 		.4byte	0xa9
ARM GAS  C:\msys64\tmp\ccqo0o8e.s 			page 14


 734 0265 0E       		.uleb128 0xe
 735 0266 25000000 		.4byte	0x25
 736 026a 00       		.byte	0
 737 026b 00       		.byte	0
 738 026c 00       		.byte	0
 739 026d 08       		.uleb128 0x8
 740 026e 04       		.byte	0x4
 741 026f 22010000 		.4byte	0x122
 742 0273 11       		.uleb128 0x11
 743 0274 01040000 		.4byte	.LASF82
 744 0278 03       		.byte	0x3
 745 0279 68       		.byte	0x68
 746 027a 03       		.byte	0x3
 747 027b A1020000 		.4byte	0x2a1
 748 027f 12       		.uleb128 0x12
 749 0280 70747200 		.ascii	"ptr\000"
 750 0284 03       		.byte	0x3
 751 0285 68       		.byte	0x68
 752 0286 A1020000 		.4byte	0x2a1
 753 028a 12       		.uleb128 0x12
 754 028b 6C656E00 		.ascii	"len\000"
 755 028f 03       		.byte	0x3
 756 0290 69       		.byte	0x69
 757 0291 A6020000 		.4byte	0x2a6
 758 0295 13       		.uleb128 0x13
 759 0296 656E6400 		.ascii	"end\000"
 760 029a 03       		.byte	0x3
 761 029b 6B       		.byte	0x6b
 762 029c AB020000 		.4byte	0x2ab
 763 02a0 00       		.byte	0
 764 02a1 14       		.uleb128 0x14
 765 02a2 11010000 		.4byte	0x111
 766 02a6 15       		.uleb128 0x15
 767 02a7 A9000000 		.4byte	0xa9
 768 02ab 08       		.uleb128 0x8
 769 02ac 04       		.byte	0x4
 770 02ad B1020000 		.4byte	0x2b1
 771 02b1 15       		.uleb128 0x15
 772 02b2 25000000 		.4byte	0x25
 773 02b6 16       		.uleb128 0x16
 774 02b7 4F050000 		.4byte	.LASF49
 775 02bb 07       		.byte	0x7
 776 02bc 75       		.byte	0x75
 777 02bd A9000000 		.4byte	0xa9
 778 02c1 03       		.byte	0x3
 779 02c2 D0020000 		.4byte	0x2d0
 780 02c6 12       		.uleb128 0x12
 781 02c7 7800     		.ascii	"x\000"
 782 02c9 07       		.byte	0x7
 783 02ca 75       		.byte	0x75
 784 02cb A9000000 		.4byte	0xa9
 785 02cf 00       		.byte	0
 786 02d0 17       		.uleb128 0x17
 787 02d1 AA010000 		.4byte	0x1aa
 788 02d5 03       		.byte	0x3
 789 02d6 DE020000 		.4byte	0x2de
 790 02da E8020000 		.4byte	0x2e8
ARM GAS  C:\msys64\tmp\ccqo0o8e.s 			page 15


 791 02de 18       		.uleb128 0x18
 792 02df 48040000 		.4byte	.LASF47
 793 02e3 E8020000 		.4byte	0x2e8
 794 02e7 00       		.byte	0
 795 02e8 15       		.uleb128 0x15
 796 02e9 6D020000 		.4byte	0x26d
 797 02ed 17       		.uleb128 0x17
 798 02ee C3010000 		.4byte	0x1c3
 799 02f2 03       		.byte	0x3
 800 02f3 FB020000 		.4byte	0x2fb
 801 02f7 1B030000 		.4byte	0x31b
 802 02fb 18       		.uleb128 0x18
 803 02fc 48040000 		.4byte	.LASF47
 804 0300 E8020000 		.4byte	0x2e8
 805 0304 12       		.uleb128 0x12
 806 0305 72616D00 		.ascii	"ram\000"
 807 0309 02       		.byte	0x2
 808 030a 71       		.byte	0x71
 809 030b 11010000 		.4byte	0x111
 810 030f 19       		.uleb128 0x19
 811 0310 16020000 		.4byte	.LASF48
 812 0314 02       		.byte	0x2
 813 0315 71       		.byte	0x71
 814 0316 B4000000 		.4byte	0xb4
 815 031a 00       		.byte	0
 816 031b 17       		.uleb128 0x17
 817 031c E6010000 		.4byte	0x1e6
 818 0320 03       		.byte	0x3
 819 0321 29030000 		.4byte	0x329
 820 0325 3C030000 		.4byte	0x33c
 821 0329 18       		.uleb128 0x18
 822 032a 48040000 		.4byte	.LASF47
 823 032e E8020000 		.4byte	0x2e8
 824 0332 12       		.uleb128 0x12
 825 0333 7300     		.ascii	"s\000"
 826 0335 02       		.byte	0x2
 827 0336 7E       		.byte	0x7e
 828 0337 B1020000 		.4byte	0x2b1
 829 033b 00       		.byte	0
 830 033c 16       		.uleb128 0x16
 831 033d 4D010000 		.4byte	.LASF50
 832 0341 01       		.byte	0x1
 833 0342 1D       		.byte	0x1d
 834 0343 25000000 		.4byte	0x25
 835 0347 03       		.byte	0x3
 836 0348 57030000 		.4byte	0x357
 837 034c 12       		.uleb128 0x12
 838 034d 696E00   		.ascii	"in\000"
 839 0350 01       		.byte	0x1
 840 0351 1D       		.byte	0x1d
 841 0352 25000000 		.4byte	0x25
 842 0356 00       		.byte	0
 843 0357 17       		.uleb128 0x17
 844 0358 04020000 		.4byte	0x204
 845 035c 03       		.byte	0x3
 846 035d 65030000 		.4byte	0x365
 847 0361 7A030000 		.4byte	0x37a
ARM GAS  C:\msys64\tmp\ccqo0o8e.s 			page 16


 848 0365 18       		.uleb128 0x18
 849 0366 48040000 		.4byte	.LASF47
 850 036a E8020000 		.4byte	0x2e8
 851 036e 12       		.uleb128 0x12
 852 036f 706F7300 		.ascii	"pos\000"
 853 0373 02       		.byte	0x2
 854 0374 89       		.byte	0x89
 855 0375 A6020000 		.4byte	0x2a6
 856 0379 00       		.byte	0
 857 037a 1A       		.uleb128 0x1a
 858 037b 13040000 		.4byte	.LASF83
 859 037f 01       		.byte	0x1
 860 0380 9B030000 		.4byte	0x39b
 861 0384 19       		.uleb128 0x19
 862 0385 73010000 		.4byte	.LASF51
 863 0389 01       		.byte	0x1
 864 038a 5B       		.byte	0x5b
 865 038b 2C000000 		.4byte	0x2c
 866 038f 19       		.uleb128 0x19
 867 0390 3D040000 		.4byte	.LASF52
 868 0394 01       		.byte	0x1
 869 0395 5B       		.byte	0x5b
 870 0396 2C000000 		.4byte	0x2c
 871 039a 00       		.byte	0
 872 039b 1B       		.uleb128 0x1b
 873 039c 0D000000 		.4byte	.LASF53
 874 03a0 01       		.byte	0x1
 875 03a1 14       		.byte	0x14
 876 03a2 00000000 		.4byte	.LFB264
 877 03a6 64000000 		.4byte	.LFE264-.LFB264
 878 03aa 01       		.uleb128 0x1
 879 03ab 9C       		.byte	0x9c
 880 03ac 59040000 		.4byte	0x459
 881 03b0 1C       		.uleb128 0x1c
 882 03b1 CF040000 		.4byte	.LASF54
 883 03b5 01       		.byte	0x1
 884 03b6 14       		.byte	0x14
 885 03b7 A9000000 		.4byte	0xa9
 886 03bb 00000000 		.4byte	.LLST0
 887 03bf 1D       		.uleb128 0x1d
 888 03c0 61706900 		.ascii	"api\000"
 889 03c4 01       		.byte	0x1
 890 03c5 14       		.byte	0x14
 891 03c6 A9000000 		.4byte	0xa9
 892 03ca 21000000 		.4byte	.LLST1
 893 03ce 1E       		.uleb128 0x1e
 894 03cf ED020000 		.4byte	0x2ed
 895 03d3 00000000 		.4byte	.LBB24
 896 03d7 00000000 		.4byte	.Ldebug_ranges0+0
 897 03db 01       		.byte	0x1
 898 03dc 16       		.byte	0x16
 899 03dd FD030000 		.4byte	0x3fd
 900 03e1 1F       		.uleb128 0x1f
 901 03e2 0F030000 		.4byte	0x30f
 902 03e6 42000000 		.4byte	.LLST2
 903 03ea 1F       		.uleb128 0x1f
 904 03eb 04030000 		.4byte	0x304
ARM GAS  C:\msys64\tmp\ccqo0o8e.s 			page 17


 905 03ef 5A000000 		.4byte	.LLST3
 906 03f3 1F       		.uleb128 0x1f
 907 03f4 FB020000 		.4byte	0x2fb
 908 03f8 72000000 		.4byte	.LLST4
 909 03fc 00       		.byte	0
 910 03fd 20       		.uleb128 0x20
 911 03fe D0020000 		.4byte	0x2d0
 912 0402 1C000000 		.4byte	.LBB28
 913 0406 1C000000 		.4byte	.LBE28-.LBB28
 914 040a 01       		.byte	0x1
 915 040b 17       		.byte	0x17
 916 040c 4F040000 		.4byte	0x44f
 917 0410 1F       		.uleb128 0x1f
 918 0411 DE020000 		.4byte	0x2de
 919 0415 8A000000 		.4byte	.LLST5
 920 0419 21       		.uleb128 0x21
 921 041a 73020000 		.4byte	0x273
 922 041e 1C000000 		.4byte	.LBB29
 923 0422 1C000000 		.4byte	.LBE29-.LBB29
 924 0426 02       		.byte	0x2
 925 0427 65       		.byte	0x65
 926 0428 1F       		.uleb128 0x1f
 927 0429 8A020000 		.4byte	0x28a
 928 042d A2000000 		.4byte	.LLST6
 929 0431 1F       		.uleb128 0x1f
 930 0432 7F020000 		.4byte	0x27f
 931 0436 B8000000 		.4byte	.LLST7
 932 043a 22       		.uleb128 0x22
 933 043b 1C000000 		.4byte	.LBB30
 934 043f 1C000000 		.4byte	.LBE30-.LBB30
 935 0443 23       		.uleb128 0x23
 936 0444 95020000 		.4byte	0x295
 937 0448 0F010000 		.4byte	.LLST8
 938 044c 00       		.byte	0
 939 044d 00       		.byte	0
 940 044e 00       		.byte	0
 941 044f 24       		.uleb128 0x24
 942 0450 3C000000 		.4byte	.LVL9
 943 0454 0E070000 		.4byte	0x70e
 944 0458 00       		.byte	0
 945 0459 1B       		.uleb128 0x1b
 946 045a 8D050000 		.4byte	.LASF55
 947 045e 01       		.byte	0x1
 948 045f 22       		.byte	0x22
 949 0460 64000000 		.4byte	.LFB266
 950 0464 7C000000 		.4byte	.LFE266-.LFB266
 951 0468 01       		.uleb128 0x1
 952 0469 9C       		.byte	0x9c
 953 046a 16050000 		.4byte	0x516
 954 046e 1D       		.uleb128 0x1d
 955 046f 786E00   		.ascii	"xn\000"
 956 0472 01       		.byte	0x1
 957 0473 22       		.byte	0x22
 958 0474 11010000 		.4byte	0x111
 959 0478 27010000 		.4byte	.LLST9
 960 047c 1C       		.uleb128 0x1c
 961 047d 06000000 		.4byte	.LASF56
ARM GAS  C:\msys64\tmp\ccqo0o8e.s 			page 18


 962 0481 01       		.byte	0x1
 963 0482 22       		.byte	0x22
 964 0483 A9000000 		.4byte	0xa9
 965 0487 48010000 		.4byte	.LLST10
 966 048b 25       		.uleb128 0x25
 967 048c 64727900 		.ascii	"dry\000"
 968 0490 01       		.byte	0x1
 969 0491 24       		.byte	0x24
 970 0492 B1020000 		.4byte	0x2b1
 971 0496 0C       		.uleb128 0xc
 972 0497 F4       		.byte	0xf4
 973 0498 25       		.uleb128 0x25
 974 0499 04       		.byte	0x4
 975 049a 0000803F 		.4byte	0x3f800000
 976 049e F5       		.byte	0xf5
 977 049f 4B       		.uleb128 0x4b
 978 04a0 25       		.uleb128 0x25
 979 04a1 1C       		.byte	0x1c
 980 04a2 9F       		.byte	0x9f
 981 04a3 25       		.uleb128 0x25
 982 04a4 77657400 		.ascii	"wet\000"
 983 04a8 01       		.byte	0x1
 984 04a9 25       		.byte	0x25
 985 04aa B1020000 		.4byte	0x2b1
 986 04ae 02       		.uleb128 0x2
 987 04af 90       		.byte	0x90
 988 04b0 4B       		.uleb128 0x4b
 989 04b1 26       		.uleb128 0x26
 990 04b2 18000000 		.4byte	.Ldebug_ranges0+0x18
 991 04b6 27       		.uleb128 0x27
 992 04b7 6900     		.ascii	"i\000"
 993 04b9 01       		.byte	0x1
 994 04ba 28       		.byte	0x28
 995 04bb 2C000000 		.4byte	0x2c
 996 04bf 69010000 		.4byte	.LLST11
 997 04c3 26       		.uleb128 0x26
 998 04c4 30000000 		.4byte	.Ldebug_ranges0+0x30
 999 04c8 28       		.uleb128 0x28
 1000 04c9 AF050000 		.4byte	.LASF57
 1001 04cd 01       		.byte	0x1
 1002 04ce 2A       		.byte	0x2a
 1003 04cf B1020000 		.4byte	0x2b1
 1004 04d3 1E       		.uleb128 0x1e
 1005 04d4 57030000 		.4byte	0x357
 1006 04d8 6E000000 		.4byte	.LBB33
 1007 04dc 60000000 		.4byte	.Ldebug_ranges0+0x60
 1008 04e0 01       		.byte	0x1
 1009 04e1 2A       		.byte	0x2a
 1010 04e2 F1040000 		.4byte	0x4f1
 1011 04e6 29       		.uleb128 0x29
 1012 04e7 6E030000 		.4byte	0x36e
 1013 04eb 29       		.uleb128 0x29
 1014 04ec 65030000 		.4byte	0x365
 1015 04f0 00       		.byte	0
 1016 04f1 2A       		.uleb128 0x2a
 1017 04f2 1B030000 		.4byte	0x31b
 1018 04f6 A4000000 		.4byte	.LBB39
ARM GAS  C:\msys64\tmp\ccqo0o8e.s 			page 19


 1019 04fa 80000000 		.4byte	.Ldebug_ranges0+0x80
 1020 04fe 01       		.byte	0x1
 1021 04ff 2D       		.byte	0x2d
 1022 0500 1F       		.uleb128 0x1f
 1023 0501 32030000 		.4byte	0x332
 1024 0505 A0010000 		.4byte	.LLST12
 1025 0509 1F       		.uleb128 0x1f
 1026 050a 29030000 		.4byte	0x329
 1027 050e B4010000 		.4byte	.LLST13
 1028 0512 00       		.byte	0
 1029 0513 00       		.byte	0
 1030 0514 00       		.byte	0
 1031 0515 00       		.byte	0
 1032 0516 1B       		.uleb128 0x1b
 1033 0517 1E010000 		.4byte	.LASF58
 1034 051b 01       		.byte	0x1
 1035 051c 31       		.byte	0x31
 1036 051d E0000000 		.4byte	.LFB267
 1037 0521 A8000000 		.4byte	.LFE267-.LFB267
 1038 0525 01       		.uleb128 0x1
 1039 0526 9C       		.byte	0x9c
 1040 0527 62050000 		.4byte	0x562
 1041 052b 1C       		.uleb128 0x1c
 1042 052c DA000000 		.4byte	.LASF59
 1043 0530 01       		.byte	0x1
 1044 0531 31       		.byte	0x31
 1045 0532 93000000 		.4byte	0x93
 1046 0536 CC010000 		.4byte	.LLST14
 1047 053a 1C       		.uleb128 0x1c
 1048 053b 0D040000 		.4byte	.LASF60
 1049 053f 01       		.byte	0x1
 1050 0540 31       		.byte	0x31
 1051 0541 9E000000 		.4byte	0x9e
 1052 0545 ED010000 		.4byte	.LLST15
 1053 0549 2B       		.uleb128 0x2b
 1054 054a EA040000 		.4byte	.LASF61
 1055 054e 01       		.byte	0x1
 1056 054f 33       		.byte	0x33
 1057 0550 B1020000 		.4byte	0x2b1
 1058 0554 0E020000 		.4byte	.LLST16
 1059 0558 24       		.uleb128 0x24
 1060 0559 1A010000 		.4byte	.LVL22
 1061 055d 0E070000 		.4byte	0x70e
 1062 0561 00       		.byte	0
 1063 0562 17       		.uleb128 0x17
 1064 0563 66010000 		.4byte	0x166
 1065 0567 02       		.byte	0x2
 1066 0568 70050000 		.4byte	0x570
 1067 056c 7A050000 		.4byte	0x57a
 1068 0570 18       		.uleb128 0x18
 1069 0571 48040000 		.4byte	.LASF47
 1070 0575 E8020000 		.4byte	0x2e8
 1071 0579 00       		.byte	0
 1072 057a 2C       		.uleb128 0x2c
 1073 057b 30000000 		.4byte	.LASF84
 1074 057f 00000000 		.4byte	.LFB269
 1075 0583 18000000 		.4byte	.LFE269-.LFB269
ARM GAS  C:\msys64\tmp\ccqo0o8e.s 			page 20


 1076 0587 01       		.uleb128 0x1
 1077 0588 9C       		.byte	0x9c
 1078 0589 C9050000 		.4byte	0x5c9
 1079 058d 21       		.uleb128 0x21
 1080 058e 7A030000 		.4byte	0x37a
 1081 0592 00000000 		.4byte	.LBB55
 1082 0596 18000000 		.4byte	.LBE55-.LBB55
 1083 059a 01       		.byte	0x1
 1084 059b 5B       		.byte	0x5b
 1085 059c 1F       		.uleb128 0x1f
 1086 059d 8F030000 		.4byte	0x38f
 1087 05a1 3C020000 		.4byte	.LLST17
 1088 05a5 1F       		.uleb128 0x1f
 1089 05a6 84030000 		.4byte	0x384
 1090 05aa 52020000 		.4byte	.LLST18
 1091 05ae 21       		.uleb128 0x21
 1092 05af 62050000 		.4byte	0x562
 1093 05b3 00000000 		.4byte	.LBB56
 1094 05b7 18000000 		.4byte	.LBE56-.LBB56
 1095 05bb 01       		.byte	0x1
 1096 05bc 08       		.byte	0x8
 1097 05bd 1F       		.uleb128 0x1f
 1098 05be 70050000 		.4byte	0x570
 1099 05c2 66020000 		.4byte	.LLST19
 1100 05c6 00       		.byte	0
 1101 05c7 00       		.byte	0
 1102 05c8 00       		.byte	0
 1103 05c9 2D       		.uleb128 0x2d
 1104 05ca 61010000 		.4byte	.LASF62
 1105 05ce 08       		.byte	0x8
 1106 05cf 46       		.byte	0x46
 1107 05d0 A6020000 		.4byte	0x2a6
 1108 05d4 2D       		.uleb128 0x2d
 1109 05d5 7C050000 		.4byte	.LASF63
 1110 05d9 08       		.byte	0x8
 1111 05da 4B       		.byte	0x4b
 1112 05db A6020000 		.4byte	0x2a6
 1113 05df 2E       		.uleb128 0x2e
 1114 05e0 B1020000 		.4byte	0x2b1
 1115 05e4 EF050000 		.4byte	0x5ef
 1116 05e8 2F       		.uleb128 0x2f
 1117 05e9 CB000000 		.4byte	0xcb
 1118 05ed 80       		.byte	0x80
 1119 05ee 00       		.byte	0
 1120 05ef 2D       		.uleb128 0x2d
 1121 05f0 C6030000 		.4byte	.LASF64
 1122 05f4 08       		.byte	0x8
 1123 05f5 82       		.byte	0x82
 1124 05f6 FA050000 		.4byte	0x5fa
 1125 05fa 15       		.uleb128 0x15
 1126 05fb DF050000 		.4byte	0x5df
 1127 05ff 2E       		.uleb128 0x2e
 1128 0600 B1020000 		.4byte	0x2b1
 1129 0604 10060000 		.4byte	0x610
 1130 0608 30       		.uleb128 0x30
 1131 0609 CB000000 		.4byte	0xcb
 1132 060d 0001     		.2byte	0x100
ARM GAS  C:\msys64\tmp\ccqo0o8e.s 			page 21


 1133 060f 00       		.byte	0
 1134 0610 2D       		.uleb128 0x2d
 1135 0611 57010000 		.4byte	.LASF65
 1136 0615 08       		.byte	0x8
 1137 0616 C9       		.byte	0xc9
 1138 0617 1B060000 		.4byte	0x61b
 1139 061b 15       		.uleb128 0x15
 1140 061c FF050000 		.4byte	0x5ff
 1141 0620 2D       		.uleb128 0x2d
 1142 0621 AF040000 		.4byte	.LASF66
 1143 0625 08       		.byte	0x8
 1144 0626 E0       		.byte	0xe0
 1145 0627 2B060000 		.4byte	0x62b
 1146 062b 15       		.uleb128 0x15
 1147 062c FF050000 		.4byte	0x5ff
 1148 0630 2D       		.uleb128 0x2d
 1149 0631 3F050000 		.4byte	.LASF67
 1150 0635 08       		.byte	0x8
 1151 0636 F8       		.byte	0xf8
 1152 0637 3B060000 		.4byte	0x63b
 1153 063b 15       		.uleb128 0x15
 1154 063c FF050000 		.4byte	0x5ff
 1155 0640 31       		.uleb128 0x31
 1156 0641 6F000000 		.4byte	.LASF68
 1157 0645 08       		.byte	0x8
 1158 0646 0F01     		.2byte	0x10f
 1159 0648 4C060000 		.4byte	0x64c
 1160 064c 15       		.uleb128 0x15
 1161 064d FF050000 		.4byte	0x5ff
 1162 0651 31       		.uleb128 0x31
 1163 0652 7A000000 		.4byte	.LASF69
 1164 0656 08       		.byte	0x8
 1165 0657 3E01     		.2byte	0x13e
 1166 0659 5D060000 		.4byte	0x65d
 1167 065d 15       		.uleb128 0x15
 1168 065e DF050000 		.4byte	0x5df
 1169 0662 31       		.uleb128 0x31
 1170 0663 0A010000 		.4byte	.LASF70
 1171 0667 08       		.byte	0x8
 1172 0668 5301     		.2byte	0x153
 1173 066a 6E060000 		.4byte	0x66e
 1174 066e 15       		.uleb128 0x15
 1175 066f DF050000 		.4byte	0x5df
 1176 0673 31       		.uleb128 0x31
 1177 0674 94000000 		.4byte	.LASF71
 1178 0678 08       		.byte	0x8
 1179 0679 7001     		.2byte	0x170
 1180 067b 7F060000 		.4byte	0x67f
 1181 067f 15       		.uleb128 0x15
 1182 0680 DF050000 		.4byte	0x5df
 1183 0684 32       		.uleb128 0x32
 1184 0685 37050000 		.4byte	.LASF72
 1185 0689 01       		.byte	0x1
 1186 068a 08       		.byte	0x8
 1187 068b 22010000 		.4byte	0x122
 1188 068f 05       		.uleb128 0x5
 1189 0690 03       		.byte	0x3
ARM GAS  C:\msys64\tmp\ccqo0o8e.s 			page 22


 1190 0691 00000000 		.4byte	_ZL7s_delay
 1191 0695 2E       		.uleb128 0x2e
 1192 0696 25000000 		.4byte	0x25
 1193 069a A8060000 		.4byte	0x6a8
 1194 069e 33       		.uleb128 0x33
 1195 069f CB000000 		.4byte	0xcb
 1196 06a3 4F340300 		.4byte	0x3344f
 1197 06a7 00       		.byte	0
 1198 06a8 32       		.uleb128 0x32
 1199 06a9 D4030000 		.4byte	.LASF73
 1200 06ad 01       		.byte	0x1
 1201 06ae 09       		.byte	0x9
 1202 06af 95060000 		.4byte	0x695
 1203 06b3 05       		.uleb128 0x5
 1204 06b4 03       		.byte	0x3
 1205 06b5 00000000 		.4byte	_ZL11s_delay_ram
 1206 06b9 34       		.uleb128 0x34
 1207 06ba 47010000 		.4byte	.LASF74
 1208 06be 01       		.byte	0x1
 1209 06bf 0B       		.byte	0xb
 1210 06c0 A9000000 		.4byte	0xa9
 1211 06c4 05       		.uleb128 0x5
 1212 06c5 03       		.byte	0x3
 1213 06c6 00000000 		.4byte	s_len
 1214 06ca 32       		.uleb128 0x32
 1215 06cb 41010000 		.4byte	.LASF75
 1216 06cf 01       		.byte	0x1
 1217 06d0 0C       		.byte	0xc
 1218 06d1 25000000 		.4byte	0x25
 1219 06d5 05       		.uleb128 0x5
 1220 06d6 03       		.byte	0x3
 1221 06d7 1C000000 		.4byte	_ZL5s_mix
 1222 06db 32       		.uleb128 0x32
 1223 06dc EF040000 		.4byte	.LASF76
 1224 06e0 01       		.byte	0x1
 1225 06e1 0D       		.byte	0xd
 1226 06e2 25000000 		.4byte	0x25
 1227 06e6 05       		.uleb128 0x5
 1228 06e7 03       		.byte	0x3
 1229 06e8 20000000 		.4byte	_ZL4gain
 1230 06ec 34       		.uleb128 0x34
 1231 06ed 07050000 		.4byte	.LASF77
 1232 06f1 01       		.byte	0x1
 1233 06f2 0E       		.byte	0xe
 1234 06f3 25000000 		.4byte	0x25
 1235 06f7 05       		.uleb128 0x5
 1236 06f8 03       		.byte	0x3
 1237 06f9 00000000 		.4byte	wetXN
 1238 06fd 35       		.uleb128 0x35
 1239 06fe 62706D00 		.ascii	"bpm\000"
 1240 0702 01       		.byte	0x1
 1241 0703 0F       		.byte	0xf
 1242 0704 2C000000 		.4byte	0x2c
 1243 0708 05       		.uleb128 0x5
 1244 0709 03       		.byte	0x3
 1245 070a 00000000 		.4byte	bpm
 1246 070e 36       		.uleb128 0x36
ARM GAS  C:\msys64\tmp\ccqo0o8e.s 			page 23


 1247 070f 2B050000 		.4byte	.LASF85
 1248 0713 2B050000 		.4byte	.LASF85
 1249 0717 08       		.byte	0x8
 1250 0718 5D       		.byte	0x5d
 1251 0719 00       		.byte	0
 1252              		.section	.debug_abbrev,"",%progbits
 1253              	.Ldebug_abbrev0:
 1254 0000 01       		.uleb128 0x1
 1255 0001 11       		.uleb128 0x11
 1256 0002 01       		.byte	0x1
 1257 0003 25       		.uleb128 0x25
 1258 0004 0E       		.uleb128 0xe
 1259 0005 13       		.uleb128 0x13
 1260 0006 0B       		.uleb128 0xb
 1261 0007 03       		.uleb128 0x3
 1262 0008 0E       		.uleb128 0xe
 1263 0009 1B       		.uleb128 0x1b
 1264 000a 0E       		.uleb128 0xe
 1265 000b 55       		.uleb128 0x55
 1266 000c 17       		.uleb128 0x17
 1267 000d 11       		.uleb128 0x11
 1268 000e 01       		.uleb128 0x1
 1269 000f 10       		.uleb128 0x10
 1270 0010 17       		.uleb128 0x17
 1271 0011 00       		.byte	0
 1272 0012 00       		.byte	0
 1273 0013 02       		.uleb128 0x2
 1274 0014 24       		.uleb128 0x24
 1275 0015 00       		.byte	0
 1276 0016 0B       		.uleb128 0xb
 1277 0017 0B       		.uleb128 0xb
 1278 0018 3E       		.uleb128 0x3e
 1279 0019 0B       		.uleb128 0xb
 1280 001a 03       		.uleb128 0x3
 1281 001b 0E       		.uleb128 0xe
 1282 001c 00       		.byte	0
 1283 001d 00       		.byte	0
 1284 001e 03       		.uleb128 0x3
 1285 001f 24       		.uleb128 0x24
 1286 0020 00       		.byte	0
 1287 0021 0B       		.uleb128 0xb
 1288 0022 0B       		.uleb128 0xb
 1289 0023 3E       		.uleb128 0x3e
 1290 0024 0B       		.uleb128 0xb
 1291 0025 03       		.uleb128 0x3
 1292 0026 08       		.uleb128 0x8
 1293 0027 00       		.byte	0
 1294 0028 00       		.byte	0
 1295 0029 04       		.uleb128 0x4
 1296 002a 16       		.uleb128 0x16
 1297 002b 00       		.byte	0
 1298 002c 03       		.uleb128 0x3
 1299 002d 0E       		.uleb128 0xe
 1300 002e 3A       		.uleb128 0x3a
 1301 002f 0B       		.uleb128 0xb
 1302 0030 3B       		.uleb128 0x3b
 1303 0031 0B       		.uleb128 0xb
ARM GAS  C:\msys64\tmp\ccqo0o8e.s 			page 24


 1304 0032 49       		.uleb128 0x49
 1305 0033 13       		.uleb128 0x13
 1306 0034 00       		.byte	0
 1307 0035 00       		.byte	0
 1308 0036 05       		.uleb128 0x5
 1309 0037 3B       		.uleb128 0x3b
 1310 0038 00       		.byte	0
 1311 0039 03       		.uleb128 0x3
 1312 003a 0E       		.uleb128 0xe
 1313 003b 00       		.byte	0
 1314 003c 00       		.byte	0
 1315 003d 06       		.uleb128 0x6
 1316 003e 04       		.uleb128 0x4
 1317 003f 01       		.byte	0x1
 1318 0040 0B       		.uleb128 0xb
 1319 0041 0B       		.uleb128 0xb
 1320 0042 49       		.uleb128 0x49
 1321 0043 13       		.uleb128 0x13
 1322 0044 3A       		.uleb128 0x3a
 1323 0045 0B       		.uleb128 0xb
 1324 0046 3B       		.uleb128 0x3b
 1325 0047 0B       		.uleb128 0xb
 1326 0048 01       		.uleb128 0x1
 1327 0049 13       		.uleb128 0x13
 1328 004a 00       		.byte	0
 1329 004b 00       		.byte	0
 1330 004c 07       		.uleb128 0x7
 1331 004d 28       		.uleb128 0x28
 1332 004e 00       		.byte	0
 1333 004f 03       		.uleb128 0x3
 1334 0050 0E       		.uleb128 0xe
 1335 0051 1C       		.uleb128 0x1c
 1336 0052 0B       		.uleb128 0xb
 1337 0053 00       		.byte	0
 1338 0054 00       		.byte	0
 1339 0055 08       		.uleb128 0x8
 1340 0056 0F       		.uleb128 0xf
 1341 0057 00       		.byte	0
 1342 0058 0B       		.uleb128 0xb
 1343 0059 0B       		.uleb128 0xb
 1344 005a 49       		.uleb128 0x49
 1345 005b 13       		.uleb128 0x13
 1346 005c 00       		.byte	0
 1347 005d 00       		.byte	0
 1348 005e 09       		.uleb128 0x9
 1349 005f 39       		.uleb128 0x39
 1350 0060 01       		.byte	0x1
 1351 0061 03       		.uleb128 0x3
 1352 0062 08       		.uleb128 0x8
 1353 0063 3A       		.uleb128 0x3a
 1354 0064 0B       		.uleb128 0xb
 1355 0065 3B       		.uleb128 0x3b
 1356 0066 0B       		.uleb128 0xb
 1357 0067 01       		.uleb128 0x1
 1358 0068 13       		.uleb128 0x13
 1359 0069 00       		.byte	0
 1360 006a 00       		.byte	0
ARM GAS  C:\msys64\tmp\ccqo0o8e.s 			page 25


 1361 006b 0A       		.uleb128 0xa
 1362 006c 13       		.uleb128 0x13
 1363 006d 01       		.byte	0x1
 1364 006e 03       		.uleb128 0x3
 1365 006f 0E       		.uleb128 0xe
 1366 0070 0B       		.uleb128 0xb
 1367 0071 0B       		.uleb128 0xb
 1368 0072 3A       		.uleb128 0x3a
 1369 0073 0B       		.uleb128 0xb
 1370 0074 3B       		.uleb128 0x3b
 1371 0075 0B       		.uleb128 0xb
 1372 0076 00       		.byte	0
 1373 0077 00       		.byte	0
 1374 0078 0B       		.uleb128 0xb
 1375 0079 0D       		.uleb128 0xd
 1376 007a 00       		.byte	0
 1377 007b 03       		.uleb128 0x3
 1378 007c 0E       		.uleb128 0xe
 1379 007d 3A       		.uleb128 0x3a
 1380 007e 0B       		.uleb128 0xb
 1381 007f 3B       		.uleb128 0x3b
 1382 0080 0B       		.uleb128 0xb
 1383 0081 49       		.uleb128 0x49
 1384 0082 13       		.uleb128 0x13
 1385 0083 38       		.uleb128 0x38
 1386 0084 0B       		.uleb128 0xb
 1387 0085 00       		.byte	0
 1388 0086 00       		.byte	0
 1389 0087 0C       		.uleb128 0xc
 1390 0088 2E       		.uleb128 0x2e
 1391 0089 01       		.byte	0x1
 1392 008a 3F       		.uleb128 0x3f
 1393 008b 19       		.uleb128 0x19
 1394 008c 03       		.uleb128 0x3
 1395 008d 0E       		.uleb128 0xe
 1396 008e 3A       		.uleb128 0x3a
 1397 008f 0B       		.uleb128 0xb
 1398 0090 3B       		.uleb128 0x3b
 1399 0091 0B       		.uleb128 0xb
 1400 0092 6E       		.uleb128 0x6e
 1401 0093 0E       		.uleb128 0xe
 1402 0094 49       		.uleb128 0x49
 1403 0095 13       		.uleb128 0x13
 1404 0096 3C       		.uleb128 0x3c
 1405 0097 19       		.uleb128 0x19
 1406 0098 64       		.uleb128 0x64
 1407 0099 13       		.uleb128 0x13
 1408 009a 01       		.uleb128 0x1
 1409 009b 13       		.uleb128 0x13
 1410 009c 00       		.byte	0
 1411 009d 00       		.byte	0
 1412 009e 0D       		.uleb128 0xd
 1413 009f 05       		.uleb128 0x5
 1414 00a0 00       		.byte	0
 1415 00a1 49       		.uleb128 0x49
 1416 00a2 13       		.uleb128 0x13
 1417 00a3 34       		.uleb128 0x34
ARM GAS  C:\msys64\tmp\ccqo0o8e.s 			page 26


 1418 00a4 19       		.uleb128 0x19
 1419 00a5 00       		.byte	0
 1420 00a6 00       		.byte	0
 1421 00a7 0E       		.uleb128 0xe
 1422 00a8 05       		.uleb128 0x5
 1423 00a9 00       		.byte	0
 1424 00aa 49       		.uleb128 0x49
 1425 00ab 13       		.uleb128 0x13
 1426 00ac 00       		.byte	0
 1427 00ad 00       		.byte	0
 1428 00ae 0F       		.uleb128 0xf
 1429 00af 2E       		.uleb128 0x2e
 1430 00b0 01       		.byte	0x1
 1431 00b1 3F       		.uleb128 0x3f
 1432 00b2 19       		.uleb128 0x19
 1433 00b3 03       		.uleb128 0x3
 1434 00b4 0E       		.uleb128 0xe
 1435 00b5 3A       		.uleb128 0x3a
 1436 00b6 0B       		.uleb128 0xb
 1437 00b7 3B       		.uleb128 0x3b
 1438 00b8 0B       		.uleb128 0xb
 1439 00b9 6E       		.uleb128 0x6e
 1440 00ba 0E       		.uleb128 0xe
 1441 00bb 3C       		.uleb128 0x3c
 1442 00bc 19       		.uleb128 0x19
 1443 00bd 64       		.uleb128 0x64
 1444 00be 13       		.uleb128 0x13
 1445 00bf 01       		.uleb128 0x1
 1446 00c0 13       		.uleb128 0x13
 1447 00c1 00       		.byte	0
 1448 00c2 00       		.byte	0
 1449 00c3 10       		.uleb128 0x10
 1450 00c4 2E       		.uleb128 0x2e
 1451 00c5 01       		.byte	0x1
 1452 00c6 3F       		.uleb128 0x3f
 1453 00c7 19       		.uleb128 0x19
 1454 00c8 03       		.uleb128 0x3
 1455 00c9 0E       		.uleb128 0xe
 1456 00ca 3A       		.uleb128 0x3a
 1457 00cb 0B       		.uleb128 0xb
 1458 00cc 3B       		.uleb128 0x3b
 1459 00cd 0B       		.uleb128 0xb
 1460 00ce 6E       		.uleb128 0x6e
 1461 00cf 0E       		.uleb128 0xe
 1462 00d0 49       		.uleb128 0x49
 1463 00d1 13       		.uleb128 0x13
 1464 00d2 3C       		.uleb128 0x3c
 1465 00d3 19       		.uleb128 0x19
 1466 00d4 64       		.uleb128 0x64
 1467 00d5 13       		.uleb128 0x13
 1468 00d6 00       		.byte	0
 1469 00d7 00       		.byte	0
 1470 00d8 11       		.uleb128 0x11
 1471 00d9 2E       		.uleb128 0x2e
 1472 00da 01       		.byte	0x1
 1473 00db 03       		.uleb128 0x3
 1474 00dc 0E       		.uleb128 0xe
ARM GAS  C:\msys64\tmp\ccqo0o8e.s 			page 27


 1475 00dd 3A       		.uleb128 0x3a
 1476 00de 0B       		.uleb128 0xb
 1477 00df 3B       		.uleb128 0x3b
 1478 00e0 0B       		.uleb128 0xb
 1479 00e1 20       		.uleb128 0x20
 1480 00e2 0B       		.uleb128 0xb
 1481 00e3 01       		.uleb128 0x1
 1482 00e4 13       		.uleb128 0x13
 1483 00e5 00       		.byte	0
 1484 00e6 00       		.byte	0
 1485 00e7 12       		.uleb128 0x12
 1486 00e8 05       		.uleb128 0x5
 1487 00e9 00       		.byte	0
 1488 00ea 03       		.uleb128 0x3
 1489 00eb 08       		.uleb128 0x8
 1490 00ec 3A       		.uleb128 0x3a
 1491 00ed 0B       		.uleb128 0xb
 1492 00ee 3B       		.uleb128 0x3b
 1493 00ef 0B       		.uleb128 0xb
 1494 00f0 49       		.uleb128 0x49
 1495 00f1 13       		.uleb128 0x13
 1496 00f2 00       		.byte	0
 1497 00f3 00       		.byte	0
 1498 00f4 13       		.uleb128 0x13
 1499 00f5 34       		.uleb128 0x34
 1500 00f6 00       		.byte	0
 1501 00f7 03       		.uleb128 0x3
 1502 00f8 08       		.uleb128 0x8
 1503 00f9 3A       		.uleb128 0x3a
 1504 00fa 0B       		.uleb128 0xb
 1505 00fb 3B       		.uleb128 0x3b
 1506 00fc 0B       		.uleb128 0xb
 1507 00fd 49       		.uleb128 0x49
 1508 00fe 13       		.uleb128 0x13
 1509 00ff 00       		.byte	0
 1510 0100 00       		.byte	0
 1511 0101 14       		.uleb128 0x14
 1512 0102 37       		.uleb128 0x37
 1513 0103 00       		.byte	0
 1514 0104 49       		.uleb128 0x49
 1515 0105 13       		.uleb128 0x13
 1516 0106 00       		.byte	0
 1517 0107 00       		.byte	0
 1518 0108 15       		.uleb128 0x15
 1519 0109 26       		.uleb128 0x26
 1520 010a 00       		.byte	0
 1521 010b 49       		.uleb128 0x49
 1522 010c 13       		.uleb128 0x13
 1523 010d 00       		.byte	0
 1524 010e 00       		.byte	0
 1525 010f 16       		.uleb128 0x16
 1526 0110 2E       		.uleb128 0x2e
 1527 0111 01       		.byte	0x1
 1528 0112 03       		.uleb128 0x3
 1529 0113 0E       		.uleb128 0xe
 1530 0114 3A       		.uleb128 0x3a
 1531 0115 0B       		.uleb128 0xb
ARM GAS  C:\msys64\tmp\ccqo0o8e.s 			page 28


 1532 0116 3B       		.uleb128 0x3b
 1533 0117 0B       		.uleb128 0xb
 1534 0118 49       		.uleb128 0x49
 1535 0119 13       		.uleb128 0x13
 1536 011a 20       		.uleb128 0x20
 1537 011b 0B       		.uleb128 0xb
 1538 011c 01       		.uleb128 0x1
 1539 011d 13       		.uleb128 0x13
 1540 011e 00       		.byte	0
 1541 011f 00       		.byte	0
 1542 0120 17       		.uleb128 0x17
 1543 0121 2E       		.uleb128 0x2e
 1544 0122 01       		.byte	0x1
 1545 0123 47       		.uleb128 0x47
 1546 0124 13       		.uleb128 0x13
 1547 0125 20       		.uleb128 0x20
 1548 0126 0B       		.uleb128 0xb
 1549 0127 64       		.uleb128 0x64
 1550 0128 13       		.uleb128 0x13
 1551 0129 01       		.uleb128 0x1
 1552 012a 13       		.uleb128 0x13
 1553 012b 00       		.byte	0
 1554 012c 00       		.byte	0
 1555 012d 18       		.uleb128 0x18
 1556 012e 05       		.uleb128 0x5
 1557 012f 00       		.byte	0
 1558 0130 03       		.uleb128 0x3
 1559 0131 0E       		.uleb128 0xe
 1560 0132 49       		.uleb128 0x49
 1561 0133 13       		.uleb128 0x13
 1562 0134 34       		.uleb128 0x34
 1563 0135 19       		.uleb128 0x19
 1564 0136 00       		.byte	0
 1565 0137 00       		.byte	0
 1566 0138 19       		.uleb128 0x19
 1567 0139 05       		.uleb128 0x5
 1568 013a 00       		.byte	0
 1569 013b 03       		.uleb128 0x3
 1570 013c 0E       		.uleb128 0xe
 1571 013d 3A       		.uleb128 0x3a
 1572 013e 0B       		.uleb128 0xb
 1573 013f 3B       		.uleb128 0x3b
 1574 0140 0B       		.uleb128 0xb
 1575 0141 49       		.uleb128 0x49
 1576 0142 13       		.uleb128 0x13
 1577 0143 00       		.byte	0
 1578 0144 00       		.byte	0
 1579 0145 1A       		.uleb128 0x1a
 1580 0146 2E       		.uleb128 0x2e
 1581 0147 01       		.byte	0x1
 1582 0148 03       		.uleb128 0x3
 1583 0149 0E       		.uleb128 0xe
 1584 014a 34       		.uleb128 0x34
 1585 014b 19       		.uleb128 0x19
 1586 014c 20       		.uleb128 0x20
 1587 014d 0B       		.uleb128 0xb
 1588 014e 01       		.uleb128 0x1
ARM GAS  C:\msys64\tmp\ccqo0o8e.s 			page 29


 1589 014f 13       		.uleb128 0x13
 1590 0150 00       		.byte	0
 1591 0151 00       		.byte	0
 1592 0152 1B       		.uleb128 0x1b
 1593 0153 2E       		.uleb128 0x2e
 1594 0154 01       		.byte	0x1
 1595 0155 3F       		.uleb128 0x3f
 1596 0156 19       		.uleb128 0x19
 1597 0157 03       		.uleb128 0x3
 1598 0158 0E       		.uleb128 0xe
 1599 0159 3A       		.uleb128 0x3a
 1600 015a 0B       		.uleb128 0xb
 1601 015b 3B       		.uleb128 0x3b
 1602 015c 0B       		.uleb128 0xb
 1603 015d 11       		.uleb128 0x11
 1604 015e 01       		.uleb128 0x1
 1605 015f 12       		.uleb128 0x12
 1606 0160 06       		.uleb128 0x6
 1607 0161 40       		.uleb128 0x40
 1608 0162 18       		.uleb128 0x18
 1609 0163 9742     		.uleb128 0x2117
 1610 0165 19       		.uleb128 0x19
 1611 0166 01       		.uleb128 0x1
 1612 0167 13       		.uleb128 0x13
 1613 0168 00       		.byte	0
 1614 0169 00       		.byte	0
 1615 016a 1C       		.uleb128 0x1c
 1616 016b 05       		.uleb128 0x5
 1617 016c 00       		.byte	0
 1618 016d 03       		.uleb128 0x3
 1619 016e 0E       		.uleb128 0xe
 1620 016f 3A       		.uleb128 0x3a
 1621 0170 0B       		.uleb128 0xb
 1622 0171 3B       		.uleb128 0x3b
 1623 0172 0B       		.uleb128 0xb
 1624 0173 49       		.uleb128 0x49
 1625 0174 13       		.uleb128 0x13
 1626 0175 02       		.uleb128 0x2
 1627 0176 17       		.uleb128 0x17
 1628 0177 00       		.byte	0
 1629 0178 00       		.byte	0
 1630 0179 1D       		.uleb128 0x1d
 1631 017a 05       		.uleb128 0x5
 1632 017b 00       		.byte	0
 1633 017c 03       		.uleb128 0x3
 1634 017d 08       		.uleb128 0x8
 1635 017e 3A       		.uleb128 0x3a
 1636 017f 0B       		.uleb128 0xb
 1637 0180 3B       		.uleb128 0x3b
 1638 0181 0B       		.uleb128 0xb
 1639 0182 49       		.uleb128 0x49
 1640 0183 13       		.uleb128 0x13
 1641 0184 02       		.uleb128 0x2
 1642 0185 17       		.uleb128 0x17
 1643 0186 00       		.byte	0
 1644 0187 00       		.byte	0
 1645 0188 1E       		.uleb128 0x1e
ARM GAS  C:\msys64\tmp\ccqo0o8e.s 			page 30


 1646 0189 1D       		.uleb128 0x1d
 1647 018a 01       		.byte	0x1
 1648 018b 31       		.uleb128 0x31
 1649 018c 13       		.uleb128 0x13
 1650 018d 52       		.uleb128 0x52
 1651 018e 01       		.uleb128 0x1
 1652 018f 55       		.uleb128 0x55
 1653 0190 17       		.uleb128 0x17
 1654 0191 58       		.uleb128 0x58
 1655 0192 0B       		.uleb128 0xb
 1656 0193 59       		.uleb128 0x59
 1657 0194 0B       		.uleb128 0xb
 1658 0195 01       		.uleb128 0x1
 1659 0196 13       		.uleb128 0x13
 1660 0197 00       		.byte	0
 1661 0198 00       		.byte	0
 1662 0199 1F       		.uleb128 0x1f
 1663 019a 05       		.uleb128 0x5
 1664 019b 00       		.byte	0
 1665 019c 31       		.uleb128 0x31
 1666 019d 13       		.uleb128 0x13
 1667 019e 02       		.uleb128 0x2
 1668 019f 17       		.uleb128 0x17
 1669 01a0 00       		.byte	0
 1670 01a1 00       		.byte	0
 1671 01a2 20       		.uleb128 0x20
 1672 01a3 1D       		.uleb128 0x1d
 1673 01a4 01       		.byte	0x1
 1674 01a5 31       		.uleb128 0x31
 1675 01a6 13       		.uleb128 0x13
 1676 01a7 11       		.uleb128 0x11
 1677 01a8 01       		.uleb128 0x1
 1678 01a9 12       		.uleb128 0x12
 1679 01aa 06       		.uleb128 0x6
 1680 01ab 58       		.uleb128 0x58
 1681 01ac 0B       		.uleb128 0xb
 1682 01ad 59       		.uleb128 0x59
 1683 01ae 0B       		.uleb128 0xb
 1684 01af 01       		.uleb128 0x1
 1685 01b0 13       		.uleb128 0x13
 1686 01b1 00       		.byte	0
 1687 01b2 00       		.byte	0
 1688 01b3 21       		.uleb128 0x21
 1689 01b4 1D       		.uleb128 0x1d
 1690 01b5 01       		.byte	0x1
 1691 01b6 31       		.uleb128 0x31
 1692 01b7 13       		.uleb128 0x13
 1693 01b8 11       		.uleb128 0x11
 1694 01b9 01       		.uleb128 0x1
 1695 01ba 12       		.uleb128 0x12
 1696 01bb 06       		.uleb128 0x6
 1697 01bc 58       		.uleb128 0x58
 1698 01bd 0B       		.uleb128 0xb
 1699 01be 59       		.uleb128 0x59
 1700 01bf 0B       		.uleb128 0xb
 1701 01c0 00       		.byte	0
 1702 01c1 00       		.byte	0
ARM GAS  C:\msys64\tmp\ccqo0o8e.s 			page 31


 1703 01c2 22       		.uleb128 0x22
 1704 01c3 0B       		.uleb128 0xb
 1705 01c4 01       		.byte	0x1
 1706 01c5 11       		.uleb128 0x11
 1707 01c6 01       		.uleb128 0x1
 1708 01c7 12       		.uleb128 0x12
 1709 01c8 06       		.uleb128 0x6
 1710 01c9 00       		.byte	0
 1711 01ca 00       		.byte	0
 1712 01cb 23       		.uleb128 0x23
 1713 01cc 34       		.uleb128 0x34
 1714 01cd 00       		.byte	0
 1715 01ce 31       		.uleb128 0x31
 1716 01cf 13       		.uleb128 0x13
 1717 01d0 02       		.uleb128 0x2
 1718 01d1 17       		.uleb128 0x17
 1719 01d2 00       		.byte	0
 1720 01d3 00       		.byte	0
 1721 01d4 24       		.uleb128 0x24
 1722 01d5 898201   		.uleb128 0x4109
 1723 01d8 00       		.byte	0
 1724 01d9 11       		.uleb128 0x11
 1725 01da 01       		.uleb128 0x1
 1726 01db 31       		.uleb128 0x31
 1727 01dc 13       		.uleb128 0x13
 1728 01dd 00       		.byte	0
 1729 01de 00       		.byte	0
 1730 01df 25       		.uleb128 0x25
 1731 01e0 34       		.uleb128 0x34
 1732 01e1 00       		.byte	0
 1733 01e2 03       		.uleb128 0x3
 1734 01e3 08       		.uleb128 0x8
 1735 01e4 3A       		.uleb128 0x3a
 1736 01e5 0B       		.uleb128 0xb
 1737 01e6 3B       		.uleb128 0x3b
 1738 01e7 0B       		.uleb128 0xb
 1739 01e8 49       		.uleb128 0x49
 1740 01e9 13       		.uleb128 0x13
 1741 01ea 02       		.uleb128 0x2
 1742 01eb 18       		.uleb128 0x18
 1743 01ec 00       		.byte	0
 1744 01ed 00       		.byte	0
 1745 01ee 26       		.uleb128 0x26
 1746 01ef 0B       		.uleb128 0xb
 1747 01f0 01       		.byte	0x1
 1748 01f1 55       		.uleb128 0x55
 1749 01f2 17       		.uleb128 0x17
 1750 01f3 00       		.byte	0
 1751 01f4 00       		.byte	0
 1752 01f5 27       		.uleb128 0x27
 1753 01f6 34       		.uleb128 0x34
 1754 01f7 00       		.byte	0
 1755 01f8 03       		.uleb128 0x3
 1756 01f9 08       		.uleb128 0x8
 1757 01fa 3A       		.uleb128 0x3a
 1758 01fb 0B       		.uleb128 0xb
 1759 01fc 3B       		.uleb128 0x3b
ARM GAS  C:\msys64\tmp\ccqo0o8e.s 			page 32


 1760 01fd 0B       		.uleb128 0xb
 1761 01fe 49       		.uleb128 0x49
 1762 01ff 13       		.uleb128 0x13
 1763 0200 02       		.uleb128 0x2
 1764 0201 17       		.uleb128 0x17
 1765 0202 00       		.byte	0
 1766 0203 00       		.byte	0
 1767 0204 28       		.uleb128 0x28
 1768 0205 34       		.uleb128 0x34
 1769 0206 00       		.byte	0
 1770 0207 03       		.uleb128 0x3
 1771 0208 0E       		.uleb128 0xe
 1772 0209 3A       		.uleb128 0x3a
 1773 020a 0B       		.uleb128 0xb
 1774 020b 3B       		.uleb128 0x3b
 1775 020c 0B       		.uleb128 0xb
 1776 020d 49       		.uleb128 0x49
 1777 020e 13       		.uleb128 0x13
 1778 020f 00       		.byte	0
 1779 0210 00       		.byte	0
 1780 0211 29       		.uleb128 0x29
 1781 0212 05       		.uleb128 0x5
 1782 0213 00       		.byte	0
 1783 0214 31       		.uleb128 0x31
 1784 0215 13       		.uleb128 0x13
 1785 0216 00       		.byte	0
 1786 0217 00       		.byte	0
 1787 0218 2A       		.uleb128 0x2a
 1788 0219 1D       		.uleb128 0x1d
 1789 021a 01       		.byte	0x1
 1790 021b 31       		.uleb128 0x31
 1791 021c 13       		.uleb128 0x13
 1792 021d 52       		.uleb128 0x52
 1793 021e 01       		.uleb128 0x1
 1794 021f 55       		.uleb128 0x55
 1795 0220 17       		.uleb128 0x17
 1796 0221 58       		.uleb128 0x58
 1797 0222 0B       		.uleb128 0xb
 1798 0223 59       		.uleb128 0x59
 1799 0224 0B       		.uleb128 0xb
 1800 0225 00       		.byte	0
 1801 0226 00       		.byte	0
 1802 0227 2B       		.uleb128 0x2b
 1803 0228 34       		.uleb128 0x34
 1804 0229 00       		.byte	0
 1805 022a 03       		.uleb128 0x3
 1806 022b 0E       		.uleb128 0xe
 1807 022c 3A       		.uleb128 0x3a
 1808 022d 0B       		.uleb128 0xb
 1809 022e 3B       		.uleb128 0x3b
 1810 022f 0B       		.uleb128 0xb
 1811 0230 49       		.uleb128 0x49
 1812 0231 13       		.uleb128 0x13
 1813 0232 02       		.uleb128 0x2
 1814 0233 17       		.uleb128 0x17
 1815 0234 00       		.byte	0
 1816 0235 00       		.byte	0
ARM GAS  C:\msys64\tmp\ccqo0o8e.s 			page 33


 1817 0236 2C       		.uleb128 0x2c
 1818 0237 2E       		.uleb128 0x2e
 1819 0238 01       		.byte	0x1
 1820 0239 03       		.uleb128 0x3
 1821 023a 0E       		.uleb128 0xe
 1822 023b 34       		.uleb128 0x34
 1823 023c 19       		.uleb128 0x19
 1824 023d 11       		.uleb128 0x11
 1825 023e 01       		.uleb128 0x1
 1826 023f 12       		.uleb128 0x12
 1827 0240 06       		.uleb128 0x6
 1828 0241 40       		.uleb128 0x40
 1829 0242 18       		.uleb128 0x18
 1830 0243 9742     		.uleb128 0x2117
 1831 0245 19       		.uleb128 0x19
 1832 0246 01       		.uleb128 0x1
 1833 0247 13       		.uleb128 0x13
 1834 0248 00       		.byte	0
 1835 0249 00       		.byte	0
 1836 024a 2D       		.uleb128 0x2d
 1837 024b 34       		.uleb128 0x34
 1838 024c 00       		.byte	0
 1839 024d 03       		.uleb128 0x3
 1840 024e 0E       		.uleb128 0xe
 1841 024f 3A       		.uleb128 0x3a
 1842 0250 0B       		.uleb128 0xb
 1843 0251 3B       		.uleb128 0x3b
 1844 0252 0B       		.uleb128 0xb
 1845 0253 49       		.uleb128 0x49
 1846 0254 13       		.uleb128 0x13
 1847 0255 3F       		.uleb128 0x3f
 1848 0256 19       		.uleb128 0x19
 1849 0257 3C       		.uleb128 0x3c
 1850 0258 19       		.uleb128 0x19
 1851 0259 00       		.byte	0
 1852 025a 00       		.byte	0
 1853 025b 2E       		.uleb128 0x2e
 1854 025c 01       		.uleb128 0x1
 1855 025d 01       		.byte	0x1
 1856 025e 49       		.uleb128 0x49
 1857 025f 13       		.uleb128 0x13
 1858 0260 01       		.uleb128 0x1
 1859 0261 13       		.uleb128 0x13
 1860 0262 00       		.byte	0
 1861 0263 00       		.byte	0
 1862 0264 2F       		.uleb128 0x2f
 1863 0265 21       		.uleb128 0x21
 1864 0266 00       		.byte	0
 1865 0267 49       		.uleb128 0x49
 1866 0268 13       		.uleb128 0x13
 1867 0269 2F       		.uleb128 0x2f
 1868 026a 0B       		.uleb128 0xb
 1869 026b 00       		.byte	0
 1870 026c 00       		.byte	0
 1871 026d 30       		.uleb128 0x30
 1872 026e 21       		.uleb128 0x21
 1873 026f 00       		.byte	0
ARM GAS  C:\msys64\tmp\ccqo0o8e.s 			page 34


 1874 0270 49       		.uleb128 0x49
 1875 0271 13       		.uleb128 0x13
 1876 0272 2F       		.uleb128 0x2f
 1877 0273 05       		.uleb128 0x5
 1878 0274 00       		.byte	0
 1879 0275 00       		.byte	0
 1880 0276 31       		.uleb128 0x31
 1881 0277 34       		.uleb128 0x34
 1882 0278 00       		.byte	0
 1883 0279 03       		.uleb128 0x3
 1884 027a 0E       		.uleb128 0xe
 1885 027b 3A       		.uleb128 0x3a
 1886 027c 0B       		.uleb128 0xb
 1887 027d 3B       		.uleb128 0x3b
 1888 027e 05       		.uleb128 0x5
 1889 027f 49       		.uleb128 0x49
 1890 0280 13       		.uleb128 0x13
 1891 0281 3F       		.uleb128 0x3f
 1892 0282 19       		.uleb128 0x19
 1893 0283 3C       		.uleb128 0x3c
 1894 0284 19       		.uleb128 0x19
 1895 0285 00       		.byte	0
 1896 0286 00       		.byte	0
 1897 0287 32       		.uleb128 0x32
 1898 0288 34       		.uleb128 0x34
 1899 0289 00       		.byte	0
 1900 028a 03       		.uleb128 0x3
 1901 028b 0E       		.uleb128 0xe
 1902 028c 3A       		.uleb128 0x3a
 1903 028d 0B       		.uleb128 0xb
 1904 028e 3B       		.uleb128 0x3b
 1905 028f 0B       		.uleb128 0xb
 1906 0290 49       		.uleb128 0x49
 1907 0291 13       		.uleb128 0x13
 1908 0292 02       		.uleb128 0x2
 1909 0293 18       		.uleb128 0x18
 1910 0294 00       		.byte	0
 1911 0295 00       		.byte	0
 1912 0296 33       		.uleb128 0x33
 1913 0297 21       		.uleb128 0x21
 1914 0298 00       		.byte	0
 1915 0299 49       		.uleb128 0x49
 1916 029a 13       		.uleb128 0x13
 1917 029b 2F       		.uleb128 0x2f
 1918 029c 06       		.uleb128 0x6
 1919 029d 00       		.byte	0
 1920 029e 00       		.byte	0
 1921 029f 34       		.uleb128 0x34
 1922 02a0 34       		.uleb128 0x34
 1923 02a1 00       		.byte	0
 1924 02a2 03       		.uleb128 0x3
 1925 02a3 0E       		.uleb128 0xe
 1926 02a4 3A       		.uleb128 0x3a
 1927 02a5 0B       		.uleb128 0xb
 1928 02a6 3B       		.uleb128 0x3b
 1929 02a7 0B       		.uleb128 0xb
 1930 02a8 49       		.uleb128 0x49
ARM GAS  C:\msys64\tmp\ccqo0o8e.s 			page 35


 1931 02a9 13       		.uleb128 0x13
 1932 02aa 3F       		.uleb128 0x3f
 1933 02ab 19       		.uleb128 0x19
 1934 02ac 02       		.uleb128 0x2
 1935 02ad 18       		.uleb128 0x18
 1936 02ae 00       		.byte	0
 1937 02af 00       		.byte	0
 1938 02b0 35       		.uleb128 0x35
 1939 02b1 34       		.uleb128 0x34
 1940 02b2 00       		.byte	0
 1941 02b3 03       		.uleb128 0x3
 1942 02b4 08       		.uleb128 0x8
 1943 02b5 3A       		.uleb128 0x3a
 1944 02b6 0B       		.uleb128 0xb
 1945 02b7 3B       		.uleb128 0x3b
 1946 02b8 0B       		.uleb128 0xb
 1947 02b9 49       		.uleb128 0x49
 1948 02ba 13       		.uleb128 0x13
 1949 02bb 3F       		.uleb128 0x3f
 1950 02bc 19       		.uleb128 0x19
 1951 02bd 02       		.uleb128 0x2
 1952 02be 18       		.uleb128 0x18
 1953 02bf 00       		.byte	0
 1954 02c0 00       		.byte	0
 1955 02c1 36       		.uleb128 0x36
 1956 02c2 2E       		.uleb128 0x2e
 1957 02c3 00       		.byte	0
 1958 02c4 3F       		.uleb128 0x3f
 1959 02c5 19       		.uleb128 0x19
 1960 02c6 3C       		.uleb128 0x3c
 1961 02c7 19       		.uleb128 0x19
 1962 02c8 6E       		.uleb128 0x6e
 1963 02c9 0E       		.uleb128 0xe
 1964 02ca 03       		.uleb128 0x3
 1965 02cb 0E       		.uleb128 0xe
 1966 02cc 3A       		.uleb128 0x3a
 1967 02cd 0B       		.uleb128 0xb
 1968 02ce 3B       		.uleb128 0x3b
 1969 02cf 0B       		.uleb128 0xb
 1970 02d0 00       		.byte	0
 1971 02d1 00       		.byte	0
 1972 02d2 00       		.byte	0
 1973              		.section	.debug_loc,"",%progbits
 1974              	.Ldebug_loc0:
 1975              	.LLST0:
 1976 0000 00000000 		.4byte	.LVL0
 1977 0004 3B000000 		.4byte	.LVL9-1
 1978 0008 0100     		.2byte	0x1
 1979 000a 50       		.byte	0x50
 1980 000b 3B000000 		.4byte	.LVL9-1
 1981 000f 64000000 		.4byte	.LFE264
 1982 0013 0400     		.2byte	0x4
 1983 0015 F3       		.byte	0xf3
 1984 0016 01       		.uleb128 0x1
 1985 0017 50       		.byte	0x50
 1986 0018 9F       		.byte	0x9f
 1987 0019 00000000 		.4byte	0
ARM GAS  C:\msys64\tmp\ccqo0o8e.s 			page 36


 1988 001d 00000000 		.4byte	0
 1989              	.LLST1:
 1990 0021 00000000 		.4byte	.LVL0
 1991 0025 02000000 		.4byte	.LVL1
 1992 0029 0100     		.2byte	0x1
 1993 002b 51       		.byte	0x51
 1994 002c 02000000 		.4byte	.LVL1
 1995 0030 64000000 		.4byte	.LFE264
 1996 0034 0400     		.2byte	0x4
 1997 0036 F3       		.byte	0xf3
 1998 0037 01       		.uleb128 0x1
 1999 0038 51       		.byte	0x51
 2000 0039 9F       		.byte	0x9f
 2001 003a 00000000 		.4byte	0
 2002 003e 00000000 		.4byte	0
 2003              	.LLST2:
 2004 0042 00000000 		.4byte	.LVL0
 2005 0046 16000000 		.4byte	.LVL2
 2006 004a 0600     		.2byte	0x6
 2007 004c 0C       		.byte	0xc
 2008 004d 50340300 		.4byte	0x33450
 2009 0051 9F       		.byte	0x9f
 2010 0052 00000000 		.4byte	0
 2011 0056 00000000 		.4byte	0
 2012              	.LLST3:
 2013 005a 00000000 		.4byte	.LVL0
 2014 005e 16000000 		.4byte	.LVL2
 2015 0062 0600     		.2byte	0x6
 2016 0064 03       		.byte	0x3
 2017 0065 00000000 		.4byte	_ZL11s_delay_ram
 2018 0069 9F       		.byte	0x9f
 2019 006a 00000000 		.4byte	0
 2020 006e 00000000 		.4byte	0
 2021              	.LLST4:
 2022 0072 00000000 		.4byte	.LVL0
 2023 0076 16000000 		.4byte	.LVL2
 2024 007a 0600     		.2byte	0x6
 2025 007c 03       		.byte	0x3
 2026 007d 00000000 		.4byte	_ZL7s_delay
 2027 0081 9F       		.byte	0x9f
 2028 0082 00000000 		.4byte	0
 2029 0086 00000000 		.4byte	0
 2030              	.LLST5:
 2031 008a 16000000 		.4byte	.LVL2
 2032 008e 38000000 		.4byte	.LVL8
 2033 0092 0600     		.2byte	0x6
 2034 0094 03       		.byte	0x3
 2035 0095 00000000 		.4byte	_ZL7s_delay
 2036 0099 9F       		.byte	0x9f
 2037 009a 00000000 		.4byte	0
 2038 009e 00000000 		.4byte	0
 2039              	.LLST6:
 2040 00a2 16000000 		.4byte	.LVL2
 2041 00a6 38000000 		.4byte	.LVL8
 2042 00aa 0400     		.2byte	0x4
 2043 00ac 40       		.byte	0x40
 2044 00ad 3E       		.byte	0x3e
ARM GAS  C:\msys64\tmp\ccqo0o8e.s 			page 37


 2045 00ae 24       		.byte	0x24
 2046 00af 9F       		.byte	0x9f
 2047 00b0 00000000 		.4byte	0
 2048 00b4 00000000 		.4byte	0
 2049              	.LLST7:
 2050 00b8 16000000 		.4byte	.LVL2
 2051 00bc 22000000 		.4byte	.LVL3
 2052 00c0 0600     		.2byte	0x6
 2053 00c2 03       		.byte	0x3
 2054 00c3 00000000 		.4byte	_ZL11s_delay_ram
 2055 00c7 9F       		.byte	0x9f
 2056 00c8 22000000 		.4byte	.LVL3
 2057 00cc 26000000 		.4byte	.LVL4
 2058 00d0 0300     		.2byte	0x3
 2059 00d2 73       		.byte	0x73
 2060 00d3 74       		.sleb128 -12
 2061 00d4 9F       		.byte	0x9f
 2062 00d5 26000000 		.4byte	.LVL4
 2063 00d9 2A000000 		.4byte	.LVL5
 2064 00dd 0300     		.2byte	0x3
 2065 00df 73       		.byte	0x73
 2066 00e0 78       		.sleb128 -8
 2067 00e1 9F       		.byte	0x9f
 2068 00e2 2A000000 		.4byte	.LVL5
 2069 00e6 2E000000 		.4byte	.LVL6
 2070 00ea 0300     		.2byte	0x3
 2071 00ec 73       		.byte	0x73
 2072 00ed 7C       		.sleb128 -4
 2073 00ee 9F       		.byte	0x9f
 2074 00ef 2E000000 		.4byte	.LVL6
 2075 00f3 34000000 		.4byte	.LVL7
 2076 00f7 0100     		.2byte	0x1
 2077 00f9 53       		.byte	0x53
 2078 00fa 34000000 		.4byte	.LVL7
 2079 00fe 38000000 		.4byte	.LVL8
 2080 0102 0300     		.2byte	0x3
 2081 0104 73       		.byte	0x73
 2082 0105 70       		.sleb128 -16
 2083 0106 9F       		.byte	0x9f
 2084 0107 00000000 		.4byte	0
 2085 010b 00000000 		.4byte	0
 2086              	.LLST8:
 2087 010f 16000000 		.4byte	.LVL2
 2088 0113 38000000 		.4byte	.LVL8
 2089 0117 0600     		.2byte	0x6
 2090 0119 03       		.byte	0x3
 2091 011a 00001000 		.4byte	_ZL11s_delay_ram+1048576
 2092 011e 9F       		.byte	0x9f
 2093 011f 00000000 		.4byte	0
 2094 0123 00000000 		.4byte	0
 2095              	.LLST9:
 2096 0127 64000000 		.4byte	.LVL10
 2097 012b 8A000000 		.4byte	.LVL13
 2098 012f 0100     		.2byte	0x1
 2099 0131 50       		.byte	0x50
 2100 0132 8A000000 		.4byte	.LVL13
 2101 0136 E0000000 		.4byte	.LFE266
ARM GAS  C:\msys64\tmp\ccqo0o8e.s 			page 38


 2102 013a 0400     		.2byte	0x4
 2103 013c F3       		.byte	0xf3
 2104 013d 01       		.uleb128 0x1
 2105 013e 50       		.byte	0x50
 2106 013f 9F       		.byte	0x9f
 2107 0140 00000000 		.4byte	0
 2108 0144 00000000 		.4byte	0
 2109              	.LLST10:
 2110 0148 64000000 		.4byte	.LVL10
 2111 014c 7C000000 		.4byte	.LVL12
 2112 0150 0100     		.2byte	0x1
 2113 0152 51       		.byte	0x51
 2114 0153 7C000000 		.4byte	.LVL12
 2115 0157 E0000000 		.4byte	.LFE266
 2116 015b 0400     		.2byte	0x4
 2117 015d F3       		.byte	0xf3
 2118 015e 01       		.uleb128 0x1
 2119 015f 51       		.byte	0x51
 2120 0160 9F       		.byte	0x9f
 2121 0161 00000000 		.4byte	0
 2122 0165 00000000 		.4byte	0
 2123              	.LLST11:
 2124 0169 6E000000 		.4byte	.LVL11
 2125 016d 8A000000 		.4byte	.LVL13
 2126 0171 0200     		.2byte	0x2
 2127 0173 30       		.byte	0x30
 2128 0174 9F       		.byte	0x9f
 2129 0175 90000000 		.4byte	.LVL14
 2130 0179 BC000000 		.4byte	.LVL16
 2131 017d 0100     		.2byte	0x1
 2132 017f 54       		.byte	0x54
 2133 0180 BC000000 		.4byte	.LVL16
 2134 0184 D4000000 		.4byte	.LVL18
 2135 0188 0300     		.2byte	0x3
 2136 018a 74       		.byte	0x74
 2137 018b 7F       		.sleb128 -1
 2138 018c 9F       		.byte	0x9f
 2139 018d D4000000 		.4byte	.LVL18
 2140 0191 DA000000 		.4byte	.LVL19
 2141 0195 0100     		.2byte	0x1
 2142 0197 54       		.byte	0x54
 2143 0198 00000000 		.4byte	0
 2144 019c 00000000 		.4byte	0
 2145              	.LLST12:
 2146 01a0 D0000000 		.4byte	.LVL17
 2147 01a4 D4000000 		.4byte	.LVL18
 2148 01a8 0200     		.2byte	0x2
 2149 01aa 90       		.byte	0x90
 2150 01ab 4F       		.uleb128 0x4f
 2151 01ac 00000000 		.4byte	0
 2152 01b0 00000000 		.4byte	0
 2153              	.LLST13:
 2154 01b4 D0000000 		.4byte	.LVL17
 2155 01b8 D4000000 		.4byte	.LVL18
 2156 01bc 0600     		.2byte	0x6
 2157 01be 03       		.byte	0x3
 2158 01bf 00000000 		.4byte	_ZL7s_delay
ARM GAS  C:\msys64\tmp\ccqo0o8e.s 			page 39


 2159 01c3 9F       		.byte	0x9f
 2160 01c4 00000000 		.4byte	0
 2161 01c8 00000000 		.4byte	0
 2162              	.LLST14:
 2163 01cc E0000000 		.4byte	.LVL20
 2164 01d0 19010000 		.4byte	.LVL22-1
 2165 01d4 0100     		.2byte	0x1
 2166 01d6 50       		.byte	0x50
 2167 01d7 19010000 		.4byte	.LVL22-1
 2168 01db 88010000 		.4byte	.LFE267
 2169 01df 0400     		.2byte	0x4
 2170 01e1 F3       		.byte	0xf3
 2171 01e2 01       		.uleb128 0x1
 2172 01e3 50       		.byte	0x50
 2173 01e4 9F       		.byte	0x9f
 2174 01e5 00000000 		.4byte	0
 2175 01e9 00000000 		.4byte	0
 2176              	.LLST15:
 2177 01ed E0000000 		.4byte	.LVL20
 2178 01f1 19010000 		.4byte	.LVL22-1
 2179 01f5 0100     		.2byte	0x1
 2180 01f7 51       		.byte	0x51
 2181 01f8 19010000 		.4byte	.LVL22-1
 2182 01fc 88010000 		.4byte	.LFE267
 2183 0200 0400     		.2byte	0x4
 2184 0202 F3       		.byte	0xf3
 2185 0203 01       		.uleb128 0x1
 2186 0204 51       		.byte	0x51
 2187 0205 9F       		.byte	0x9f
 2188 0206 00000000 		.4byte	0
 2189 020a 00000000 		.4byte	0
 2190              	.LLST16:
 2191 020e F0000000 		.4byte	.LVL21
 2192 0212 76010000 		.4byte	.LVL23
 2193 0216 0200     		.2byte	0x2
 2194 0218 90       		.byte	0x90
 2195 0219 50       		.uleb128 0x50
 2196 021a 76010000 		.4byte	.LVL23
 2197 021e 88010000 		.4byte	.LFE267
 2198 0222 1000     		.2byte	0x10
 2199 0224 F3       		.byte	0xf3
 2200 0225 01       		.uleb128 0x1
 2201 0226 51       		.byte	0x51
 2202 0227 F7       		.byte	0xf7
 2203 0228 2C       		.uleb128 0x2c
 2204 0229 F7       		.byte	0xf7
 2205 022a 25       		.uleb128 0x25
 2206 022b F4       		.byte	0xf4
 2207 022c 25       		.uleb128 0x25
 2208 022d 04       		.byte	0x4
 2209 022e 00000030 		.4byte	0x30000000
 2210 0232 1E       		.byte	0x1e
 2211 0233 9F       		.byte	0x9f
 2212 0234 00000000 		.4byte	0
 2213 0238 00000000 		.4byte	0
 2214              	.LLST17:
 2215 023c 00000000 		.4byte	.LVL24
ARM GAS  C:\msys64\tmp\ccqo0o8e.s 			page 40


 2216 0240 10000000 		.4byte	.LVL25
 2217 0244 0400     		.2byte	0x4
 2218 0246 0A       		.byte	0xa
 2219 0247 FFFF     		.2byte	0xffff
 2220 0249 9F       		.byte	0x9f
 2221 024a 00000000 		.4byte	0
 2222 024e 00000000 		.4byte	0
 2223              	.LLST18:
 2224 0252 00000000 		.4byte	.LVL24
 2225 0256 10000000 		.4byte	.LVL25
 2226 025a 0200     		.2byte	0x2
 2227 025c 31       		.byte	0x31
 2228 025d 9F       		.byte	0x9f
 2229 025e 00000000 		.4byte	0
 2230 0262 00000000 		.4byte	0
 2231              	.LLST19:
 2232 0266 00000000 		.4byte	.LVL24
 2233 026a 10000000 		.4byte	.LVL25
 2234 026e 0600     		.2byte	0x6
 2235 0270 03       		.byte	0x3
 2236 0271 00000000 		.4byte	_ZL7s_delay
 2237 0275 9F       		.byte	0x9f
 2238 0276 00000000 		.4byte	0
 2239 027a 00000000 		.4byte	0
 2240              		.section	.debug_aranges,"",%progbits
 2241 0000 24000000 		.4byte	0x24
 2242 0004 0200     		.2byte	0x2
 2243 0006 00000000 		.4byte	.Ldebug_info0
 2244 000a 04       		.byte	0x4
 2245 000b 00       		.byte	0
 2246 000c 0000     		.2byte	0
 2247 000e 0000     		.2byte	0
 2248 0010 00000000 		.4byte	.Ltext0
 2249 0014 88010000 		.4byte	.Letext0-.Ltext0
 2250 0018 00000000 		.4byte	.LFB269
 2251 001c 18000000 		.4byte	.LFE269-.LFB269
 2252 0020 00000000 		.4byte	0
 2253 0024 00000000 		.4byte	0
 2254              		.section	.debug_ranges,"",%progbits
 2255              	.Ldebug_ranges0:
 2256 0000 00000000 		.4byte	.LBB24
 2257 0004 08000000 		.4byte	.LBE24
 2258 0008 0A000000 		.4byte	.LBB27
 2259 000c 1C000000 		.4byte	.LBE27
 2260 0010 00000000 		.4byte	0
 2261 0014 00000000 		.4byte	0
 2262 0018 68000000 		.4byte	.LBB31
 2263 001c 6A000000 		.4byte	.LBE31
 2264 0020 6E000000 		.4byte	.LBB49
 2265 0024 E0000000 		.4byte	.LBE49
 2266 0028 00000000 		.4byte	0
 2267 002c 00000000 		.4byte	0
 2268 0030 68000000 		.4byte	.LBB32
 2269 0034 6A000000 		.4byte	.LBE32
 2270 0038 6E000000 		.4byte	.LBB45
 2271 003c 76000000 		.4byte	.LBE45
 2272 0040 7E000000 		.4byte	.LBB46
ARM GAS  C:\msys64\tmp\ccqo0o8e.s 			page 41


 2273 0044 8A000000 		.4byte	.LBE46
 2274 0048 92000000 		.4byte	.LBB47
 2275 004c BA000000 		.4byte	.LBE47
 2276 0050 BC000000 		.4byte	.LBB48
 2277 0054 D4000000 		.4byte	.LBE48
 2278 0058 00000000 		.4byte	0
 2279 005c 00000000 		.4byte	0
 2280 0060 6E000000 		.4byte	.LBB33
 2281 0064 72000000 		.4byte	.LBE33
 2282 0068 7E000000 		.4byte	.LBB37
 2283 006c 82000000 		.4byte	.LBE37
 2284 0070 92000000 		.4byte	.LBB38
 2285 0074 9C000000 		.4byte	.LBE38
 2286 0078 00000000 		.4byte	0
 2287 007c 00000000 		.4byte	0
 2288 0080 A4000000 		.4byte	.LBB39
 2289 0084 A6000000 		.4byte	.LBE39
 2290 0088 AA000000 		.4byte	.LBB43
 2291 008c AE000000 		.4byte	.LBE43
 2292 0090 D0000000 		.4byte	.LBB44
 2293 0094 D4000000 		.4byte	.LBE44
 2294 0098 00000000 		.4byte	0
 2295 009c 00000000 		.4byte	0
 2296 00a0 00000000 		.4byte	.Ltext0
 2297 00a4 88010000 		.4byte	.Letext0
 2298 00a8 00000000 		.4byte	.LFB269
 2299 00ac 18000000 		.4byte	.LFE269
 2300 00b0 00000000 		.4byte	0
 2301 00b4 00000000 		.4byte	0
 2302              		.section	.debug_line,"",%progbits
 2303              	.Ldebug_line0:
 2304 0000 53030000 		.section	.debug_str,"MS",%progbits,1
 2304      02005502 
 2304      00000201 
 2304      FB0E0D00 
 2304      01010101 
 2305              	.LASF39:
 2306 0000 77726974 		.ascii	"write\000"
 2306      6500
 2307              	.LASF56:
 2308 0006 6672616D 		.ascii	"frames\000"
 2308      657300
 2309              	.LASF53:
 2310 000d 5F686F6F 		.ascii	"_hook_init\000"
 2310      6B5F696E 
 2310      697400
 2311              	.LASF35:
 2312 0018 636C6561 		.ascii	"clear\000"
 2312      7200
 2313              	.LASF81:
 2314 001e 6465636C 		.ascii	"decltype(nullptr)\000"
 2314      74797065 
 2314      286E756C 
 2314      6C707472 
 2314      2900
 2315              	.LASF84:
 2316 0030 5F474C4F 		.ascii	"_GLOBAL__sub_I_s_len\000"
ARM GAS  C:\msys64\tmp\ccqo0o8e.s 			page 42


 2316      42414C5F 
 2316      5F737562 
 2316      5F495F73 
 2316      5F6C656E 
 2317              	.LASF29:
 2318 0045 6D53697A 		.ascii	"mSize\000"
 2318      6500
 2319              	.LASF16:
 2320 004b 73697A65 		.ascii	"size_t\000"
 2320      5F7400
 2321              	.LASF79:
 2322 0052 2E2F7372 		.ascii	"./src/monodelay.cpp\000"
 2322      632F6D6F 
 2322      6E6F6465 
 2322      6C61792E 
 2322      63707000 
 2323              	.LASF18:
 2324 0066 73697A65 		.ascii	"sizetype\000"
 2324      74797065 
 2324      00
 2325              	.LASF68:
 2326 006f 706F7732 		.ascii	"pow2_lut_f\000"
 2326      5F6C7574 
 2326      5F6600
 2327              	.LASF69:
 2328 007a 63756269 		.ascii	"cubicsat_lut_f\000"
 2328      63736174 
 2328      5F6C7574 
 2328      5F6600
 2329              	.LASF8:
 2330 0089 5F5F7569 		.ascii	"__uint32_t\000"
 2330      6E743332 
 2330      5F7400
 2331              	.LASF71:
 2332 0094 62697472 		.ascii	"bitres_lut_f\000"
 2332      65735F6C 
 2332      75745F66 
 2332      00
 2333              	.LASF3:
 2334 00a1 73686F72 		.ascii	"short int\000"
 2334      7420696E 
 2334      7400
 2335              	.LASF21:
 2336 00ab 6B5F7573 		.ascii	"k_user_module_global\000"
 2336      65725F6D 
 2336      6F64756C 
 2336      655F676C 
 2336      6F62616C 
 2337              	.LASF26:
 2338 00c0 6B5F6E75 		.ascii	"k_num_user_modules\000"
 2338      6D5F7573 
 2338      65725F6D 
 2338      6F64756C 
 2338      657300
 2339              	.LASF28:
 2340 00d3 6D467261 		.ascii	"mFracZ\000"
 2340      635A00
ARM GAS  C:\msys64\tmp\ccqo0o8e.s 			page 43


 2341              	.LASF59:
 2342 00da 696E6465 		.ascii	"index\000"
 2342      7800
 2343              	.LASF30:
 2344 00e0 6D4D6173 		.ascii	"mMask\000"
 2344      6B00
 2345              	.LASF25:
 2346 00e6 6B5F7573 		.ascii	"k_user_module_osc\000"
 2346      65725F6D 
 2346      6F64756C 
 2346      655F6F73 
 2346      6300
 2347              	.LASF1:
 2348 00f8 7369676E 		.ascii	"signed char\000"
 2348      65642063 
 2348      68617200 
 2349              	.LASF0:
 2350 0104 666C6F61 		.ascii	"float\000"
 2350      7400
 2351              	.LASF70:
 2352 010a 73636865 		.ascii	"schetzen_lut_f\000"
 2352      747A656E 
 2352      5F6C7574 
 2352      5F6600
 2353              	.LASF41:
 2354 0119 72656164 		.ascii	"read\000"
 2354      00
 2355              	.LASF58:
 2356 011e 5F686F6F 		.ascii	"_hook_param\000"
 2356      6B5F7061 
 2356      72616D00 
 2357              	.LASF10:
 2358 012a 6C6F6E67 		.ascii	"long long int\000"
 2358      206C6F6E 
 2358      6720696E 
 2358      7400
 2359              	.LASF7:
 2360 0138 6C6F6E67 		.ascii	"long int\000"
 2360      20696E74 
 2360      00
 2361              	.LASF75:
 2362 0141 735F6D69 		.ascii	"s_mix\000"
 2362      7800
 2363              	.LASF74:
 2364 0147 735F6C65 		.ascii	"s_len\000"
 2364      6E00
 2365              	.LASF50:
 2366 014d 77617665 		.ascii	"waveshape\000"
 2366      73686170 
 2366      6500
 2367              	.LASF65:
 2368 0157 6C6F675F 		.ascii	"log_lut_f\000"
 2368      6C75745F 
 2368      6600
 2369              	.LASF62:
 2370 0161 6B5F6678 		.ascii	"k_fx_api_platform\000"
 2370      5F617069 
ARM GAS  C:\msys64\tmp\ccqo0o8e.s 			page 44


 2370      5F706C61 
 2370      74666F72 
 2370      6D00
 2371              	.LASF51:
 2372 0173 5F5F696E 		.ascii	"__initialize_p\000"
 2372      69746961 
 2372      6C697A65 
 2372      5F7000
 2373              	.LASF44:
 2374 0182 5F5A4E33 		.ascii	"_ZN3dsp9DelayLine8readFracEf\000"
 2374      64737039 
 2374      44656C61 
 2374      794C696E 
 2374      65387265 
 2375              	.LASF32:
 2376 019f 44656C61 		.ascii	"DelayLine\000"
 2376      794C696E 
 2376      6500
 2377              	.LASF46:
 2378 01a9 5F5A4E33 		.ascii	"_ZN3dsp9DelayLine9readFraczEmf\000"
 2378      64737039 
 2378      44656C61 
 2378      794C696E 
 2378      65397265 
 2379              	.LASF17:
 2380 01c8 6C6F6E67 		.ascii	"long double\000"
 2380      20646F75 
 2380      626C6500 
 2381              	.LASF22:
 2382 01d4 6B5F7573 		.ascii	"k_user_module_modfx\000"
 2382      65725F6D 
 2382      6F64756C 
 2382      655F6D6F 
 2382      64667800 
 2383              	.LASF38:
 2384 01e8 5F5A4E33 		.ascii	"_ZN3dsp9DelayLine9setMemoryEPfj\000"
 2384      64737039 
 2384      44656C61 
 2384      794C696E 
 2384      65397365 
 2385              	.LASF2:
 2386 0208 756E7369 		.ascii	"unsigned char\000"
 2386      676E6564 
 2386      20636861 
 2386      7200
 2387              	.LASF48:
 2388 0216 6C696E65 		.ascii	"line_size\000"
 2388      5F73697A 
 2388      6500
 2389              	.LASF78:
 2390 0220 474E5520 		.ascii	"GNU C++11 5.4.1 20160919 (release) [ARM/embedded-5-"
 2390      432B2B31 
 2390      3120352E 
 2390      342E3120 
 2390      32303136 
 2391 0253 6272616E 		.ascii	"branch revision 240496] -mcpu=cortex-m4 -mthumb -mn"
 2391      63682072 
ARM GAS  C:\msys64\tmp\ccqo0o8e.s 			page 45


 2391      65766973 
 2391      696F6E20 
 2391      32343034 
 2392 0286 6F2D7468 		.ascii	"o-thumb-interwork -mlittle-endian -mfloat-abi=hard "
 2392      756D622D 
 2392      696E7465 
 2392      72776F72 
 2392      6B202D6D 
 2393 02b9 2D6D6670 		.ascii	"-mfpu=fpv4-sp-d16 -g -Os -std=c++11 -fsingle-precis"
 2393      753D6670 
 2393      76342D73 
 2393      702D6431 
 2393      36202D67 
 2394 02ec 696F6E2D 		.ascii	"ion-constant -fcheck-new -fno-rtti -fno-exceptions "
 2394      636F6E73 
 2394      74616E74 
 2394      202D6663 
 2394      6865636B 
 2395 031f 2D666E6F 		.ascii	"-fno-non-call-exceptions\000"
 2395      2D6E6F6E 
 2395      2D63616C 
 2395      6C2D6578 
 2395      63657074 
 2396              	.LASF11:
 2397 0338 6C6F6E67 		.ascii	"long long unsigned int\000"
 2397      206C6F6E 
 2397      6720756E 
 2397      7369676E 
 2397      65642069 
 2398              	.LASF15:
 2399 034f 75696E74 		.ascii	"uint32_t\000"
 2399      33325F74 
 2399      00
 2400              	.LASF12:
 2401 0358 756E7369 		.ascii	"unsigned int\000"
 2401      676E6564 
 2401      20696E74 
 2401      00
 2402              	.LASF5:
 2403 0365 5F5F7569 		.ascii	"__uint8_t\000"
 2403      6E74385F 
 2403      7400
 2404              	.LASF27:
 2405 036f 6D4C696E 		.ascii	"mLine\000"
 2405      6500
 2406              	.LASF40:
 2407 0375 5F5A4E33 		.ascii	"_ZN3dsp9DelayLine5writeEf\000"
 2407      64737039 
 2407      44656C61 
 2407      794C696E 
 2407      65357772 
 2408              	.LASF37:
 2409 038f 5F5A4E33 		.ascii	"_ZN3dsp9DelayLine5clearEv\000"
 2409      64737039 
 2409      44656C61 
 2409      794C696E 
 2409      6535636C 
ARM GAS  C:\msys64\tmp\ccqo0o8e.s 			page 46


 2410              	.LASF36:
 2411 03a9 7365744D 		.ascii	"setMemory\000"
 2411      656D6F72 
 2411      7900
 2412              	.LASF4:
 2413 03b3 73686F72 		.ascii	"short unsigned int\000"
 2413      7420756E 
 2413      7369676E 
 2413      65642069 
 2413      6E7400
 2414              	.LASF64:
 2415 03c6 77745F73 		.ascii	"wt_sine_lut_f\000"
 2415      696E655F 
 2415      6C75745F 
 2415      6600
 2416              	.LASF73:
 2417 03d4 735F6465 		.ascii	"s_delay_ram\000"
 2417      6C61795F 
 2417      72616D00 
 2418              	.LASF31:
 2419 03e0 6D577269 		.ascii	"mWriteIdx\000"
 2419      74654964 
 2419      7800
 2420              	.LASF19:
 2421 03ea 63686172 		.ascii	"char\000"
 2421      00
 2422              	.LASF45:
 2423 03ef 72656164 		.ascii	"readFracz\000"
 2423      46726163 
 2423      7A00
 2424              	.LASF14:
 2425 03f9 696E7433 		.ascii	"int32_t\000"
 2425      325F7400 
 2426              	.LASF82:
 2427 0401 6275665F 		.ascii	"buf_clr_f32\000"
 2427      636C725F 
 2427      66333200 
 2428              	.LASF60:
 2429 040d 76616C75 		.ascii	"value\000"
 2429      6500
 2430              	.LASF83:
 2431 0413 5F5F7374 		.ascii	"__static_initialization_and_destruction_0\000"
 2431      61746963 
 2431      5F696E69 
 2431      7469616C 
 2431      697A6174 
 2432              	.LASF52:
 2433 043d 5F5F7072 		.ascii	"__priority\000"
 2433      696F7269 
 2433      747900
 2434              	.LASF47:
 2435 0448 74686973 		.ascii	"this\000"
 2435      00
 2436              	.LASF80:
 2437 044d 433A5C75 		.ascii	"C:\\users\\bradl\\desktop\\Code Projects\\KorgFX\\K"
 2437      73657273 
 2437      5C627261 
ARM GAS  C:\msys64\tmp\ccqo0o8e.s 			page 47


 2437      646C5C64 
 2437      65736B74 
 2438 047a 6F726744 		.ascii	"orgDelayFX\\MonoDelay\\platform\\minilogue-xd\\Mono"
 2438      656C6179 
 2438      46585C4D 
 2438      6F6E6F44 
 2438      656C6179 
 2439 04a9 44656C61 		.ascii	"Delay\000"
 2439      7900
 2440              	.LASF66:
 2441 04af 74616E70 		.ascii	"tanpi_lut_f\000"
 2441      695F6C75 
 2441      745F6600 
 2442              	.LASF24:
 2443 04bb 6B5F7573 		.ascii	"k_user_module_revfx\000"
 2443      65725F6D 
 2443      6F64756C 
 2443      655F7265 
 2443      76667800 
 2444              	.LASF54:
 2445 04cf 706C6174 		.ascii	"platform\000"
 2445      666F726D 
 2445      00
 2446              	.LASF9:
 2447 04d8 6C6F6E67 		.ascii	"long unsigned int\000"
 2447      20756E73 
 2447      69676E65 
 2447      6420696E 
 2447      7400
 2448              	.LASF61:
 2449 04ea 76616C66 		.ascii	"valf\000"
 2449      00
 2450              	.LASF76:
 2451 04ef 6761696E 		.ascii	"gain\000"
 2451      00
 2452              	.LASF43:
 2453 04f4 72656164 		.ascii	"readFrac\000"
 2453      46726163 
 2453      00
 2454              	.LASF6:
 2455 04fd 5F5F696E 		.ascii	"__int32_t\000"
 2455      7433325F 
 2455      7400
 2456              	.LASF77:
 2457 0507 77657458 		.ascii	"wetXN\000"
 2457      4E00
 2458              	.LASF13:
 2459 050d 75696E74 		.ascii	"uint8_t\000"
 2459      385F7400 
 2460              	.LASF33:
 2461 0515 5F5A4E33 		.ascii	"_ZN3dsp9DelayLineC4Ev\000"
 2461      64737039 
 2461      44656C61 
 2461      794C696E 
 2461      65433445 
 2462              	.LASF85:
 2463 052b 5F66785F 		.ascii	"_fx_get_bpm\000"
ARM GAS  C:\msys64\tmp\ccqo0o8e.s 			page 48


 2463      6765745F 
 2463      62706D00 
 2464              	.LASF72:
 2465 0537 735F6465 		.ascii	"s_delay\000"
 2465      6C617900 
 2466              	.LASF67:
 2467 053f 73717274 		.ascii	"sqrtm2log_lut_f\000"
 2467      6D326C6F 
 2467      675F6C75 
 2467      745F6600 
 2468              	.LASF49:
 2469 054f 6E657874 		.ascii	"nextpow2_u32\000"
 2469      706F7732 
 2469      5F753332 
 2469      00
 2470              	.LASF20:
 2471 055c 646F7562 		.ascii	"double\000"
 2471      6C6500
 2472              	.LASF42:
 2473 0563 5F5A4E33 		.ascii	"_ZN3dsp9DelayLine4readEm\000"
 2473      64737039 
 2473      44656C61 
 2473      794C696E 
 2473      65347265 
 2474              	.LASF63:
 2475 057c 6B5F6678 		.ascii	"k_fx_api_version\000"
 2475      5F617069 
 2475      5F766572 
 2475      73696F6E 
 2475      00
 2476              	.LASF55:
 2477 058d 5F686F6F 		.ascii	"_hook_process\000"
 2477      6B5F7072 
 2477      6F636573 
 2477      7300
 2478              	.LASF23:
 2479 059b 6B5F7573 		.ascii	"k_user_module_delfx\000"
 2479      65725F6D 
 2479      6F64756C 
 2479      655F6465 
 2479      6C667800 
 2480              	.LASF57:
 2481 05af 64656C53 		.ascii	"delSample\000"
 2481      616D706C 
 2481      6500
 2482              	.LASF34:
 2483 05b9 5F5A4E33 		.ascii	"_ZN3dsp9DelayLineC4EPfj\000"
 2483      64737039 
 2483      44656C61 
 2483      794C696E 
 2483      65433445 
 2484              		.ident	"GCC: (GNU Tools for ARM Embedded Processors) 5.4.1 20160919 (release) [ARM/embedded-5-bran
ARM GAS  C:\msys64\tmp\ccqo0o8e.s 			page 49


DEFINED SYMBOLS
                            *ABS*:00000000 monodelay.cpp
C:\msys64\tmp\ccqo0o8e.s:21     .text:00000000 $t
C:\msys64\tmp\ccqo0o8e.s:26     .text:00000000 _hook_init
C:\msys64\tmp\ccqo0o8e.s:116    .text:00000058 $d
C:\msys64\tmp\ccqo0o8e.s:122    .text:00000064 $t
C:\msys64\tmp\ccqo0o8e.s:127    .text:00000064 _hook_process
C:\msys64\tmp\ccqo0o8e.s:250    .text:000000dc $d
C:\msys64\tmp\ccqo0o8e.s:255    .text:000000e0 $t
C:\msys64\tmp\ccqo0o8e.s:260    .text:000000e0 _hook_param
C:\msys64\tmp\ccqo0o8e.s:364    .text:00000178 $d
C:\msys64\tmp\ccqo0o8e.s:372    .text.startup:00000000 $t
C:\msys64\tmp\ccqo0o8e.s:376    .text.startup:00000000 _GLOBAL__sub_I_s_len
C:\msys64\tmp\ccqo0o8e.s:401    .text.startup:00000014 $d
C:\msys64\tmp\ccqo0o8e.s:409    .init_array:00000000 $d
C:\msys64\tmp\ccqo0o8e.s:423    .bss:00000014 bpm
C:\msys64\tmp\ccqo0o8e.s:439    .bss:00000024 wetXN
C:\msys64\tmp\ccqo0o8e.s:427    .bss:00000018 s_len
C:\msys64\tmp\ccqo0o8e.s:415    .bss:00000000 $d
C:\msys64\tmp\ccqo0o8e.s:419    .bss:00000000 _ZL7s_delay
C:\msys64\tmp\ccqo0o8e.s:431    .bss:0000001c _ZL5s_mix
C:\msys64\tmp\ccqo0o8e.s:435    .bss:00000020 _ZL4gain
C:\msys64\tmp\ccqo0o8e.s:442    .sdram:00000000 $d
C:\msys64\tmp\ccqo0o8e.s:446    .sdram:00000000 _ZL11s_delay_ram
                     .debug_frame:00000010 $d

UNDEFINED SYMBOLS
_fx_get_bpm
