ARM GAS  C:\msys64\tmp\ccU2jgeq.s 			page 1


   1              		.syntax unified
   2              		.cpu cortex-m4
   3              		.eabi_attribute 27, 1
   4              		.eabi_attribute 28, 1
   5              		.fpu fpv4-sp-d16
   6              		.eabi_attribute 20, 1
   7              		.eabi_attribute 21, 1
   8              		.eabi_attribute 23, 3
   9              		.eabi_attribute 24, 1
  10              		.eabi_attribute 25, 1
  11              		.eabi_attribute 26, 1
  12              		.eabi_attribute 30, 4
  13              		.eabi_attribute 34, 1
  14              		.eabi_attribute 18, 4
  15              		.thumb
  16              		.syntax unified
  17              		.file	"monodelay.cpp"
  18              		.text
  19              	.Ltext0:
  20              		.cfi_sections	.debug_frame
  21              		.align	1
  22              		.global	_Z13calculate_lenf
  23              		.thumb
  24              		.thumb_func
  25              		.type	_Z13calculate_lenf, %function
  26              	_Z13calculate_lenf:
  27              	.LFB515:
  28              		.file 1 "./src/monodelay.cpp"
  29              		.loc 1 26 0
  30              		.cfi_startproc
  31              		@ args = 0, pretend = 0, frame = 0
  32              		@ frame_needed = 0, uses_anonymous_args = 0
  33              	.LVL0:
  34 0000 10B5     		push	{r4, lr}
  35              		.cfi_def_cfa_offset 8
  36              		.cfi_offset 4, -8
  37              		.cfi_offset 14, -4
  38              		.loc 1 27 0
  39 0002 F5EE007A 		vmov.f32	s15, #2.5e-1
  40 0006 B4EEE70A 		vcmpe.f32	s0, s15
  41 000a F1EE10FA 		vmrs	APSR_nzcv, FPSCR
  42              		.loc 1 26 0
  43 000e 2DED028B 		vpush.64	{d8}
  44              		.cfi_def_cfa_offset 16
  45              		.cfi_offset 80, -16
  46              		.cfi_offset 81, -12
  47 0012 1C4C     		ldr	r4, .L16
  48 0014 9FED1C8A 		vldr.32	s16, .L16+4
  49              		.loc 1 27 0
  50 0018 0AD5     		bpl	.L12
  51              		.loc 1 30 0
  52 001a FFF7FEFF 		bl	_fx_get_bpmf
  53              	.LVL1:
  54 001e 88EE000A 		vdiv.f32	s0, s16, s0
  55 0022 F1EE007A 		vmov.f32	s15, #4.0e+0
  56 0026 20EE270A 		vmul.f32	s0, s0, s15
  57 002a 84ED000A 		vstr.32	s0, [r4]
ARM GAS  C:\msys64\tmp\ccU2jgeq.s 			page 2


  58 002e 25E0     		b	.L1
  59              	.LVL2:
  60              	.L12:
  61              		.loc 1 32 0
  62 0030 F6EE008A 		vmov.f32	s17, #5.0e-1
  63 0034 B4EEE80A 		vcmpe.f32	s0, s17
  64 0038 F1EE10FA 		vmrs	APSR_nzcv, FPSCR
  65 003c 08D5     		bpl	.L13
  66              	.LVL3:
  67              	.LBB54:
  68              	.LBB55:
  69              		.loc 1 35 0
  70 003e FFF7FEFF 		bl	_fx_get_bpmf
  71              	.LVL4:
  72 0042 88EE000A 		vdiv.f32	s0, s16, s0
  73 0046 30EE000A 		vadd.f32	s0, s0, s0
  74 004a 84ED000A 		vstr.32	s0, [r4]
  75 004e 15E0     		b	.L1
  76              	.LVL5:
  77              	.L13:
  78              	.LBE55:
  79              	.LBE54:
  80              		.loc 1 37 0
  81 0050 F6EE087A 		vmov.f32	s15, #7.5e-1
  82 0054 B4EEE70A 		vcmpe.f32	s0, s15
  83 0058 F1EE10FA 		vmrs	APSR_nzcv, FPSCR
  84 005c 06D5     		bpl	.L14
  85              		.loc 1 40 0
  86 005e FFF7FEFF 		bl	_fx_get_bpmf
  87              	.LVL6:
  88 0062 88EE000A 		vdiv.f32	s0, s16, s0
  89 0066 84ED000A 		vstr.32	s0, [r4]
  90 006a 07E0     		b	.L1
  91              	.LVL7:
  92              	.L14:
  93              		.loc 1 45 0
  94 006c FFF7FEFF 		bl	_fx_get_bpmf
  95              	.LVL8:
  96 0070 88EE000A 		vdiv.f32	s0, s16, s0
  97 0074 20EE280A 		vmul.f32	s0, s0, s17
  98 0078 84ED000A 		vstr.32	s0, [r4]
  99              	.L1:
 100              		.loc 1 47 0
 101 007c BDEC028B 		vldm	sp!, {d8}
 102              		.cfi_restore 80
 103              		.cfi_restore 81
 104              		.cfi_def_cfa_offset 8
 105 0080 10BD     		pop	{r4, pc}
 106              	.L17:
 107 0082 00BF     		.align	2
 108              	.L16:
 109 0084 00000000 		.word	.LANCHOR0
 110 0088 00C82F4A 		.word	1244645376
 111              		.cfi_endproc
 112              	.LFE515:
 113              		.size	_Z13calculate_lenf, .-_Z13calculate_lenf
 114              		.align	1
ARM GAS  C:\msys64\tmp\ccU2jgeq.s 			page 3


 115              		.global	_hook_init
 116              		.thumb
 117              		.thumb_func
 118              		.type	_hook_init, %function
 119              	_hook_init:
 120              	.LFB516:
 121              		.loc 1 53 0
 122              		.cfi_startproc
 123              		@ args = 0, pretend = 0, frame = 0
 124              		@ frame_needed = 0, uses_anonymous_args = 0
 125              		@ link register save eliminated.
 126              	.LVL9:
 127              	.LBB56:
 128              	.LBB57:
 129              		.file 2 "../inc/dsp/delayline.hpp"
 130              		.loc 2 114 0
 131 008c 114A     		ldr	r2, .L21
 132 008e 124B     		ldr	r3, .L21+4
 133 0090 5360     		str	r3, [r2, #4]
 134              		.loc 2 115 0
 135 0092 4FF40021 		mov	r1, #524288
 136              	.LVL10:
 137 0096 D160     		str	r1, [r2, #12]
 138              		.loc 2 116 0
 139 0098 0139     		subs	r1, r1, #1
 140 009a 1161     		str	r1, [r2, #16]
 141 009c 1033     		adds	r3, r3, #16
 142              		.loc 2 117 0
 143 009e 0021     		movs	r1, #0
 144 00a0 5161     		str	r1, [r2, #20]
 145              	.LVL11:
 146 00a2 03F50010 		add	r0, r3, #2097152
 147              	.LVL12:
 148              	.LBE57:
 149              	.LBE56:
 150              	.LBB58:
 151              	.LBB59:
 152              	.LBB60:
 153              		.file 3 "../inc/utils/buffer_ops.h"
 154              		.loc 3 109 0
 155 00a6 0021     		movs	r1, #0
 156              	.LVL13:
 157              	.L19:
 158 00a8 43F8101C 		str	r1, [r3, #-16]	@ float
 159              	.LVL14:
 160 00ac 43F80C1C 		str	r1, [r3, #-12]	@ float
 161              	.LVL15:
 162 00b0 43F8081C 		str	r1, [r3, #-8]	@ float
 163              	.LVL16:
 164 00b4 43F8041C 		str	r1, [r3, #-4]	@ float
 165 00b8 1033     		adds	r3, r3, #16
 166              	.LVL17:
 167              		.loc 3 108 0
 168 00ba 9842     		cmp	r0, r3
 169 00bc F4D1     		bne	.L19
 170              	.LVL18:
 171              	.LBE60:
ARM GAS  C:\msys64\tmp\ccU2jgeq.s 			page 4


 172              	.LBE59:
 173              	.LBE58:
 174              		.loc 1 56 0
 175 00be B6EE000A 		vmov.f32	s0, #5.0e-1
 176 00c2 82ED060A 		vstr.32	s0, [r2, #24]
 177              		.loc 1 57 0
 178 00c6 82ED070A 		vstr.32	s0, [r2, #28]
 179              		.loc 1 58 0
 180 00ca 82ED080A 		vstr.32	s0, [r2, #32]
 181              		.loc 1 59 0
 182 00ce FFF7FEBF 		b	_Z13calculate_lenf
 183              	.LVL19:
 184              	.L22:
 185 00d2 00BF     		.align	2
 186              	.L21:
 187 00d4 00000000 		.word	.LANCHOR0
 188 00d8 00000000 		.word	.LANCHOR1
 189              		.cfi_endproc
 190              	.LFE516:
 191              		.size	_hook_init, .-_hook_init
 192              		.align	1
 193              		.global	_hook_process
 194              		.thumb
 195              		.thumb_func
 196              		.type	_hook_process, %function
 197              	_hook_process:
 198              	.LFB517:
 199              		.loc 1 63 0
 200              		.cfi_startproc
 201              		@ args = 0, pretend = 0, frame = 0
 202              		@ frame_needed = 0, uses_anonymous_args = 0
 203              	.LVL20:
 204 00dc 2DE9F041 		push	{r4, r5, r6, r7, r8, lr}
 205              		.cfi_def_cfa_offset 24
 206              		.cfi_offset 4, -24
 207              		.cfi_offset 5, -20
 208              		.cfi_offset 6, -16
 209              		.cfi_offset 7, -12
 210              		.cfi_offset 8, -8
 211              		.cfi_offset 14, -4
 212              		.loc 1 66 0
 213 00e0 694C     		ldr	r4, .L27
 214              		.loc 1 63 0
 215 00e2 2DED028B 		vpush.64	{d8}
 216              		.cfi_def_cfa_offset 32
 217              		.cfi_offset 80, -32
 218              		.cfi_offset 81, -28
 219              		.loc 1 65 0
 220 00e6 CF00     		lsls	r7, r1, #3
 221              		.loc 1 69 0
 222 00e8 94ED080A 		vldr.32	s0, [r4, #32]
 223              		.loc 1 66 0
 224 00ec D4ED068A 		vldr.32	s17, [r4, #24]
 225              		.loc 1 67 0
 226 00f0 94ED078A 		vldr.32	s16, [r4, #28]
 227              		.loc 1 63 0
 228 00f4 0546     		mov	r5, r0
ARM GAS  C:\msys64\tmp\ccU2jgeq.s 			page 5


 229              		.loc 1 65 0
 230 00f6 00EB0708 		add	r8, r0, r7
 231              	.LVL21:
 232              		.loc 1 69 0
 233 00fa FFF7FEFF 		bl	_Z13calculate_lenf
 234              	.LVL22:
 235 00fe 6669     		ldr	r6, [r4, #20]
 236              	.LBB61:
 237              	.LBB62:
 238              	.LBB63:
 239              	.LBB64:
 240              	.LBB65:
 241              	.LBB66:
 242              		.loc 2 138 0
 243 0100 6168     		ldr	r1, [r4, #4]
 244 0102 D4F810E0 		ldr	lr, [r4, #16]
 245              	.LBE66:
 246              	.LBE65:
 247              	.LBE64:
 248              	.LBE63:
 249              		.loc 1 82 0
 250 0106 9FED613A 		vldr.32	s6, .L27+4
 251 010a DFED613A 		vldr.32	s7, .L27+8
 252 010e 9FED614A 		vldr.32	s8, .L27+12
 253 0112 DFED614A 		vldr.32	s9, .L27+16
 254 0116 9FED615A 		vldr.32	s10, .L27+20
 255 011a DFED615A 		vldr.32	s11, .L27+24
 256 011e 9FED616A 		vldr.32	s12, .L27+28
 257 0122 DFED616A 		vldr.32	s13, .L27+32
 258 0126 2846     		mov	r0, r5
 259              	.LBB87:
 260              	.LBB83:
 261              	.LBB69:
 262              	.LBB67:
 263              		.loc 2 138 0
 264 0128 3246     		mov	r2, r6
 265              	.LBE67:
 266              	.LBE69:
 267              	.LBE83:
 268              	.LBE87:
 269              	.LBB88:
 270              	.LBB89:
 271              		.loc 1 22 0
 272 012a F6EE002A 		vmov.f32	s5, #5.0e-1
 273              	.LVL23:
 274              	.L25:
 275              	.LBE89:
 276              	.LBE88:
 277              	.LBE62:
 278              		.loc 1 71 0 discriminator 2
 279 012e 8045     		cmp	r8, r0
 280 0130 00F10805 		add	r5, r0, #8
 281 0134 A2F1020C 		sub	ip, r2, #2
 282 0138 00F09F80 		beq	.L24
 283              	.LBB119:
 284              		.loc 1 73 0 discriminator 1
 285 013c 94ED007A 		vldr.32	s14, [r4]
ARM GAS  C:\msys64\tmp\ccU2jgeq.s 			page 6


 286              	.LVL24:
 287              	.LBB93:
 288              	.LBB84:
 289              		.loc 2 149 0 discriminator 1
 290 0140 FCEEC77A 		vcvt.u32.f32	s15, s14
 291              	.LBE84:
 292              	.LBE93:
 293              		.loc 1 82 0 discriminator 1
 294 0144 F0EE441A 		vmov.f32	s3, s8
 295              	.LBB94:
 296              	.LBB85:
 297              		.loc 2 149 0 discriminator 1
 298 0148 17EE903A 		vmov	r3, s15	@ int
 299              	.LVL25:
 300              	.LBB70:
 301              	.LBB68:
 302              		.loc 2 138 0 discriminator 1
 303 014c 9818     		adds	r0, r3, r2
 304              	.LVL26:
 305 014e 00EA0E00 		and	r0, r0, lr
 306 0152 01EB8000 		add	r0, r1, r0, lsl #2
 307 0156 D0ED007A 		vldr.32	s15, [r0]
 308              	.LVL27:
 309              	.LBE68:
 310              	.LBE70:
 311              	.LBB71:
 312              	.LBB72:
 313              		.file 4 "../inc/utils/float_math.h"
 314              		.loc 4 826 0 discriminator 1
 315 015a 02EE103A 		vmov	s4, r3	@ int
 316              	.LBE72:
 317              	.LBE71:
 318              	.LBB76:
 319              	.LBB77:
 320              		.loc 2 138 0 discriminator 1
 321 015e 501C     		adds	r0, r2, #1
 322 0160 0344     		add	r3, r3, r0
 323              	.LVL28:
 324              	.LBE77:
 325              	.LBE76:
 326              	.LBB79:
 327              	.LBB73:
 328              		.loc 4 826 0 discriminator 1
 329 0162 B8EE422A 		vcvt.f32.u32	s4, s4
 330              	.LVL29:
 331              	.LBE73:
 332              	.LBE79:
 333              	.LBB80:
 334              	.LBB78:
 335              		.loc 2 138 0 discriminator 1
 336 0166 03EA0E03 		and	r3, r3, lr
 337 016a 01EB8303 		add	r3, r1, r3, lsl #2
 338              	.LBE78:
 339              	.LBE80:
 340              	.LBB81:
 341              	.LBB74:
 342              		.loc 4 826 0 discriminator 1
ARM GAS  C:\msys64\tmp\ccU2jgeq.s 			page 7


 343 016e 37EE427A 		vsub.f32	s14, s14, s4
 344              	.LVL30:
 345 0172 93ED002A 		vldr.32	s4, [r3]
 346 0176 32EE672A 		vsub.f32	s4, s4, s15
 347              	.LBE74:
 348              	.LBE81:
 349              	.LBE85:
 350              	.LBE94:
 351              	.LBB95:
 352              	.LBB96:
 353              		.loc 2 127 0 discriminator 1
 354 017a 0EEA0203 		and	r3, lr, r2
 355              	.LBE96:
 356              	.LBE95:
 357              	.LBB101:
 358              	.LBB86:
 359              	.LBB82:
 360              	.LBB75:
 361              		.loc 4 826 0 discriminator 1
 362 017e E7EE027A 		vfma.f32	s15, s14, s4
 363              	.LVL31:
 364              	.LBE75:
 365              	.LBE82:
 366              	.LBE86:
 367              	.LBE101:
 368              	.LBB102:
 369              	.LBB97:
 370              		.loc 2 127 0 discriminator 1
 371 0182 01EB8303 		add	r3, r1, r3, lsl #2
 372              	.LBE97:
 373              	.LBE102:
 374              	.LBB103:
 375              	.LBB104:
 376 0186 013A     		subs	r2, r2, #1
 377 0188 02EA0E02 		and	r2, r2, lr
 378              	.LBE104:
 379              	.LBE103:
 380              		.loc 1 76 0 discriminator 1
 381 018c 28EEA77A 		vmul.f32	s14, s17, s15
 382              	.LBB108:
 383              	.LBB105:
 384              		.loc 2 127 0 discriminator 1
 385 0190 01EB8202 		add	r2, r1, r2, lsl #2
 386              	.LBE105:
 387              	.LBE108:
 388              		.loc 1 76 0 discriminator 1
 389 0194 84ED097A 		vstr.32	s14, [r4, #36]
 390              		.loc 1 77 0 discriminator 1
 391 0198 84ED0A7A 		vstr.32	s14, [r4, #40]
 392              	.LVL32:
 393              	.LBB109:
 394              	.LBB98:
 395              		.loc 2 127 0 discriminator 1
 396 019c 15ED027A 		vldr.32	s14, [r5, #-8]
 397 01a0 37EE877A 		vadd.f32	s14, s15, s14
 398              	.LBE98:
 399              	.LBE109:
ARM GAS  C:\msys64\tmp\ccU2jgeq.s 			page 8


 400              	.LBB110:
 401              	.LBB90:
 402              		.loc 1 22 0 discriminator 1
 403 01a4 B7EE082A 		vmov.f32	s4, #1.5e+0
 404              	.LBE90:
 405              	.LBE110:
 406              	.LBB111:
 407              	.LBB99:
 408              		.loc 2 127 0 discriminator 1
 409 01a8 27EE087A 		vmul.f32	s14, s14, s16
 410              	.LVL33:
 411              	.LBE99:
 412              	.LBE111:
 413              		.loc 1 82 0 discriminator 1
 414 01ac B0EE461A 		vmov.f32	s2, s12
 415              	.LBB112:
 416              	.LBB100:
 417              		.loc 2 127 0 discriminator 1
 418 01b0 83ED007A 		vstr.32	s14, [r3]
 419              	.LVL34:
 420              	.LBE100:
 421              	.LBE112:
 422              	.LBB113:
 423              	.LBB106:
 424 01b4 15ED017A 		vldr.32	s14, [r5, #-4]
 425 01b8 77EE877A 		vadd.f32	s15, s15, s14
 426              	.LVL35:
 427              	.LBE106:
 428              	.LBE113:
 429              	.LBE119:
 430              		.loc 1 71 0 discriminator 1
 431 01bc 2846     		mov	r0, r5
 432              	.LBB120:
 433              	.LBB114:
 434              	.LBB107:
 435              		.loc 2 127 0 discriminator 1
 436 01be 67EE887A 		vmul.f32	s15, s15, s16
 437              	.LVL36:
 438 01c2 C2ED007A 		vstr.32	s15, [r2]
 439              	.LVL37:
 440              	.LBE107:
 441              	.LBE114:
 442              		.loc 1 82 0 discriminator 1
 443 01c6 94ED097A 		vldr.32	s14, [r4, #36]
 444              	.LVL38:
 445              	.LBB115:
 446              	.LBB91:
 447              		.loc 1 22 0 discriminator 1
 448 01ca 67EE077A 		vmul.f32	s15, s14, s14
 449              	.LBE91:
 450              	.LBE115:
 451              	.LBE120:
 452              		.loc 1 71 0 discriminator 1
 453 01ce 6246     		mov	r2, ip
 454              	.LBB121:
 455              	.LBB116:
 456              	.LBB92:
ARM GAS  C:\msys64\tmp\ccU2jgeq.s 			page 9


 457              		.loc 1 22 0 discriminator 1
 458 01d0 67EE877A 		vmul.f32	s15, s15, s14
 459 01d4 62EEE77A 		vnmul.f32	s15, s5, s15
 460 01d8 E7EE027A 		vfma.f32	s15, s14, s4
 461              	.LVL39:
 462              	.LBE92:
 463              	.LBE116:
 464              		.loc 1 82 0 discriminator 1
 465 01dc B0EE637A 		vmov.f32	s14, s7
 466 01e0 A7EE837A 		vfma.f32	s14, s15, s6
 467 01e4 E7EE271A 		vfma.f32	s3, s14, s15
 468 01e8 B0EE617A 		vmov.f32	s14, s3
 469 01ec F0EE641A 		vmov.f32	s3, s9
 470 01f0 E7EE271A 		vfma.f32	s3, s14, s15
 471 01f4 B0EE657A 		vmov.f32	s14, s11
 472 01f8 A7EE857A 		vfma.f32	s14, s15, s10
 473 01fc A7EE271A 		vfma.f32	s2, s14, s15
 474 0200 B0EE417A 		vmov.f32	s14, s2
 475 0204 B0EE661A 		vmov.f32	s2, s13
 476 0208 A7EE271A 		vfma.f32	s2, s14, s15
 477 020c 55ED027A 		vldr.32	s15, [r5, #-8]
 478 0210 81EE817A 		vdiv.f32	s14, s3, s2
 479              		.loc 1 83 0 discriminator 1
 480 0214 F0EE461A 		vmov.f32	s3, s12
 481              		.loc 1 82 0 discriminator 1
 482 0218 77EE877A 		vadd.f32	s15, s15, s14
 483 021c 45ED027A 		vstr.32	s15, [r5, #-8]
 484              		.loc 1 83 0 discriminator 1
 485 0220 94ED0A7A 		vldr.32	s14, [r4, #40]
 486              	.LVL40:
 487              	.LBB117:
 488              	.LBB118:
 489              		.loc 1 22 0 discriminator 1
 490 0224 67EE077A 		vmul.f32	s15, s14, s14
 491 0228 67EE877A 		vmul.f32	s15, s15, s14
 492 022c 62EEE77A 		vnmul.f32	s15, s5, s15
 493 0230 E7EE027A 		vfma.f32	s15, s14, s4
 494              	.LVL41:
 495              	.LBE118:
 496              	.LBE117:
 497              		.loc 1 83 0 discriminator 1
 498 0234 B0EE637A 		vmov.f32	s14, s7
 499 0238 A7EE837A 		vfma.f32	s14, s15, s6
 500 023c B0EE442A 		vmov.f32	s4, s8
 501 0240 A7EE272A 		vfma.f32	s4, s14, s15
 502 0244 B0EE427A 		vmov.f32	s14, s4
 503 0248 B0EE642A 		vmov.f32	s4, s9
 504 024c A7EE272A 		vfma.f32	s4, s14, s15
 505 0250 B0EE657A 		vmov.f32	s14, s11
 506 0254 A7EE857A 		vfma.f32	s14, s15, s10
 507 0258 E7EE271A 		vfma.f32	s3, s14, s15
 508 025c B0EE617A 		vmov.f32	s14, s3
 509 0260 F0EE661A 		vmov.f32	s3, s13
 510 0264 E7EE271A 		vfma.f32	s3, s14, s15
 511 0268 55ED017A 		vldr.32	s15, [r5, #-4]
 512 026c 82EE217A 		vdiv.f32	s14, s4, s3
 513 0270 77EE877A 		vadd.f32	s15, s15, s14
ARM GAS  C:\msys64\tmp\ccU2jgeq.s 			page 10


 514 0274 45ED017A 		vstr.32	s15, [r5, #-4]
 515              	.LVL42:
 516              	.LBE121:
 517              		.loc 1 71 0 discriminator 1
 518 0278 59E7     		b	.L25
 519              	.LVL43:
 520              	.L24:
 521              	.LBE61:
 522              		.loc 1 85 0
 523 027a BDEC028B 		vldm	sp!, {d8}
 524              		.cfi_restore 80
 525              		.cfi_restore 81
 526              		.cfi_def_cfa_offset 24
 527              	.LVL44:
 528 027e A6EB9706 		sub	r6, r6, r7, lsr #2
 529 0282 6661     		str	r6, [r4, #20]
 530 0284 BDE8F081 		pop	{r4, r5, r6, r7, r8, pc}
 531              	.LVL45:
 532              	.L28:
 533              		.align	2
 534              	.L27:
 535 0288 00000000 		.word	.LANCHOR0
 536 028c 3684093D 		.word	1024033846
 537 0290 72146F3D 		.word	1030689906
 538 0294 0CBD7C3E 		.word	1048362252
 539 0298 C847E2B6 		.word	-1226684472
 540 029c FF7EEB3C 		.word	1022066431
 541 02a0 4D74DE3D 		.word	1037988941
 542 02a4 AF96793D 		.word	1031378607
 543 02a8 75667C3E 		.word	1048340085
 544              		.cfi_endproc
 545              	.LFE517:
 546              		.size	_hook_process, .-_hook_process
 547              		.align	1
 548              		.global	_hook_param
 549              		.thumb
 550              		.thumb_func
 551              		.type	_hook_param, %function
 552              	_hook_param:
 553              	.LFB518:
 554              		.loc 1 88 0
 555              		.cfi_startproc
 556              		@ args = 0, pretend = 0, frame = 0
 557              		@ frame_needed = 0, uses_anonymous_args = 0
 558              		@ link register save eliminated.
 559              	.LVL46:
 560              		.loc 1 89 0
 561 02ac 07EE901A 		vmov	s15, r1	@ int
 562              		.loc 1 90 0
 563 02b0 0128     		cmp	r0, #1
 564              		.loc 1 89 0
 565 02b2 FAEEE07A 		vcvt.f32.s32	s15, s15, #31
 566              	.LVL47:
 567              		.loc 1 90 0
 568 02b6 07D0     		beq	.L31
 569 02b8 02D3     		bcc	.L32
 570 02ba 0328     		cmp	r0, #3
ARM GAS  C:\msys64\tmp\ccU2jgeq.s 			page 11


 571 02bc 08D0     		beq	.L33
 572 02be 7047     		bx	lr
 573              	.L32:
 574              		.loc 1 92 0
 575 02c0 054B     		ldr	r3, .L34
 576 02c2 C3ED077A 		vstr.32	s15, [r3, #28]
 577              		.loc 1 93 0
 578 02c6 7047     		bx	lr
 579              	.L31:
 580              		.loc 1 95 0
 581 02c8 034B     		ldr	r3, .L34
 582 02ca C3ED087A 		vstr.32	s15, [r3, #32]
 583              		.loc 1 96 0
 584 02ce 7047     		bx	lr
 585              	.L33:
 586              		.loc 1 98 0
 587 02d0 014B     		ldr	r3, .L34
 588 02d2 C3ED067A 		vstr.32	s15, [r3, #24]
 589 02d6 7047     		bx	lr
 590              	.L35:
 591              		.align	2
 592              	.L34:
 593 02d8 00000000 		.word	.LANCHOR0
 594              		.cfi_endproc
 595              	.LFE518:
 596              		.size	_hook_param, .-_hook_param
 597              		.section	.text.startup,"ax",%progbits
 598              		.align	1
 599              		.thumb
 600              		.thumb_func
 601              		.type	_GLOBAL__sub_I_s_len, %function
 602              	_GLOBAL__sub_I_s_len:
 603              	.LFB520:
 604              		.loc 1 103 0
 605              		.cfi_startproc
 606              		@ args = 0, pretend = 0, frame = 0
 607              		@ frame_needed = 0, uses_anonymous_args = 0
 608              		@ link register save eliminated.
 609              	.LVL48:
 610              	.LBB127:
 611              	.LBB128:
 612              	.LBB129:
 613              		.loc 2 74 0
 614 0000 044B     		ldr	r3, .L37
 615 0002 0022     		movs	r2, #0
 616 0004 0021     		movs	r1, #0
 617 0006 5A60     		str	r2, [r3, #4]
 618 0008 9960     		str	r1, [r3, #8]	@ float
 619 000a DA60     		str	r2, [r3, #12]
 620 000c 1A61     		str	r2, [r3, #16]
 621 000e 5A61     		str	r2, [r3, #20]
 622              	.LVL49:
 623 0010 7047     		bx	lr
 624              	.L38:
 625 0012 00BF     		.align	2
 626              	.L37:
 627 0014 00000000 		.word	.LANCHOR0
ARM GAS  C:\msys64\tmp\ccU2jgeq.s 			page 12


 628              	.LBE129:
 629              	.LBE128:
 630              	.LBE127:
 631              		.cfi_endproc
 632              	.LFE520:
 633              		.size	_GLOBAL__sub_I_s_len, .-_GLOBAL__sub_I_s_len
 634              		.section	.init_array,"aw",%init_array
 635              		.align	2
 636 0000 00000000 		.word	_GLOBAL__sub_I_s_len(target1)
 637              		.global	bpm_valf
 638              		.global	wetXNR
 639              		.global	wetXNL
 640              		.global	wetXN
 641              		.global	gain
 642              		.global	s_mix
 643              		.global	s_len
 644              		.bss
 645              		.align	2
 646              		.set	.LANCHOR0,. + 0
 647              		.type	s_len, %object
 648              		.size	s_len, 4
 649              	s_len:
 650 0000 00000000 		.space	4
 651              		.type	_ZL7s_delay, %object
 652              		.size	_ZL7s_delay, 20
 653              	_ZL7s_delay:
 654 0004 00000000 		.space	20
 654      00000000 
 654      00000000 
 654      00000000 
 654      00000000 
 655              		.type	s_mix, %object
 656              		.size	s_mix, 4
 657              	s_mix:
 658 0018 00000000 		.space	4
 659              		.type	gain, %object
 660              		.size	gain, 4
 661              	gain:
 662 001c 00000000 		.space	4
 663              		.type	bpm_valf, %object
 664              		.size	bpm_valf, 4
 665              	bpm_valf:
 666 0020 00000000 		.space	4
 667              		.type	wetXNL, %object
 668              		.size	wetXNL, 4
 669              	wetXNL:
 670 0024 00000000 		.space	4
 671              		.type	wetXNR, %object
 672              		.size	wetXNR, 4
 673              	wetXNR:
 674 0028 00000000 		.space	4
 675              		.type	wetXN, %object
 676              		.size	wetXN, 4
 677              	wetXN:
 678 002c 00000000 		.space	4
 679              		.section	.sdram,"aw",%progbits
 680              		.align	2
ARM GAS  C:\msys64\tmp\ccU2jgeq.s 			page 13


 681              		.set	.LANCHOR1,. + 0
 682              		.type	_ZL11s_delay_ram, %object
 683              		.size	_ZL11s_delay_ram, 1920000
 684              	_ZL11s_delay_ram:
 685 0000 00000000 		.space	1920000
 685      00000000 
 685      00000000 
 685      00000000 
 685      00000000 
 686              		.text
 687              	.Letext0:
 688              		.file 5 "c:\\users\\bradl\\desktop\\code projects\\korgfx\\korgdelayfxset\\delays\\tools\\gcc\\gcc
 689              		.file 6 "c:\\users\\bradl\\desktop\\code projects\\korgfx\\korgdelayfxset\\delays\\tools\\gcc\\gcc
 690              		.file 7 "c:\\users\\bradl\\desktop\\code projects\\korgfx\\korgdelayfxset\\delays\\tools\\gcc\\gcc
 691              		.file 8 "c:\\users\\bradl\\desktop\\code projects\\korgfx\\korgdelayfxset\\delays\\tools\\gcc\\gcc
 692              		.file 9 "../inc/userdelfx.h"
 693              		.file 10 "<built-in>"
 694              		.file 11 "../inc/userprg.h"
 695              		.file 12 "c:\\users\\bradl\\desktop\\code projects\\korgfx\\korgdelayfxset\\delays\\tools\\gcc\\gc
 696              		.file 13 "c:\\users\\bradl\\desktop\\code projects\\korgfx\\korgdelayfxset\\delays\\tools\\gcc\\gc
 697              		.file 14 "c:\\users\\bradl\\desktop\\code projects\\korgfx\\korgdelayfxset\\delays\\tools\\gcc\\gc
 698              		.file 15 "../inc/utils/int_math.h"
 699              		.file 16 "../inc/fx_api.h"
 700              		.file 17 "../inc/osc_api.h"
 701              		.section	.debug_info,"",%progbits
 702              	.Ldebug_info0:
 703 0000 DF0A0000 		.4byte	0xadf
 704 0004 0400     		.2byte	0x4
 705 0006 00000000 		.4byte	.Ldebug_abbrev0
 706 000a 04       		.byte	0x4
 707 000b 01       		.uleb128 0x1
 708 000c 48000000 		.4byte	.LASF107
 709 0010 04       		.byte	0x4
 710 0011 90070000 		.4byte	.LASF108
 711 0015 CA060000 		.4byte	.LASF109
 712 0019 38010000 		.4byte	.Ldebug_ranges0+0x138
 713 001d 00000000 		.4byte	0
 714 0021 00000000 		.4byte	.Ldebug_line0
 715 0025 02       		.uleb128 0x2
 716 0026 04       		.byte	0x4
 717 0027 04       		.byte	0x4
 718 0028 C9010000 		.4byte	.LASF0
 719 002c 02       		.uleb128 0x2
 720 002d 04       		.byte	0x4
 721 002e 07       		.byte	0x7
 722 002f 60010000 		.4byte	.LASF1
 723 0033 02       		.uleb128 0x2
 724 0034 01       		.byte	0x1
 725 0035 06       		.byte	0x6
 726 0036 4A070000 		.4byte	.LASF2
 727 003a 03       		.uleb128 0x3
 728 003b 8B050000 		.4byte	.LASF6
 729 003f 05       		.byte	0x5
 730 0040 1D       		.byte	0x1d
 731 0041 45000000 		.4byte	0x45
 732 0045 02       		.uleb128 0x2
 733 0046 01       		.byte	0x1
ARM GAS  C:\msys64\tmp\ccU2jgeq.s 			page 14


 734 0047 08       		.byte	0x8
 735 0048 4A060000 		.4byte	.LASF3
 736 004c 02       		.uleb128 0x2
 737 004d 02       		.byte	0x2
 738 004e 05       		.byte	0x5
 739 004f DB040000 		.4byte	.LASF4
 740 0053 02       		.uleb128 0x2
 741 0054 02       		.byte	0x2
 742 0055 07       		.byte	0x7
 743 0056 56070000 		.4byte	.LASF5
 744 005a 03       		.uleb128 0x3
 745 005b 7B010000 		.4byte	.LASF7
 746 005f 05       		.byte	0x5
 747 0060 3F       		.byte	0x3f
 748 0061 65000000 		.4byte	0x65
 749 0065 02       		.uleb128 0x2
 750 0066 04       		.byte	0x4
 751 0067 05       		.byte	0x5
 752 0068 11050000 		.4byte	.LASF8
 753 006c 03       		.uleb128 0x3
 754 006d 58060000 		.4byte	.LASF9
 755 0071 05       		.byte	0x5
 756 0072 41       		.byte	0x41
 757 0073 77000000 		.4byte	0x77
 758 0077 02       		.uleb128 0x2
 759 0078 04       		.byte	0x4
 760 0079 07       		.byte	0x7
 761 007a FA050000 		.4byte	.LASF10
 762 007e 02       		.uleb128 0x2
 763 007f 08       		.byte	0x8
 764 0080 05       		.byte	0x5
 765 0081 C2030000 		.4byte	.LASF11
 766 0085 02       		.uleb128 0x2
 767 0086 08       		.byte	0x8
 768 0087 07       		.byte	0x7
 769 0088 02020000 		.4byte	.LASF12
 770 008c 04       		.uleb128 0x4
 771 008d 04       		.byte	0x4
 772 008e 05       		.byte	0x5
 773 008f 696E7400 		.ascii	"int\000"
 774 0093 03       		.uleb128 0x3
 775 0094 86030000 		.4byte	.LASF13
 776 0098 06       		.byte	0x6
 777 0099 18       		.byte	0x18
 778 009a 3A000000 		.4byte	0x3a
 779 009e 03       		.uleb128 0x3
 780 009f 1A060000 		.4byte	.LASF14
 781 00a3 06       		.byte	0x6
 782 00a4 2C       		.byte	0x2c
 783 00a5 5A000000 		.4byte	0x5a
 784 00a9 03       		.uleb128 0x3
 785 00aa A5010000 		.4byte	.LASF15
 786 00ae 06       		.byte	0x6
 787 00af 30       		.byte	0x30
 788 00b0 6C000000 		.4byte	0x6c
 789 00b4 03       		.uleb128 0x3
 790 00b5 6F020000 		.4byte	.LASF16
ARM GAS  C:\msys64\tmp\ccU2jgeq.s 			page 15


 791 00b9 07       		.byte	0x7
 792 00ba D8       		.byte	0xd8
 793 00bb 2C000000 		.4byte	0x2c
 794 00bf 02       		.uleb128 0x2
 795 00c0 08       		.byte	0x8
 796 00c1 04       		.byte	0x4
 797 00c2 87040000 		.4byte	.LASF17
 798 00c6 05       		.uleb128 0x5
 799 00c7 AC060000 		.4byte	.LASF110
 800 00cb 02       		.uleb128 0x2
 801 00cc 04       		.byte	0x4
 802 00cd 07       		.byte	0x7
 803 00ce D4050000 		.4byte	.LASF18
 804 00d2 02       		.uleb128 0x2
 805 00d3 01       		.byte	0x1
 806 00d4 08       		.byte	0x8
 807 00d5 45030000 		.4byte	.LASF19
 808 00d9 02       		.uleb128 0x2
 809 00da 08       		.byte	0x8
 810 00db 04       		.byte	0x4
 811 00dc 89070000 		.4byte	.LASF20
 812 00e0 03       		.uleb128 0x3
 813 00e1 0E030000 		.4byte	.LASF21
 814 00e5 08       		.byte	0x8
 815 00e6 AD       		.byte	0xad
 816 00e7 25000000 		.4byte	0x25
 817 00eb 03       		.uleb128 0x3
 818 00ec 3F000000 		.4byte	.LASF22
 819 00f0 08       		.byte	0x8
 820 00f1 AE       		.byte	0xae
 821 00f2 D9000000 		.4byte	0xd9
 822 00f6 06       		.uleb128 0x6
 823 00f7 01       		.byte	0x1
 824 00f8 45000000 		.4byte	0x45
 825 00fc 0B       		.byte	0xb
 826 00fd 35       		.byte	0x35
 827 00fe 27010000 		.4byte	0x127
 828 0102 07       		.uleb128 0x7
 829 0103 70060000 		.4byte	.LASF23
 830 0107 00       		.byte	0
 831 0108 07       		.uleb128 0x7
 832 0109 4B050000 		.4byte	.LASF24
 833 010d 01       		.byte	0x1
 834 010e 07       		.uleb128 0x7
 835 010f EE010000 		.4byte	.LASF25
 836 0113 02       		.byte	0x2
 837 0114 07       		.uleb128 0x7
 838 0115 76020000 		.4byte	.LASF26
 839 0119 03       		.byte	0x3
 840 011a 07       		.uleb128 0x7
 841 011b 75040000 		.4byte	.LASF27
 842 011f 04       		.byte	0x4
 843 0120 07       		.uleb128 0x7
 844 0121 FB030000 		.4byte	.LASF28
 845 0125 05       		.byte	0x5
 846 0126 00       		.byte	0
 847 0127 08       		.uleb128 0x8
ARM GAS  C:\msys64\tmp\ccU2jgeq.s 			page 16


 848 0128 01       		.byte	0x1
 849 0129 45000000 		.4byte	0x45
 850 012d 09       		.byte	0x9
 851 012e 43       		.byte	0x43
 852 012f 57020000 		.4byte	.LASF111
 853 0133 56010000 		.4byte	0x156
 854 0137 07       		.uleb128 0x7
 855 0138 AC050000 		.4byte	.LASF29
 856 013c 00       		.byte	0
 857 013d 07       		.uleb128 0x7
 858 013e E6020000 		.4byte	.LASF30
 859 0142 01       		.byte	0x1
 860 0143 07       		.uleb128 0x7
 861 0144 0E040000 		.4byte	.LASF31
 862 0148 02       		.byte	0x2
 863 0149 07       		.uleb128 0x7
 864 014a 85060000 		.4byte	.LASF32
 865 014e 03       		.byte	0x3
 866 014f 07       		.uleb128 0x7
 867 0150 8A020000 		.4byte	.LASF33
 868 0154 04       		.byte	0x4
 869 0155 00       		.byte	0
 870 0156 03       		.uleb128 0x3
 871 0157 5F050000 		.4byte	.LASF34
 872 015b 09       		.byte	0x9
 873 015c 4C       		.byte	0x4c
 874 015d 27010000 		.4byte	0x127
 875 0161 09       		.uleb128 0x9
 876 0162 04       		.byte	0x4
 877 0163 25000000 		.4byte	0x25
 878 0167 0A       		.uleb128 0xa
 879 0168 64737000 		.ascii	"dsp\000"
 880 016c 02       		.byte	0x2
 881 016d 33       		.byte	0x33
 882 016e BD020000 		.4byte	0x2bd
 883 0172 0B       		.uleb128 0xb
 884 0173 C4050000 		.4byte	.LASF40
 885 0177 14       		.byte	0x14
 886 0178 02       		.byte	0x2
 887 0179 38       		.byte	0x38
 888 017a 0C       		.uleb128 0xc
 889 017b CE050000 		.4byte	.LASF35
 890 017f 02       		.byte	0x2
 891 0180 B0       		.byte	0xb0
 892 0181 61010000 		.4byte	0x161
 893 0185 00       		.byte	0
 894 0186 0C       		.uleb128 0xc
 895 0187 82070000 		.4byte	.LASF36
 896 018b 02       		.byte	0x2
 897 018c B1       		.byte	0xb1
 898 018d 25000000 		.4byte	0x25
 899 0191 04       		.byte	0x4
 900 0192 0C       		.uleb128 0xc
 901 0193 55040000 		.4byte	.LASF37
 902 0197 02       		.byte	0x2
 903 0198 B2       		.byte	0xb2
 904 0199 B4000000 		.4byte	0xb4
ARM GAS  C:\msys64\tmp\ccU2jgeq.s 			page 17


 905 019d 08       		.byte	0x8
 906 019e 0C       		.uleb128 0xc
 907 019f E6030000 		.4byte	.LASF38
 908 01a3 02       		.byte	0x2
 909 01a4 B3       		.byte	0xb3
 910 01a5 B4000000 		.4byte	0xb4
 911 01a9 0C       		.byte	0xc
 912 01aa 0C       		.uleb128 0xc
 913 01ab DC030000 		.4byte	.LASF39
 914 01af 02       		.byte	0x2
 915 01b0 B4       		.byte	0xb4
 916 01b1 A9000000 		.4byte	0xa9
 917 01b5 10       		.byte	0x10
 918 01b6 0D       		.uleb128 0xd
 919 01b7 C4050000 		.4byte	.LASF40
 920 01bb 02       		.byte	0x2
 921 01bc 45       		.byte	0x45
 922 01bd 35040000 		.4byte	.LASF41
 923 01c1 BD020000 		.4byte	0x2bd
 924 01c5 CD010000 		.4byte	0x1cd
 925 01c9 D3010000 		.4byte	0x1d3
 926 01cd 0E       		.uleb128 0xe
 927 01ce BD020000 		.4byte	0x2bd
 928 01d2 00       		.byte	0
 929 01d3 0D       		.uleb128 0xd
 930 01d4 C4050000 		.4byte	.LASF40
 931 01d8 02       		.byte	0x2
 932 01d9 54       		.byte	0x54
 933 01da AA030000 		.4byte	.LASF42
 934 01de BD020000 		.4byte	0x2bd
 935 01e2 EA010000 		.4byte	0x1ea
 936 01e6 FA010000 		.4byte	0x1fa
 937 01ea 0E       		.uleb128 0xe
 938 01eb BD020000 		.4byte	0x2bd
 939 01ef 0F       		.uleb128 0xf
 940 01f0 61010000 		.4byte	0x161
 941 01f4 0F       		.uleb128 0xf
 942 01f5 B4000000 		.4byte	0xb4
 943 01f9 00       		.byte	0
 944 01fa 10       		.uleb128 0x10
 945 01fb 19020000 		.4byte	.LASF43
 946 01ff 02       		.byte	0x2
 947 0200 64       		.byte	0x64
 948 0201 30060000 		.4byte	.LASF45
 949 0205 0D020000 		.4byte	0x20d
 950 0209 13020000 		.4byte	0x213
 951 020d 0E       		.uleb128 0xe
 952 020e BD020000 		.4byte	0x2bd
 953 0212 00       		.byte	0
 954 0213 10       		.uleb128 0x10
 955 0214 3E020000 		.4byte	.LASF44
 956 0218 02       		.byte	0x2
 957 0219 71       		.byte	0x71
 958 021a 2B050000 		.4byte	.LASF46
 959 021e 26020000 		.4byte	0x226
 960 0222 36020000 		.4byte	0x236
 961 0226 0E       		.uleb128 0xe
ARM GAS  C:\msys64\tmp\ccU2jgeq.s 			page 18


 962 0227 BD020000 		.4byte	0x2bd
 963 022b 0F       		.uleb128 0xf
 964 022c 61010000 		.4byte	0x161
 965 0230 0F       		.uleb128 0xf
 966 0231 B4000000 		.4byte	0xb4
 967 0235 00       		.byte	0
 968 0236 10       		.uleb128 0x10
 969 0237 D0030000 		.4byte	.LASF47
 970 023b 02       		.byte	0x2
 971 023c 7E       		.byte	0x7e
 972 023d 00000000 		.4byte	.LASF48
 973 0241 49020000 		.4byte	0x249
 974 0245 54020000 		.4byte	0x254
 975 0249 0E       		.uleb128 0xe
 976 024a BD020000 		.4byte	0x2bd
 977 024e 0F       		.uleb128 0xf
 978 024f 25000000 		.4byte	0x25
 979 0253 00       		.byte	0
 980 0254 0D       		.uleb128 0xd
 981 0255 95050000 		.4byte	.LASF49
 982 0259 02       		.byte	0x2
 983 025a 89       		.byte	0x89
 984 025b 69070000 		.4byte	.LASF50
 985 025f 25000000 		.4byte	0x25
 986 0263 6B020000 		.4byte	0x26b
 987 0267 76020000 		.4byte	0x276
 988 026b 0E       		.uleb128 0xe
 989 026c BD020000 		.4byte	0x2bd
 990 0270 0F       		.uleb128 0xf
 991 0271 A9000000 		.4byte	0xa9
 992 0275 00       		.byte	0
 993 0276 0D       		.uleb128 0xd
 994 0277 6D010000 		.4byte	.LASF51
 995 027b 02       		.byte	0x2
 996 027c 94       		.byte	0x94
 997 027d DD050000 		.4byte	.LASF52
 998 0281 25000000 		.4byte	0x25
 999 0285 8D020000 		.4byte	0x28d
 1000 0289 98020000 		.4byte	0x298
 1001 028d 0E       		.uleb128 0xe
 1002 028e BD020000 		.4byte	0x2bd
 1003 0292 0F       		.uleb128 0xf
 1004 0293 25000000 		.4byte	0x25
 1005 0297 00       		.byte	0
 1006 0298 11       		.uleb128 0x11
 1007 0299 2B040000 		.4byte	.LASF53
 1008 029d 02       		.byte	0x2
 1009 029e A4       		.byte	0xa4
 1010 029f 1F020000 		.4byte	.LASF54
 1011 02a3 25000000 		.4byte	0x25
 1012 02a7 AB020000 		.4byte	0x2ab
 1013 02ab 0E       		.uleb128 0xe
 1014 02ac BD020000 		.4byte	0x2bd
 1015 02b0 0F       		.uleb128 0xf
 1016 02b1 A9000000 		.4byte	0xa9
 1017 02b5 0F       		.uleb128 0xf
 1018 02b6 25000000 		.4byte	0x25
ARM GAS  C:\msys64\tmp\ccU2jgeq.s 			page 19


 1019 02ba 00       		.byte	0
 1020 02bb 00       		.byte	0
 1021 02bc 00       		.byte	0
 1022 02bd 09       		.uleb128 0x9
 1023 02be 04       		.byte	0x4
 1024 02bf 72010000 		.4byte	0x172
 1025 02c3 0A       		.uleb128 0xa
 1026 02c4 73746400 		.ascii	"std\000"
 1027 02c8 0A       		.byte	0xa
 1028 02c9 00       		.byte	0
 1029 02ca 68030000 		.4byte	0x368
 1030 02ce 12       		.uleb128 0x12
 1031 02cf EC030000 		.4byte	.LASF60
 1032 02d3 0E       		.byte	0xe
 1033 02d4 DA       		.byte	0xda
 1034 02d5 13       		.uleb128 0x13
 1035 02d6 0E       		.byte	0xe
 1036 02d7 DA       		.byte	0xda
 1037 02d8 CE020000 		.4byte	0x2ce
 1038 02dc 14       		.uleb128 0x14
 1039 02dd 2B030000 		.4byte	.LASF56
 1040 02e1 01       		.byte	0x1
 1041 02e2 0C       		.byte	0xc
 1042 02e3 88       		.byte	0x88
 1043 02e4 05030000 		.4byte	0x305
 1044 02e8 06       		.uleb128 0x6
 1045 02e9 01       		.byte	0x1
 1046 02ea 45000000 		.4byte	0x45
 1047 02ee 0C       		.byte	0xc
 1048 02ef 8A       		.byte	0x8a
 1049 02f0 FB020000 		.4byte	0x2fb
 1050 02f4 07       		.uleb128 0x7
 1051 02f5 FF020000 		.4byte	.LASF55
 1052 02f9 00       		.byte	0
 1053 02fa 00       		.byte	0
 1054 02fb 15       		.uleb128 0x15
 1055 02fc 5F547000 		.ascii	"_Tp\000"
 1056 0300 BF000000 		.4byte	0xbf
 1057 0304 00       		.byte	0
 1058 0305 14       		.uleb128 0x14
 1059 0306 16030000 		.4byte	.LASF57
 1060 030a 01       		.byte	0x1
 1061 030b 0C       		.byte	0xc
 1062 030c 88       		.byte	0x88
 1063 030d 2E030000 		.4byte	0x32e
 1064 0311 06       		.uleb128 0x6
 1065 0312 01       		.byte	0x1
 1066 0313 45000000 		.4byte	0x45
 1067 0317 0C       		.byte	0xc
 1068 0318 8A       		.byte	0x8a
 1069 0319 24030000 		.4byte	0x324
 1070 031d 07       		.uleb128 0x7
 1071 031e FF020000 		.4byte	.LASF55
 1072 0322 00       		.byte	0
 1073 0323 00       		.byte	0
 1074 0324 15       		.uleb128 0x15
 1075 0325 5F547000 		.ascii	"_Tp\000"
ARM GAS  C:\msys64\tmp\ccU2jgeq.s 			page 20


 1076 0329 D9000000 		.4byte	0xd9
 1077 032d 00       		.byte	0
 1078 032e 14       		.uleb128 0x14
 1079 032f DA010000 		.4byte	.LASF58
 1080 0333 01       		.byte	0x1
 1081 0334 0C       		.byte	0xc
 1082 0335 88       		.byte	0x88
 1083 0336 57030000 		.4byte	0x357
 1084 033a 06       		.uleb128 0x6
 1085 033b 01       		.byte	0x1
 1086 033c 45000000 		.4byte	0x45
 1087 0340 0C       		.byte	0xc
 1088 0341 8A       		.byte	0x8a
 1089 0342 4D030000 		.4byte	0x34d
 1090 0346 07       		.uleb128 0x7
 1091 0347 FF020000 		.4byte	.LASF55
 1092 034b 00       		.byte	0
 1093 034c 00       		.byte	0
 1094 034d 15       		.uleb128 0x15
 1095 034e 5F547000 		.ascii	"_Tp\000"
 1096 0352 25000000 		.4byte	0x25
 1097 0356 00       		.byte	0
 1098 0357 16       		.uleb128 0x16
 1099 0358 0D       		.byte	0xd
 1100 0359 2B04     		.2byte	0x42b
 1101 035b EB000000 		.4byte	0xeb
 1102 035f 16       		.uleb128 0x16
 1103 0360 0D       		.byte	0xd
 1104 0361 2C04     		.2byte	0x42c
 1105 0363 E0000000 		.4byte	0xe0
 1106 0367 00       		.byte	0
 1107 0368 17       		.uleb128 0x17
 1108 0369 81050000 		.4byte	.LASF59
 1109 036d 0E       		.byte	0xe
 1110 036e DD       		.byte	0xdd
 1111 036f 82030000 		.4byte	0x382
 1112 0373 12       		.uleb128 0x12
 1113 0374 EC030000 		.4byte	.LASF60
 1114 0378 0E       		.byte	0xe
 1115 0379 DE       		.byte	0xde
 1116 037a 13       		.uleb128 0x13
 1117 037b 0E       		.byte	0xe
 1118 037c DE       		.byte	0xde
 1119 037d 73030000 		.4byte	0x373
 1120 0381 00       		.byte	0
 1121 0382 18       		.uleb128 0x18
 1122 0383 BE060000 		.4byte	.LASF112
 1123 0387 03       		.byte	0x3
 1124 0388 68       		.byte	0x68
 1125 0389 03       		.byte	0x3
 1126 038a B0030000 		.4byte	0x3b0
 1127 038e 19       		.uleb128 0x19
 1128 038f 70747200 		.ascii	"ptr\000"
 1129 0393 03       		.byte	0x3
 1130 0394 68       		.byte	0x68
 1131 0395 B0030000 		.4byte	0x3b0
 1132 0399 19       		.uleb128 0x19
ARM GAS  C:\msys64\tmp\ccU2jgeq.s 			page 21


 1133 039a 6C656E00 		.ascii	"len\000"
 1134 039e 03       		.byte	0x3
 1135 039f 69       		.byte	0x69
 1136 03a0 B5030000 		.4byte	0x3b5
 1137 03a4 1A       		.uleb128 0x1a
 1138 03a5 656E6400 		.ascii	"end\000"
 1139 03a9 03       		.byte	0x3
 1140 03aa 6B       		.byte	0x6b
 1141 03ab BA030000 		.4byte	0x3ba
 1142 03af 00       		.byte	0
 1143 03b0 1B       		.uleb128 0x1b
 1144 03b1 61010000 		.4byte	0x161
 1145 03b5 1C       		.uleb128 0x1c
 1146 03b6 A9000000 		.4byte	0xa9
 1147 03ba 09       		.uleb128 0x9
 1148 03bb 04       		.byte	0x4
 1149 03bc C0030000 		.4byte	0x3c0
 1150 03c0 1C       		.uleb128 0x1c
 1151 03c1 25000000 		.4byte	0x25
 1152 03c5 1D       		.uleb128 0x1d
 1153 03c6 63060000 		.4byte	.LASF61
 1154 03ca 0F       		.byte	0xf
 1155 03cb 75       		.byte	0x75
 1156 03cc A9000000 		.4byte	0xa9
 1157 03d0 03       		.byte	0x3
 1158 03d1 DF030000 		.4byte	0x3df
 1159 03d5 19       		.uleb128 0x19
 1160 03d6 7800     		.ascii	"x\000"
 1161 03d8 0F       		.byte	0xf
 1162 03d9 75       		.byte	0x75
 1163 03da A9000000 		.4byte	0xa9
 1164 03de 00       		.byte	0
 1165 03df 1E       		.uleb128 0x1e
 1166 03e0 28060000 		.4byte	.LASF62
 1167 03e4 04       		.byte	0x4
 1168 03e5 3903     		.2byte	0x339
 1169 03e7 25000000 		.4byte	0x25
 1170 03eb 03       		.byte	0x3
 1171 03ec 12040000 		.4byte	0x412
 1172 03f0 1F       		.uleb128 0x1f
 1173 03f1 667200   		.ascii	"fr\000"
 1174 03f4 04       		.byte	0x4
 1175 03f5 3903     		.2byte	0x339
 1176 03f7 C0030000 		.4byte	0x3c0
 1177 03fb 1F       		.uleb128 0x1f
 1178 03fc 783000   		.ascii	"x0\000"
 1179 03ff 04       		.byte	0x4
 1180 0400 3903     		.2byte	0x339
 1181 0402 C0030000 		.4byte	0x3c0
 1182 0406 1F       		.uleb128 0x1f
 1183 0407 783100   		.ascii	"x1\000"
 1184 040a 04       		.byte	0x4
 1185 040b 3903     		.2byte	0x339
 1186 040d C0030000 		.4byte	0x3c0
 1187 0411 00       		.byte	0
 1188 0412 20       		.uleb128 0x20
 1189 0413 54020000 		.4byte	0x254
ARM GAS  C:\msys64\tmp\ccU2jgeq.s 			page 22


 1190 0417 03       		.byte	0x3
 1191 0418 20040000 		.4byte	0x420
 1192 041c 35040000 		.4byte	0x435
 1193 0420 21       		.uleb128 0x21
 1194 0421 93040000 		.4byte	.LASF64
 1195 0425 35040000 		.4byte	0x435
 1196 0429 19       		.uleb128 0x19
 1197 042a 706F7300 		.ascii	"pos\000"
 1198 042e 02       		.byte	0x2
 1199 042f 89       		.byte	0x89
 1200 0430 B5030000 		.4byte	0x3b5
 1201 0434 00       		.byte	0
 1202 0435 1C       		.uleb128 0x1c
 1203 0436 BD020000 		.4byte	0x2bd
 1204 043a 22       		.uleb128 0x22
 1205 043b BA020000 		.4byte	.LASF113
 1206 043f 01       		.byte	0x1
 1207 0440 19       		.byte	0x19
 1208 0441 C8020000 		.4byte	.LASF114
 1209 0445 01       		.byte	0x1
 1210 0446 56040000 		.4byte	0x456
 1211 044a 23       		.uleb128 0x23
 1212 044b 2C070000 		.4byte	.LASF63
 1213 044f 01       		.byte	0x1
 1214 0450 19       		.byte	0x19
 1215 0451 25000000 		.4byte	0x25
 1216 0455 00       		.byte	0
 1217 0456 20       		.uleb128 0x20
 1218 0457 FA010000 		.4byte	0x1fa
 1219 045b 03       		.byte	0x3
 1220 045c 64040000 		.4byte	0x464
 1221 0460 6E040000 		.4byte	0x46e
 1222 0464 21       		.uleb128 0x21
 1223 0465 93040000 		.4byte	.LASF64
 1224 0469 35040000 		.4byte	0x435
 1225 046d 00       		.byte	0
 1226 046e 20       		.uleb128 0x20
 1227 046f 13020000 		.4byte	0x213
 1228 0473 03       		.byte	0x3
 1229 0474 7C040000 		.4byte	0x47c
 1230 0478 9C040000 		.4byte	0x49c
 1231 047c 21       		.uleb128 0x21
 1232 047d 93040000 		.4byte	.LASF64
 1233 0481 35040000 		.4byte	0x435
 1234 0485 19       		.uleb128 0x19
 1235 0486 72616D00 		.ascii	"ram\000"
 1236 048a 02       		.byte	0x2
 1237 048b 71       		.byte	0x71
 1238 048c 61010000 		.4byte	0x161
 1239 0490 23       		.uleb128 0x23
 1240 0491 4B040000 		.4byte	.LASF65
 1241 0495 02       		.byte	0x2
 1242 0496 71       		.byte	0x71
 1243 0497 B4000000 		.4byte	0xb4
 1244 049b 00       		.byte	0
 1245 049c 1E       		.uleb128 0x1e
 1246 049d 75050000 		.4byte	.LASF66
ARM GAS  C:\msys64\tmp\ccU2jgeq.s 			page 23


 1247 04a1 04       		.byte	0x4
 1248 04a2 F702     		.2byte	0x2f7
 1249 04a4 25000000 		.4byte	0x25
 1250 04a8 03       		.byte	0x3
 1251 04a9 B8040000 		.4byte	0x4b8
 1252 04ad 1F       		.uleb128 0x1f
 1253 04ae 7800     		.ascii	"x\000"
 1254 04b0 04       		.byte	0x4
 1255 04b1 F702     		.2byte	0x2f7
 1256 04b3 25000000 		.4byte	0x25
 1257 04b7 00       		.byte	0
 1258 04b8 1D       		.uleb128 0x1d
 1259 04b9 AE010000 		.4byte	.LASF67
 1260 04bd 01       		.byte	0x1
 1261 04be 14       		.byte	0x14
 1262 04bf 25000000 		.4byte	0x25
 1263 04c3 03       		.byte	0x3
 1264 04c4 D3040000 		.4byte	0x4d3
 1265 04c8 19       		.uleb128 0x19
 1266 04c9 696E00   		.ascii	"in\000"
 1267 04cc 01       		.byte	0x1
 1268 04cd 14       		.byte	0x14
 1269 04ce 25000000 		.4byte	0x25
 1270 04d2 00       		.byte	0
 1271 04d3 20       		.uleb128 0x20
 1272 04d4 36020000 		.4byte	0x236
 1273 04d8 03       		.byte	0x3
 1274 04d9 E1040000 		.4byte	0x4e1
 1275 04dd F4040000 		.4byte	0x4f4
 1276 04e1 21       		.uleb128 0x21
 1277 04e2 93040000 		.4byte	.LASF64
 1278 04e6 35040000 		.4byte	0x435
 1279 04ea 19       		.uleb128 0x19
 1280 04eb 7300     		.ascii	"s\000"
 1281 04ed 02       		.byte	0x2
 1282 04ee 7E       		.byte	0x7e
 1283 04ef C0030000 		.4byte	0x3c0
 1284 04f3 00       		.byte	0
 1285 04f4 20       		.uleb128 0x20
 1286 04f5 76020000 		.4byte	0x276
 1287 04f9 03       		.byte	0x3
 1288 04fa 02050000 		.4byte	0x502
 1289 04fe 41050000 		.4byte	0x541
 1290 0502 21       		.uleb128 0x21
 1291 0503 93040000 		.4byte	.LASF64
 1292 0507 35040000 		.4byte	0x435
 1293 050b 19       		.uleb128 0x19
 1294 050c 706F7300 		.ascii	"pos\000"
 1295 0510 02       		.byte	0x2
 1296 0511 94       		.byte	0x94
 1297 0512 C0030000 		.4byte	0x3c0
 1298 0516 24       		.uleb128 0x24
 1299 0517 CF010000 		.4byte	.LASF68
 1300 051b 02       		.byte	0x2
 1301 051c 95       		.byte	0x95
 1302 051d B5030000 		.4byte	0x3b5
 1303 0521 24       		.uleb128 0x24
ARM GAS  C:\msys64\tmp\ccU2jgeq.s 			page 24


 1304 0522 76010000 		.4byte	.LASF69
 1305 0526 02       		.byte	0x2
 1306 0527 96       		.byte	0x96
 1307 0528 C0030000 		.4byte	0x3c0
 1308 052c 1A       		.uleb128 0x1a
 1309 052d 733000   		.ascii	"s0\000"
 1310 0530 02       		.byte	0x2
 1311 0531 97       		.byte	0x97
 1312 0532 C0030000 		.4byte	0x3c0
 1313 0536 1A       		.uleb128 0x1a
 1314 0537 733100   		.ascii	"s1\000"
 1315 053a 02       		.byte	0x2
 1316 053b 98       		.byte	0x98
 1317 053c C0030000 		.4byte	0x3c0
 1318 0540 00       		.byte	0
 1319 0541 25       		.uleb128 0x25
 1320 0542 98040000 		.4byte	.LASF115
 1321 0546 01       		.byte	0x1
 1322 0547 62050000 		.4byte	0x562
 1323 054b 23       		.uleb128 0x23
 1324 054c 48020000 		.4byte	.LASF70
 1325 0550 01       		.byte	0x1
 1326 0551 67       		.byte	0x67
 1327 0552 8C000000 		.4byte	0x8c
 1328 0556 23       		.uleb128 0x23
 1329 0557 AF020000 		.4byte	.LASF71
 1330 055b 01       		.byte	0x1
 1331 055c 67       		.byte	0x67
 1332 055d 8C000000 		.4byte	0x8c
 1333 0561 00       		.byte	0
 1334 0562 26       		.uleb128 0x26
 1335 0563 3A040000 		.4byte	0x43a
 1336 0567 C8020000 		.4byte	.LASF114
 1337 056b 00000000 		.4byte	.LFB515
 1338 056f 8C000000 		.4byte	.LFE515-.LFB515
 1339 0573 01       		.uleb128 0x1
 1340 0574 9C       		.byte	0x9c
 1341 0575 BE050000 		.4byte	0x5be
 1342 0579 27       		.uleb128 0x27
 1343 057a 4A040000 		.4byte	0x44a
 1344 057e 00000000 		.4byte	.LLST0
 1345 0582 28       		.uleb128 0x28
 1346 0583 3E000000 		.4byte	.LBB54
 1347 0587 12000000 		.4byte	.LBE54-.LBB54
 1348 058b A2050000 		.4byte	0x5a2
 1349 058f 27       		.uleb128 0x27
 1350 0590 4A040000 		.4byte	0x44a
 1351 0594 78000000 		.4byte	.LLST1
 1352 0598 29       		.uleb128 0x29
 1353 0599 42000000 		.4byte	.LVL4
 1354 059d D70A0000 		.4byte	0xad7
 1355 05a1 00       		.byte	0
 1356 05a2 29       		.uleb128 0x29
 1357 05a3 1E000000 		.4byte	.LVL1
 1358 05a7 D70A0000 		.4byte	0xad7
 1359 05ab 29       		.uleb128 0x29
 1360 05ac 62000000 		.4byte	.LVL6
ARM GAS  C:\msys64\tmp\ccU2jgeq.s 			page 25


 1361 05b0 D70A0000 		.4byte	0xad7
 1362 05b4 29       		.uleb128 0x29
 1363 05b5 70000000 		.4byte	.LVL8
 1364 05b9 D70A0000 		.4byte	0xad7
 1365 05bd 00       		.byte	0
 1366 05be 2A       		.uleb128 0x2a
 1367 05bf D0040000 		.4byte	.LASF72
 1368 05c3 01       		.byte	0x1
 1369 05c4 34       		.byte	0x34
 1370 05c5 8C000000 		.4byte	.LFB516
 1371 05c9 50000000 		.4byte	.LFE516-.LFB516
 1372 05cd 01       		.uleb128 0x1
 1373 05ce 9C       		.byte	0x9c
 1374 05cf 89060000 		.4byte	0x689
 1375 05d3 2B       		.uleb128 0x2b
 1376 05d4 85010000 		.4byte	.LASF73
 1377 05d8 01       		.byte	0x1
 1378 05d9 34       		.byte	0x34
 1379 05da A9000000 		.4byte	0xa9
 1380 05de 9C000000 		.4byte	.LLST2
 1381 05e2 2C       		.uleb128 0x2c
 1382 05e3 61706900 		.ascii	"api\000"
 1383 05e7 01       		.byte	0x1
 1384 05e8 34       		.byte	0x34
 1385 05e9 A9000000 		.4byte	0xa9
 1386 05ed BD000000 		.4byte	.LLST3
 1387 05f1 2D       		.uleb128 0x2d
 1388 05f2 6E040000 		.4byte	0x46e
 1389 05f6 8C000000 		.4byte	.LBB56
 1390 05fa 1A000000 		.4byte	.LBE56-.LBB56
 1391 05fe 01       		.byte	0x1
 1392 05ff 36       		.byte	0x36
 1393 0600 20060000 		.4byte	0x620
 1394 0604 27       		.uleb128 0x27
 1395 0605 90040000 		.4byte	0x490
 1396 0609 DE000000 		.4byte	.LLST4
 1397 060d 27       		.uleb128 0x27
 1398 060e 85040000 		.4byte	0x485
 1399 0612 F6000000 		.4byte	.LLST5
 1400 0616 27       		.uleb128 0x27
 1401 0617 7C040000 		.4byte	0x47c
 1402 061b 0E010000 		.4byte	.LLST6
 1403 061f 00       		.byte	0
 1404 0620 2D       		.uleb128 0x2d
 1405 0621 56040000 		.4byte	0x456
 1406 0625 A6000000 		.4byte	.LBB58
 1407 0629 18000000 		.4byte	.LBE58-.LBB58
 1408 062d 01       		.byte	0x1
 1409 062e 37       		.byte	0x37
 1410 062f 72060000 		.4byte	0x672
 1411 0633 27       		.uleb128 0x27
 1412 0634 64040000 		.4byte	0x464
 1413 0638 26010000 		.4byte	.LLST7
 1414 063c 2E       		.uleb128 0x2e
 1415 063d 82030000 		.4byte	0x382
 1416 0641 A6000000 		.4byte	.LBB59
 1417 0645 18000000 		.4byte	.LBE59-.LBB59
ARM GAS  C:\msys64\tmp\ccU2jgeq.s 			page 26


 1418 0649 02       		.byte	0x2
 1419 064a 65       		.byte	0x65
 1420 064b 27       		.uleb128 0x27
 1421 064c 99030000 		.4byte	0x399
 1422 0650 3E010000 		.4byte	.LLST8
 1423 0654 27       		.uleb128 0x27
 1424 0655 8E030000 		.4byte	0x38e
 1425 0659 54010000 		.4byte	.LLST9
 1426 065d 2F       		.uleb128 0x2f
 1427 065e A6000000 		.4byte	.LBB60
 1428 0662 18000000 		.4byte	.LBE60-.LBB60
 1429 0666 30       		.uleb128 0x30
 1430 0667 A4030000 		.4byte	0x3a4
 1431 066b AB010000 		.4byte	.LLST10
 1432 066f 00       		.byte	0
 1433 0670 00       		.byte	0
 1434 0671 00       		.byte	0
 1435 0672 31       		.uleb128 0x31
 1436 0673 D2000000 		.4byte	.LVL19
 1437 0677 3A040000 		.4byte	0x43a
 1438 067b 32       		.uleb128 0x32
 1439 067c 02       		.uleb128 0x2
 1440 067d 90       		.byte	0x90
 1441 067e 40       		.uleb128 0x40
 1442 067f 07       		.uleb128 0x7
 1443 0680 F4       		.byte	0xf4
 1444 0681 25       		.uleb128 0x25
 1445 0682 04       		.byte	0x4
 1446 0683 0000003F 		.4byte	0x3f000000
 1447 0687 00       		.byte	0
 1448 0688 00       		.byte	0
 1449 0689 2A       		.uleb128 0x2a
 1450 068a C2040000 		.4byte	.LASF74
 1451 068e 01       		.byte	0x1
 1452 068f 3E       		.byte	0x3e
 1453 0690 DC000000 		.4byte	.LFB517
 1454 0694 D0010000 		.4byte	.LFE517-.LFB517
 1455 0698 01       		.uleb128 0x1
 1456 0699 9C       		.byte	0x9c
 1457 069a 4F080000 		.4byte	0x84f
 1458 069e 2C       		.uleb128 0x2c
 1459 069f 786E00   		.ascii	"xn\000"
 1460 06a2 01       		.byte	0x1
 1461 06a3 3E       		.byte	0x3e
 1462 06a4 61010000 		.4byte	0x161
 1463 06a8 C3010000 		.4byte	.LLST11
 1464 06ac 2B       		.uleb128 0x2b
 1465 06ad 70030000 		.4byte	.LASF75
 1466 06b1 01       		.byte	0x1
 1467 06b2 3E       		.byte	0x3e
 1468 06b3 A9000000 		.4byte	0xa9
 1469 06b7 EF010000 		.4byte	.LLST12
 1470 06bb 33       		.uleb128 0x33
 1471 06bc 7800     		.ascii	"x\000"
 1472 06be 01       		.byte	0x1
 1473 06bf 40       		.byte	0x40
 1474 06c0 61010000 		.4byte	0x161
ARM GAS  C:\msys64\tmp\ccU2jgeq.s 			page 27


 1475 06c4 10020000 		.4byte	.LLST13
 1476 06c8 33       		.uleb128 0x33
 1477 06c9 785F6500 		.ascii	"x_e\000"
 1478 06cd 01       		.byte	0x1
 1479 06ce 41       		.byte	0x41
 1480 06cf BA030000 		.4byte	0x3ba
 1481 06d3 5C020000 		.4byte	.LLST14
 1482 06d7 34       		.uleb128 0x34
 1483 06d8 77657400 		.ascii	"wet\000"
 1484 06dc 01       		.byte	0x1
 1485 06dd 42       		.byte	0x42
 1486 06de C0030000 		.4byte	0x3c0
 1487 06e2 02       		.uleb128 0x2
 1488 06e3 90       		.byte	0x90
 1489 06e4 51       		.uleb128 0x51
 1490 06e5 35       		.uleb128 0x35
 1491 06e6 67030000 		.4byte	.LASF76
 1492 06ea 01       		.byte	0x1
 1493 06eb 43       		.byte	0x43
 1494 06ec C0030000 		.4byte	0x3c0
 1495 06f0 83020000 		.4byte	.LLST15
 1496 06f4 36       		.uleb128 0x36
 1497 06f5 00000000 		.4byte	.Ldebug_ranges0+0
 1498 06f9 45080000 		.4byte	0x845
 1499 06fd 24       		.uleb128 0x24
 1500 06fe A4020000 		.4byte	.LASF77
 1501 0702 01       		.byte	0x1
 1502 0703 49       		.byte	0x49
 1503 0704 C0030000 		.4byte	0x3c0
 1504 0708 24       		.uleb128 0x24
 1505 0709 DB020000 		.4byte	.LASF78
 1506 070d 01       		.byte	0x1
 1507 070e 4A       		.byte	0x4a
 1508 070f C0030000 		.4byte	0x3c0
 1509 0713 37       		.uleb128 0x37
 1510 0714 F4040000 		.4byte	0x4f4
 1511 0718 00010000 		.4byte	.LBB63
 1512 071c 28000000 		.4byte	.Ldebug_ranges0+0x28
 1513 0720 01       		.byte	0x1
 1514 0721 49       		.byte	0x49
 1515 0722 C2070000 		.4byte	0x7c2
 1516 0726 27       		.uleb128 0x27
 1517 0727 0B050000 		.4byte	0x50b
 1518 072b 97020000 		.4byte	.LLST16
 1519 072f 27       		.uleb128 0x27
 1520 0730 02050000 		.4byte	0x502
 1521 0734 BA020000 		.4byte	.LLST17
 1522 0738 38       		.uleb128 0x38
 1523 0739 28000000 		.4byte	.Ldebug_ranges0+0x28
 1524 073d 30       		.uleb128 0x30
 1525 073e 16050000 		.4byte	0x516
 1526 0742 D2020000 		.4byte	.LLST18
 1527 0746 30       		.uleb128 0x30
 1528 0747 21050000 		.4byte	0x521
 1529 074b 16030000 		.4byte	.LLST19
 1530 074f 39       		.uleb128 0x39
 1531 0750 2C050000 		.4byte	0x52c
ARM GAS  C:\msys64\tmp\ccU2jgeq.s 			page 28


 1532 0754 39       		.uleb128 0x39
 1533 0755 36050000 		.4byte	0x536
 1534 0759 37       		.uleb128 0x37
 1535 075a 12040000 		.4byte	0x412
 1536 075e 00010000 		.4byte	.LBB65
 1537 0762 58000000 		.4byte	.Ldebug_ranges0+0x58
 1538 0766 02       		.byte	0x2
 1539 0767 97       		.byte	0x97
 1540 0768 7F070000 		.4byte	0x77f
 1541 076c 27       		.uleb128 0x27
 1542 076d 29040000 		.4byte	0x429
 1543 0771 6B030000 		.4byte	.LLST20
 1544 0775 27       		.uleb128 0x27
 1545 0776 20040000 		.4byte	0x420
 1546 077a 7E030000 		.4byte	.LLST21
 1547 077e 00       		.byte	0
 1548 077f 37       		.uleb128 0x37
 1549 0780 DF030000 		.4byte	0x3df
 1550 0784 5A010000 		.4byte	.LBB71
 1551 0788 78000000 		.4byte	.Ldebug_ranges0+0x78
 1552 078c 02       		.byte	0x2
 1553 078d 99       		.byte	0x99
 1554 078e A6070000 		.4byte	0x7a6
 1555 0792 3A       		.uleb128 0x3a
 1556 0793 06040000 		.4byte	0x406
 1557 0797 3A       		.uleb128 0x3a
 1558 0798 FB030000 		.4byte	0x3fb
 1559 079c 27       		.uleb128 0x27
 1560 079d F0030000 		.4byte	0x3f0
 1561 07a1 96030000 		.4byte	.LLST22
 1562 07a5 00       		.byte	0
 1563 07a6 3B       		.uleb128 0x3b
 1564 07a7 12040000 		.4byte	0x412
 1565 07ab 5E010000 		.4byte	.LBB76
 1566 07af A0000000 		.4byte	.Ldebug_ranges0+0xa0
 1567 07b3 02       		.byte	0x2
 1568 07b4 98       		.byte	0x98
 1569 07b5 3A       		.uleb128 0x3a
 1570 07b6 29040000 		.4byte	0x429
 1571 07ba 3A       		.uleb128 0x3a
 1572 07bb 20040000 		.4byte	0x420
 1573 07bf 00       		.byte	0
 1574 07c0 00       		.byte	0
 1575 07c1 00       		.byte	0
 1576 07c2 37       		.uleb128 0x37
 1577 07c3 B8040000 		.4byte	0x4b8
 1578 07c7 2A010000 		.4byte	.LBB88
 1579 07cb B8000000 		.4byte	.Ldebug_ranges0+0xb8
 1580 07cf 01       		.byte	0x1
 1581 07d0 52       		.byte	0x52
 1582 07d1 DF070000 		.4byte	0x7df
 1583 07d5 27       		.uleb128 0x27
 1584 07d6 C8040000 		.4byte	0x4c8
 1585 07da EB030000 		.4byte	.LLST23
 1586 07de 00       		.byte	0
 1587 07df 37       		.uleb128 0x37
 1588 07e0 D3040000 		.4byte	0x4d3
ARM GAS  C:\msys64\tmp\ccU2jgeq.s 			page 29


 1589 07e4 7A010000 		.4byte	.LBB95
 1590 07e8 E0000000 		.4byte	.Ldebug_ranges0+0xe0
 1591 07ec 01       		.byte	0x1
 1592 07ed 4F       		.byte	0x4f
 1593 07ee 05080000 		.4byte	0x805
 1594 07f2 27       		.uleb128 0x27
 1595 07f3 EA040000 		.4byte	0x4ea
 1596 07f7 FF030000 		.4byte	.LLST24
 1597 07fb 27       		.uleb128 0x27
 1598 07fc E1040000 		.4byte	0x4e1
 1599 0800 2B040000 		.4byte	.LLST25
 1600 0804 00       		.byte	0
 1601 0805 37       		.uleb128 0x37
 1602 0806 D3040000 		.4byte	0x4d3
 1603 080a 86010000 		.4byte	.LBB103
 1604 080e 10010000 		.4byte	.Ldebug_ranges0+0x110
 1605 0812 01       		.byte	0x1
 1606 0813 50       		.byte	0x50
 1607 0814 2B080000 		.4byte	0x82b
 1608 0818 27       		.uleb128 0x27
 1609 0819 EA040000 		.4byte	0x4ea
 1610 081d 43040000 		.4byte	.LLST26
 1611 0821 27       		.uleb128 0x27
 1612 0822 E1040000 		.4byte	0x4e1
 1613 0826 6F040000 		.4byte	.LLST27
 1614 082a 00       		.byte	0
 1615 082b 2E       		.uleb128 0x2e
 1616 082c B8040000 		.4byte	0x4b8
 1617 0830 24020000 		.4byte	.LBB117
 1618 0834 10000000 		.4byte	.LBE117-.LBB117
 1619 0838 01       		.byte	0x1
 1620 0839 53       		.byte	0x53
 1621 083a 27       		.uleb128 0x27
 1622 083b C8040000 		.4byte	0x4c8
 1623 083f 87040000 		.4byte	.LLST28
 1624 0843 00       		.byte	0
 1625 0844 00       		.byte	0
 1626 0845 29       		.uleb128 0x29
 1627 0846 FE000000 		.4byte	.LVL22
 1628 084a 3A040000 		.4byte	0x43a
 1629 084e 00       		.byte	0
 1630 084f 2A       		.uleb128 0x2a
 1631 0850 1A000000 		.4byte	.LASF79
 1632 0854 01       		.byte	0x1
 1633 0855 57       		.byte	0x57
 1634 0856 AC020000 		.4byte	.LFB518
 1635 085a 30000000 		.4byte	.LFE518-.LFB518
 1636 085e 01       		.uleb128 0x1
 1637 085f 9C       		.byte	0x9c
 1638 0860 8D080000 		.4byte	0x88d
 1639 0864 3C       		.uleb128 0x3c
 1640 0865 D4010000 		.4byte	.LASF80
 1641 0869 01       		.byte	0x1
 1642 086a 57       		.byte	0x57
 1643 086b 93000000 		.4byte	0x93
 1644 086f 01       		.uleb128 0x1
 1645 0870 50       		.byte	0x50
ARM GAS  C:\msys64\tmp\ccU2jgeq.s 			page 30


 1646 0871 3C       		.uleb128 0x3c
 1647 0872 A4070000 		.4byte	.LASF81
 1648 0876 01       		.byte	0x1
 1649 0877 57       		.byte	0x57
 1650 0878 9E000000 		.4byte	0x9e
 1651 087c 01       		.uleb128 0x1
 1652 087d 51       		.byte	0x51
 1653 087e 3D       		.uleb128 0x3d
 1654 087f 94010000 		.4byte	.LASF82
 1655 0883 01       		.byte	0x1
 1656 0884 59       		.byte	0x59
 1657 0885 C0030000 		.4byte	0x3c0
 1658 0889 02       		.uleb128 0x2
 1659 088a 90       		.byte	0x90
 1660 088b 4F       		.uleb128 0x4f
 1661 088c 00       		.byte	0
 1662 088d 20       		.uleb128 0x20
 1663 088e B6010000 		.4byte	0x1b6
 1664 0892 02       		.byte	0x2
 1665 0893 9B080000 		.4byte	0x89b
 1666 0897 A5080000 		.4byte	0x8a5
 1667 089b 21       		.uleb128 0x21
 1668 089c 93040000 		.4byte	.LASF64
 1669 08a0 35040000 		.4byte	0x435
 1670 08a4 00       		.byte	0
 1671 08a5 3E       		.uleb128 0x3e
 1672 08a6 35070000 		.4byte	.LASF116
 1673 08aa 00000000 		.4byte	.LFB520
 1674 08ae 18000000 		.4byte	.LFE520-.LFB520
 1675 08b2 01       		.uleb128 0x1
 1676 08b3 9C       		.byte	0x9c
 1677 08b4 F4080000 		.4byte	0x8f4
 1678 08b8 2E       		.uleb128 0x2e
 1679 08b9 41050000 		.4byte	0x541
 1680 08bd 00000000 		.4byte	.LBB127
 1681 08c1 18000000 		.4byte	.LBE127-.LBB127
 1682 08c5 01       		.byte	0x1
 1683 08c6 67       		.byte	0x67
 1684 08c7 27       		.uleb128 0x27
 1685 08c8 56050000 		.4byte	0x556
 1686 08cc 9B040000 		.4byte	.LLST29
 1687 08d0 27       		.uleb128 0x27
 1688 08d1 4B050000 		.4byte	0x54b
 1689 08d5 B1040000 		.4byte	.LLST30
 1690 08d9 2E       		.uleb128 0x2e
 1691 08da 8D080000 		.4byte	0x88d
 1692 08de 00000000 		.4byte	.LBB128
 1693 08e2 18000000 		.4byte	.LBE128-.LBB128
 1694 08e6 01       		.byte	0x1
 1695 08e7 0A       		.byte	0xa
 1696 08e8 27       		.uleb128 0x27
 1697 08e9 9B080000 		.4byte	0x89b
 1698 08ed C5040000 		.4byte	.LLST31
 1699 08f1 00       		.byte	0
 1700 08f2 00       		.byte	0
 1701 08f3 00       		.byte	0
 1702 08f4 3F       		.uleb128 0x3f
ARM GAS  C:\msys64\tmp\ccU2jgeq.s 			page 31


 1703 08f5 55030000 		.4byte	.LASF83
 1704 08f9 10       		.byte	0x10
 1705 08fa 46       		.byte	0x46
 1706 08fb B5030000 		.4byte	0x3b5
 1707 08ff 3F       		.uleb128 0x3f
 1708 0900 1A050000 		.4byte	.LASF84
 1709 0904 10       		.byte	0x10
 1710 0905 4B       		.byte	0x4b
 1711 0906 B5030000 		.4byte	0x3b5
 1712 090a 40       		.uleb128 0x40
 1713 090b C0030000 		.4byte	0x3c0
 1714 090f 1A090000 		.4byte	0x91a
 1715 0913 41       		.uleb128 0x41
 1716 0914 CB000000 		.4byte	0xcb
 1717 0918 80       		.byte	0x80
 1718 0919 00       		.byte	0
 1719 091a 3F       		.uleb128 0x3f
 1720 091b 0C060000 		.4byte	.LASF85
 1721 091f 11       		.byte	0x11
 1722 0920 94       		.byte	0x94
 1723 0921 25090000 		.4byte	0x925
 1724 0925 1C       		.uleb128 0x1c
 1725 0926 0A090000 		.4byte	0x90a
 1726 092a 40       		.uleb128 0x40
 1727 092b C0030000 		.4byte	0x3c0
 1728 092f 3B090000 		.4byte	0x93b
 1729 0933 42       		.uleb128 0x42
 1730 0934 CB000000 		.4byte	0xcb
 1731 0938 0001     		.2byte	0x100
 1732 093a 00       		.byte	0
 1733 093b 43       		.uleb128 0x43
 1734 093c A0030000 		.4byte	.LASF86
 1735 0940 11       		.byte	0x11
 1736 0941 4D02     		.2byte	0x24d
 1737 0943 47090000 		.4byte	0x947
 1738 0947 1C       		.uleb128 0x1c
 1739 0948 2A090000 		.4byte	0x92a
 1740 094c 43       		.uleb128 0x43
 1741 094d 99010000 		.4byte	.LASF87
 1742 0951 11       		.byte	0x11
 1743 0952 6402     		.2byte	0x264
 1744 0954 58090000 		.4byte	0x958
 1745 0958 1C       		.uleb128 0x1c
 1746 0959 2A090000 		.4byte	0x92a
 1747 095d 43       		.uleb128 0x43
 1748 095e E5040000 		.4byte	.LASF88
 1749 0962 11       		.byte	0x11
 1750 0963 7C02     		.2byte	0x27c
 1751 0965 69090000 		.4byte	0x969
 1752 0969 1C       		.uleb128 0x1c
 1753 096a 2A090000 		.4byte	0x92a
 1754 096e 43       		.uleb128 0x43
 1755 096f 4A030000 		.4byte	.LASF89
 1756 0973 10       		.byte	0x10
 1757 0974 0F01     		.2byte	0x10f
 1758 0976 7A090000 		.4byte	0x97a
 1759 097a 1C       		.uleb128 0x1c
ARM GAS  C:\msys64\tmp\ccU2jgeq.s 			page 32


 1760 097b 2A090000 		.4byte	0x92a
 1761 097f 43       		.uleb128 0x43
 1762 0980 F5040000 		.4byte	.LASF90
 1763 0984 11       		.byte	0x11
 1764 0985 AB02     		.2byte	0x2ab
 1765 0987 8B090000 		.4byte	0x98b
 1766 098b 1C       		.uleb128 0x1c
 1767 098c 0A090000 		.4byte	0x90a
 1768 0990 43       		.uleb128 0x43
 1769 0991 77030000 		.4byte	.LASF91
 1770 0995 11       		.byte	0x11
 1771 0996 C002     		.2byte	0x2c0
 1772 0998 9C090000 		.4byte	0x99c
 1773 099c 1C       		.uleb128 0x1c
 1774 099d 0A090000 		.4byte	0x90a
 1775 09a1 43       		.uleb128 0x43
 1776 09a2 8E030000 		.4byte	.LASF92
 1777 09a6 11       		.byte	0x11
 1778 09a7 DD02     		.2byte	0x2dd
 1779 09a9 AD090000 		.4byte	0x9ad
 1780 09ad 1C       		.uleb128 0x1c
 1781 09ae 0A090000 		.4byte	0x90a
 1782 09b2 3F       		.uleb128 0x3f
 1783 09b3 AA070000 		.4byte	.LASF93
 1784 09b7 11       		.byte	0x11
 1785 09b8 45       		.byte	0x45
 1786 09b9 B5030000 		.4byte	0x3b5
 1787 09bd 3F       		.uleb128 0x3f
 1788 09be 9A050000 		.4byte	.LASF94
 1789 09c2 11       		.byte	0x11
 1790 09c3 4A       		.byte	0x4a
 1791 09c4 B5030000 		.4byte	0x3b5
 1792 09c8 40       		.uleb128 0x40
 1793 09c9 C0030000 		.4byte	0x3c0
 1794 09cd D8090000 		.4byte	0x9d8
 1795 09d1 41       		.uleb128 0x41
 1796 09d2 CB000000 		.4byte	0xcb
 1797 09d6 97       		.byte	0x97
 1798 09d7 00       		.byte	0
 1799 09d8 3F       		.uleb128 0x3f
 1800 09d9 B8010000 		.4byte	.LASF95
 1801 09dd 11       		.byte	0x11
 1802 09de 67       		.byte	0x67
 1803 09df E3090000 		.4byte	0x9e3
 1804 09e3 1C       		.uleb128 0x1c
 1805 09e4 C8090000 		.4byte	0x9c8
 1806 09e8 40       		.uleb128 0x40
 1807 09e9 C0030000 		.4byte	0x3c0
 1808 09ed F9090000 		.4byte	0x9f9
 1809 09f1 42       		.uleb128 0x42
 1810 09f2 CB000000 		.4byte	0xcb
 1811 09f6 8603     		.2byte	0x386
 1812 09f8 00       		.byte	0
 1813 09f9 3F       		.uleb128 0x3f
 1814 09fa 5B040000 		.4byte	.LASF96
 1815 09fe 11       		.byte	0x11
 1816 09ff C6       		.byte	0xc6
ARM GAS  C:\msys64\tmp\ccU2jgeq.s 			page 33


 1817 0a00 040A0000 		.4byte	0xa04
 1818 0a04 1C       		.uleb128 0x1c
 1819 0a05 E8090000 		.4byte	0x9e8
 1820 0a09 43       		.uleb128 0x43
 1821 0a0a 04050000 		.4byte	.LASF97
 1822 0a0e 11       		.byte	0x11
 1823 0a0f 3801     		.2byte	0x138
 1824 0a11 150A0000 		.4byte	0xa15
 1825 0a15 1C       		.uleb128 0x1c
 1826 0a16 E8090000 		.4byte	0x9e8
 1827 0a1a 43       		.uleb128 0x43
 1828 0a1b 26000000 		.4byte	.LASF98
 1829 0a1f 11       		.byte	0x11
 1830 0a20 AB01     		.2byte	0x1ab
 1831 0a22 260A0000 		.4byte	0xa26
 1832 0a26 1C       		.uleb128 0x1c
 1833 0a27 E8090000 		.4byte	0x9e8
 1834 0a2b 3D       		.uleb128 0x3d
 1835 0a2c A4060000 		.4byte	.LASF99
 1836 0a30 01       		.byte	0x1
 1837 0a31 0A       		.byte	0xa
 1838 0a32 72010000 		.4byte	0x172
 1839 0a36 05       		.uleb128 0x5
 1840 0a37 03       		.byte	0x3
 1841 0a38 04000000 		.4byte	_ZL7s_delay
 1842 0a3c 40       		.uleb128 0x40
 1843 0a3d 25000000 		.4byte	0x25
 1844 0a41 4F0A0000 		.4byte	0xa4f
 1845 0a45 44       		.uleb128 0x44
 1846 0a46 CB000000 		.4byte	0xcb
 1847 0a4a FF520700 		.4byte	0x752ff
 1848 0a4e 00       		.byte	0
 1849 0a4f 3D       		.uleb128 0x3d
 1850 0a50 33000000 		.4byte	.LASF100
 1851 0a54 01       		.byte	0x1
 1852 0a55 0B       		.byte	0xb
 1853 0a56 3C0A0000 		.4byte	0xa3c
 1854 0a5a 05       		.uleb128 0x5
 1855 0a5b 03       		.byte	0x3
 1856 0a5c 00000000 		.4byte	_ZL11s_delay_ram
 1857 0a60 45       		.uleb128 0x45
 1858 0a61 8E010000 		.4byte	.LASF101
 1859 0a65 01       		.byte	0x1
 1860 0a66 0D       		.byte	0xd
 1861 0a67 25000000 		.4byte	0x25
 1862 0a6b 05       		.uleb128 0x5
 1863 0a6c 03       		.byte	0x3
 1864 0a6d 00000000 		.4byte	s_len
 1865 0a71 45       		.uleb128 0x45
 1866 0a72 22060000 		.4byte	.LASF102
 1867 0a76 01       		.byte	0x1
 1868 0a77 0E       		.byte	0xe
 1869 0a78 25000000 		.4byte	0x25
 1870 0a7c 05       		.uleb128 0x5
 1871 0a7d 03       		.byte	0x3
 1872 0a7e 00000000 		.4byte	s_mix
 1873 0a82 45       		.uleb128 0x45
ARM GAS  C:\msys64\tmp\ccU2jgeq.s 			page 34


 1874 0a83 9B030000 		.4byte	.LASF103
 1875 0a87 01       		.byte	0x1
 1876 0a88 0F       		.byte	0xf
 1877 0a89 25000000 		.4byte	0x25
 1878 0a8d 05       		.uleb128 0x5
 1879 0a8e 03       		.byte	0x3
 1880 0a8f 00000000 		.4byte	gain
 1881 0a93 45       		.uleb128 0x45
 1882 0a94 D6030000 		.4byte	.LASF104
 1883 0a98 01       		.byte	0x1
 1884 0a99 10       		.byte	0x10
 1885 0a9a 25000000 		.4byte	0x25
 1886 0a9e 05       		.uleb128 0x5
 1887 0a9f 03       		.byte	0x3
 1888 0aa0 00000000 		.4byte	wetXN
 1889 0aa4 45       		.uleb128 0x45
 1890 0aa5 07030000 		.4byte	.LASF105
 1891 0aa9 01       		.byte	0x1
 1892 0aaa 11       		.byte	0x11
 1893 0aab 25000000 		.4byte	0x25
 1894 0aaf 05       		.uleb128 0x5
 1895 0ab0 03       		.byte	0x3
 1896 0ab1 00000000 		.4byte	wetXNL
 1897 0ab5 45       		.uleb128 0x45
 1898 0ab6 F4030000 		.4byte	.LASF106
 1899 0aba 01       		.byte	0x1
 1900 0abb 11       		.byte	0x11
 1901 0abc 25000000 		.4byte	0x25
 1902 0ac0 05       		.uleb128 0x5
 1903 0ac1 03       		.byte	0x3
 1904 0ac2 00000000 		.4byte	wetXNR
 1905 0ac6 45       		.uleb128 0x45
 1906 0ac7 2C070000 		.4byte	.LASF63
 1907 0acb 01       		.byte	0x1
 1908 0acc 12       		.byte	0x12
 1909 0acd 25000000 		.4byte	0x25
 1910 0ad1 05       		.uleb128 0x5
 1911 0ad2 03       		.byte	0x3
 1912 0ad3 00000000 		.4byte	bpm_valf
 1913 0ad7 46       		.uleb128 0x46
 1914 0ad8 68040000 		.4byte	.LASF117
 1915 0adc 68040000 		.4byte	.LASF117
 1916 0ae0 10       		.byte	0x10
 1917 0ae1 68       		.byte	0x68
 1918 0ae2 00       		.byte	0
 1919              		.section	.debug_abbrev,"",%progbits
 1920              	.Ldebug_abbrev0:
 1921 0000 01       		.uleb128 0x1
 1922 0001 11       		.uleb128 0x11
 1923 0002 01       		.byte	0x1
 1924 0003 25       		.uleb128 0x25
 1925 0004 0E       		.uleb128 0xe
 1926 0005 13       		.uleb128 0x13
 1927 0006 0B       		.uleb128 0xb
 1928 0007 03       		.uleb128 0x3
 1929 0008 0E       		.uleb128 0xe
 1930 0009 1B       		.uleb128 0x1b
ARM GAS  C:\msys64\tmp\ccU2jgeq.s 			page 35


 1931 000a 0E       		.uleb128 0xe
 1932 000b 55       		.uleb128 0x55
 1933 000c 17       		.uleb128 0x17
 1934 000d 11       		.uleb128 0x11
 1935 000e 01       		.uleb128 0x1
 1936 000f 10       		.uleb128 0x10
 1937 0010 17       		.uleb128 0x17
 1938 0011 00       		.byte	0
 1939 0012 00       		.byte	0
 1940 0013 02       		.uleb128 0x2
 1941 0014 24       		.uleb128 0x24
 1942 0015 00       		.byte	0
 1943 0016 0B       		.uleb128 0xb
 1944 0017 0B       		.uleb128 0xb
 1945 0018 3E       		.uleb128 0x3e
 1946 0019 0B       		.uleb128 0xb
 1947 001a 03       		.uleb128 0x3
 1948 001b 0E       		.uleb128 0xe
 1949 001c 00       		.byte	0
 1950 001d 00       		.byte	0
 1951 001e 03       		.uleb128 0x3
 1952 001f 16       		.uleb128 0x16
 1953 0020 00       		.byte	0
 1954 0021 03       		.uleb128 0x3
 1955 0022 0E       		.uleb128 0xe
 1956 0023 3A       		.uleb128 0x3a
 1957 0024 0B       		.uleb128 0xb
 1958 0025 3B       		.uleb128 0x3b
 1959 0026 0B       		.uleb128 0xb
 1960 0027 49       		.uleb128 0x49
 1961 0028 13       		.uleb128 0x13
 1962 0029 00       		.byte	0
 1963 002a 00       		.byte	0
 1964 002b 04       		.uleb128 0x4
 1965 002c 24       		.uleb128 0x24
 1966 002d 00       		.byte	0
 1967 002e 0B       		.uleb128 0xb
 1968 002f 0B       		.uleb128 0xb
 1969 0030 3E       		.uleb128 0x3e
 1970 0031 0B       		.uleb128 0xb
 1971 0032 03       		.uleb128 0x3
 1972 0033 08       		.uleb128 0x8
 1973 0034 00       		.byte	0
 1974 0035 00       		.byte	0
 1975 0036 05       		.uleb128 0x5
 1976 0037 3B       		.uleb128 0x3b
 1977 0038 00       		.byte	0
 1978 0039 03       		.uleb128 0x3
 1979 003a 0E       		.uleb128 0xe
 1980 003b 00       		.byte	0
 1981 003c 00       		.byte	0
 1982 003d 06       		.uleb128 0x6
 1983 003e 04       		.uleb128 0x4
 1984 003f 01       		.byte	0x1
 1985 0040 0B       		.uleb128 0xb
 1986 0041 0B       		.uleb128 0xb
 1987 0042 49       		.uleb128 0x49
ARM GAS  C:\msys64\tmp\ccU2jgeq.s 			page 36


 1988 0043 13       		.uleb128 0x13
 1989 0044 3A       		.uleb128 0x3a
 1990 0045 0B       		.uleb128 0xb
 1991 0046 3B       		.uleb128 0x3b
 1992 0047 0B       		.uleb128 0xb
 1993 0048 01       		.uleb128 0x1
 1994 0049 13       		.uleb128 0x13
 1995 004a 00       		.byte	0
 1996 004b 00       		.byte	0
 1997 004c 07       		.uleb128 0x7
 1998 004d 28       		.uleb128 0x28
 1999 004e 00       		.byte	0
 2000 004f 03       		.uleb128 0x3
 2001 0050 0E       		.uleb128 0xe
 2002 0051 1C       		.uleb128 0x1c
 2003 0052 0B       		.uleb128 0xb
 2004 0053 00       		.byte	0
 2005 0054 00       		.byte	0
 2006 0055 08       		.uleb128 0x8
 2007 0056 04       		.uleb128 0x4
 2008 0057 01       		.byte	0x1
 2009 0058 0B       		.uleb128 0xb
 2010 0059 0B       		.uleb128 0xb
 2011 005a 49       		.uleb128 0x49
 2012 005b 13       		.uleb128 0x13
 2013 005c 3A       		.uleb128 0x3a
 2014 005d 0B       		.uleb128 0xb
 2015 005e 3B       		.uleb128 0x3b
 2016 005f 0B       		.uleb128 0xb
 2017 0060 6E       		.uleb128 0x6e
 2018 0061 0E       		.uleb128 0xe
 2019 0062 01       		.uleb128 0x1
 2020 0063 13       		.uleb128 0x13
 2021 0064 00       		.byte	0
 2022 0065 00       		.byte	0
 2023 0066 09       		.uleb128 0x9
 2024 0067 0F       		.uleb128 0xf
 2025 0068 00       		.byte	0
 2026 0069 0B       		.uleb128 0xb
 2027 006a 0B       		.uleb128 0xb
 2028 006b 49       		.uleb128 0x49
 2029 006c 13       		.uleb128 0x13
 2030 006d 00       		.byte	0
 2031 006e 00       		.byte	0
 2032 006f 0A       		.uleb128 0xa
 2033 0070 39       		.uleb128 0x39
 2034 0071 01       		.byte	0x1
 2035 0072 03       		.uleb128 0x3
 2036 0073 08       		.uleb128 0x8
 2037 0074 3A       		.uleb128 0x3a
 2038 0075 0B       		.uleb128 0xb
 2039 0076 3B       		.uleb128 0x3b
 2040 0077 0B       		.uleb128 0xb
 2041 0078 01       		.uleb128 0x1
 2042 0079 13       		.uleb128 0x13
 2043 007a 00       		.byte	0
 2044 007b 00       		.byte	0
ARM GAS  C:\msys64\tmp\ccU2jgeq.s 			page 37


 2045 007c 0B       		.uleb128 0xb
 2046 007d 13       		.uleb128 0x13
 2047 007e 01       		.byte	0x1
 2048 007f 03       		.uleb128 0x3
 2049 0080 0E       		.uleb128 0xe
 2050 0081 0B       		.uleb128 0xb
 2051 0082 0B       		.uleb128 0xb
 2052 0083 3A       		.uleb128 0x3a
 2053 0084 0B       		.uleb128 0xb
 2054 0085 3B       		.uleb128 0x3b
 2055 0086 0B       		.uleb128 0xb
 2056 0087 00       		.byte	0
 2057 0088 00       		.byte	0
 2058 0089 0C       		.uleb128 0xc
 2059 008a 0D       		.uleb128 0xd
 2060 008b 00       		.byte	0
 2061 008c 03       		.uleb128 0x3
 2062 008d 0E       		.uleb128 0xe
 2063 008e 3A       		.uleb128 0x3a
 2064 008f 0B       		.uleb128 0xb
 2065 0090 3B       		.uleb128 0x3b
 2066 0091 0B       		.uleb128 0xb
 2067 0092 49       		.uleb128 0x49
 2068 0093 13       		.uleb128 0x13
 2069 0094 38       		.uleb128 0x38
 2070 0095 0B       		.uleb128 0xb
 2071 0096 00       		.byte	0
 2072 0097 00       		.byte	0
 2073 0098 0D       		.uleb128 0xd
 2074 0099 2E       		.uleb128 0x2e
 2075 009a 01       		.byte	0x1
 2076 009b 3F       		.uleb128 0x3f
 2077 009c 19       		.uleb128 0x19
 2078 009d 03       		.uleb128 0x3
 2079 009e 0E       		.uleb128 0xe
 2080 009f 3A       		.uleb128 0x3a
 2081 00a0 0B       		.uleb128 0xb
 2082 00a1 3B       		.uleb128 0x3b
 2083 00a2 0B       		.uleb128 0xb
 2084 00a3 6E       		.uleb128 0x6e
 2085 00a4 0E       		.uleb128 0xe
 2086 00a5 49       		.uleb128 0x49
 2087 00a6 13       		.uleb128 0x13
 2088 00a7 3C       		.uleb128 0x3c
 2089 00a8 19       		.uleb128 0x19
 2090 00a9 64       		.uleb128 0x64
 2091 00aa 13       		.uleb128 0x13
 2092 00ab 01       		.uleb128 0x1
 2093 00ac 13       		.uleb128 0x13
 2094 00ad 00       		.byte	0
 2095 00ae 00       		.byte	0
 2096 00af 0E       		.uleb128 0xe
 2097 00b0 05       		.uleb128 0x5
 2098 00b1 00       		.byte	0
 2099 00b2 49       		.uleb128 0x49
 2100 00b3 13       		.uleb128 0x13
 2101 00b4 34       		.uleb128 0x34
ARM GAS  C:\msys64\tmp\ccU2jgeq.s 			page 38


 2102 00b5 19       		.uleb128 0x19
 2103 00b6 00       		.byte	0
 2104 00b7 00       		.byte	0
 2105 00b8 0F       		.uleb128 0xf
 2106 00b9 05       		.uleb128 0x5
 2107 00ba 00       		.byte	0
 2108 00bb 49       		.uleb128 0x49
 2109 00bc 13       		.uleb128 0x13
 2110 00bd 00       		.byte	0
 2111 00be 00       		.byte	0
 2112 00bf 10       		.uleb128 0x10
 2113 00c0 2E       		.uleb128 0x2e
 2114 00c1 01       		.byte	0x1
 2115 00c2 3F       		.uleb128 0x3f
 2116 00c3 19       		.uleb128 0x19
 2117 00c4 03       		.uleb128 0x3
 2118 00c5 0E       		.uleb128 0xe
 2119 00c6 3A       		.uleb128 0x3a
 2120 00c7 0B       		.uleb128 0xb
 2121 00c8 3B       		.uleb128 0x3b
 2122 00c9 0B       		.uleb128 0xb
 2123 00ca 6E       		.uleb128 0x6e
 2124 00cb 0E       		.uleb128 0xe
 2125 00cc 3C       		.uleb128 0x3c
 2126 00cd 19       		.uleb128 0x19
 2127 00ce 64       		.uleb128 0x64
 2128 00cf 13       		.uleb128 0x13
 2129 00d0 01       		.uleb128 0x1
 2130 00d1 13       		.uleb128 0x13
 2131 00d2 00       		.byte	0
 2132 00d3 00       		.byte	0
 2133 00d4 11       		.uleb128 0x11
 2134 00d5 2E       		.uleb128 0x2e
 2135 00d6 01       		.byte	0x1
 2136 00d7 3F       		.uleb128 0x3f
 2137 00d8 19       		.uleb128 0x19
 2138 00d9 03       		.uleb128 0x3
 2139 00da 0E       		.uleb128 0xe
 2140 00db 3A       		.uleb128 0x3a
 2141 00dc 0B       		.uleb128 0xb
 2142 00dd 3B       		.uleb128 0x3b
 2143 00de 0B       		.uleb128 0xb
 2144 00df 6E       		.uleb128 0x6e
 2145 00e0 0E       		.uleb128 0xe
 2146 00e1 49       		.uleb128 0x49
 2147 00e2 13       		.uleb128 0x13
 2148 00e3 3C       		.uleb128 0x3c
 2149 00e4 19       		.uleb128 0x19
 2150 00e5 64       		.uleb128 0x64
 2151 00e6 13       		.uleb128 0x13
 2152 00e7 00       		.byte	0
 2153 00e8 00       		.byte	0
 2154 00e9 12       		.uleb128 0x12
 2155 00ea 39       		.uleb128 0x39
 2156 00eb 00       		.byte	0
 2157 00ec 03       		.uleb128 0x3
 2158 00ed 0E       		.uleb128 0xe
ARM GAS  C:\msys64\tmp\ccU2jgeq.s 			page 39


 2159 00ee 3A       		.uleb128 0x3a
 2160 00ef 0B       		.uleb128 0xb
 2161 00f0 3B       		.uleb128 0x3b
 2162 00f1 0B       		.uleb128 0xb
 2163 00f2 00       		.byte	0
 2164 00f3 00       		.byte	0
 2165 00f4 13       		.uleb128 0x13
 2166 00f5 3A       		.uleb128 0x3a
 2167 00f6 00       		.byte	0
 2168 00f7 3A       		.uleb128 0x3a
 2169 00f8 0B       		.uleb128 0xb
 2170 00f9 3B       		.uleb128 0x3b
 2171 00fa 0B       		.uleb128 0xb
 2172 00fb 18       		.uleb128 0x18
 2173 00fc 13       		.uleb128 0x13
 2174 00fd 00       		.byte	0
 2175 00fe 00       		.byte	0
 2176 00ff 14       		.uleb128 0x14
 2177 0100 13       		.uleb128 0x13
 2178 0101 01       		.byte	0x1
 2179 0102 03       		.uleb128 0x3
 2180 0103 0E       		.uleb128 0xe
 2181 0104 0B       		.uleb128 0xb
 2182 0105 0B       		.uleb128 0xb
 2183 0106 3A       		.uleb128 0x3a
 2184 0107 0B       		.uleb128 0xb
 2185 0108 3B       		.uleb128 0x3b
 2186 0109 0B       		.uleb128 0xb
 2187 010a 01       		.uleb128 0x1
 2188 010b 13       		.uleb128 0x13
 2189 010c 00       		.byte	0
 2190 010d 00       		.byte	0
 2191 010e 15       		.uleb128 0x15
 2192 010f 2F       		.uleb128 0x2f
 2193 0110 00       		.byte	0
 2194 0111 03       		.uleb128 0x3
 2195 0112 08       		.uleb128 0x8
 2196 0113 49       		.uleb128 0x49
 2197 0114 13       		.uleb128 0x13
 2198 0115 00       		.byte	0
 2199 0116 00       		.byte	0
 2200 0117 16       		.uleb128 0x16
 2201 0118 08       		.uleb128 0x8
 2202 0119 00       		.byte	0
 2203 011a 3A       		.uleb128 0x3a
 2204 011b 0B       		.uleb128 0xb
 2205 011c 3B       		.uleb128 0x3b
 2206 011d 05       		.uleb128 0x5
 2207 011e 18       		.uleb128 0x18
 2208 011f 13       		.uleb128 0x13
 2209 0120 00       		.byte	0
 2210 0121 00       		.byte	0
 2211 0122 17       		.uleb128 0x17
 2212 0123 39       		.uleb128 0x39
 2213 0124 01       		.byte	0x1
 2214 0125 03       		.uleb128 0x3
 2215 0126 0E       		.uleb128 0xe
ARM GAS  C:\msys64\tmp\ccU2jgeq.s 			page 40


 2216 0127 3A       		.uleb128 0x3a
 2217 0128 0B       		.uleb128 0xb
 2218 0129 3B       		.uleb128 0x3b
 2219 012a 0B       		.uleb128 0xb
 2220 012b 01       		.uleb128 0x1
 2221 012c 13       		.uleb128 0x13
 2222 012d 00       		.byte	0
 2223 012e 00       		.byte	0
 2224 012f 18       		.uleb128 0x18
 2225 0130 2E       		.uleb128 0x2e
 2226 0131 01       		.byte	0x1
 2227 0132 03       		.uleb128 0x3
 2228 0133 0E       		.uleb128 0xe
 2229 0134 3A       		.uleb128 0x3a
 2230 0135 0B       		.uleb128 0xb
 2231 0136 3B       		.uleb128 0x3b
 2232 0137 0B       		.uleb128 0xb
 2233 0138 20       		.uleb128 0x20
 2234 0139 0B       		.uleb128 0xb
 2235 013a 01       		.uleb128 0x1
 2236 013b 13       		.uleb128 0x13
 2237 013c 00       		.byte	0
 2238 013d 00       		.byte	0
 2239 013e 19       		.uleb128 0x19
 2240 013f 05       		.uleb128 0x5
 2241 0140 00       		.byte	0
 2242 0141 03       		.uleb128 0x3
 2243 0142 08       		.uleb128 0x8
 2244 0143 3A       		.uleb128 0x3a
 2245 0144 0B       		.uleb128 0xb
 2246 0145 3B       		.uleb128 0x3b
 2247 0146 0B       		.uleb128 0xb
 2248 0147 49       		.uleb128 0x49
 2249 0148 13       		.uleb128 0x13
 2250 0149 00       		.byte	0
 2251 014a 00       		.byte	0
 2252 014b 1A       		.uleb128 0x1a
 2253 014c 34       		.uleb128 0x34
 2254 014d 00       		.byte	0
 2255 014e 03       		.uleb128 0x3
 2256 014f 08       		.uleb128 0x8
 2257 0150 3A       		.uleb128 0x3a
 2258 0151 0B       		.uleb128 0xb
 2259 0152 3B       		.uleb128 0x3b
 2260 0153 0B       		.uleb128 0xb
 2261 0154 49       		.uleb128 0x49
 2262 0155 13       		.uleb128 0x13
 2263 0156 00       		.byte	0
 2264 0157 00       		.byte	0
 2265 0158 1B       		.uleb128 0x1b
 2266 0159 37       		.uleb128 0x37
 2267 015a 00       		.byte	0
 2268 015b 49       		.uleb128 0x49
 2269 015c 13       		.uleb128 0x13
 2270 015d 00       		.byte	0
 2271 015e 00       		.byte	0
 2272 015f 1C       		.uleb128 0x1c
ARM GAS  C:\msys64\tmp\ccU2jgeq.s 			page 41


 2273 0160 26       		.uleb128 0x26
 2274 0161 00       		.byte	0
 2275 0162 49       		.uleb128 0x49
 2276 0163 13       		.uleb128 0x13
 2277 0164 00       		.byte	0
 2278 0165 00       		.byte	0
 2279 0166 1D       		.uleb128 0x1d
 2280 0167 2E       		.uleb128 0x2e
 2281 0168 01       		.byte	0x1
 2282 0169 03       		.uleb128 0x3
 2283 016a 0E       		.uleb128 0xe
 2284 016b 3A       		.uleb128 0x3a
 2285 016c 0B       		.uleb128 0xb
 2286 016d 3B       		.uleb128 0x3b
 2287 016e 0B       		.uleb128 0xb
 2288 016f 49       		.uleb128 0x49
 2289 0170 13       		.uleb128 0x13
 2290 0171 20       		.uleb128 0x20
 2291 0172 0B       		.uleb128 0xb
 2292 0173 01       		.uleb128 0x1
 2293 0174 13       		.uleb128 0x13
 2294 0175 00       		.byte	0
 2295 0176 00       		.byte	0
 2296 0177 1E       		.uleb128 0x1e
 2297 0178 2E       		.uleb128 0x2e
 2298 0179 01       		.byte	0x1
 2299 017a 03       		.uleb128 0x3
 2300 017b 0E       		.uleb128 0xe
 2301 017c 3A       		.uleb128 0x3a
 2302 017d 0B       		.uleb128 0xb
 2303 017e 3B       		.uleb128 0x3b
 2304 017f 05       		.uleb128 0x5
 2305 0180 49       		.uleb128 0x49
 2306 0181 13       		.uleb128 0x13
 2307 0182 20       		.uleb128 0x20
 2308 0183 0B       		.uleb128 0xb
 2309 0184 01       		.uleb128 0x1
 2310 0185 13       		.uleb128 0x13
 2311 0186 00       		.byte	0
 2312 0187 00       		.byte	0
 2313 0188 1F       		.uleb128 0x1f
 2314 0189 05       		.uleb128 0x5
 2315 018a 00       		.byte	0
 2316 018b 03       		.uleb128 0x3
 2317 018c 08       		.uleb128 0x8
 2318 018d 3A       		.uleb128 0x3a
 2319 018e 0B       		.uleb128 0xb
 2320 018f 3B       		.uleb128 0x3b
 2321 0190 05       		.uleb128 0x5
 2322 0191 49       		.uleb128 0x49
 2323 0192 13       		.uleb128 0x13
 2324 0193 00       		.byte	0
 2325 0194 00       		.byte	0
 2326 0195 20       		.uleb128 0x20
 2327 0196 2E       		.uleb128 0x2e
 2328 0197 01       		.byte	0x1
 2329 0198 47       		.uleb128 0x47
ARM GAS  C:\msys64\tmp\ccU2jgeq.s 			page 42


 2330 0199 13       		.uleb128 0x13
 2331 019a 20       		.uleb128 0x20
 2332 019b 0B       		.uleb128 0xb
 2333 019c 64       		.uleb128 0x64
 2334 019d 13       		.uleb128 0x13
 2335 019e 01       		.uleb128 0x1
 2336 019f 13       		.uleb128 0x13
 2337 01a0 00       		.byte	0
 2338 01a1 00       		.byte	0
 2339 01a2 21       		.uleb128 0x21
 2340 01a3 05       		.uleb128 0x5
 2341 01a4 00       		.byte	0
 2342 01a5 03       		.uleb128 0x3
 2343 01a6 0E       		.uleb128 0xe
 2344 01a7 49       		.uleb128 0x49
 2345 01a8 13       		.uleb128 0x13
 2346 01a9 34       		.uleb128 0x34
 2347 01aa 19       		.uleb128 0x19
 2348 01ab 00       		.byte	0
 2349 01ac 00       		.byte	0
 2350 01ad 22       		.uleb128 0x22
 2351 01ae 2E       		.uleb128 0x2e
 2352 01af 01       		.byte	0x1
 2353 01b0 3F       		.uleb128 0x3f
 2354 01b1 19       		.uleb128 0x19
 2355 01b2 03       		.uleb128 0x3
 2356 01b3 0E       		.uleb128 0xe
 2357 01b4 3A       		.uleb128 0x3a
 2358 01b5 0B       		.uleb128 0xb
 2359 01b6 3B       		.uleb128 0x3b
 2360 01b7 0B       		.uleb128 0xb
 2361 01b8 6E       		.uleb128 0x6e
 2362 01b9 0E       		.uleb128 0xe
 2363 01ba 20       		.uleb128 0x20
 2364 01bb 0B       		.uleb128 0xb
 2365 01bc 01       		.uleb128 0x1
 2366 01bd 13       		.uleb128 0x13
 2367 01be 00       		.byte	0
 2368 01bf 00       		.byte	0
 2369 01c0 23       		.uleb128 0x23
 2370 01c1 05       		.uleb128 0x5
 2371 01c2 00       		.byte	0
 2372 01c3 03       		.uleb128 0x3
 2373 01c4 0E       		.uleb128 0xe
 2374 01c5 3A       		.uleb128 0x3a
 2375 01c6 0B       		.uleb128 0xb
 2376 01c7 3B       		.uleb128 0x3b
 2377 01c8 0B       		.uleb128 0xb
 2378 01c9 49       		.uleb128 0x49
 2379 01ca 13       		.uleb128 0x13
 2380 01cb 00       		.byte	0
 2381 01cc 00       		.byte	0
 2382 01cd 24       		.uleb128 0x24
 2383 01ce 34       		.uleb128 0x34
 2384 01cf 00       		.byte	0
 2385 01d0 03       		.uleb128 0x3
 2386 01d1 0E       		.uleb128 0xe
ARM GAS  C:\msys64\tmp\ccU2jgeq.s 			page 43


 2387 01d2 3A       		.uleb128 0x3a
 2388 01d3 0B       		.uleb128 0xb
 2389 01d4 3B       		.uleb128 0x3b
 2390 01d5 0B       		.uleb128 0xb
 2391 01d6 49       		.uleb128 0x49
 2392 01d7 13       		.uleb128 0x13
 2393 01d8 00       		.byte	0
 2394 01d9 00       		.byte	0
 2395 01da 25       		.uleb128 0x25
 2396 01db 2E       		.uleb128 0x2e
 2397 01dc 01       		.byte	0x1
 2398 01dd 03       		.uleb128 0x3
 2399 01de 0E       		.uleb128 0xe
 2400 01df 34       		.uleb128 0x34
 2401 01e0 19       		.uleb128 0x19
 2402 01e1 20       		.uleb128 0x20
 2403 01e2 0B       		.uleb128 0xb
 2404 01e3 01       		.uleb128 0x1
 2405 01e4 13       		.uleb128 0x13
 2406 01e5 00       		.byte	0
 2407 01e6 00       		.byte	0
 2408 01e7 26       		.uleb128 0x26
 2409 01e8 2E       		.uleb128 0x2e
 2410 01e9 01       		.byte	0x1
 2411 01ea 31       		.uleb128 0x31
 2412 01eb 13       		.uleb128 0x13
 2413 01ec 6E       		.uleb128 0x6e
 2414 01ed 0E       		.uleb128 0xe
 2415 01ee 11       		.uleb128 0x11
 2416 01ef 01       		.uleb128 0x1
 2417 01f0 12       		.uleb128 0x12
 2418 01f1 06       		.uleb128 0x6
 2419 01f2 40       		.uleb128 0x40
 2420 01f3 18       		.uleb128 0x18
 2421 01f4 9742     		.uleb128 0x2117
 2422 01f6 19       		.uleb128 0x19
 2423 01f7 01       		.uleb128 0x1
 2424 01f8 13       		.uleb128 0x13
 2425 01f9 00       		.byte	0
 2426 01fa 00       		.byte	0
 2427 01fb 27       		.uleb128 0x27
 2428 01fc 05       		.uleb128 0x5
 2429 01fd 00       		.byte	0
 2430 01fe 31       		.uleb128 0x31
 2431 01ff 13       		.uleb128 0x13
 2432 0200 02       		.uleb128 0x2
 2433 0201 17       		.uleb128 0x17
 2434 0202 00       		.byte	0
 2435 0203 00       		.byte	0
 2436 0204 28       		.uleb128 0x28
 2437 0205 0B       		.uleb128 0xb
 2438 0206 01       		.byte	0x1
 2439 0207 11       		.uleb128 0x11
 2440 0208 01       		.uleb128 0x1
 2441 0209 12       		.uleb128 0x12
 2442 020a 06       		.uleb128 0x6
 2443 020b 01       		.uleb128 0x1
ARM GAS  C:\msys64\tmp\ccU2jgeq.s 			page 44


 2444 020c 13       		.uleb128 0x13
 2445 020d 00       		.byte	0
 2446 020e 00       		.byte	0
 2447 020f 29       		.uleb128 0x29
 2448 0210 898201   		.uleb128 0x4109
 2449 0213 00       		.byte	0
 2450 0214 11       		.uleb128 0x11
 2451 0215 01       		.uleb128 0x1
 2452 0216 31       		.uleb128 0x31
 2453 0217 13       		.uleb128 0x13
 2454 0218 00       		.byte	0
 2455 0219 00       		.byte	0
 2456 021a 2A       		.uleb128 0x2a
 2457 021b 2E       		.uleb128 0x2e
 2458 021c 01       		.byte	0x1
 2459 021d 3F       		.uleb128 0x3f
 2460 021e 19       		.uleb128 0x19
 2461 021f 03       		.uleb128 0x3
 2462 0220 0E       		.uleb128 0xe
 2463 0221 3A       		.uleb128 0x3a
 2464 0222 0B       		.uleb128 0xb
 2465 0223 3B       		.uleb128 0x3b
 2466 0224 0B       		.uleb128 0xb
 2467 0225 11       		.uleb128 0x11
 2468 0226 01       		.uleb128 0x1
 2469 0227 12       		.uleb128 0x12
 2470 0228 06       		.uleb128 0x6
 2471 0229 40       		.uleb128 0x40
 2472 022a 18       		.uleb128 0x18
 2473 022b 9742     		.uleb128 0x2117
 2474 022d 19       		.uleb128 0x19
 2475 022e 01       		.uleb128 0x1
 2476 022f 13       		.uleb128 0x13
 2477 0230 00       		.byte	0
 2478 0231 00       		.byte	0
 2479 0232 2B       		.uleb128 0x2b
 2480 0233 05       		.uleb128 0x5
 2481 0234 00       		.byte	0
 2482 0235 03       		.uleb128 0x3
 2483 0236 0E       		.uleb128 0xe
 2484 0237 3A       		.uleb128 0x3a
 2485 0238 0B       		.uleb128 0xb
 2486 0239 3B       		.uleb128 0x3b
 2487 023a 0B       		.uleb128 0xb
 2488 023b 49       		.uleb128 0x49
 2489 023c 13       		.uleb128 0x13
 2490 023d 02       		.uleb128 0x2
 2491 023e 17       		.uleb128 0x17
 2492 023f 00       		.byte	0
 2493 0240 00       		.byte	0
 2494 0241 2C       		.uleb128 0x2c
 2495 0242 05       		.uleb128 0x5
 2496 0243 00       		.byte	0
 2497 0244 03       		.uleb128 0x3
 2498 0245 08       		.uleb128 0x8
 2499 0246 3A       		.uleb128 0x3a
 2500 0247 0B       		.uleb128 0xb
ARM GAS  C:\msys64\tmp\ccU2jgeq.s 			page 45


 2501 0248 3B       		.uleb128 0x3b
 2502 0249 0B       		.uleb128 0xb
 2503 024a 49       		.uleb128 0x49
 2504 024b 13       		.uleb128 0x13
 2505 024c 02       		.uleb128 0x2
 2506 024d 17       		.uleb128 0x17
 2507 024e 00       		.byte	0
 2508 024f 00       		.byte	0
 2509 0250 2D       		.uleb128 0x2d
 2510 0251 1D       		.uleb128 0x1d
 2511 0252 01       		.byte	0x1
 2512 0253 31       		.uleb128 0x31
 2513 0254 13       		.uleb128 0x13
 2514 0255 11       		.uleb128 0x11
 2515 0256 01       		.uleb128 0x1
 2516 0257 12       		.uleb128 0x12
 2517 0258 06       		.uleb128 0x6
 2518 0259 58       		.uleb128 0x58
 2519 025a 0B       		.uleb128 0xb
 2520 025b 59       		.uleb128 0x59
 2521 025c 0B       		.uleb128 0xb
 2522 025d 01       		.uleb128 0x1
 2523 025e 13       		.uleb128 0x13
 2524 025f 00       		.byte	0
 2525 0260 00       		.byte	0
 2526 0261 2E       		.uleb128 0x2e
 2527 0262 1D       		.uleb128 0x1d
 2528 0263 01       		.byte	0x1
 2529 0264 31       		.uleb128 0x31
 2530 0265 13       		.uleb128 0x13
 2531 0266 11       		.uleb128 0x11
 2532 0267 01       		.uleb128 0x1
 2533 0268 12       		.uleb128 0x12
 2534 0269 06       		.uleb128 0x6
 2535 026a 58       		.uleb128 0x58
 2536 026b 0B       		.uleb128 0xb
 2537 026c 59       		.uleb128 0x59
 2538 026d 0B       		.uleb128 0xb
 2539 026e 00       		.byte	0
 2540 026f 00       		.byte	0
 2541 0270 2F       		.uleb128 0x2f
 2542 0271 0B       		.uleb128 0xb
 2543 0272 01       		.byte	0x1
 2544 0273 11       		.uleb128 0x11
 2545 0274 01       		.uleb128 0x1
 2546 0275 12       		.uleb128 0x12
 2547 0276 06       		.uleb128 0x6
 2548 0277 00       		.byte	0
 2549 0278 00       		.byte	0
 2550 0279 30       		.uleb128 0x30
 2551 027a 34       		.uleb128 0x34
 2552 027b 00       		.byte	0
 2553 027c 31       		.uleb128 0x31
 2554 027d 13       		.uleb128 0x13
 2555 027e 02       		.uleb128 0x2
 2556 027f 17       		.uleb128 0x17
 2557 0280 00       		.byte	0
ARM GAS  C:\msys64\tmp\ccU2jgeq.s 			page 46


 2558 0281 00       		.byte	0
 2559 0282 31       		.uleb128 0x31
 2560 0283 898201   		.uleb128 0x4109
 2561 0286 01       		.byte	0x1
 2562 0287 11       		.uleb128 0x11
 2563 0288 01       		.uleb128 0x1
 2564 0289 9542     		.uleb128 0x2115
 2565 028b 19       		.uleb128 0x19
 2566 028c 31       		.uleb128 0x31
 2567 028d 13       		.uleb128 0x13
 2568 028e 00       		.byte	0
 2569 028f 00       		.byte	0
 2570 0290 32       		.uleb128 0x32
 2571 0291 8A8201   		.uleb128 0x410a
 2572 0294 00       		.byte	0
 2573 0295 02       		.uleb128 0x2
 2574 0296 18       		.uleb128 0x18
 2575 0297 9142     		.uleb128 0x2111
 2576 0299 18       		.uleb128 0x18
 2577 029a 00       		.byte	0
 2578 029b 00       		.byte	0
 2579 029c 33       		.uleb128 0x33
 2580 029d 34       		.uleb128 0x34
 2581 029e 00       		.byte	0
 2582 029f 03       		.uleb128 0x3
 2583 02a0 08       		.uleb128 0x8
 2584 02a1 3A       		.uleb128 0x3a
 2585 02a2 0B       		.uleb128 0xb
 2586 02a3 3B       		.uleb128 0x3b
 2587 02a4 0B       		.uleb128 0xb
 2588 02a5 49       		.uleb128 0x49
 2589 02a6 13       		.uleb128 0x13
 2590 02a7 02       		.uleb128 0x2
 2591 02a8 17       		.uleb128 0x17
 2592 02a9 00       		.byte	0
 2593 02aa 00       		.byte	0
 2594 02ab 34       		.uleb128 0x34
 2595 02ac 34       		.uleb128 0x34
 2596 02ad 00       		.byte	0
 2597 02ae 03       		.uleb128 0x3
 2598 02af 08       		.uleb128 0x8
 2599 02b0 3A       		.uleb128 0x3a
 2600 02b1 0B       		.uleb128 0xb
 2601 02b2 3B       		.uleb128 0x3b
 2602 02b3 0B       		.uleb128 0xb
 2603 02b4 49       		.uleb128 0x49
 2604 02b5 13       		.uleb128 0x13
 2605 02b6 02       		.uleb128 0x2
 2606 02b7 18       		.uleb128 0x18
 2607 02b8 00       		.byte	0
 2608 02b9 00       		.byte	0
 2609 02ba 35       		.uleb128 0x35
 2610 02bb 34       		.uleb128 0x34
 2611 02bc 00       		.byte	0
 2612 02bd 03       		.uleb128 0x3
 2613 02be 0E       		.uleb128 0xe
 2614 02bf 3A       		.uleb128 0x3a
ARM GAS  C:\msys64\tmp\ccU2jgeq.s 			page 47


 2615 02c0 0B       		.uleb128 0xb
 2616 02c1 3B       		.uleb128 0x3b
 2617 02c2 0B       		.uleb128 0xb
 2618 02c3 49       		.uleb128 0x49
 2619 02c4 13       		.uleb128 0x13
 2620 02c5 02       		.uleb128 0x2
 2621 02c6 17       		.uleb128 0x17
 2622 02c7 00       		.byte	0
 2623 02c8 00       		.byte	0
 2624 02c9 36       		.uleb128 0x36
 2625 02ca 0B       		.uleb128 0xb
 2626 02cb 01       		.byte	0x1
 2627 02cc 55       		.uleb128 0x55
 2628 02cd 17       		.uleb128 0x17
 2629 02ce 01       		.uleb128 0x1
 2630 02cf 13       		.uleb128 0x13
 2631 02d0 00       		.byte	0
 2632 02d1 00       		.byte	0
 2633 02d2 37       		.uleb128 0x37
 2634 02d3 1D       		.uleb128 0x1d
 2635 02d4 01       		.byte	0x1
 2636 02d5 31       		.uleb128 0x31
 2637 02d6 13       		.uleb128 0x13
 2638 02d7 52       		.uleb128 0x52
 2639 02d8 01       		.uleb128 0x1
 2640 02d9 55       		.uleb128 0x55
 2641 02da 17       		.uleb128 0x17
 2642 02db 58       		.uleb128 0x58
 2643 02dc 0B       		.uleb128 0xb
 2644 02dd 59       		.uleb128 0x59
 2645 02de 0B       		.uleb128 0xb
 2646 02df 01       		.uleb128 0x1
 2647 02e0 13       		.uleb128 0x13
 2648 02e1 00       		.byte	0
 2649 02e2 00       		.byte	0
 2650 02e3 38       		.uleb128 0x38
 2651 02e4 0B       		.uleb128 0xb
 2652 02e5 01       		.byte	0x1
 2653 02e6 55       		.uleb128 0x55
 2654 02e7 17       		.uleb128 0x17
 2655 02e8 00       		.byte	0
 2656 02e9 00       		.byte	0
 2657 02ea 39       		.uleb128 0x39
 2658 02eb 34       		.uleb128 0x34
 2659 02ec 00       		.byte	0
 2660 02ed 31       		.uleb128 0x31
 2661 02ee 13       		.uleb128 0x13
 2662 02ef 00       		.byte	0
 2663 02f0 00       		.byte	0
 2664 02f1 3A       		.uleb128 0x3a
 2665 02f2 05       		.uleb128 0x5
 2666 02f3 00       		.byte	0
 2667 02f4 31       		.uleb128 0x31
 2668 02f5 13       		.uleb128 0x13
 2669 02f6 00       		.byte	0
 2670 02f7 00       		.byte	0
 2671 02f8 3B       		.uleb128 0x3b
ARM GAS  C:\msys64\tmp\ccU2jgeq.s 			page 48


 2672 02f9 1D       		.uleb128 0x1d
 2673 02fa 01       		.byte	0x1
 2674 02fb 31       		.uleb128 0x31
 2675 02fc 13       		.uleb128 0x13
 2676 02fd 52       		.uleb128 0x52
 2677 02fe 01       		.uleb128 0x1
 2678 02ff 55       		.uleb128 0x55
 2679 0300 17       		.uleb128 0x17
 2680 0301 58       		.uleb128 0x58
 2681 0302 0B       		.uleb128 0xb
 2682 0303 59       		.uleb128 0x59
 2683 0304 0B       		.uleb128 0xb
 2684 0305 00       		.byte	0
 2685 0306 00       		.byte	0
 2686 0307 3C       		.uleb128 0x3c
 2687 0308 05       		.uleb128 0x5
 2688 0309 00       		.byte	0
 2689 030a 03       		.uleb128 0x3
 2690 030b 0E       		.uleb128 0xe
 2691 030c 3A       		.uleb128 0x3a
 2692 030d 0B       		.uleb128 0xb
 2693 030e 3B       		.uleb128 0x3b
 2694 030f 0B       		.uleb128 0xb
 2695 0310 49       		.uleb128 0x49
 2696 0311 13       		.uleb128 0x13
 2697 0312 02       		.uleb128 0x2
 2698 0313 18       		.uleb128 0x18
 2699 0314 00       		.byte	0
 2700 0315 00       		.byte	0
 2701 0316 3D       		.uleb128 0x3d
 2702 0317 34       		.uleb128 0x34
 2703 0318 00       		.byte	0
 2704 0319 03       		.uleb128 0x3
 2705 031a 0E       		.uleb128 0xe
 2706 031b 3A       		.uleb128 0x3a
 2707 031c 0B       		.uleb128 0xb
 2708 031d 3B       		.uleb128 0x3b
 2709 031e 0B       		.uleb128 0xb
 2710 031f 49       		.uleb128 0x49
 2711 0320 13       		.uleb128 0x13
 2712 0321 02       		.uleb128 0x2
 2713 0322 18       		.uleb128 0x18
 2714 0323 00       		.byte	0
 2715 0324 00       		.byte	0
 2716 0325 3E       		.uleb128 0x3e
 2717 0326 2E       		.uleb128 0x2e
 2718 0327 01       		.byte	0x1
 2719 0328 03       		.uleb128 0x3
 2720 0329 0E       		.uleb128 0xe
 2721 032a 34       		.uleb128 0x34
 2722 032b 19       		.uleb128 0x19
 2723 032c 11       		.uleb128 0x11
 2724 032d 01       		.uleb128 0x1
 2725 032e 12       		.uleb128 0x12
 2726 032f 06       		.uleb128 0x6
 2727 0330 40       		.uleb128 0x40
 2728 0331 18       		.uleb128 0x18
ARM GAS  C:\msys64\tmp\ccU2jgeq.s 			page 49


 2729 0332 9742     		.uleb128 0x2117
 2730 0334 19       		.uleb128 0x19
 2731 0335 01       		.uleb128 0x1
 2732 0336 13       		.uleb128 0x13
 2733 0337 00       		.byte	0
 2734 0338 00       		.byte	0
 2735 0339 3F       		.uleb128 0x3f
 2736 033a 34       		.uleb128 0x34
 2737 033b 00       		.byte	0
 2738 033c 03       		.uleb128 0x3
 2739 033d 0E       		.uleb128 0xe
 2740 033e 3A       		.uleb128 0x3a
 2741 033f 0B       		.uleb128 0xb
 2742 0340 3B       		.uleb128 0x3b
 2743 0341 0B       		.uleb128 0xb
 2744 0342 49       		.uleb128 0x49
 2745 0343 13       		.uleb128 0x13
 2746 0344 3F       		.uleb128 0x3f
 2747 0345 19       		.uleb128 0x19
 2748 0346 3C       		.uleb128 0x3c
 2749 0347 19       		.uleb128 0x19
 2750 0348 00       		.byte	0
 2751 0349 00       		.byte	0
 2752 034a 40       		.uleb128 0x40
 2753 034b 01       		.uleb128 0x1
 2754 034c 01       		.byte	0x1
 2755 034d 49       		.uleb128 0x49
 2756 034e 13       		.uleb128 0x13
 2757 034f 01       		.uleb128 0x1
 2758 0350 13       		.uleb128 0x13
 2759 0351 00       		.byte	0
 2760 0352 00       		.byte	0
 2761 0353 41       		.uleb128 0x41
 2762 0354 21       		.uleb128 0x21
 2763 0355 00       		.byte	0
 2764 0356 49       		.uleb128 0x49
 2765 0357 13       		.uleb128 0x13
 2766 0358 2F       		.uleb128 0x2f
 2767 0359 0B       		.uleb128 0xb
 2768 035a 00       		.byte	0
 2769 035b 00       		.byte	0
 2770 035c 42       		.uleb128 0x42
 2771 035d 21       		.uleb128 0x21
 2772 035e 00       		.byte	0
 2773 035f 49       		.uleb128 0x49
 2774 0360 13       		.uleb128 0x13
 2775 0361 2F       		.uleb128 0x2f
 2776 0362 05       		.uleb128 0x5
 2777 0363 00       		.byte	0
 2778 0364 00       		.byte	0
 2779 0365 43       		.uleb128 0x43
 2780 0366 34       		.uleb128 0x34
 2781 0367 00       		.byte	0
 2782 0368 03       		.uleb128 0x3
 2783 0369 0E       		.uleb128 0xe
 2784 036a 3A       		.uleb128 0x3a
 2785 036b 0B       		.uleb128 0xb
ARM GAS  C:\msys64\tmp\ccU2jgeq.s 			page 50


 2786 036c 3B       		.uleb128 0x3b
 2787 036d 05       		.uleb128 0x5
 2788 036e 49       		.uleb128 0x49
 2789 036f 13       		.uleb128 0x13
 2790 0370 3F       		.uleb128 0x3f
 2791 0371 19       		.uleb128 0x19
 2792 0372 3C       		.uleb128 0x3c
 2793 0373 19       		.uleb128 0x19
 2794 0374 00       		.byte	0
 2795 0375 00       		.byte	0
 2796 0376 44       		.uleb128 0x44
 2797 0377 21       		.uleb128 0x21
 2798 0378 00       		.byte	0
 2799 0379 49       		.uleb128 0x49
 2800 037a 13       		.uleb128 0x13
 2801 037b 2F       		.uleb128 0x2f
 2802 037c 06       		.uleb128 0x6
 2803 037d 00       		.byte	0
 2804 037e 00       		.byte	0
 2805 037f 45       		.uleb128 0x45
 2806 0380 34       		.uleb128 0x34
 2807 0381 00       		.byte	0
 2808 0382 03       		.uleb128 0x3
 2809 0383 0E       		.uleb128 0xe
 2810 0384 3A       		.uleb128 0x3a
 2811 0385 0B       		.uleb128 0xb
 2812 0386 3B       		.uleb128 0x3b
 2813 0387 0B       		.uleb128 0xb
 2814 0388 49       		.uleb128 0x49
 2815 0389 13       		.uleb128 0x13
 2816 038a 3F       		.uleb128 0x3f
 2817 038b 19       		.uleb128 0x19
 2818 038c 02       		.uleb128 0x2
 2819 038d 18       		.uleb128 0x18
 2820 038e 00       		.byte	0
 2821 038f 00       		.byte	0
 2822 0390 46       		.uleb128 0x46
 2823 0391 2E       		.uleb128 0x2e
 2824 0392 00       		.byte	0
 2825 0393 3F       		.uleb128 0x3f
 2826 0394 19       		.uleb128 0x19
 2827 0395 3C       		.uleb128 0x3c
 2828 0396 19       		.uleb128 0x19
 2829 0397 6E       		.uleb128 0x6e
 2830 0398 0E       		.uleb128 0xe
 2831 0399 03       		.uleb128 0x3
 2832 039a 0E       		.uleb128 0xe
 2833 039b 3A       		.uleb128 0x3a
 2834 039c 0B       		.uleb128 0xb
 2835 039d 3B       		.uleb128 0x3b
 2836 039e 0B       		.uleb128 0xb
 2837 039f 00       		.byte	0
 2838 03a0 00       		.byte	0
 2839 03a1 00       		.byte	0
 2840              		.section	.debug_loc,"",%progbits
 2841              	.Ldebug_loc0:
 2842              	.LLST0:
ARM GAS  C:\msys64\tmp\ccU2jgeq.s 			page 51


 2843 0000 00000000 		.4byte	.LVL0
 2844 0004 1D000000 		.4byte	.LVL1-1
 2845 0008 0200     		.2byte	0x2
 2846 000a 90       		.byte	0x90
 2847 000b 40       		.uleb128 0x40
 2848 000c 1D000000 		.4byte	.LVL1-1
 2849 0010 30000000 		.4byte	.LVL2
 2850 0014 0600     		.2byte	0x6
 2851 0016 F3       		.byte	0xf3
 2852 0017 03       		.uleb128 0x3
 2853 0018 F5       		.byte	0xf5
 2854 0019 40       		.uleb128 0x40
 2855 001a 25       		.uleb128 0x25
 2856 001b 9F       		.byte	0x9f
 2857 001c 30000000 		.4byte	.LVL2
 2858 0020 41000000 		.4byte	.LVL4-1
 2859 0024 0200     		.2byte	0x2
 2860 0026 90       		.byte	0x90
 2861 0027 40       		.uleb128 0x40
 2862 0028 41000000 		.4byte	.LVL4-1
 2863 002c 50000000 		.4byte	.LVL5
 2864 0030 0600     		.2byte	0x6
 2865 0032 F3       		.byte	0xf3
 2866 0033 03       		.uleb128 0x3
 2867 0034 F5       		.byte	0xf5
 2868 0035 40       		.uleb128 0x40
 2869 0036 25       		.uleb128 0x25
 2870 0037 9F       		.byte	0x9f
 2871 0038 50000000 		.4byte	.LVL5
 2872 003c 61000000 		.4byte	.LVL6-1
 2873 0040 0200     		.2byte	0x2
 2874 0042 90       		.byte	0x90
 2875 0043 40       		.uleb128 0x40
 2876 0044 61000000 		.4byte	.LVL6-1
 2877 0048 6C000000 		.4byte	.LVL7
 2878 004c 0600     		.2byte	0x6
 2879 004e F3       		.byte	0xf3
 2880 004f 03       		.uleb128 0x3
 2881 0050 F5       		.byte	0xf5
 2882 0051 40       		.uleb128 0x40
 2883 0052 25       		.uleb128 0x25
 2884 0053 9F       		.byte	0x9f
 2885 0054 6C000000 		.4byte	.LVL7
 2886 0058 6F000000 		.4byte	.LVL8-1
 2887 005c 0200     		.2byte	0x2
 2888 005e 90       		.byte	0x90
 2889 005f 40       		.uleb128 0x40
 2890 0060 6F000000 		.4byte	.LVL8-1
 2891 0064 8C000000 		.4byte	.LFE515
 2892 0068 0600     		.2byte	0x6
 2893 006a F3       		.byte	0xf3
 2894 006b 03       		.uleb128 0x3
 2895 006c F5       		.byte	0xf5
 2896 006d 40       		.uleb128 0x40
 2897 006e 25       		.uleb128 0x25
 2898 006f 9F       		.byte	0x9f
 2899 0070 00000000 		.4byte	0
ARM GAS  C:\msys64\tmp\ccU2jgeq.s 			page 52


 2900 0074 00000000 		.4byte	0
 2901              	.LLST1:
 2902 0078 3E000000 		.4byte	.LVL3
 2903 007c 41000000 		.4byte	.LVL4-1
 2904 0080 0200     		.2byte	0x2
 2905 0082 90       		.byte	0x90
 2906 0083 40       		.uleb128 0x40
 2907 0084 41000000 		.4byte	.LVL4-1
 2908 0088 50000000 		.4byte	.LVL5
 2909 008c 0600     		.2byte	0x6
 2910 008e F3       		.byte	0xf3
 2911 008f 03       		.uleb128 0x3
 2912 0090 F5       		.byte	0xf5
 2913 0091 40       		.uleb128 0x40
 2914 0092 25       		.uleb128 0x25
 2915 0093 9F       		.byte	0x9f
 2916 0094 00000000 		.4byte	0
 2917 0098 00000000 		.4byte	0
 2918              	.LLST2:
 2919 009c 8C000000 		.4byte	.LVL9
 2920 00a0 A6000000 		.4byte	.LVL12
 2921 00a4 0100     		.2byte	0x1
 2922 00a6 50       		.byte	0x50
 2923 00a7 A6000000 		.4byte	.LVL12
 2924 00ab DC000000 		.4byte	.LFE516
 2925 00af 0400     		.2byte	0x4
 2926 00b1 F3       		.byte	0xf3
 2927 00b2 01       		.uleb128 0x1
 2928 00b3 50       		.byte	0x50
 2929 00b4 9F       		.byte	0x9f
 2930 00b5 00000000 		.4byte	0
 2931 00b9 00000000 		.4byte	0
 2932              	.LLST3:
 2933 00bd 8C000000 		.4byte	.LVL9
 2934 00c1 96000000 		.4byte	.LVL10
 2935 00c5 0100     		.2byte	0x1
 2936 00c7 51       		.byte	0x51
 2937 00c8 96000000 		.4byte	.LVL10
 2938 00cc DC000000 		.4byte	.LFE516
 2939 00d0 0400     		.2byte	0x4
 2940 00d2 F3       		.byte	0xf3
 2941 00d3 01       		.uleb128 0x1
 2942 00d4 51       		.byte	0x51
 2943 00d5 9F       		.byte	0x9f
 2944 00d6 00000000 		.4byte	0
 2945 00da 00000000 		.4byte	0
 2946              	.LLST4:
 2947 00de 8C000000 		.4byte	.LVL9
 2948 00e2 A2000000 		.4byte	.LVL11
 2949 00e6 0600     		.2byte	0x6
 2950 00e8 0C       		.byte	0xc
 2951 00e9 00530700 		.4byte	0x75300
 2952 00ed 9F       		.byte	0x9f
 2953 00ee 00000000 		.4byte	0
 2954 00f2 00000000 		.4byte	0
 2955              	.LLST5:
 2956 00f6 8C000000 		.4byte	.LVL9
ARM GAS  C:\msys64\tmp\ccU2jgeq.s 			page 53


 2957 00fa A2000000 		.4byte	.LVL11
 2958 00fe 0600     		.2byte	0x6
 2959 0100 03       		.byte	0x3
 2960 0101 00000000 		.4byte	_ZL11s_delay_ram
 2961 0105 9F       		.byte	0x9f
 2962 0106 00000000 		.4byte	0
 2963 010a 00000000 		.4byte	0
 2964              	.LLST6:
 2965 010e 8C000000 		.4byte	.LVL9
 2966 0112 A2000000 		.4byte	.LVL11
 2967 0116 0600     		.2byte	0x6
 2968 0118 03       		.byte	0x3
 2969 0119 04000000 		.4byte	_ZL7s_delay
 2970 011d 9F       		.byte	0x9f
 2971 011e 00000000 		.4byte	0
 2972 0122 00000000 		.4byte	0
 2973              	.LLST7:
 2974 0126 A2000000 		.4byte	.LVL11
 2975 012a BE000000 		.4byte	.LVL18
 2976 012e 0600     		.2byte	0x6
 2977 0130 03       		.byte	0x3
 2978 0131 04000000 		.4byte	_ZL7s_delay
 2979 0135 9F       		.byte	0x9f
 2980 0136 00000000 		.4byte	0
 2981 013a 00000000 		.4byte	0
 2982              	.LLST8:
 2983 013e A2000000 		.4byte	.LVL11
 2984 0142 BE000000 		.4byte	.LVL18
 2985 0146 0400     		.2byte	0x4
 2986 0148 40       		.byte	0x40
 2987 0149 3F       		.byte	0x3f
 2988 014a 24       		.byte	0x24
 2989 014b 9F       		.byte	0x9f
 2990 014c 00000000 		.4byte	0
 2991 0150 00000000 		.4byte	0
 2992              	.LLST9:
 2993 0154 A2000000 		.4byte	.LVL11
 2994 0158 A8000000 		.4byte	.LVL13
 2995 015c 0600     		.2byte	0x6
 2996 015e 03       		.byte	0x3
 2997 015f 00000000 		.4byte	_ZL11s_delay_ram
 2998 0163 9F       		.byte	0x9f
 2999 0164 A8000000 		.4byte	.LVL13
 3000 0168 AC000000 		.4byte	.LVL14
 3001 016c 0300     		.2byte	0x3
 3002 016e 73       		.byte	0x73
 3003 016f 74       		.sleb128 -12
 3004 0170 9F       		.byte	0x9f
 3005 0171 AC000000 		.4byte	.LVL14
 3006 0175 B0000000 		.4byte	.LVL15
 3007 0179 0300     		.2byte	0x3
 3008 017b 73       		.byte	0x73
 3009 017c 78       		.sleb128 -8
 3010 017d 9F       		.byte	0x9f
 3011 017e B0000000 		.4byte	.LVL15
 3012 0182 B4000000 		.4byte	.LVL16
 3013 0186 0300     		.2byte	0x3
ARM GAS  C:\msys64\tmp\ccU2jgeq.s 			page 54


 3014 0188 73       		.byte	0x73
 3015 0189 7C       		.sleb128 -4
 3016 018a 9F       		.byte	0x9f
 3017 018b B4000000 		.4byte	.LVL16
 3018 018f BA000000 		.4byte	.LVL17
 3019 0193 0100     		.2byte	0x1
 3020 0195 53       		.byte	0x53
 3021 0196 BA000000 		.4byte	.LVL17
 3022 019a BE000000 		.4byte	.LVL18
 3023 019e 0300     		.2byte	0x3
 3024 01a0 73       		.byte	0x73
 3025 01a1 70       		.sleb128 -16
 3026 01a2 9F       		.byte	0x9f
 3027 01a3 00000000 		.4byte	0
 3028 01a7 00000000 		.4byte	0
 3029              	.LLST10:
 3030 01ab A2000000 		.4byte	.LVL11
 3031 01af BE000000 		.4byte	.LVL18
 3032 01b3 0600     		.2byte	0x6
 3033 01b5 03       		.byte	0x3
 3034 01b6 00002000 		.4byte	_ZL11s_delay_ram+2097152
 3035 01ba 9F       		.byte	0x9f
 3036 01bb 00000000 		.4byte	0
 3037 01bf 00000000 		.4byte	0
 3038              	.LLST11:
 3039 01c3 DC000000 		.4byte	.LVL20
 3040 01c7 FD000000 		.4byte	.LVL22-1
 3041 01cb 0100     		.2byte	0x1
 3042 01cd 50       		.byte	0x50
 3043 01ce FD000000 		.4byte	.LVL22-1
 3044 01d2 2E010000 		.4byte	.LVL23
 3045 01d6 0100     		.2byte	0x1
 3046 01d8 55       		.byte	0x55
 3047 01d9 2E010000 		.4byte	.LVL23
 3048 01dd AC020000 		.4byte	.LFE517
 3049 01e1 0400     		.2byte	0x4
 3050 01e3 F3       		.byte	0xf3
 3051 01e4 01       		.uleb128 0x1
 3052 01e5 50       		.byte	0x50
 3053 01e6 9F       		.byte	0x9f
 3054 01e7 00000000 		.4byte	0
 3055 01eb 00000000 		.4byte	0
 3056              	.LLST12:
 3057 01ef DC000000 		.4byte	.LVL20
 3058 01f3 FD000000 		.4byte	.LVL22-1
 3059 01f7 0100     		.2byte	0x1
 3060 01f9 51       		.byte	0x51
 3061 01fa FD000000 		.4byte	.LVL22-1
 3062 01fe AC020000 		.4byte	.LFE517
 3063 0202 0400     		.2byte	0x4
 3064 0204 F3       		.byte	0xf3
 3065 0205 01       		.uleb128 0x1
 3066 0206 51       		.byte	0x51
 3067 0207 9F       		.byte	0x9f
 3068 0208 00000000 		.4byte	0
 3069 020c 00000000 		.4byte	0
 3070              	.LLST13:
ARM GAS  C:\msys64\tmp\ccU2jgeq.s 			page 55


 3071 0210 DC000000 		.4byte	.LVL20
 3072 0214 FD000000 		.4byte	.LVL22-1
 3073 0218 0100     		.2byte	0x1
 3074 021a 50       		.byte	0x50
 3075 021b FD000000 		.4byte	.LVL22-1
 3076 021f 2E010000 		.4byte	.LVL23
 3077 0223 0100     		.2byte	0x1
 3078 0225 55       		.byte	0x55
 3079 0226 2E010000 		.4byte	.LVL23
 3080 022a 4E010000 		.4byte	.LVL26
 3081 022e 0100     		.2byte	0x1
 3082 0230 50       		.byte	0x50
 3083 0231 4E010000 		.4byte	.LVL26
 3084 0235 78020000 		.4byte	.LVL42
 3085 0239 0300     		.2byte	0x3
 3086 023b 75       		.byte	0x75
 3087 023c 78       		.sleb128 -8
 3088 023d 9F       		.byte	0x9f
 3089 023e 78020000 		.4byte	.LVL42
 3090 0242 7A020000 		.4byte	.LVL43
 3091 0246 0100     		.2byte	0x1
 3092 0248 55       		.byte	0x55
 3093 0249 7A020000 		.4byte	.LVL43
 3094 024d AC020000 		.4byte	.LFE517
 3095 0251 0100     		.2byte	0x1
 3096 0253 50       		.byte	0x50
 3097 0254 00000000 		.4byte	0
 3098 0258 00000000 		.4byte	0
 3099              	.LLST14:
 3100 025c FA000000 		.4byte	.LVL21
 3101 0260 88020000 		.4byte	.LVL45
 3102 0264 0100     		.2byte	0x1
 3103 0266 58       		.byte	0x58
 3104 0267 88020000 		.4byte	.LVL45
 3105 026b AC020000 		.4byte	.LFE517
 3106 026f 0A00     		.2byte	0xa
 3107 0271 F3       		.byte	0xf3
 3108 0272 01       		.uleb128 0x1
 3109 0273 51       		.byte	0x51
 3110 0274 33       		.byte	0x33
 3111 0275 24       		.byte	0x24
 3112 0276 F3       		.byte	0xf3
 3113 0277 01       		.uleb128 0x1
 3114 0278 50       		.byte	0x50
 3115 0279 22       		.byte	0x22
 3116 027a 9F       		.byte	0x9f
 3117 027b 00000000 		.4byte	0
 3118 027f 00000000 		.4byte	0
 3119              	.LLST15:
 3120 0283 FA000000 		.4byte	.LVL21
 3121 0287 7E020000 		.4byte	.LVL44
 3122 028b 0200     		.2byte	0x2
 3123 028d 90       		.byte	0x90
 3124 028e 50       		.uleb128 0x50
 3125 028f 00000000 		.4byte	0
 3126 0293 00000000 		.4byte	0
 3127              	.LLST16:
ARM GAS  C:\msys64\tmp\ccU2jgeq.s 			page 56


 3128 0297 40010000 		.4byte	.LVL24
 3129 029b 72010000 		.4byte	.LVL30
 3130 029f 0200     		.2byte	0x2
 3131 02a1 90       		.byte	0x90
 3132 02a2 4E       		.uleb128 0x4e
 3133 02a3 72010000 		.4byte	.LVL30
 3134 02a7 82010000 		.4byte	.LVL31
 3135 02ab 0500     		.2byte	0x5
 3136 02ad 03       		.byte	0x3
 3137 02ae 00000000 		.4byte	s_len
 3138 02b2 00000000 		.4byte	0
 3139 02b6 00000000 		.4byte	0
 3140              	.LLST17:
 3141 02ba 40010000 		.4byte	.LVL24
 3142 02be 82010000 		.4byte	.LVL31
 3143 02c2 0600     		.2byte	0x6
 3144 02c4 03       		.byte	0x3
 3145 02c5 04000000 		.4byte	_ZL7s_delay
 3146 02c9 9F       		.byte	0x9f
 3147 02ca 00000000 		.4byte	0
 3148 02ce 00000000 		.4byte	0
 3149              	.LLST18:
 3150 02d2 4C010000 		.4byte	.LVL25
 3151 02d6 62010000 		.4byte	.LVL28
 3152 02da 0100     		.2byte	0x1
 3153 02dc 53       		.byte	0x53
 3154 02dd 62010000 		.4byte	.LVL28
 3155 02e1 66010000 		.4byte	.LVL29
 3156 02e5 0200     		.2byte	0x2
 3157 02e7 90       		.byte	0x90
 3158 02e8 44       		.uleb128 0x44
 3159 02e9 66010000 		.4byte	.LVL29
 3160 02ed 72010000 		.4byte	.LVL30
 3161 02f1 0600     		.2byte	0x6
 3162 02f3 F5       		.byte	0xf5
 3163 02f4 4E       		.uleb128 0x4e
 3164 02f5 25       		.uleb128 0x25
 3165 02f6 F7       		.byte	0xf7
 3166 02f7 2C       		.uleb128 0x2c
 3167 02f8 9F       		.byte	0x9f
 3168 02f9 72010000 		.4byte	.LVL30
 3169 02fd 82010000 		.4byte	.LVL31
 3170 0301 0B00     		.2byte	0xb
 3171 0303 03       		.byte	0x3
 3172 0304 00000000 		.4byte	s_len
 3173 0308 F6       		.byte	0xf6
 3174 0309 04       		.byte	0x4
 3175 030a 25       		.uleb128 0x25
 3176 030b F7       		.byte	0xf7
 3177 030c 2C       		.uleb128 0x2c
 3178 030d 9F       		.byte	0x9f
 3179 030e 00000000 		.4byte	0
 3180 0312 00000000 		.4byte	0
 3181              	.LLST19:
 3182 0316 4C010000 		.4byte	.LVL25
 3183 031a 62010000 		.4byte	.LVL28
 3184 031e 0B00     		.2byte	0xb
ARM GAS  C:\msys64\tmp\ccU2jgeq.s 			page 57


 3185 0320 F5       		.byte	0xf5
 3186 0321 4E       		.uleb128 0x4e
 3187 0322 25       		.uleb128 0x25
 3188 0323 73       		.byte	0x73
 3189 0324 00       		.sleb128 0
 3190 0325 F7       		.byte	0xf7
 3191 0326 2C       		.uleb128 0x2c
 3192 0327 F7       		.byte	0xf7
 3193 0328 25       		.uleb128 0x25
 3194 0329 1C       		.byte	0x1c
 3195 032a 9F       		.byte	0x9f
 3196 032b 62010000 		.4byte	.LVL28
 3197 032f 66010000 		.4byte	.LVL29
 3198 0333 0C00     		.2byte	0xc
 3199 0335 F5       		.byte	0xf5
 3200 0336 4E       		.uleb128 0x4e
 3201 0337 25       		.uleb128 0x25
 3202 0338 92       		.byte	0x92
 3203 0339 44       		.uleb128 0x44
 3204 033a 00       		.sleb128 0
 3205 033b F7       		.byte	0xf7
 3206 033c 2C       		.uleb128 0x2c
 3207 033d F7       		.byte	0xf7
 3208 033e 25       		.uleb128 0x25
 3209 033f 1C       		.byte	0x1c
 3210 0340 9F       		.byte	0x9f
 3211 0341 66010000 		.4byte	.LVL29
 3212 0345 72010000 		.4byte	.LVL30
 3213 0349 0C00     		.2byte	0xc
 3214 034b F5       		.byte	0xf5
 3215 034c 4E       		.uleb128 0x4e
 3216 034d 25       		.uleb128 0x25
 3217 034e F5       		.byte	0xf5
 3218 034f 4E       		.uleb128 0x4e
 3219 0350 25       		.uleb128 0x25
 3220 0351 F7       		.byte	0xf7
 3221 0352 2C       		.uleb128 0x2c
 3222 0353 F7       		.byte	0xf7
 3223 0354 25       		.uleb128 0x25
 3224 0355 1C       		.byte	0x1c
 3225 0356 9F       		.byte	0x9f
 3226 0357 72010000 		.4byte	.LVL30
 3227 035b 82010000 		.4byte	.LVL31
 3228 035f 0200     		.2byte	0x2
 3229 0361 90       		.byte	0x90
 3230 0362 4E       		.uleb128 0x4e
 3231 0363 00000000 		.4byte	0
 3232 0367 00000000 		.4byte	0
 3233              	.LLST20:
 3234 036b 4C010000 		.4byte	.LVL25
 3235 036f 5A010000 		.4byte	.LVL27
 3236 0373 0100     		.2byte	0x1
 3237 0375 53       		.byte	0x53
 3238 0376 00000000 		.4byte	0
 3239 037a 00000000 		.4byte	0
 3240              	.LLST21:
 3241 037e 4C010000 		.4byte	.LVL25
ARM GAS  C:\msys64\tmp\ccU2jgeq.s 			page 58


 3242 0382 5A010000 		.4byte	.LVL27
 3243 0386 0600     		.2byte	0x6
 3244 0388 03       		.byte	0x3
 3245 0389 04000000 		.4byte	_ZL7s_delay
 3246 038d 9F       		.byte	0x9f
 3247 038e 00000000 		.4byte	0
 3248 0392 00000000 		.4byte	0
 3249              	.LLST22:
 3250 0396 5A010000 		.4byte	.LVL27
 3251 039a 62010000 		.4byte	.LVL28
 3252 039e 0B00     		.2byte	0xb
 3253 03a0 F5       		.byte	0xf5
 3254 03a1 4E       		.uleb128 0x4e
 3255 03a2 25       		.uleb128 0x25
 3256 03a3 73       		.byte	0x73
 3257 03a4 00       		.sleb128 0
 3258 03a5 F7       		.byte	0xf7
 3259 03a6 2C       		.uleb128 0x2c
 3260 03a7 F7       		.byte	0xf7
 3261 03a8 25       		.uleb128 0x25
 3262 03a9 1C       		.byte	0x1c
 3263 03aa 9F       		.byte	0x9f
 3264 03ab 62010000 		.4byte	.LVL28
 3265 03af 66010000 		.4byte	.LVL29
 3266 03b3 0C00     		.2byte	0xc
 3267 03b5 F5       		.byte	0xf5
 3268 03b6 4E       		.uleb128 0x4e
 3269 03b7 25       		.uleb128 0x25
 3270 03b8 92       		.byte	0x92
 3271 03b9 44       		.uleb128 0x44
 3272 03ba 00       		.sleb128 0
 3273 03bb F7       		.byte	0xf7
 3274 03bc 2C       		.uleb128 0x2c
 3275 03bd F7       		.byte	0xf7
 3276 03be 25       		.uleb128 0x25
 3277 03bf 1C       		.byte	0x1c
 3278 03c0 9F       		.byte	0x9f
 3279 03c1 66010000 		.4byte	.LVL29
 3280 03c5 72010000 		.4byte	.LVL30
 3281 03c9 0C00     		.2byte	0xc
 3282 03cb F5       		.byte	0xf5
 3283 03cc 4E       		.uleb128 0x4e
 3284 03cd 25       		.uleb128 0x25
 3285 03ce F5       		.byte	0xf5
 3286 03cf 4E       		.uleb128 0x4e
 3287 03d0 25       		.uleb128 0x25
 3288 03d1 F7       		.byte	0xf7
 3289 03d2 2C       		.uleb128 0x2c
 3290 03d3 F7       		.byte	0xf7
 3291 03d4 25       		.uleb128 0x25
 3292 03d5 1C       		.byte	0x1c
 3293 03d6 9F       		.byte	0x9f
 3294 03d7 72010000 		.4byte	.LVL30
 3295 03db 82010000 		.4byte	.LVL31
 3296 03df 0200     		.2byte	0x2
 3297 03e1 90       		.byte	0x90
 3298 03e2 4E       		.uleb128 0x4e
ARM GAS  C:\msys64\tmp\ccU2jgeq.s 			page 59


 3299 03e3 00000000 		.4byte	0
 3300 03e7 00000000 		.4byte	0
 3301              	.LLST23:
 3302 03eb CA010000 		.4byte	.LVL38
 3303 03ef DC010000 		.4byte	.LVL39
 3304 03f3 0200     		.2byte	0x2
 3305 03f5 90       		.byte	0x90
 3306 03f6 4E       		.uleb128 0x4e
 3307 03f7 00000000 		.4byte	0
 3308 03fb 00000000 		.4byte	0
 3309              	.LLST24:
 3310 03ff 9C010000 		.4byte	.LVL32
 3311 0403 AC010000 		.4byte	.LVL33
 3312 0407 0E00     		.2byte	0xe
 3313 0409 75       		.byte	0x75
 3314 040a 78       		.sleb128 -8
 3315 040b F6       		.byte	0xf6
 3316 040c 04       		.byte	0x4
 3317 040d 25       		.uleb128 0x25
 3318 040e F5       		.byte	0xf5
 3319 040f 4F       		.uleb128 0x4f
 3320 0410 25       		.uleb128 0x25
 3321 0411 22       		.byte	0x22
 3322 0412 F5       		.byte	0xf5
 3323 0413 50       		.uleb128 0x50
 3324 0414 25       		.uleb128 0x25
 3325 0415 1E       		.byte	0x1e
 3326 0416 9F       		.byte	0x9f
 3327 0417 AC010000 		.4byte	.LVL33
 3328 041b B4010000 		.4byte	.LVL34
 3329 041f 0200     		.2byte	0x2
 3330 0421 90       		.byte	0x90
 3331 0422 4E       		.uleb128 0x4e
 3332 0423 00000000 		.4byte	0
 3333 0427 00000000 		.4byte	0
 3334              	.LLST25:
 3335 042b 9C010000 		.4byte	.LVL32
 3336 042f B4010000 		.4byte	.LVL34
 3337 0433 0600     		.2byte	0x6
 3338 0435 03       		.byte	0x3
 3339 0436 04000000 		.4byte	_ZL7s_delay
 3340 043a 9F       		.byte	0x9f
 3341 043b 00000000 		.4byte	0
 3342 043f 00000000 		.4byte	0
 3343              	.LLST26:
 3344 0443 B4010000 		.4byte	.LVL34
 3345 0447 BC010000 		.4byte	.LVL35
 3346 044b 0E00     		.2byte	0xe
 3347 044d 75       		.byte	0x75
 3348 044e 7C       		.sleb128 -4
 3349 044f F6       		.byte	0xf6
 3350 0450 04       		.byte	0x4
 3351 0451 25       		.uleb128 0x25
 3352 0452 F5       		.byte	0xf5
 3353 0453 4F       		.uleb128 0x4f
 3354 0454 25       		.uleb128 0x25
 3355 0455 22       		.byte	0x22
ARM GAS  C:\msys64\tmp\ccU2jgeq.s 			page 60


 3356 0456 F5       		.byte	0xf5
 3357 0457 50       		.uleb128 0x50
 3358 0458 25       		.uleb128 0x25
 3359 0459 1E       		.byte	0x1e
 3360 045a 9F       		.byte	0x9f
 3361 045b C2010000 		.4byte	.LVL36
 3362 045f C6010000 		.4byte	.LVL37
 3363 0463 0200     		.2byte	0x2
 3364 0465 90       		.byte	0x90
 3365 0466 4F       		.uleb128 0x4f
 3366 0467 00000000 		.4byte	0
 3367 046b 00000000 		.4byte	0
 3368              	.LLST27:
 3369 046f B4010000 		.4byte	.LVL34
 3370 0473 C6010000 		.4byte	.LVL37
 3371 0477 0600     		.2byte	0x6
 3372 0479 03       		.byte	0x3
 3373 047a 04000000 		.4byte	_ZL7s_delay
 3374 047e 9F       		.byte	0x9f
 3375 047f 00000000 		.4byte	0
 3376 0483 00000000 		.4byte	0
 3377              	.LLST28:
 3378 0487 24020000 		.4byte	.LVL40
 3379 048b 34020000 		.4byte	.LVL41
 3380 048f 0200     		.2byte	0x2
 3381 0491 90       		.byte	0x90
 3382 0492 4E       		.uleb128 0x4e
 3383 0493 00000000 		.4byte	0
 3384 0497 00000000 		.4byte	0
 3385              	.LLST29:
 3386 049b 00000000 		.4byte	.LVL48
 3387 049f 10000000 		.4byte	.LVL49
 3388 04a3 0400     		.2byte	0x4
 3389 04a5 0A       		.byte	0xa
 3390 04a6 FFFF     		.2byte	0xffff
 3391 04a8 9F       		.byte	0x9f
 3392 04a9 00000000 		.4byte	0
 3393 04ad 00000000 		.4byte	0
 3394              	.LLST30:
 3395 04b1 00000000 		.4byte	.LVL48
 3396 04b5 10000000 		.4byte	.LVL49
 3397 04b9 0200     		.2byte	0x2
 3398 04bb 31       		.byte	0x31
 3399 04bc 9F       		.byte	0x9f
 3400 04bd 00000000 		.4byte	0
 3401 04c1 00000000 		.4byte	0
 3402              	.LLST31:
 3403 04c5 00000000 		.4byte	.LVL48
 3404 04c9 10000000 		.4byte	.LVL49
 3405 04cd 0600     		.2byte	0x6
 3406 04cf 03       		.byte	0x3
 3407 04d0 04000000 		.4byte	_ZL7s_delay
 3408 04d4 9F       		.byte	0x9f
 3409 04d5 00000000 		.4byte	0
 3410 04d9 00000000 		.4byte	0
 3411              		.section	.debug_aranges,"",%progbits
 3412 0000 24000000 		.4byte	0x24
ARM GAS  C:\msys64\tmp\ccU2jgeq.s 			page 61


 3413 0004 0200     		.2byte	0x2
 3414 0006 00000000 		.4byte	.Ldebug_info0
 3415 000a 04       		.byte	0x4
 3416 000b 00       		.byte	0
 3417 000c 0000     		.2byte	0
 3418 000e 0000     		.2byte	0
 3419 0010 00000000 		.4byte	.Ltext0
 3420 0014 DC020000 		.4byte	.Letext0-.Ltext0
 3421 0018 00000000 		.4byte	.LFB520
 3422 001c 18000000 		.4byte	.LFE520-.LFB520
 3423 0020 00000000 		.4byte	0
 3424 0024 00000000 		.4byte	0
 3425              		.section	.debug_ranges,"",%progbits
 3426              	.Ldebug_ranges0:
 3427 0000 00010000 		.4byte	.LBB62
 3428 0004 2E010000 		.4byte	.LBE62
 3429 0008 3C010000 		.4byte	.LBB119
 3430 000c BC010000 		.4byte	.LBE119
 3431 0010 BE010000 		.4byte	.LBB120
 3432 0014 CE010000 		.4byte	.LBE120
 3433 0018 D0010000 		.4byte	.LBB121
 3434 001c 78020000 		.4byte	.LBE121
 3435 0020 00000000 		.4byte	0
 3436 0024 00000000 		.4byte	0
 3437 0028 00010000 		.4byte	.LBB63
 3438 002c 06010000 		.4byte	.LBE63
 3439 0030 28010000 		.4byte	.LBB87
 3440 0034 2A010000 		.4byte	.LBE87
 3441 0038 40010000 		.4byte	.LBB93
 3442 003c 44010000 		.4byte	.LBE93
 3443 0040 48010000 		.4byte	.LBB94
 3444 0044 7A010000 		.4byte	.LBE94
 3445 0048 7E010000 		.4byte	.LBB101
 3446 004c 82010000 		.4byte	.LBE101
 3447 0050 00000000 		.4byte	0
 3448 0054 00000000 		.4byte	0
 3449 0058 00010000 		.4byte	.LBB65
 3450 005c 06010000 		.4byte	.LBE65
 3451 0060 28010000 		.4byte	.LBB69
 3452 0064 2A010000 		.4byte	.LBE69
 3453 0068 4C010000 		.4byte	.LBB70
 3454 006c 5A010000 		.4byte	.LBE70
 3455 0070 00000000 		.4byte	0
 3456 0074 00000000 		.4byte	0
 3457 0078 5A010000 		.4byte	.LBB71
 3458 007c 5E010000 		.4byte	.LBE71
 3459 0080 62010000 		.4byte	.LBB79
 3460 0084 66010000 		.4byte	.LBE79
 3461 0088 6E010000 		.4byte	.LBB81
 3462 008c 7A010000 		.4byte	.LBE81
 3463 0090 7E010000 		.4byte	.LBB82
 3464 0094 82010000 		.4byte	.LBE82
 3465 0098 00000000 		.4byte	0
 3466 009c 00000000 		.4byte	0
 3467 00a0 5E010000 		.4byte	.LBB76
 3468 00a4 62010000 		.4byte	.LBE76
 3469 00a8 66010000 		.4byte	.LBB80
ARM GAS  C:\msys64\tmp\ccU2jgeq.s 			page 62


 3470 00ac 6E010000 		.4byte	.LBE80
 3471 00b0 00000000 		.4byte	0
 3472 00b4 00000000 		.4byte	0
 3473 00b8 2A010000 		.4byte	.LBB88
 3474 00bc 2E010000 		.4byte	.LBE88
 3475 00c0 A4010000 		.4byte	.LBB110
 3476 00c4 A8010000 		.4byte	.LBE110
 3477 00c8 CA010000 		.4byte	.LBB115
 3478 00cc CE010000 		.4byte	.LBE115
 3479 00d0 D0010000 		.4byte	.LBB116
 3480 00d4 DC010000 		.4byte	.LBE116
 3481 00d8 00000000 		.4byte	0
 3482 00dc 00000000 		.4byte	0
 3483 00e0 7A010000 		.4byte	.LBB95
 3484 00e4 7E010000 		.4byte	.LBE95
 3485 00e8 82010000 		.4byte	.LBB102
 3486 00ec 86010000 		.4byte	.LBE102
 3487 00f0 9C010000 		.4byte	.LBB109
 3488 00f4 A4010000 		.4byte	.LBE109
 3489 00f8 A8010000 		.4byte	.LBB111
 3490 00fc AC010000 		.4byte	.LBE111
 3491 0100 B0010000 		.4byte	.LBB112
 3492 0104 B4010000 		.4byte	.LBE112
 3493 0108 00000000 		.4byte	0
 3494 010c 00000000 		.4byte	0
 3495 0110 86010000 		.4byte	.LBB103
 3496 0114 8C010000 		.4byte	.LBE103
 3497 0118 90010000 		.4byte	.LBB108
 3498 011c 94010000 		.4byte	.LBE108
 3499 0120 B4010000 		.4byte	.LBB113
 3500 0124 BC010000 		.4byte	.LBE113
 3501 0128 BE010000 		.4byte	.LBB114
 3502 012c C6010000 		.4byte	.LBE114
 3503 0130 00000000 		.4byte	0
 3504 0134 00000000 		.4byte	0
 3505 0138 00000000 		.4byte	.Ltext0
 3506 013c DC020000 		.4byte	.Letext0
 3507 0140 00000000 		.4byte	.LFB520
 3508 0144 18000000 		.4byte	.LFE520
 3509 0148 00000000 		.4byte	0
 3510 014c 00000000 		.4byte	0
 3511              		.section	.debug_line,"",%progbits
 3512              	.Ldebug_line0:
 3513 0000 AD060000 		.section	.debug_str,"MS",%progbits,1
 3513      02000505 
 3513      00000201 
 3513      FB0E0D00 
 3513      01010101 
 3514              	.LASF48:
 3515 0000 5F5A4E33 		.ascii	"_ZN3dsp9DelayLine5writeEf\000"
 3515      64737039 
 3515      44656C61 
 3515      794C696E 
 3515      65357772 
 3516              	.LASF79:
 3517 001a 5F686F6F 		.ascii	"_hook_param\000"
 3517      6B5F7061 
ARM GAS  C:\msys64\tmp\ccU2jgeq.s 			page 63


 3517      72616D00 
 3518              	.LASF98:
 3519 0026 77745F70 		.ascii	"wt_par_lut_f\000"
 3519      61725F6C 
 3519      75745F66 
 3519      00
 3520              	.LASF100:
 3521 0033 735F6465 		.ascii	"s_delay_ram\000"
 3521      6C61795F 
 3521      72616D00 
 3522              	.LASF22:
 3523 003f 646F7562 		.ascii	"double_t\000"
 3523      6C655F74 
 3523      00
 3524              	.LASF107:
 3525 0048 474E5520 		.ascii	"GNU C++11 5.4.1 20160919 (release) [ARM/embedded-5-"
 3525      432B2B31 
 3525      3120352E 
 3525      342E3120 
 3525      32303136 
 3526 007b 6272616E 		.ascii	"branch revision 240496] -mcpu=cortex-m4 -mthumb -mn"
 3526      63682072 
 3526      65766973 
 3526      696F6E20 
 3526      32343034 
 3527 00ae 6F2D7468 		.ascii	"o-thumb-interwork -mlittle-endian -mfloat-abi=hard "
 3527      756D622D 
 3527      696E7465 
 3527      72776F72 
 3527      6B202D6D 
 3528 00e1 2D6D6670 		.ascii	"-mfpu=fpv4-sp-d16 -g -Os -std=c++11 -fsingle-precis"
 3528      753D6670 
 3528      76342D73 
 3528      702D6431 
 3528      36202D67 
 3529 0114 696F6E2D 		.ascii	"ion-constant -fcheck-new -fno-rtti -fno-exceptions "
 3529      636F6E73 
 3529      74616E74 
 3529      202D6663 
 3529      6865636B 
 3530 0147 2D666E6F 		.ascii	"-fno-non-call-exceptions\000"
 3530      2D6E6F6E 
 3530      2D63616C 
 3530      6C2D6578 
 3530      63657074 
 3531              	.LASF1:
 3532 0160 756E7369 		.ascii	"unsigned int\000"
 3532      676E6564 
 3532      20696E74 
 3532      00
 3533              	.LASF51:
 3534 016d 72656164 		.ascii	"readFrac\000"
 3534      46726163 
 3534      00
 3535              	.LASF69:
 3536 0176 66726163 		.ascii	"frac\000"
 3536      00
ARM GAS  C:\msys64\tmp\ccU2jgeq.s 			page 64


 3537              	.LASF7:
 3538 017b 5F5F696E 		.ascii	"__int32_t\000"
 3538      7433325F 
 3538      7400
 3539              	.LASF73:
 3540 0185 706C6174 		.ascii	"platform\000"
 3540      666F726D 
 3540      00
 3541              	.LASF101:
 3542 018e 735F6C65 		.ascii	"s_len\000"
 3542      6E00
 3543              	.LASF82:
 3544 0194 76616C66 		.ascii	"valf\000"
 3544      00
 3545              	.LASF87:
 3546 0199 74616E70 		.ascii	"tanpi_lut_f\000"
 3546      695F6C75 
 3546      745F6600 
 3547              	.LASF15:
 3548 01a5 75696E74 		.ascii	"uint32_t\000"
 3548      33325F74 
 3548      00
 3549              	.LASF67:
 3550 01ae 77617665 		.ascii	"waveshape\000"
 3550      73686170 
 3550      6500
 3551              	.LASF95:
 3552 01b8 6D696469 		.ascii	"midi_to_hz_lut_f\000"
 3552      5F746F5F 
 3552      687A5F6C 
 3552      75745F66 
 3552      00
 3553              	.LASF0:
 3554 01c9 666C6F61 		.ascii	"float\000"
 3554      7400
 3555              	.LASF68:
 3556 01cf 62617365 		.ascii	"base\000"
 3556      00
 3557              	.LASF80:
 3558 01d4 696E6465 		.ascii	"index\000"
 3558      7800
 3559              	.LASF58:
 3560 01da 5F5F6973 		.ascii	"__is_integer<float>\000"
 3560      5F696E74 
 3560      65676572 
 3560      3C666C6F 
 3560      61743E00 
 3561              	.LASF25:
 3562 01ee 6B5F7573 		.ascii	"k_user_module_delfx\000"
 3562      65725F6D 
 3562      6F64756C 
 3562      655F6465 
 3562      6C667800 
 3563              	.LASF12:
 3564 0202 6C6F6E67 		.ascii	"long long unsigned int\000"
 3564      206C6F6E 
 3564      6720756E 
ARM GAS  C:\msys64\tmp\ccU2jgeq.s 			page 65


 3564      7369676E 
 3564      65642069 
 3565              	.LASF43:
 3566 0219 636C6561 		.ascii	"clear\000"
 3566      7200
 3567              	.LASF54:
 3568 021f 5F5A4E33 		.ascii	"_ZN3dsp9DelayLine9readFraczEmf\000"
 3568      64737039 
 3568      44656C61 
 3568      794C696E 
 3568      65397265 
 3569              	.LASF44:
 3570 023e 7365744D 		.ascii	"setMemory\000"
 3570      656D6F72 
 3570      7900
 3571              	.LASF70:
 3572 0248 5F5F696E 		.ascii	"__initialize_p\000"
 3572      69746961 
 3572      6C697A65 
 3572      5F7000
 3573              	.LASF111:
 3574 0257 32317573 		.ascii	"21user_delfx_param_id_t\000"
 3574      65725F64 
 3574      656C6678 
 3574      5F706172 
 3574      616D5F69 
 3575              	.LASF16:
 3576 026f 73697A65 		.ascii	"size_t\000"
 3576      5F7400
 3577              	.LASF26:
 3578 0276 6B5F7573 		.ascii	"k_user_module_revfx\000"
 3578      65725F6D 
 3578      6F64756C 
 3578      655F7265 
 3578      76667800 
 3579              	.LASF33:
 3580 028a 6B5F6E75 		.ascii	"k_num_user_delfx_param_id\000"
 3580      6D5F7573 
 3580      65725F64 
 3580      656C6678 
 3580      5F706172 
 3581              	.LASF77:
 3582 02a4 64656C53 		.ascii	"delSampleL\000"
 3582      616D706C 
 3582      654C00
 3583              	.LASF71:
 3584 02af 5F5F7072 		.ascii	"__priority\000"
 3584      696F7269 
 3584      747900
 3585              	.LASF113:
 3586 02ba 63616C63 		.ascii	"calculate_len\000"
 3586      756C6174 
 3586      655F6C65 
 3586      6E00
 3587              	.LASF114:
 3588 02c8 5F5A3133 		.ascii	"_Z13calculate_lenf\000"
 3588      63616C63 
ARM GAS  C:\msys64\tmp\ccU2jgeq.s 			page 66


 3588      756C6174 
 3588      655F6C65 
 3588      6E6600
 3589              	.LASF78:
 3590 02db 64656C53 		.ascii	"delSampleR\000"
 3590      616D706C 
 3590      655200
 3591              	.LASF30:
 3592 02e6 6B5F7573 		.ascii	"k_user_delfx_param_depth\000"
 3592      65725F64 
 3592      656C6678 
 3592      5F706172 
 3592      616D5F64 
 3593              	.LASF55:
 3594 02ff 5F5F7661 		.ascii	"__value\000"
 3594      6C756500 
 3595              	.LASF105:
 3596 0307 77657458 		.ascii	"wetXNL\000"
 3596      4E4C00
 3597              	.LASF21:
 3598 030e 666C6F61 		.ascii	"float_t\000"
 3598      745F7400 
 3599              	.LASF57:
 3600 0316 5F5F6973 		.ascii	"__is_integer<double>\000"
 3600      5F696E74 
 3600      65676572 
 3600      3C646F75 
 3600      626C653E 
 3601              	.LASF56:
 3602 032b 5F5F6973 		.ascii	"__is_integer<long double>\000"
 3602      5F696E74 
 3602      65676572 
 3602      3C6C6F6E 
 3602      6720646F 
 3603              	.LASF19:
 3604 0345 63686172 		.ascii	"char\000"
 3604      00
 3605              	.LASF89:
 3606 034a 706F7732 		.ascii	"pow2_lut_f\000"
 3606      5F6C7574 
 3606      5F6600
 3607              	.LASF83:
 3608 0355 6B5F6678 		.ascii	"k_fx_api_platform\000"
 3608      5F617069 
 3608      5F706C61 
 3608      74666F72 
 3608      6D00
 3609              	.LASF76:
 3610 0367 66656564 		.ascii	"feedback\000"
 3610      6261636B 
 3610      00
 3611              	.LASF75:
 3612 0370 6672616D 		.ascii	"frames\000"
 3612      657300
 3613              	.LASF91:
 3614 0377 73636865 		.ascii	"schetzen_lut_f\000"
 3614      747A656E 
ARM GAS  C:\msys64\tmp\ccU2jgeq.s 			page 67


 3614      5F6C7574 
 3614      5F6600
 3615              	.LASF13:
 3616 0386 75696E74 		.ascii	"uint8_t\000"
 3616      385F7400 
 3617              	.LASF92:
 3618 038e 62697472 		.ascii	"bitres_lut_f\000"
 3618      65735F6C 
 3618      75745F66 
 3618      00
 3619              	.LASF103:
 3620 039b 6761696E 		.ascii	"gain\000"
 3620      00
 3621              	.LASF86:
 3622 03a0 6C6F675F 		.ascii	"log_lut_f\000"
 3622      6C75745F 
 3622      6600
 3623              	.LASF42:
 3624 03aa 5F5A4E33 		.ascii	"_ZN3dsp9DelayLineC4EPfj\000"
 3624      64737039 
 3624      44656C61 
 3624      794C696E 
 3624      65433445 
 3625              	.LASF11:
 3626 03c2 6C6F6E67 		.ascii	"long long int\000"
 3626      206C6F6E 
 3626      6720696E 
 3626      7400
 3627              	.LASF47:
 3628 03d0 77726974 		.ascii	"write\000"
 3628      6500
 3629              	.LASF104:
 3630 03d6 77657458 		.ascii	"wetXN\000"
 3630      4E00
 3631              	.LASF39:
 3632 03dc 6D577269 		.ascii	"mWriteIdx\000"
 3632      74654964 
 3632      7800
 3633              	.LASF38:
 3634 03e6 6D4D6173 		.ascii	"mMask\000"
 3634      6B00
 3635              	.LASF60:
 3636 03ec 5F5F6378 		.ascii	"__cxx11\000"
 3636      78313100 
 3637              	.LASF106:
 3638 03f4 77657458 		.ascii	"wetXNR\000"
 3638      4E5200
 3639              	.LASF28:
 3640 03fb 6B5F6E75 		.ascii	"k_num_user_modules\000"
 3640      6D5F7573 
 3640      65725F6D 
 3640      6F64756C 
 3640      657300
 3641              	.LASF31:
 3642 040e 6B5F7573 		.ascii	"k_user_delfx_param_reserved0\000"
 3642      65725F64 
 3642      656C6678 
ARM GAS  C:\msys64\tmp\ccU2jgeq.s 			page 68


 3642      5F706172 
 3642      616D5F72 
 3643              	.LASF53:
 3644 042b 72656164 		.ascii	"readFracz\000"
 3644      46726163 
 3644      7A00
 3645              	.LASF41:
 3646 0435 5F5A4E33 		.ascii	"_ZN3dsp9DelayLineC4Ev\000"
 3646      64737039 
 3646      44656C61 
 3646      794C696E 
 3646      65433445 
 3647              	.LASF65:
 3648 044b 6C696E65 		.ascii	"line_size\000"
 3648      5F73697A 
 3648      6500
 3649              	.LASF37:
 3650 0455 6D53697A 		.ascii	"mSize\000"
 3650      6500
 3651              	.LASF96:
 3652 045b 77745F73 		.ascii	"wt_saw_lut_f\000"
 3652      61775F6C 
 3652      75745F66 
 3652      00
 3653              	.LASF117:
 3654 0468 5F66785F 		.ascii	"_fx_get_bpmf\000"
 3654      6765745F 
 3654      62706D66 
 3654      00
 3655              	.LASF27:
 3656 0475 6B5F7573 		.ascii	"k_user_module_osc\000"
 3656      65725F6D 
 3656      6F64756C 
 3656      655F6F73 
 3656      6300
 3657              	.LASF17:
 3658 0487 6C6F6E67 		.ascii	"long double\000"
 3658      20646F75 
 3658      626C6500 
 3659              	.LASF64:
 3660 0493 74686973 		.ascii	"this\000"
 3660      00
 3661              	.LASF115:
 3662 0498 5F5F7374 		.ascii	"__static_initialization_and_destruction_0\000"
 3662      61746963 
 3662      5F696E69 
 3662      7469616C 
 3662      697A6174 
 3663              	.LASF74:
 3664 04c2 5F686F6F 		.ascii	"_hook_process\000"
 3664      6B5F7072 
 3664      6F636573 
 3664      7300
 3665              	.LASF72:
 3666 04d0 5F686F6F 		.ascii	"_hook_init\000"
 3666      6B5F696E 
 3666      697400
ARM GAS  C:\msys64\tmp\ccU2jgeq.s 			page 69


 3667              	.LASF4:
 3668 04db 73686F72 		.ascii	"short int\000"
 3668      7420696E 
 3668      7400
 3669              	.LASF88:
 3670 04e5 73717274 		.ascii	"sqrtm2log_lut_f\000"
 3670      6D326C6F 
 3670      675F6C75 
 3670      745F6600 
 3671              	.LASF90:
 3672 04f5 63756269 		.ascii	"cubicsat_lut_f\000"
 3672      63736174 
 3672      5F6C7574 
 3672      5F6600
 3673              	.LASF97:
 3674 0504 77745F73 		.ascii	"wt_sqr_lut_f\000"
 3674      71725F6C 
 3674      75745F66 
 3674      00
 3675              	.LASF8:
 3676 0511 6C6F6E67 		.ascii	"long int\000"
 3676      20696E74 
 3676      00
 3677              	.LASF84:
 3678 051a 6B5F6678 		.ascii	"k_fx_api_version\000"
 3678      5F617069 
 3678      5F766572 
 3678      73696F6E 
 3678      00
 3679              	.LASF46:
 3680 052b 5F5A4E33 		.ascii	"_ZN3dsp9DelayLine9setMemoryEPfj\000"
 3680      64737039 
 3680      44656C61 
 3680      794C696E 
 3680      65397365 
 3681              	.LASF24:
 3682 054b 6B5F7573 		.ascii	"k_user_module_modfx\000"
 3682      65725F6D 
 3682      6F64756C 
 3682      655F6D6F 
 3682      64667800 
 3683              	.LASF34:
 3684 055f 75736572 		.ascii	"user_delfx_param_id_t\000"
 3684      5F64656C 
 3684      66785F70 
 3684      6172616D 
 3684      5F69645F 
 3685              	.LASF66:
 3686 0575 66617374 		.ascii	"fastertanhf\000"
 3686      65727461 
 3686      6E686600 
 3687              	.LASF59:
 3688 0581 5F5F676E 		.ascii	"__gnu_cxx\000"
 3688      755F6378 
 3688      7800
 3689              	.LASF6:
 3690 058b 5F5F7569 		.ascii	"__uint8_t\000"
ARM GAS  C:\msys64\tmp\ccU2jgeq.s 			page 70


 3690      6E74385F 
 3690      7400
 3691              	.LASF49:
 3692 0595 72656164 		.ascii	"read\000"
 3692      00
 3693              	.LASF94:
 3694 059a 6B5F6F73 		.ascii	"k_osc_api_version\000"
 3694      635F6170 
 3694      695F7665 
 3694      7273696F 
 3694      6E00
 3695              	.LASF29:
 3696 05ac 6B5F7573 		.ascii	"k_user_delfx_param_time\000"
 3696      65725F64 
 3696      656C6678 
 3696      5F706172 
 3696      616D5F74 
 3697              	.LASF40:
 3698 05c4 44656C61 		.ascii	"DelayLine\000"
 3698      794C696E 
 3698      6500
 3699              	.LASF35:
 3700 05ce 6D4C696E 		.ascii	"mLine\000"
 3700      6500
 3701              	.LASF18:
 3702 05d4 73697A65 		.ascii	"sizetype\000"
 3702      74797065 
 3702      00
 3703              	.LASF52:
 3704 05dd 5F5A4E33 		.ascii	"_ZN3dsp9DelayLine8readFracEf\000"
 3704      64737039 
 3704      44656C61 
 3704      794C696E 
 3704      65387265 
 3705              	.LASF10:
 3706 05fa 6C6F6E67 		.ascii	"long unsigned int\000"
 3706      20756E73 
 3706      69676E65 
 3706      6420696E 
 3706      7400
 3707              	.LASF85:
 3708 060c 77745F73 		.ascii	"wt_sine_lut_f\000"
 3708      696E655F 
 3708      6C75745F 
 3708      6600
 3709              	.LASF14:
 3710 061a 696E7433 		.ascii	"int32_t\000"
 3710      325F7400 
 3711              	.LASF102:
 3712 0622 735F6D69 		.ascii	"s_mix\000"
 3712      7800
 3713              	.LASF62:
 3714 0628 6C696E69 		.ascii	"linintf\000"
 3714      6E746600 
 3715              	.LASF45:
 3716 0630 5F5A4E33 		.ascii	"_ZN3dsp9DelayLine5clearEv\000"
 3716      64737039 
ARM GAS  C:\msys64\tmp\ccU2jgeq.s 			page 71


 3716      44656C61 
 3716      794C696E 
 3716      6535636C 
 3717              	.LASF3:
 3718 064a 756E7369 		.ascii	"unsigned char\000"
 3718      676E6564 
 3718      20636861 
 3718      7200
 3719              	.LASF9:
 3720 0658 5F5F7569 		.ascii	"__uint32_t\000"
 3720      6E743332 
 3720      5F7400
 3721              	.LASF61:
 3722 0663 6E657874 		.ascii	"nextpow2_u32\000"
 3722      706F7732 
 3722      5F753332 
 3722      00
 3723              	.LASF23:
 3724 0670 6B5F7573 		.ascii	"k_user_module_global\000"
 3724      65725F6D 
 3724      6F64756C 
 3724      655F676C 
 3724      6F62616C 
 3725              	.LASF32:
 3726 0685 6B5F7573 		.ascii	"k_user_delfx_param_shift_depth\000"
 3726      65725F64 
 3726      656C6678 
 3726      5F706172 
 3726      616D5F73 
 3727              	.LASF99:
 3728 06a4 735F6465 		.ascii	"s_delay\000"
 3728      6C617900 
 3729              	.LASF110:
 3730 06ac 6465636C 		.ascii	"decltype(nullptr)\000"
 3730      74797065 
 3730      286E756C 
 3730      6C707472 
 3730      2900
 3731              	.LASF112:
 3732 06be 6275665F 		.ascii	"buf_clr_f32\000"
 3732      636C725F 
 3732      66333200 
 3733              	.LASF109:
 3734 06ca 433A5C75 		.ascii	"C:\\users\\bradl\\desktop\\Code Projects\\KorgFX\\K"
 3734      73657273 
 3734      5C627261 
 3734      646C5C64 
 3734      65736B74 
 3735 06f7 6F726744 		.ascii	"orgDelayFXSet\\Delays\\platform\\minilogue-xd\\Mono"
 3735      656C6179 
 3735      46585365 
 3735      745C4465 
 3735      6C617973 
 3736 0726 44656C61 		.ascii	"Delay\000"
 3736      7900
 3737              	.LASF63:
 3738 072c 62706D5F 		.ascii	"bpm_valf\000"
ARM GAS  C:\msys64\tmp\ccU2jgeq.s 			page 72


 3738      76616C66 
 3738      00
 3739              	.LASF116:
 3740 0735 5F474C4F 		.ascii	"_GLOBAL__sub_I_s_len\000"
 3740      42414C5F 
 3740      5F737562 
 3740      5F495F73 
 3740      5F6C656E 
 3741              	.LASF2:
 3742 074a 7369676E 		.ascii	"signed char\000"
 3742      65642063 
 3742      68617200 
 3743              	.LASF5:
 3744 0756 73686F72 		.ascii	"short unsigned int\000"
 3744      7420756E 
 3744      7369676E 
 3744      65642069 
 3744      6E7400
 3745              	.LASF50:
 3746 0769 5F5A4E33 		.ascii	"_ZN3dsp9DelayLine4readEm\000"
 3746      64737039 
 3746      44656C61 
 3746      794C696E 
 3746      65347265 
 3747              	.LASF36:
 3748 0782 6D467261 		.ascii	"mFracZ\000"
 3748      635A00
 3749              	.LASF20:
 3750 0789 646F7562 		.ascii	"double\000"
 3750      6C6500
 3751              	.LASF108:
 3752 0790 2E2F7372 		.ascii	"./src/monodelay.cpp\000"
 3752      632F6D6F 
 3752      6E6F6465 
 3752      6C61792E 
 3752      63707000 
 3753              	.LASF81:
 3754 07a4 76616C75 		.ascii	"value\000"
 3754      6500
 3755              	.LASF93:
 3756 07aa 6B5F6F73 		.ascii	"k_osc_api_platform\000"
 3756      635F6170 
 3756      695F706C 
 3756      6174666F 
 3756      726D00
 3757              		.ident	"GCC: (GNU Tools for ARM Embedded Processors) 5.4.1 20160919 (release) [ARM/embedded-5-bran
ARM GAS  C:\msys64\tmp\ccU2jgeq.s 			page 73


DEFINED SYMBOLS
                            *ABS*:00000000 monodelay.cpp
C:\msys64\tmp\ccU2jgeq.s:21     .text:00000000 $t
C:\msys64\tmp\ccU2jgeq.s:26     .text:00000000 _Z13calculate_lenf
C:\msys64\tmp\ccU2jgeq.s:109    .text:00000084 $d
C:\msys64\tmp\ccU2jgeq.s:114    .text:0000008c $t
C:\msys64\tmp\ccU2jgeq.s:119    .text:0000008c _hook_init
C:\msys64\tmp\ccU2jgeq.s:187    .text:000000d4 $d
C:\msys64\tmp\ccU2jgeq.s:192    .text:000000dc $t
C:\msys64\tmp\ccU2jgeq.s:197    .text:000000dc _hook_process
C:\msys64\tmp\ccU2jgeq.s:535    .text:00000288 $d
C:\msys64\tmp\ccU2jgeq.s:547    .text:000002ac $t
C:\msys64\tmp\ccU2jgeq.s:552    .text:000002ac _hook_param
C:\msys64\tmp\ccU2jgeq.s:593    .text:000002d8 $d
C:\msys64\tmp\ccU2jgeq.s:598    .text.startup:00000000 $t
C:\msys64\tmp\ccU2jgeq.s:602    .text.startup:00000000 _GLOBAL__sub_I_s_len
C:\msys64\tmp\ccU2jgeq.s:627    .text.startup:00000014 $d
C:\msys64\tmp\ccU2jgeq.s:635    .init_array:00000000 $d
C:\msys64\tmp\ccU2jgeq.s:665    .bss:00000020 bpm_valf
C:\msys64\tmp\ccU2jgeq.s:673    .bss:00000028 wetXNR
C:\msys64\tmp\ccU2jgeq.s:669    .bss:00000024 wetXNL
C:\msys64\tmp\ccU2jgeq.s:677    .bss:0000002c wetXN
C:\msys64\tmp\ccU2jgeq.s:661    .bss:0000001c gain
C:\msys64\tmp\ccU2jgeq.s:657    .bss:00000018 s_mix
C:\msys64\tmp\ccU2jgeq.s:649    .bss:00000000 s_len
C:\msys64\tmp\ccU2jgeq.s:645    .bss:00000000 $d
C:\msys64\tmp\ccU2jgeq.s:653    .bss:00000004 _ZL7s_delay
C:\msys64\tmp\ccU2jgeq.s:680    .sdram:00000000 $d
C:\msys64\tmp\ccU2jgeq.s:684    .sdram:00000000 _ZL11s_delay_ram
                     .debug_frame:00000010 $d

UNDEFINED SYMBOLS
_fx_get_bpmf
