ARM GAS  C:\msys64\tmp\ccFZw6Or.s 			page 1


   1              		.syntax unified
   2              		.cpu cortex-m4
   3              		.eabi_attribute 27, 1
   4              		.eabi_attribute 28, 1
   5              		.fpu fpv4-sp-d16
   6              		.eabi_attribute 20, 1
   7              		.eabi_attribute 21, 1
   8              		.eabi_attribute 23, 3
   9              		.eabi_attribute 24, 1
  10              		.eabi_attribute 25, 1
  11              		.eabi_attribute 26, 1
  12              		.eabi_attribute 30, 4
  13              		.eabi_attribute 34, 1
  14              		.eabi_attribute 18, 4
  15              		.thumb
  16              		.syntax unified
  17              		.file	"MBDist.cpp"
  18              		.text
  19              	.Ltext0:
  20              		.cfi_sections	.debug_frame
  21              		.align	1
  22              		.global	_hook_init
  23              		.thumb
  24              		.thumb_func
  25              		.type	_hook_init, %function
  26              	_hook_init:
  27              	.LFB298:
  28              		.file 1 "./src/MBDist.cpp"
  29              		.loc 1 16 0
  30              		.cfi_startproc
  31              		@ args = 0, pretend = 0, frame = 0
  32              		@ frame_needed = 0, uses_anonymous_args = 0
  33              	.LVL0:
  34 0000 30B5     		push	{r4, r5, lr}
  35              		.cfi_def_cfa_offset 12
  36              		.cfi_offset 4, -12
  37              		.cfi_offset 5, -8
  38              		.cfi_offset 14, -4
  39              		.loc 1 18 0
  40 0002 2B4C     		ldr	r4, .L2
  41              	.LBB39:
  42              	.LBB40:
  43              		.file 2 "./inc/fx_api.h"
  44              		.loc 2 234 0
  45 0004 9FED2B7A 		vldr.32	s14, .L2+4
  46 0008 D4ED007A 		vldr.32	s15, [r4]
  47              		.loc 2 236 0
  48 000c 2A49     		ldr	r1, .L2+8
  49              	.LVL1:
  50              	.LBE40:
  51              	.LBE39:
  52              	.LBB55:
  53              	.LBB56:
  54              		.file 3 "../inc/dsp/biquad.hpp"
  55              		.loc 3 356 0
  56 000e 2B4B     		ldr	r3, .L2+12
  57              	.LBE56:
ARM GAS  C:\msys64\tmp\ccFZw6Or.s 			page 2


  58              	.LBE55:
  59              	.LBB60:
  60              	.LBB49:
  61              		.loc 2 234 0
  62 0010 27EE877A 		vmul.f32	s14, s15, s14
  63              	.LBE49:
  64              	.LBE60:
  65              	.LBB61:
  66              	.LBB62:
  67              		.loc 3 236 0
  68 0014 B7EE005A 		vmov.f32	s10, #1.0e+0
  69              	.LBE62:
  70              	.LBE61:
  71              	.LBB65:
  72              	.LBB50:
  73              		.loc 2 235 0
  74 0018 FCEEC77A 		vcvt.u32.f32	s15, s14
  75              	.LBE50:
  76              	.LBE65:
  77              	.LBB66:
  78              	.LBB57:
  79              		.loc 3 356 0
  80 001c 0022     		movs	r2, #0
  81              	.LBE57:
  82              	.LBE66:
  83              	.LBB67:
  84              	.LBB51:
  85              		.loc 2 235 0
  86 001e 17EE900A 		vmov	r0, s15	@ int
  87              	.LVL2:
  88              	.LBB41:
  89              	.LBB42:
  90              		.file 4 "../inc/utils/float_math.h"
  91              		.loc 4 826 0
  92 0022 06EE900A 		vmov	s13, r0	@ int
  93 0026 F8EE666A 		vcvt.f32.u32	s13, s13
  94              	.LBE42:
  95              	.LBE41:
  96              		.loc 2 236 0
  97 002a 01EB8005 		add	r5, r1, r0, lsl #2
  98 002e D5ED007A 		vldr.32	s15, [r5]
  99              	.LBE51:
 100              	.LBE67:
 101              	.LBB68:
 102              	.LBB58:
 103              		.loc 3 356 0
 104 0032 9A61     		str	r2, [r3, #24]	@ float
 105              	.LBE58:
 106              	.LBE68:
 107              	.LBB69:
 108              	.LBB52:
 109              	.LBB46:
 110              	.LBB43:
 111              		.loc 4 826 0
 112 0034 37EE667A 		vsub.f32	s14, s14, s13
 113 0038 D5ED016A 		vldr.32	s13, [r5, #4]
 114              	.LBE43:
ARM GAS  C:\msys64\tmp\ccFZw6Or.s 			page 3


 115              	.LBE46:
 116              	.LBE52:
 117              	.LBE69:
 118              	.LBB70:
 119              	.LBB59:
 120              		.loc 3 356 0
 121 003c 5A61     		str	r2, [r3, #20]	@ float
 122              	.LVL3:
 123              	.LBE59:
 124              	.LBE70:
 125              	.LBB71:
 126              	.LBB53:
 127              	.LBB47:
 128              	.LBB44:
 129              		.loc 4 826 0
 130 003e 76EEE76A 		vsub.f32	s13, s13, s15
 131              	.LBE44:
 132              	.LBE47:
 133              	.LBE53:
 134              	.LBE71:
 135              		.loc 1 20 0
 136 0042 03F11C05 		add	r5, r3, #28
 137              	.LBB72:
 138              	.LBB54:
 139              	.LBB48:
 140              	.LBB45:
 141              		.loc 4 826 0
 142 0046 E7EE267A 		vfma.f32	s15, s14, s13
 143              	.LVL4:
 144              	.LBE45:
 145              	.LBE48:
 146              	.LBE54:
 147              	.LBE72:
 148              	.LBB73:
 149              	.LBB74:
 150              		.loc 3 356 0
 151 004a 5A63     		str	r2, [r3, #52]	@ float
 152 004c 1A63     		str	r2, [r3, #48]	@ float
 153              	.LBE74:
 154              	.LBE73:
 155              		.loc 1 18 0
 156 004e D4ED016A 		vldr.32	s13, [r4, #4]
 157              	.LVL5:
 158              	.LBB75:
 159              	.LBB63:
 160              		.loc 3 235 0
 161 0052 66EEA75A 		vmul.f32	s11, s13, s15
 162              	.LVL6:
 163              		.loc 3 236 0
 164 0056 B0EE677A 		vmov.f32	s14, s15
 165 005a A5EEA77A 		vfma.f32	s14, s11, s15
 166              	.LBE63:
 167              	.LBE75:
 168              		.loc 1 20 0
 169 005e 1C46     		mov	r4, r3
 170              	.LBB76:
 171              	.LBB64:
ARM GAS  C:\msys64\tmp\ccFZw6Or.s 			page 4


 172              		.loc 3 236 0
 173 0060 37EE267A 		vadd.f32	s14, s14, s13
 174 0064 85EE076A 		vdiv.f32	s12, s10, s14
 175              	.LVL7:
 176              		.loc 3 238 0
 177 0068 B8EE005A 		vmov.f32	s10, #-2.0e+0
 178              		.loc 3 237 0
 179 006c 26EE867A 		vmul.f32	s14, s13, s12
 180 0070 83ED027A 		vstr.32	s14, [r3, #8]
 181 0074 83ED007A 		vstr.32	s14, [r3]
 182              		.loc 3 238 0
 183 0078 27EE057A 		vmul.f32	s14, s14, s10
 184 007c 83ED017A 		vstr.32	s14, [r3, #4]
 185              		.loc 3 239 0
 186 0080 B0EE667A 		vmov.f32	s14, s13
 187 0084 95EEA77A 		vfnms.f32	s14, s11, s15
 188              		.loc 3 240 0
 189 0088 D5EEA77A 		vfnms.f32	s15, s11, s15
 190              	.LVL8:
 191              		.loc 3 239 0
 192 008c 27EE067A 		vmul.f32	s14, s14, s12
 193              		.loc 3 240 0
 194 0090 77EEA67A 		vadd.f32	s15, s15, s13
 195              		.loc 3 239 0
 196 0094 37EE077A 		vadd.f32	s14, s14, s14
 197              		.loc 3 240 0
 198 0098 67EE867A 		vmul.f32	s15, s15, s12
 199              		.loc 3 239 0
 200 009c 83ED037A 		vstr.32	s14, [r3, #12]
 201              		.loc 3 240 0
 202 00a0 C3ED047A 		vstr.32	s15, [r3, #16]
 203              	.LVL9:
 204              	.LBE64:
 205              	.LBE76:
 206              		.loc 1 20 0
 207 00a4 0FCC     		ldmia	r4!, {r0, r1, r2, r3}
 208 00a6 0FC5     		stmia	r5!, {r0, r1, r2, r3}
 209 00a8 2368     		ldr	r3, [r4]
 210 00aa 2B60     		str	r3, [r5]
 211 00ac 30BD     		pop	{r4, r5, pc}
 212              	.L3:
 213 00ae 00BF     		.align	2
 214              	.L2:
 215 00b0 00000000 		.word	.LANCHOR1
 216 00b4 BC9C0244 		.word	1141021884
 217 00b8 00000000 		.word	tanpi_lut_f
 218 00bc 00000000 		.word	.LANCHOR0
 219              		.cfi_endproc
 220              	.LFE298:
 221              		.size	_hook_init, .-_hook_init
 222              		.align	1
 223              		.global	_Z8absolutef
 224              		.thumb
 225              		.thumb_func
 226              		.type	_Z8absolutef, %function
 227              	_Z8absolutef:
 228              	.LFB299:
ARM GAS  C:\msys64\tmp\ccFZw6Or.s 			page 5


 229              		.loc 1 24 0
 230              		.cfi_startproc
 231              		@ args = 0, pretend = 0, frame = 0
 232              		@ frame_needed = 0, uses_anonymous_args = 0
 233              		@ link register save eliminated.
 234              	.LVL10:
 235              		.loc 1 25 0
 236 00c0 B5EEC00A 		vcmpe.f32	s0, #0
 237 00c4 F1EE10FA 		vmrs	APSR_nzcv, FPSCR
 238              		.loc 1 26 0
 239 00c8 48BF     		it	mi
 240 00ca B1EE400A 		vnegmi.f32	s0, s0
 241              	.LVL11:
 242              		.loc 1 28 0
 243 00ce 7047     		bx	lr
 244              		.cfi_endproc
 245              	.LFE299:
 246              		.size	_Z8absolutef, .-_Z8absolutef
 247              		.align	1
 248              		.global	_hook_process
 249              		.thumb
 250              		.thumb_func
 251              		.type	_hook_process, %function
 252              	_hook_process:
 253              	.LFB300:
 254              		.loc 1 33 0
 255              		.cfi_startproc
 256              		@ args = 4, pretend = 0, frame = 0
 257              		@ frame_needed = 0, uses_anonymous_args = 0
 258              	.LVL12:
 259 00d0 2DE9F041 		push	{r4, r5, r6, r7, r8, lr}
 260              		.cfi_def_cfa_offset 24
 261              		.cfi_offset 4, -24
 262              		.cfi_offset 5, -20
 263              		.cfi_offset 6, -16
 264              		.cfi_offset 7, -12
 265              		.cfi_offset 8, -8
 266              		.cfi_offset 14, -4
 267              	.LBB77:
 268              		.loc 1 39 0
 269 00d4 3B4F     		ldr	r7, .L15
 270              	.LBB78:
 271              	.LBB79:
 272              		.loc 3 237 0
 273 00d6 3C4C     		ldr	r4, .L15+4
 274 00d8 8446     		mov	ip, r0
 275 00da 8E46     		mov	lr, r1
 276              	.LBE79:
 277              	.LBE78:
 278              		.loc 1 34 0
 279 00dc 4FF00008 		mov	r8, #0
 280              	.LBB88:
 281              	.LBB80:
 282              		.loc 3 236 0
 283 00e0 F7EE002A 		vmov.f32	s5, #1.0e+0
 284              		.loc 3 238 0
 285 00e4 B8EE003A 		vmov.f32	s6, #-2.0e+0
ARM GAS  C:\msys64\tmp\ccFZw6Or.s 			page 6


 286              	.LVL13:
 287              	.L12:
 288              	.LBE80:
 289              	.LBE88:
 290              		.loc 1 34 0 discriminator 3
 291 00e8 069B     		ldr	r3, [sp, #24]
 292 00ea 9845     		cmp	r8, r3
 293 00ec 0CF1080C 		add	ip, ip, #8
 294              	.LVL14:
 295 00f0 0EF1080E 		add	lr, lr, #8
 296 00f4 64D0     		beq	.L10
 297              	.LVL15:
 298              		.loc 1 39 0 discriminator 2
 299 00f6 97ED016A 		vldr.32	s12, [r7, #4]
 300 00fa D7ED007A 		vldr.32	s15, [r7]
 301              		.loc 1 36 0 discriminator 2
 302 00fe 1CED025A 		vldr.32	s10, [ip, #-8]
 303              	.LVL16:
 304              		.loc 1 37 0 discriminator 2
 305 0102 5CED014A 		vldr.32	s9, [ip, #-4]
 306              		.loc 1 40 0 discriminator 2
 307 0106 314D     		ldr	r5, .L15+8
 308              	.LBB89:
 309              	.LBB81:
 310              		.loc 3 235 0 discriminator 2
 311 0108 67EE863A 		vmul.f32	s7, s15, s12
 312              	.LVL17:
 313              		.loc 3 236 0 discriminator 2
 314 010c B0EE677A 		vmov.f32	s14, s15
 315 0110 A7EEA37A 		vfma.f32	s14, s15, s7
 316              	.LBE81:
 317              	.LBE89:
 318              		.loc 1 40 0 discriminator 2
 319 0114 A5F11C06 		sub	r6, r5, #28
 320              		.loc 1 34 0 discriminator 2
 321 0118 08F10108 		add	r8, r8, #1
 322              	.LVL18:
 323              	.LBB90:
 324              	.LBB82:
 325              		.loc 3 236 0 discriminator 2
 326 011c 37EE067A 		vadd.f32	s14, s14, s12
 327 0120 C2EE875A 		vdiv.f32	s11, s5, s14
 328              	.LVL19:
 329              		.loc 3 239 0 discriminator 2
 330 0124 B0EE467A 		vmov.f32	s14, s12
 331 0128 97EEA37A 		vfnms.f32	s14, s15, s7
 332              		.loc 3 240 0 discriminator 2
 333 012c D7EEA37A 		vfnms.f32	s15, s15, s7
 334              	.LVL20:
 335              		.loc 3 237 0 discriminator 2
 336 0130 66EE256A 		vmul.f32	s13, s12, s11
 337              		.loc 3 240 0 discriminator 2
 338 0134 77EE867A 		vadd.f32	s15, s15, s12
 339              		.loc 3 238 0 discriminator 2
 340 0138 26EE834A 		vmul.f32	s8, s13, s6
 341              		.loc 3 240 0 discriminator 2
 342 013c 67EEA57A 		vmul.f32	s15, s15, s11
ARM GAS  C:\msys64\tmp\ccFZw6Or.s 			page 7


 343              	.LBE82:
 344              	.LBE90:
 345              	.LBB91:
 346              	.LBB92:
 347              		.loc 3 368 0 discriminator 2
 348 0140 94ED056A 		vldr.32	s12, [r4, #20]
 349              	.LVL21:
 350              	.LBE92:
 351              	.LBE91:
 352              	.LBB99:
 353              	.LBB83:
 354              		.loc 3 240 0 discriminator 2
 355 0144 C4ED047A 		vstr.32	s15, [r4, #16]
 356              	.LVL22:
 357              		.loc 3 239 0 discriminator 2
 358 0148 27EE257A 		vmul.f32	s14, s14, s11
 359              	.LBE83:
 360              	.LBE99:
 361              	.LBB100:
 362              	.LBB93:
 363              		.loc 3 371 0 discriminator 2
 364 014c D4ED065A 		vldr.32	s11, [r4, #24]
 365              	.LBE93:
 366              	.LBE100:
 367              	.LBB101:
 368              	.LBB84:
 369              		.loc 3 237 0 discriminator 2
 370 0150 C4ED026A 		vstr.32	s13, [r4, #8]
 371              	.LBE84:
 372              	.LBE101:
 373              	.LBB102:
 374              	.LBB94:
 375              		.loc 3 368 0 discriminator 2
 376 0154 A5EE266A 		vfma.f32	s12, s10, s13
 377              		.loc 3 371 0 discriminator 2
 378 0158 E5EE045A 		vfma.f32	s11, s10, s8
 379              	.LBE94:
 380              	.LBE102:
 381              	.LBB103:
 382              	.LBB85:
 383              		.loc 3 239 0 discriminator 2
 384 015c 37EE077A 		vadd.f32	s14, s14, s14
 385              		.loc 3 237 0 discriminator 2
 386 0160 C4ED006A 		vstr.32	s13, [r4]
 387              	.LBE85:
 388              	.LBE103:
 389              	.LBB104:
 390              	.LBB95:
 391              		.loc 3 371 0 discriminator 2
 392 0164 E6EE475A 		vfms.f32	s11, s12, s14
 393              	.LBE95:
 394              	.LBE104:
 395              	.LBB105:
 396              	.LBB86:
 397              		.loc 3 238 0 discriminator 2
 398 0168 84ED014A 		vstr.32	s8, [r4, #4]
 399              	.LBE86:
ARM GAS  C:\msys64\tmp\ccFZw6Or.s 			page 8


 400              	.LBE105:
 401              	.LBB106:
 402              	.LBB96:
 403              		.loc 3 371 0 discriminator 2
 404 016c C4ED055A 		vstr.32	s11, [r4, #20]
 405              		.loc 3 372 0 discriminator 2
 406 0170 67EEC65A 		vnmul.f32	s11, s15, s12
 407              	.LBE96:
 408              	.LBE106:
 409              	.LBB107:
 410              	.LBB87:
 411              		.loc 3 239 0 discriminator 2
 412 0174 84ED037A 		vstr.32	s14, [r4, #12]
 413              	.LBE87:
 414              	.LBE107:
 415              	.LBB108:
 416              	.LBB97:
 417              		.loc 3 372 0 discriminator 2
 418 0178 E5EE265A 		vfma.f32	s11, s10, s13
 419              	.LBE97:
 420              	.LBE108:
 421              		.loc 1 40 0 discriminator 2
 422 017c 0FCE     		ldmia	r6!, {r0, r1, r2, r3}
 423              	.LBB109:
 424              	.LBB98:
 425              		.loc 3 372 0 discriminator 2
 426 017e C4ED065A 		vstr.32	s11, [r4, #24]
 427              	.LBE98:
 428              	.LBE109:
 429              	.LBB110:
 430              	.LBB111:
 431              		.loc 3 368 0 discriminator 2
 432 0182 D4ED0C5A 		vldr.32	s11, [r4, #48]
 433              		.loc 3 371 0 discriminator 2
 434 0186 94ED0D5A 		vldr.32	s10, [r4, #52]
 435              	.LBE111:
 436              	.LBE110:
 437              		.loc 1 42 0 discriminator 2
 438 018a 84ED0E6A 		vstr.32	s12, [r4, #56]
 439              	.LBB116:
 440              	.LBB112:
 441              		.loc 3 368 0 discriminator 2
 442 018e E4EEA65A 		vfma.f32	s11, s9, s13
 443              	.LBE112:
 444              	.LBE116:
 445              		.loc 1 40 0 discriminator 2
 446 0192 0FC5     		stmia	r5!, {r0, r1, r2, r3}
 447              	.LBB117:
 448              	.LBB113:
 449              		.loc 3 371 0 discriminator 2
 450 0194 A4EE845A 		vfma.f32	s10, s9, s8
 451              	.LBE113:
 452              	.LBE117:
 453              		.loc 1 40 0 discriminator 2
 454 0198 3368     		ldr	r3, [r6]
 455 019a 2B60     		str	r3, [r5]
 456              	.LVL23:
ARM GAS  C:\msys64\tmp\ccFZw6Or.s 			page 9


 457              	.LBB118:
 458              	.LBB114:
 459              		.loc 3 372 0 discriminator 2
 460 019c 67EEE57A 		vnmul.f32	s15, s15, s11
 461              		.loc 3 371 0 discriminator 2
 462 01a0 A5EEC75A 		vfms.f32	s10, s11, s14
 463              		.loc 3 372 0 discriminator 2
 464 01a4 E4EEA67A 		vfma.f32	s15, s9, s13
 465              	.LBE114:
 466              	.LBE118:
 467              		.loc 1 43 0 discriminator 2
 468 01a8 C4ED0F5A 		vstr.32	s11, [r4, #60]
 469              	.LBB119:
 470              	.LBB115:
 471              		.loc 3 371 0 discriminator 2
 472 01ac 84ED0C5A 		vstr.32	s10, [r4, #48]
 473              		.loc 3 372 0 discriminator 2
 474 01b0 C4ED0D7A 		vstr.32	s15, [r4, #52]
 475              	.LVL24:
 476              	.LBE115:
 477              	.LBE119:
 478              		.loc 1 45 0 discriminator 2
 479 01b4 0EED026A 		vstr.32	s12, [lr, #-8]
 480              	.LVL25:
 481              		.loc 1 46 0 discriminator 2
 482 01b8 E36B     		ldr	r3, [r4, #60]	@ float
 483 01ba 4EF8043C 		str	r3, [lr, #-4]	@ float
 484              		.loc 1 34 0 discriminator 2
 485 01be 93E7     		b	.L12
 486              	.LVL26:
 487              	.L10:
 488 01c0 BDE8F081 		pop	{r4, r5, r6, r7, r8, pc}
 489              	.LVL27:
 490              	.L16:
 491              		.align	2
 492              	.L15:
 493 01c4 00000000 		.word	.LANCHOR1
 494 01c8 00000000 		.word	.LANCHOR0
 495 01cc 1C000000 		.word	.LANCHOR0+28
 496              	.LBE77:
 497              		.cfi_endproc
 498              	.LFE300:
 499              		.size	_hook_process, .-_hook_process
 500              		.align	1
 501              		.global	_hook_param
 502              		.thumb
 503              		.thumb_func
 504              		.type	_hook_param, %function
 505              	_hook_param:
 506              	.LFB302:
 507              		.loc 1 57 0
 508              		.cfi_startproc
 509              		@ args = 0, pretend = 0, frame = 0
 510              		@ frame_needed = 0, uses_anonymous_args = 0
 511              		@ link register save eliminated.
 512              	.LVL28:
 513              		.loc 1 57 0
ARM GAS  C:\msys64\tmp\ccFZw6Or.s 			page 10


 514 01d0 07EE901A 		vmov	s15, r1	@ int
 515              	.LVL29:
 516              		.loc 1 61 0
 517 01d4 10BB     		cbnz	r0, .L17
 518              	.LBB120:
 519              	.LBB121:
 520              	.LBB122:
 521              	.LBB123:
 522              	.LBB124:
 523              		.loc 4 193 0
 524 01d6 9FED127A 		vldr.32	s14, .L24
 525              	.LBE124:
 526              	.LBE123:
 527              	.LBE122:
 528              	.LBE121:
 529              	.LBE120:
 530              		.loc 1 67 0
 531 01da 124B     		ldr	r3, .L24+4
 532              		.loc 1 58 0
 533 01dc FAEEE07A 		vcvt.f32.s32	s15, s15, #31
 534              	.LVL30:
 535              	.LBB131:
 536              	.LBB130:
 537              	.LBB129:
 538              	.LBB126:
 539              	.LBB125:
 540              		.loc 4 193 0
 541 01e0 77EEC76A 		vsub.f32	s13, s15, s14
 542              	.LVL31:
 543 01e4 F5EEC06A 		vcmpe.f32	s13, #0
 544 01e8 F1EE10FA 		vmrs	APSR_nzcv, FPSCR
 545 01ec B8BF     		it	lt
 546 01ee F0EE477A 		vmovlt.f32	s15, s14
 547              	.LVL32:
 548              	.LBE125:
 549              	.LBE126:
 550              	.LBB127:
 551              	.LBB128:
 552 01f2 B7EE007A 		vmov.f32	s14, #1.0e+0
 553 01f6 77EEC76A 		vsub.f32	s13, s15, s14
 554              	.LVL33:
 555 01fa F5EE406A 		vcmp.f32	s13, #0
 556 01fe F1EE10FA 		vmrs	APSR_nzcv, FPSCR
 557 0202 A8BF     		it	ge
 558 0204 F0EE477A 		vmovge.f32	s15, s14
 559              	.LVL34:
 560              	.LBE128:
 561              	.LBE127:
 562              	.LBE129:
 563              	.LBE130:
 564              	.LBE131:
 565              		.loc 1 67 0
 566 0208 9FED077A 		vldr.32	s14, .L24+8
 567 020c 67EE877A 		vmul.f32	s15, s15, s14
 568 0210 9FED067A 		vldr.32	s14, .L24+12
 569 0214 67EE877A 		vmul.f32	s15, s15, s14
 570 0218 C3ED007A 		vstr.32	s15, [r3]
ARM GAS  C:\msys64\tmp\ccFZw6Or.s 			page 11


 571              	.L17:
 572 021c 7047     		bx	lr
 573              	.L25:
 574 021e 00BF     		.align	2
 575              	.L24:
 576 0220 2973DA39 		.word	970617641
 577 0224 00000000 		.word	.LANCHOR1
 578 0228 00409C46 		.word	1184645120
 579 022c 3EC3AE37 		.word	934200126
 580              		.cfi_endproc
 581              	.LFE302:
 582              		.size	_hook_param, .-_hook_param
 583              		.section	.text.startup,"ax",%progbits
 584              		.align	1
 585              		.thumb
 586              		.thumb_func
 587              		.type	_GLOBAL__sub_I_curSampleL, %function
 588              	_GLOBAL__sub_I_curSampleL:
 589              	.LFB304:
 590              		.loc 1 77 0
 591              		.cfi_startproc
 592              		@ args = 0, pretend = 0, frame = 0
 593              		@ frame_needed = 0, uses_anonymous_args = 0
 594              		@ link register save eliminated.
 595              	.LVL35:
 596              	.LBB146:
 597              	.LBB147:
 598              	.LBB148:
 599              	.LBB149:
 600              	.LBB150:
 601              	.LBB151:
 602              		.loc 3 77 0
 603 0000 0C4B     		ldr	r3, .L27
 604 0002 0022     		movs	r2, #0
 605 0004 1A60     		str	r2, [r3]	@ float
 606 0006 5A60     		str	r2, [r3, #4]	@ float
 607 0008 9A60     		str	r2, [r3, #8]	@ float
 608 000a DA60     		str	r2, [r3, #12]	@ float
 609 000c 1A61     		str	r2, [r3, #16]	@ float
 610              	.LVL36:
 611              	.LBE151:
 612              	.LBE150:
 613              		.loc 3 344 0
 614 000e 5A61     		str	r2, [r3, #20]	@ float
 615 0010 9A61     		str	r2, [r3, #24]	@ float
 616              	.LVL37:
 617              	.LBE149:
 618              	.LBE148:
 619              	.LBB152:
 620              	.LBB153:
 621              	.LBB154:
 622              	.LBB155:
 623              		.loc 3 77 0
 624 0012 DA61     		str	r2, [r3, #28]	@ float
 625 0014 1A62     		str	r2, [r3, #32]	@ float
 626 0016 5A62     		str	r2, [r3, #36]	@ float
 627 0018 9A62     		str	r2, [r3, #40]	@ float
ARM GAS  C:\msys64\tmp\ccFZw6Or.s 			page 12


 628 001a DA62     		str	r2, [r3, #44]	@ float
 629              	.LVL38:
 630              	.LBE155:
 631              	.LBE154:
 632              		.loc 3 344 0
 633 001c 1A63     		str	r2, [r3, #48]	@ float
 634 001e 5A63     		str	r2, [r3, #52]	@ float
 635              	.LVL39:
 636              	.LBE153:
 637              	.LBE152:
 638              		.loc 1 13 0
 639 0020 054A     		ldr	r2, .L27+4
 640 0022 92ED027A 		vldr.32	s14, [r2, #8]
 641 0026 F7EE007A 		vmov.f32	s15, #1.0e+0
 642 002a 77EEC77A 		vsub.f32	s15, s15, s14
 643 002e C3ED107A 		vstr.32	s15, [r3, #64]
 644              	.LVL40:
 645 0032 7047     		bx	lr
 646              	.L28:
 647              		.align	2
 648              	.L27:
 649 0034 00000000 		.word	.LANCHOR0
 650 0038 00000000 		.word	.LANCHOR1
 651              	.LBE147:
 652              	.LBE146:
 653              		.cfi_endproc
 654              	.LFE304:
 655              		.size	_GLOBAL__sub_I_curSampleL, .-_GLOBAL__sub_I_curSampleL
 656              		.section	.init_array,"aw",%init_array
 657              		.align	2
 658 0000 00000000 		.word	_GLOBAL__sub_I_curSampleL(target1)
 659              		.global	b
 660              		.global	a
 661              		.global	z
 662              		.global	cutoff
 663              		.global	resonance
 664              		.global	curSampleR
 665              		.global	curSampleL
 666              		.data
 667              		.align	2
 668              		.set	.LANCHOR1,. + 0
 669              		.type	cutoff, %object
 670              		.size	cutoff, 4
 671              	cutoff:
 672 0000 48E1FA3E 		.word	1056629064
 673              		.type	resonance, %object
 674              		.size	resonance, 4
 675              	resonance:
 676 0004 F4FDB43F 		.word	1068826100
 677              		.type	a, %object
 678              		.size	a, 4
 679              	a:
 680 0008 CDCC4C3D 		.word	1028443341
 681              		.bss
 682              		.align	2
 683              		.set	.LANCHOR0,. + 0
 684              		.type	_ZL8filter_l, %object
ARM GAS  C:\msys64\tmp\ccFZw6Or.s 			page 13


 685              		.size	_ZL8filter_l, 28
 686              	_ZL8filter_l:
 687 0000 00000000 		.space	28
 687      00000000 
 687      00000000 
 687      00000000 
 687      00000000 
 688              		.type	_ZL8filter_r, %object
 689              		.size	_ZL8filter_r, 28
 690              	_ZL8filter_r:
 691 001c 00000000 		.space	28
 691      00000000 
 691      00000000 
 691      00000000 
 691      00000000 
 692              		.type	curSampleL, %object
 693              		.size	curSampleL, 4
 694              	curSampleL:
 695 0038 00000000 		.space	4
 696              		.type	curSampleR, %object
 697              		.size	curSampleR, 4
 698              	curSampleR:
 699 003c 00000000 		.space	4
 700              		.type	b, %object
 701              		.size	b, 4
 702              	b:
 703 0040 00000000 		.space	4
 704              		.type	z, %object
 705              		.size	z, 4
 706              	z:
 707 0044 00000000 		.space	4
 708              		.text
 709              	.Letext0:
 710              		.file 5 "c:\\users\\bradl\\desktop\\code projects\\korgfx\\korgdelayfxset\\delays\\tools\\gcc\\gcc
 711              		.file 6 "c:\\users\\bradl\\desktop\\code projects\\korgfx\\korgdelayfxset\\delays\\tools\\gcc\\gcc
 712              		.file 7 "./inc/osc_api.h"
 713              		.file 8 "./inc/userprg.h"