ARM GAS  C:\msys64\tmp\cc3JKUlV.s 			page 1


   1              		.syntax unified
   2              		.cpu cortex-m4
   3              		.eabi_attribute 27, 1
   4              		.eabi_attribute 28, 1
   5              		.fpu fpv4-sp-d16
   6              		.eabi_attribute 20, 1
   7              		.eabi_attribute 21, 1
   8              		.eabi_attribute 23, 3
   9              		.eabi_attribute 24, 1
  10              		.eabi_attribute 25, 1
  11              		.eabi_attribute 26, 1
  12              		.eabi_attribute 30, 4
  13              		.eabi_attribute 34, 1
  14              		.eabi_attribute 18, 4
  15              		.thumb
  16              		.syntax unified
  17              		.file	"waveshaper.cpp"
  18              		.text
  19              	.Ltext0:
  20              		.cfi_sections	.debug_frame
  21              		.align	1
  22              		.global	_hook_init
  23              		.thumb
  24              		.thumb_func
  25              		.type	_hook_init, %function
  26              	_hook_init:
  27              	.LFB229:
  28              		.file 1 "./src/waveshaper.cpp"
  29              		.loc 1 20 0
  30              		.cfi_startproc
  31              		@ args = 0, pretend = 0, frame = 0
  32              		@ frame_needed = 0, uses_anonymous_args = 0
  33              		@ link register save eliminated.
  34              	.LVL0:
  35 0000 7047     		bx	lr
  36              		.cfi_endproc
  37              	.LFE229:
  38              		.size	_hook_init, .-_hook_init
  39              		.align	1
  40              		.global	_hook_process
  41              		.thumb
  42              		.thumb_func
  43              		.type	_hook_process, %function
  44              	_hook_process:
  45              	.LFB230:
  46              		.loc 1 28 0
  47              		.cfi_startproc
  48              		@ args = 4, pretend = 0, frame = 0
  49              		@ frame_needed = 0, uses_anonymous_args = 0
  50              		@ link register save eliminated.
  51              	.LVL1:
  52              	.LBB6:
  53              	.LBB7:
  54              		.loc 1 40 0
  55 0002 154B     		ldr	r3, .L7
  56              	.LVL2:
  57 0004 93ED004A 		vldr.32	s8, [r3]
ARM GAS  C:\msys64\tmp\cc3JKUlV.s 			page 2


  58 0008 D3ED015A 		vldr.32	s11, [r3, #4]
  59 000c 009B     		ldr	r3, [sp]
  60              		.loc 1 41 0
  61 000e F2EE044A 		vmov.f32	s9, #1.0e+1
  62 0012 5A00     		lsls	r2, r3, #1
  63              	.LVL3:
  64 0014 B7EE005A 		vmov.f32	s10, #1.0e+0
  65              	.LBE7:
  66              		.loc 1 34 0
  67 0018 0023     		movs	r3, #0
  68              	.LBB8:
  69              		.loc 1 42 0
  70 001a B6EE006A 		vmov.f32	s12, #5.0e-1
  71 001e F7EE086A 		vmov.f32	s13, #1.5e+0
  72              	.LVL4:
  73              	.L4:
  74              	.LBE8:
  75              		.loc 1 34 0 discriminator 3
  76 0022 9342     		cmp	r3, r2
  77 0024 17D0     		beq	.L2
  78              	.LBB9:
  79              		.loc 1 41 0 discriminator 2
  80 0026 B0EE457A 		vmov.f32	s14, s10
  81 002a A4EE247A 		vfma.f32	s14, s8, s9
  82              	.LBE9:
  83              		.loc 1 34 0 discriminator 2
  84 002e 0133     		adds	r3, r3, #1
  85              	.LVL5:
  86              	.LBB10:
  87              		.loc 1 36 0 discriminator 2
  88 0030 F0EC017A 		vldmia.32	r0!, {s15}
  89              	.LVL6:
  90              		.loc 1 41 0 discriminator 2
  91 0034 F0EE673A 		vmov.f32	s7, s15
  92 0038 D7EE873A 		vfnms.f32	s7, s15, s14
  93 003c E3EEA57A 		vfma.f32	s15, s7, s11
  94              	.LVL7:
  95              		.loc 1 42 0 discriminator 2
  96 0040 27EEA77A 		vmul.f32	s14, s15, s15
  97 0044 27EE277A 		vmul.f32	s14, s14, s15
  98 0048 26EE477A 		vnmul.f32	s14, s12, s14
  99 004c A7EEA67A 		vfma.f32	s14, s15, s13
 100 0050 A1EC017A 		vstmia.32	r1!, {s14}
 101              	.LVL8:
 102              	.LBE10:
 103              		.loc 1 34 0 discriminator 2
 104 0054 E5E7     		b	.L4
 105              	.LVL9:
 106              	.L2:
 107 0056 7047     		bx	lr
 108              	.L8:
 109              		.align	2
 110              	.L7:
 111 0058 00000000 		.word	.LANCHOR0
 112              	.LBE6:
 113              		.cfi_endproc
 114              	.LFE230:
ARM GAS  C:\msys64\tmp\cc3JKUlV.s 			page 3


 115              		.size	_hook_process, .-_hook_process
 116              		.align	1
 117              		.global	_hook_param
 118              		.thumb
 119              		.thumb_func
 120              		.type	_hook_param, %function
 121              	_hook_param:
 122              	.LFB231:
 123              		.loc 1 48 0
 124              		.cfi_startproc
 125              		@ args = 0, pretend = 0, frame = 0
 126              		@ frame_needed = 0, uses_anonymous_args = 0
 127              		@ link register save eliminated.
 128              	.LVL10:
 129              		.loc 1 50 0
 130 005c 07EE901A 		vmov	s15, r1	@ int
 131 0060 FAEEE07A 		vcvt.f32.s32	s15, s15, #31
 132              	.LVL11:
 133              		.loc 1 51 0
 134 0064 10B1     		cbz	r0, .L11
 135 0066 0128     		cmp	r0, #1
 136 0068 04D0     		beq	.L12
 137 006a 7047     		bx	lr
 138              	.L11:
 139              		.loc 1 54 0
 140 006c 034B     		ldr	r3, .L13
 141 006e C3ED007A 		vstr.32	s15, [r3]
 142              		.loc 1 55 0
 143 0072 7047     		bx	lr
 144              	.L12:
 145              		.loc 1 57 0
 146 0074 014B     		ldr	r3, .L13
 147 0076 C3ED017A 		vstr.32	s15, [r3, #4]
 148 007a 7047     		bx	lr
 149              	.L14:
 150              		.align	2
 151              	.L13:
 152 007c 00000000 		.word	.LANCHOR0
 153              		.cfi_endproc
 154              	.LFE231:
 155              		.size	_hook_param, .-_hook_param
 156              		.data
 157              		.align	2
 158              		.set	.LANCHOR0,. + 0
 159              		.type	_ZL7distamt, %object
 160              		.size	_ZL7distamt, 4
 161              	_ZL7distamt:
 162 0000 0000003F 		.word	1056964608
 163              		.type	_ZL3wet, %object
 164              		.size	_ZL3wet, 4
 165              	_ZL3wet:
 166 0004 0000003F 		.word	1056964608
 167              		.text
 168              	.Letext0:
 169              		.file 2 "c:\\users\\bradl\\desktop\\code projects\\korgfx\\korgdelayfxset\\delays\\tools\\gcc\\gcc
 170              		.file 3 "c:\\users\\bradl\\desktop\\code projects\\korgfx\\korgdelayfxset\\delays\\tools\\gcc\\gcc
 171              		.file 4 "./inc/fx_api.h"
ARM GAS  C:\msys64\tmp\cc3JKUlV.s 			page 4


 172              		.file 5 "./inc/userprg.h"